ARM GAS  /tmp/ccIpdX1g.s 			page 1


   1              		.cpu cortex-m4
   2              		.arch armv7e-m
   3              		.fpu fpv4-sp-d16
   4              		.eabi_attribute 27, 1
   5              		.eabi_attribute 28, 1
   6              		.eabi_attribute 20, 1
   7              		.eabi_attribute 21, 1
   8              		.eabi_attribute 23, 3
   9              		.eabi_attribute 24, 1
  10              		.eabi_attribute 25, 1
  11              		.eabi_attribute 26, 1
  12              		.eabi_attribute 30, 6
  13              		.eabi_attribute 34, 1
  14              		.eabi_attribute 18, 4
  15              		.file	"stm32f4xx_hal_uart.c"
  16              		.text
  17              	.Ltext0:
  18              		.cfi_sections	.debug_frame
  19              		.file 1 "Drivers/STM32F4xx_HAL_Driver/Src/stm32f4xx_hal_uart.c"
  20              		.section	.text.HAL_UART_Init,"ax",%progbits
  21              		.align	1
  22              		.global	HAL_UART_Init
  23              		.syntax unified
  24              		.thumb
  25              		.thumb_func
  27              	HAL_UART_Init:
  28              	.LFB216:
   1:Drivers/STM32F4xx_HAL_Driver/Src/stm32f4xx_hal_uart.c **** /**
   2:Drivers/STM32F4xx_HAL_Driver/Src/stm32f4xx_hal_uart.c ****   ******************************************************************************
   3:Drivers/STM32F4xx_HAL_Driver/Src/stm32f4xx_hal_uart.c ****   * @file    stm32f4xx_hal_uart.c
   4:Drivers/STM32F4xx_HAL_Driver/Src/stm32f4xx_hal_uart.c ****   * @author  MCD Application Team
   5:Drivers/STM32F4xx_HAL_Driver/Src/stm32f4xx_hal_uart.c ****   * @brief   UART HAL module driver.
   6:Drivers/STM32F4xx_HAL_Driver/Src/stm32f4xx_hal_uart.c ****   *          This file provides firmware functions to manage the following
   7:Drivers/STM32F4xx_HAL_Driver/Src/stm32f4xx_hal_uart.c ****   *          functionalities of the Universal Asynchronous Receiver Transmitter Peripheral (UART).
   8:Drivers/STM32F4xx_HAL_Driver/Src/stm32f4xx_hal_uart.c ****   *           + Initialization and de-initialization functions
   9:Drivers/STM32F4xx_HAL_Driver/Src/stm32f4xx_hal_uart.c ****   *           + IO operation functions
  10:Drivers/STM32F4xx_HAL_Driver/Src/stm32f4xx_hal_uart.c ****   *           + Peripheral Control functions
  11:Drivers/STM32F4xx_HAL_Driver/Src/stm32f4xx_hal_uart.c ****   *           + Peripheral State and Errors functions
  12:Drivers/STM32F4xx_HAL_Driver/Src/stm32f4xx_hal_uart.c ****   *
  13:Drivers/STM32F4xx_HAL_Driver/Src/stm32f4xx_hal_uart.c ****   ******************************************************************************
  14:Drivers/STM32F4xx_HAL_Driver/Src/stm32f4xx_hal_uart.c ****   * @attention
  15:Drivers/STM32F4xx_HAL_Driver/Src/stm32f4xx_hal_uart.c ****   *
  16:Drivers/STM32F4xx_HAL_Driver/Src/stm32f4xx_hal_uart.c ****   * Copyright (c) 2016 STMicroelectronics.
  17:Drivers/STM32F4xx_HAL_Driver/Src/stm32f4xx_hal_uart.c ****   * All rights reserved.
  18:Drivers/STM32F4xx_HAL_Driver/Src/stm32f4xx_hal_uart.c ****   *
  19:Drivers/STM32F4xx_HAL_Driver/Src/stm32f4xx_hal_uart.c ****   * This software is licensed under terms that can be found in the LICENSE file
  20:Drivers/STM32F4xx_HAL_Driver/Src/stm32f4xx_hal_uart.c ****   * in the root directory of this software component.
  21:Drivers/STM32F4xx_HAL_Driver/Src/stm32f4xx_hal_uart.c ****   * If no LICENSE file comes with this software, it is provided AS-IS.
  22:Drivers/STM32F4xx_HAL_Driver/Src/stm32f4xx_hal_uart.c ****   *
  23:Drivers/STM32F4xx_HAL_Driver/Src/stm32f4xx_hal_uart.c ****   ******************************************************************************
  24:Drivers/STM32F4xx_HAL_Driver/Src/stm32f4xx_hal_uart.c ****   @verbatim
  25:Drivers/STM32F4xx_HAL_Driver/Src/stm32f4xx_hal_uart.c ****   ==============================================================================
  26:Drivers/STM32F4xx_HAL_Driver/Src/stm32f4xx_hal_uart.c ****                         ##### How to use this driver #####
  27:Drivers/STM32F4xx_HAL_Driver/Src/stm32f4xx_hal_uart.c ****   ==============================================================================
  28:Drivers/STM32F4xx_HAL_Driver/Src/stm32f4xx_hal_uart.c ****   [..]
  29:Drivers/STM32F4xx_HAL_Driver/Src/stm32f4xx_hal_uart.c ****     The UART HAL driver can be used as follows:
  30:Drivers/STM32F4xx_HAL_Driver/Src/stm32f4xx_hal_uart.c **** 
ARM GAS  /tmp/ccIpdX1g.s 			page 2


  31:Drivers/STM32F4xx_HAL_Driver/Src/stm32f4xx_hal_uart.c ****     (#) Declare a UART_HandleTypeDef handle structure (eg. UART_HandleTypeDef huart).
  32:Drivers/STM32F4xx_HAL_Driver/Src/stm32f4xx_hal_uart.c ****     (#) Initialize the UART low level resources by implementing the HAL_UART_MspInit() API:
  33:Drivers/STM32F4xx_HAL_Driver/Src/stm32f4xx_hal_uart.c ****         (##) Enable the USARTx interface clock.
  34:Drivers/STM32F4xx_HAL_Driver/Src/stm32f4xx_hal_uart.c ****         (##) UART pins configuration:
  35:Drivers/STM32F4xx_HAL_Driver/Src/stm32f4xx_hal_uart.c ****             (+++) Enable the clock for the UART GPIOs.
  36:Drivers/STM32F4xx_HAL_Driver/Src/stm32f4xx_hal_uart.c ****             (+++) Configure the UART TX/RX pins as alternate function pull-up.
  37:Drivers/STM32F4xx_HAL_Driver/Src/stm32f4xx_hal_uart.c ****         (##) NVIC configuration if you need to use interrupt process (HAL_UART_Transmit_IT()
  38:Drivers/STM32F4xx_HAL_Driver/Src/stm32f4xx_hal_uart.c ****              and HAL_UART_Receive_IT() APIs):
  39:Drivers/STM32F4xx_HAL_Driver/Src/stm32f4xx_hal_uart.c ****             (+++) Configure the USARTx interrupt priority.
  40:Drivers/STM32F4xx_HAL_Driver/Src/stm32f4xx_hal_uart.c ****             (+++) Enable the NVIC USART IRQ handle.
  41:Drivers/STM32F4xx_HAL_Driver/Src/stm32f4xx_hal_uart.c ****         (##) DMA Configuration if you need to use DMA process (HAL_UART_Transmit_DMA()
  42:Drivers/STM32F4xx_HAL_Driver/Src/stm32f4xx_hal_uart.c ****              and HAL_UART_Receive_DMA() APIs):
  43:Drivers/STM32F4xx_HAL_Driver/Src/stm32f4xx_hal_uart.c ****             (+++) Declare a DMA handle structure for the Tx/Rx stream.
  44:Drivers/STM32F4xx_HAL_Driver/Src/stm32f4xx_hal_uart.c ****             (+++) Enable the DMAx interface clock.
  45:Drivers/STM32F4xx_HAL_Driver/Src/stm32f4xx_hal_uart.c ****             (+++) Configure the declared DMA handle structure with the required
  46:Drivers/STM32F4xx_HAL_Driver/Src/stm32f4xx_hal_uart.c ****                   Tx/Rx parameters.
  47:Drivers/STM32F4xx_HAL_Driver/Src/stm32f4xx_hal_uart.c ****             (+++) Configure the DMA Tx/Rx stream.
  48:Drivers/STM32F4xx_HAL_Driver/Src/stm32f4xx_hal_uart.c ****             (+++) Associate the initialized DMA handle to the UART DMA Tx/Rx handle.
  49:Drivers/STM32F4xx_HAL_Driver/Src/stm32f4xx_hal_uart.c ****             (+++) Configure the priority and enable the NVIC for the transfer complete
  50:Drivers/STM32F4xx_HAL_Driver/Src/stm32f4xx_hal_uart.c ****                   interrupt on the DMA Tx/Rx stream.
  51:Drivers/STM32F4xx_HAL_Driver/Src/stm32f4xx_hal_uart.c ****             (+++) Configure the USARTx interrupt priority and enable the NVIC USART IRQ handle
  52:Drivers/STM32F4xx_HAL_Driver/Src/stm32f4xx_hal_uart.c ****                   (used for last byte sending completion detection in DMA non circular mode)
  53:Drivers/STM32F4xx_HAL_Driver/Src/stm32f4xx_hal_uart.c **** 
  54:Drivers/STM32F4xx_HAL_Driver/Src/stm32f4xx_hal_uart.c ****     (#) Program the Baud Rate, Word Length, Stop Bit, Parity, Hardware
  55:Drivers/STM32F4xx_HAL_Driver/Src/stm32f4xx_hal_uart.c ****         flow control and Mode(Receiver/Transmitter) in the huart Init structure.
  56:Drivers/STM32F4xx_HAL_Driver/Src/stm32f4xx_hal_uart.c **** 
  57:Drivers/STM32F4xx_HAL_Driver/Src/stm32f4xx_hal_uart.c ****     (#) For the UART asynchronous mode, initialize the UART registers by calling
  58:Drivers/STM32F4xx_HAL_Driver/Src/stm32f4xx_hal_uart.c ****         the HAL_UART_Init() API.
  59:Drivers/STM32F4xx_HAL_Driver/Src/stm32f4xx_hal_uart.c **** 
  60:Drivers/STM32F4xx_HAL_Driver/Src/stm32f4xx_hal_uart.c ****     (#) For the UART Half duplex mode, initialize the UART registers by calling
  61:Drivers/STM32F4xx_HAL_Driver/Src/stm32f4xx_hal_uart.c ****         the HAL_HalfDuplex_Init() API.
  62:Drivers/STM32F4xx_HAL_Driver/Src/stm32f4xx_hal_uart.c **** 
  63:Drivers/STM32F4xx_HAL_Driver/Src/stm32f4xx_hal_uart.c ****     (#) For the LIN mode, initialize the UART registers by calling the HAL_LIN_Init() API.
  64:Drivers/STM32F4xx_HAL_Driver/Src/stm32f4xx_hal_uart.c **** 
  65:Drivers/STM32F4xx_HAL_Driver/Src/stm32f4xx_hal_uart.c ****     (#) For the Multi-Processor mode, initialize the UART registers by calling
  66:Drivers/STM32F4xx_HAL_Driver/Src/stm32f4xx_hal_uart.c ****         the HAL_MultiProcessor_Init() API.
  67:Drivers/STM32F4xx_HAL_Driver/Src/stm32f4xx_hal_uart.c **** 
  68:Drivers/STM32F4xx_HAL_Driver/Src/stm32f4xx_hal_uart.c ****      [..]
  69:Drivers/STM32F4xx_HAL_Driver/Src/stm32f4xx_hal_uart.c ****        (@) The specific UART interrupts (Transmission complete interrupt,
  70:Drivers/STM32F4xx_HAL_Driver/Src/stm32f4xx_hal_uart.c ****             RXNE interrupt and Error Interrupts) will be managed using the macros
  71:Drivers/STM32F4xx_HAL_Driver/Src/stm32f4xx_hal_uart.c ****             __HAL_UART_ENABLE_IT() and __HAL_UART_DISABLE_IT() inside the transmit
  72:Drivers/STM32F4xx_HAL_Driver/Src/stm32f4xx_hal_uart.c ****             and receive process.
  73:Drivers/STM32F4xx_HAL_Driver/Src/stm32f4xx_hal_uart.c **** 
  74:Drivers/STM32F4xx_HAL_Driver/Src/stm32f4xx_hal_uart.c ****      [..]
  75:Drivers/STM32F4xx_HAL_Driver/Src/stm32f4xx_hal_uart.c ****        (@) These APIs (HAL_UART_Init() and HAL_HalfDuplex_Init()) configure also the
  76:Drivers/STM32F4xx_HAL_Driver/Src/stm32f4xx_hal_uart.c ****             low level Hardware GPIO, CLOCK, CORTEX...etc) by calling the customized
  77:Drivers/STM32F4xx_HAL_Driver/Src/stm32f4xx_hal_uart.c ****             HAL_UART_MspInit() API.
  78:Drivers/STM32F4xx_HAL_Driver/Src/stm32f4xx_hal_uart.c **** 
  79:Drivers/STM32F4xx_HAL_Driver/Src/stm32f4xx_hal_uart.c ****     ##### Callback registration #####
  80:Drivers/STM32F4xx_HAL_Driver/Src/stm32f4xx_hal_uart.c ****     ==================================
  81:Drivers/STM32F4xx_HAL_Driver/Src/stm32f4xx_hal_uart.c **** 
  82:Drivers/STM32F4xx_HAL_Driver/Src/stm32f4xx_hal_uart.c ****     [..]
  83:Drivers/STM32F4xx_HAL_Driver/Src/stm32f4xx_hal_uart.c ****     The compilation define USE_HAL_UART_REGISTER_CALLBACKS when set to 1
  84:Drivers/STM32F4xx_HAL_Driver/Src/stm32f4xx_hal_uart.c ****     allows the user to configure dynamically the driver callbacks.
  85:Drivers/STM32F4xx_HAL_Driver/Src/stm32f4xx_hal_uart.c **** 
  86:Drivers/STM32F4xx_HAL_Driver/Src/stm32f4xx_hal_uart.c ****     [..]
  87:Drivers/STM32F4xx_HAL_Driver/Src/stm32f4xx_hal_uart.c ****     Use Function HAL_UART_RegisterCallback() to register a user callback.
ARM GAS  /tmp/ccIpdX1g.s 			page 3


  88:Drivers/STM32F4xx_HAL_Driver/Src/stm32f4xx_hal_uart.c ****     Function HAL_UART_RegisterCallback() allows to register following callbacks:
  89:Drivers/STM32F4xx_HAL_Driver/Src/stm32f4xx_hal_uart.c ****     (+) TxHalfCpltCallback        : Tx Half Complete Callback.
  90:Drivers/STM32F4xx_HAL_Driver/Src/stm32f4xx_hal_uart.c ****     (+) TxCpltCallback            : Tx Complete Callback.
  91:Drivers/STM32F4xx_HAL_Driver/Src/stm32f4xx_hal_uart.c ****     (+) RxHalfCpltCallback        : Rx Half Complete Callback.
  92:Drivers/STM32F4xx_HAL_Driver/Src/stm32f4xx_hal_uart.c ****     (+) RxCpltCallback            : Rx Complete Callback.
  93:Drivers/STM32F4xx_HAL_Driver/Src/stm32f4xx_hal_uart.c ****     (+) ErrorCallback             : Error Callback.
  94:Drivers/STM32F4xx_HAL_Driver/Src/stm32f4xx_hal_uart.c ****     (+) AbortCpltCallback         : Abort Complete Callback.
  95:Drivers/STM32F4xx_HAL_Driver/Src/stm32f4xx_hal_uart.c ****     (+) AbortTransmitCpltCallback : Abort Transmit Complete Callback.
  96:Drivers/STM32F4xx_HAL_Driver/Src/stm32f4xx_hal_uart.c ****     (+) AbortReceiveCpltCallback  : Abort Receive Complete Callback.
  97:Drivers/STM32F4xx_HAL_Driver/Src/stm32f4xx_hal_uart.c ****     (+) MspInitCallback           : UART MspInit.
  98:Drivers/STM32F4xx_HAL_Driver/Src/stm32f4xx_hal_uart.c ****     (+) MspDeInitCallback         : UART MspDeInit.
  99:Drivers/STM32F4xx_HAL_Driver/Src/stm32f4xx_hal_uart.c ****     This function takes as parameters the HAL peripheral handle, the Callback ID
 100:Drivers/STM32F4xx_HAL_Driver/Src/stm32f4xx_hal_uart.c ****     and a pointer to the user callback function.
 101:Drivers/STM32F4xx_HAL_Driver/Src/stm32f4xx_hal_uart.c **** 
 102:Drivers/STM32F4xx_HAL_Driver/Src/stm32f4xx_hal_uart.c ****     [..]
 103:Drivers/STM32F4xx_HAL_Driver/Src/stm32f4xx_hal_uart.c ****     Use function HAL_UART_UnRegisterCallback() to reset a callback to the default
 104:Drivers/STM32F4xx_HAL_Driver/Src/stm32f4xx_hal_uart.c ****     weak (surcharged) function.
 105:Drivers/STM32F4xx_HAL_Driver/Src/stm32f4xx_hal_uart.c ****     HAL_UART_UnRegisterCallback() takes as parameters the HAL peripheral handle,
 106:Drivers/STM32F4xx_HAL_Driver/Src/stm32f4xx_hal_uart.c ****     and the Callback ID.
 107:Drivers/STM32F4xx_HAL_Driver/Src/stm32f4xx_hal_uart.c ****     This function allows to reset following callbacks:
 108:Drivers/STM32F4xx_HAL_Driver/Src/stm32f4xx_hal_uart.c ****     (+) TxHalfCpltCallback        : Tx Half Complete Callback.
 109:Drivers/STM32F4xx_HAL_Driver/Src/stm32f4xx_hal_uart.c ****     (+) TxCpltCallback            : Tx Complete Callback.
 110:Drivers/STM32F4xx_HAL_Driver/Src/stm32f4xx_hal_uart.c ****     (+) RxHalfCpltCallback        : Rx Half Complete Callback.
 111:Drivers/STM32F4xx_HAL_Driver/Src/stm32f4xx_hal_uart.c ****     (+) RxCpltCallback            : Rx Complete Callback.
 112:Drivers/STM32F4xx_HAL_Driver/Src/stm32f4xx_hal_uart.c ****     (+) ErrorCallback             : Error Callback.
 113:Drivers/STM32F4xx_HAL_Driver/Src/stm32f4xx_hal_uart.c ****     (+) AbortCpltCallback         : Abort Complete Callback.
 114:Drivers/STM32F4xx_HAL_Driver/Src/stm32f4xx_hal_uart.c ****     (+) AbortTransmitCpltCallback : Abort Transmit Complete Callback.
 115:Drivers/STM32F4xx_HAL_Driver/Src/stm32f4xx_hal_uart.c ****     (+) AbortReceiveCpltCallback  : Abort Receive Complete Callback.
 116:Drivers/STM32F4xx_HAL_Driver/Src/stm32f4xx_hal_uart.c ****     (+) MspInitCallback           : UART MspInit.
 117:Drivers/STM32F4xx_HAL_Driver/Src/stm32f4xx_hal_uart.c ****     (+) MspDeInitCallback         : UART MspDeInit.
 118:Drivers/STM32F4xx_HAL_Driver/Src/stm32f4xx_hal_uart.c **** 
 119:Drivers/STM32F4xx_HAL_Driver/Src/stm32f4xx_hal_uart.c ****     [..]
 120:Drivers/STM32F4xx_HAL_Driver/Src/stm32f4xx_hal_uart.c ****     For specific callback RxEventCallback, use dedicated registration/reset functions:
 121:Drivers/STM32F4xx_HAL_Driver/Src/stm32f4xx_hal_uart.c ****     respectively HAL_UART_RegisterRxEventCallback() , HAL_UART_UnRegisterRxEventCallback().
 122:Drivers/STM32F4xx_HAL_Driver/Src/stm32f4xx_hal_uart.c **** 
 123:Drivers/STM32F4xx_HAL_Driver/Src/stm32f4xx_hal_uart.c ****     [..]
 124:Drivers/STM32F4xx_HAL_Driver/Src/stm32f4xx_hal_uart.c ****     By default, after the HAL_UART_Init() and when the state is HAL_UART_STATE_RESET
 125:Drivers/STM32F4xx_HAL_Driver/Src/stm32f4xx_hal_uart.c ****     all callbacks are set to the corresponding weak (surcharged) functions:
 126:Drivers/STM32F4xx_HAL_Driver/Src/stm32f4xx_hal_uart.c ****     examples HAL_UART_TxCpltCallback(), HAL_UART_RxHalfCpltCallback().
 127:Drivers/STM32F4xx_HAL_Driver/Src/stm32f4xx_hal_uart.c ****     Exception done for MspInit and MspDeInit functions that are respectively
 128:Drivers/STM32F4xx_HAL_Driver/Src/stm32f4xx_hal_uart.c ****     reset to the legacy weak (surcharged) functions in the HAL_UART_Init()
 129:Drivers/STM32F4xx_HAL_Driver/Src/stm32f4xx_hal_uart.c ****     and HAL_UART_DeInit() only when these callbacks are null (not registered beforehand).
 130:Drivers/STM32F4xx_HAL_Driver/Src/stm32f4xx_hal_uart.c ****     If not, MspInit or MspDeInit are not null, the HAL_UART_Init() and HAL_UART_DeInit()
 131:Drivers/STM32F4xx_HAL_Driver/Src/stm32f4xx_hal_uart.c ****     keep and use the user MspInit/MspDeInit callbacks (registered beforehand).
 132:Drivers/STM32F4xx_HAL_Driver/Src/stm32f4xx_hal_uart.c **** 
 133:Drivers/STM32F4xx_HAL_Driver/Src/stm32f4xx_hal_uart.c ****     [..]
 134:Drivers/STM32F4xx_HAL_Driver/Src/stm32f4xx_hal_uart.c ****     Callbacks can be registered/unregistered in HAL_UART_STATE_READY state only.
 135:Drivers/STM32F4xx_HAL_Driver/Src/stm32f4xx_hal_uart.c ****     Exception done MspInit/MspDeInit that can be registered/unregistered
 136:Drivers/STM32F4xx_HAL_Driver/Src/stm32f4xx_hal_uart.c ****     in HAL_UART_STATE_READY or HAL_UART_STATE_RESET state, thus registered (user)
 137:Drivers/STM32F4xx_HAL_Driver/Src/stm32f4xx_hal_uart.c ****     MspInit/DeInit callbacks can be used during the Init/DeInit.
 138:Drivers/STM32F4xx_HAL_Driver/Src/stm32f4xx_hal_uart.c ****     In that case first register the MspInit/MspDeInit user callbacks
 139:Drivers/STM32F4xx_HAL_Driver/Src/stm32f4xx_hal_uart.c ****     using HAL_UART_RegisterCallback() before calling HAL_UART_DeInit()
 140:Drivers/STM32F4xx_HAL_Driver/Src/stm32f4xx_hal_uart.c ****     or HAL_UART_Init() function.
 141:Drivers/STM32F4xx_HAL_Driver/Src/stm32f4xx_hal_uart.c **** 
 142:Drivers/STM32F4xx_HAL_Driver/Src/stm32f4xx_hal_uart.c ****     [..]
 143:Drivers/STM32F4xx_HAL_Driver/Src/stm32f4xx_hal_uart.c ****     When The compilation define USE_HAL_UART_REGISTER_CALLBACKS is set to 0 or
 144:Drivers/STM32F4xx_HAL_Driver/Src/stm32f4xx_hal_uart.c ****     not defined, the callback registration feature is not available
ARM GAS  /tmp/ccIpdX1g.s 			page 4


 145:Drivers/STM32F4xx_HAL_Driver/Src/stm32f4xx_hal_uart.c ****     and weak (surcharged) callbacks are used.
 146:Drivers/STM32F4xx_HAL_Driver/Src/stm32f4xx_hal_uart.c **** 
 147:Drivers/STM32F4xx_HAL_Driver/Src/stm32f4xx_hal_uart.c ****      [..]
 148:Drivers/STM32F4xx_HAL_Driver/Src/stm32f4xx_hal_uart.c ****         Three operation modes are available within this driver :
 149:Drivers/STM32F4xx_HAL_Driver/Src/stm32f4xx_hal_uart.c **** 
 150:Drivers/STM32F4xx_HAL_Driver/Src/stm32f4xx_hal_uart.c ****      *** Polling mode IO operation ***
 151:Drivers/STM32F4xx_HAL_Driver/Src/stm32f4xx_hal_uart.c ****      =================================
 152:Drivers/STM32F4xx_HAL_Driver/Src/stm32f4xx_hal_uart.c ****      [..]
 153:Drivers/STM32F4xx_HAL_Driver/Src/stm32f4xx_hal_uart.c ****        (+) Send an amount of data in blocking mode using HAL_UART_Transmit()
 154:Drivers/STM32F4xx_HAL_Driver/Src/stm32f4xx_hal_uart.c ****        (+) Receive an amount of data in blocking mode using HAL_UART_Receive()
 155:Drivers/STM32F4xx_HAL_Driver/Src/stm32f4xx_hal_uart.c **** 
 156:Drivers/STM32F4xx_HAL_Driver/Src/stm32f4xx_hal_uart.c ****      *** Interrupt mode IO operation ***
 157:Drivers/STM32F4xx_HAL_Driver/Src/stm32f4xx_hal_uart.c ****      ===================================
 158:Drivers/STM32F4xx_HAL_Driver/Src/stm32f4xx_hal_uart.c ****      [..]
 159:Drivers/STM32F4xx_HAL_Driver/Src/stm32f4xx_hal_uart.c ****        (+) Send an amount of data in non blocking mode using HAL_UART_Transmit_IT()
 160:Drivers/STM32F4xx_HAL_Driver/Src/stm32f4xx_hal_uart.c ****        (+) At transmission end of transfer HAL_UART_TxCpltCallback is executed and user can
 161:Drivers/STM32F4xx_HAL_Driver/Src/stm32f4xx_hal_uart.c ****             add his own code by customization of function pointer HAL_UART_TxCpltCallback
 162:Drivers/STM32F4xx_HAL_Driver/Src/stm32f4xx_hal_uart.c ****        (+) Receive an amount of data in non blocking mode using HAL_UART_Receive_IT()
 163:Drivers/STM32F4xx_HAL_Driver/Src/stm32f4xx_hal_uart.c ****        (+) At reception end of transfer HAL_UART_RxCpltCallback is executed and user can
 164:Drivers/STM32F4xx_HAL_Driver/Src/stm32f4xx_hal_uart.c ****             add his own code by customization of function pointer HAL_UART_RxCpltCallback
 165:Drivers/STM32F4xx_HAL_Driver/Src/stm32f4xx_hal_uart.c ****        (+) In case of transfer Error, HAL_UART_ErrorCallback() function is executed and user can
 166:Drivers/STM32F4xx_HAL_Driver/Src/stm32f4xx_hal_uart.c ****             add his own code by customization of function pointer HAL_UART_ErrorCallback
 167:Drivers/STM32F4xx_HAL_Driver/Src/stm32f4xx_hal_uart.c **** 
 168:Drivers/STM32F4xx_HAL_Driver/Src/stm32f4xx_hal_uart.c ****      *** DMA mode IO operation ***
 169:Drivers/STM32F4xx_HAL_Driver/Src/stm32f4xx_hal_uart.c ****      ==============================
 170:Drivers/STM32F4xx_HAL_Driver/Src/stm32f4xx_hal_uart.c ****      [..]
 171:Drivers/STM32F4xx_HAL_Driver/Src/stm32f4xx_hal_uart.c ****        (+) Send an amount of data in non blocking mode (DMA) using HAL_UART_Transmit_DMA()
 172:Drivers/STM32F4xx_HAL_Driver/Src/stm32f4xx_hal_uart.c ****        (+) At transmission end of half transfer HAL_UART_TxHalfCpltCallback is executed and user ca
 173:Drivers/STM32F4xx_HAL_Driver/Src/stm32f4xx_hal_uart.c ****             add his own code by customization of function pointer HAL_UART_TxHalfCpltCallback
 174:Drivers/STM32F4xx_HAL_Driver/Src/stm32f4xx_hal_uart.c ****        (+) At transmission end of transfer HAL_UART_TxCpltCallback is executed and user can
 175:Drivers/STM32F4xx_HAL_Driver/Src/stm32f4xx_hal_uart.c ****             add his own code by customization of function pointer HAL_UART_TxCpltCallback
 176:Drivers/STM32F4xx_HAL_Driver/Src/stm32f4xx_hal_uart.c ****        (+) Receive an amount of data in non blocking mode (DMA) using HAL_UART_Receive_DMA()
 177:Drivers/STM32F4xx_HAL_Driver/Src/stm32f4xx_hal_uart.c ****        (+) At reception end of half transfer HAL_UART_RxHalfCpltCallback is executed and user can
 178:Drivers/STM32F4xx_HAL_Driver/Src/stm32f4xx_hal_uart.c ****             add his own code by customization of function pointer HAL_UART_RxHalfCpltCallback
 179:Drivers/STM32F4xx_HAL_Driver/Src/stm32f4xx_hal_uart.c ****        (+) At reception end of transfer HAL_UART_RxCpltCallback is executed and user can
 180:Drivers/STM32F4xx_HAL_Driver/Src/stm32f4xx_hal_uart.c ****             add his own code by customization of function pointer HAL_UART_RxCpltCallback
 181:Drivers/STM32F4xx_HAL_Driver/Src/stm32f4xx_hal_uart.c ****        (+) In case of transfer Error, HAL_UART_ErrorCallback() function is executed and user can
 182:Drivers/STM32F4xx_HAL_Driver/Src/stm32f4xx_hal_uart.c ****             add his own code by customization of function pointer HAL_UART_ErrorCallback
 183:Drivers/STM32F4xx_HAL_Driver/Src/stm32f4xx_hal_uart.c ****        (+) Pause the DMA Transfer using HAL_UART_DMAPause()
 184:Drivers/STM32F4xx_HAL_Driver/Src/stm32f4xx_hal_uart.c ****        (+) Resume the DMA Transfer using HAL_UART_DMAResume()
 185:Drivers/STM32F4xx_HAL_Driver/Src/stm32f4xx_hal_uart.c ****        (+) Stop the DMA Transfer using HAL_UART_DMAStop()
 186:Drivers/STM32F4xx_HAL_Driver/Src/stm32f4xx_hal_uart.c **** 
 187:Drivers/STM32F4xx_HAL_Driver/Src/stm32f4xx_hal_uart.c **** 
 188:Drivers/STM32F4xx_HAL_Driver/Src/stm32f4xx_hal_uart.c ****     [..] This subsection also provides a set of additional functions providing enhanced reception
 189:Drivers/STM32F4xx_HAL_Driver/Src/stm32f4xx_hal_uart.c ****     services to user. (For example, these functions allow application to handle use cases
 190:Drivers/STM32F4xx_HAL_Driver/Src/stm32f4xx_hal_uart.c ****     where number of data to be received is unknown).
 191:Drivers/STM32F4xx_HAL_Driver/Src/stm32f4xx_hal_uart.c **** 
 192:Drivers/STM32F4xx_HAL_Driver/Src/stm32f4xx_hal_uart.c ****     (#) Compared to standard reception services which only consider number of received
 193:Drivers/STM32F4xx_HAL_Driver/Src/stm32f4xx_hal_uart.c ****         data elements as reception completion criteria, these functions also consider additional ev
 194:Drivers/STM32F4xx_HAL_Driver/Src/stm32f4xx_hal_uart.c ****         as triggers for updating reception status to caller :
 195:Drivers/STM32F4xx_HAL_Driver/Src/stm32f4xx_hal_uart.c ****        (+) Detection of inactivity period (RX line has not been active for a given period).
 196:Drivers/STM32F4xx_HAL_Driver/Src/stm32f4xx_hal_uart.c ****           (++) RX inactivity detected by IDLE event, i.e. RX line has been in idle state (normally 
 197:Drivers/STM32F4xx_HAL_Driver/Src/stm32f4xx_hal_uart.c ****                for 1 frame time, after last received byte.
 198:Drivers/STM32F4xx_HAL_Driver/Src/stm32f4xx_hal_uart.c **** 
 199:Drivers/STM32F4xx_HAL_Driver/Src/stm32f4xx_hal_uart.c ****     (#) There are two mode of transfer:
 200:Drivers/STM32F4xx_HAL_Driver/Src/stm32f4xx_hal_uart.c ****        (+) Blocking mode: The reception is performed in polling mode, until either expected number 
 201:Drivers/STM32F4xx_HAL_Driver/Src/stm32f4xx_hal_uart.c ****            or till IDLE event occurs. Reception is handled only during function execution.
ARM GAS  /tmp/ccIpdX1g.s 			page 5


 202:Drivers/STM32F4xx_HAL_Driver/Src/stm32f4xx_hal_uart.c ****            When function exits, no data reception could occur. HAL status and number of actually re
 203:Drivers/STM32F4xx_HAL_Driver/Src/stm32f4xx_hal_uart.c ****            are returned by function after finishing transfer.
 204:Drivers/STM32F4xx_HAL_Driver/Src/stm32f4xx_hal_uart.c ****        (+) Non-Blocking mode: The reception is performed using Interrupts or DMA.
 205:Drivers/STM32F4xx_HAL_Driver/Src/stm32f4xx_hal_uart.c ****            These API's return the HAL status.
 206:Drivers/STM32F4xx_HAL_Driver/Src/stm32f4xx_hal_uart.c ****            The end of the data processing will be indicated through the
 207:Drivers/STM32F4xx_HAL_Driver/Src/stm32f4xx_hal_uart.c ****            dedicated UART IRQ when using Interrupt mode or the DMA IRQ when using DMA mode.
 208:Drivers/STM32F4xx_HAL_Driver/Src/stm32f4xx_hal_uart.c ****            The HAL_UARTEx_RxEventCallback() user callback will be executed during Receive process
 209:Drivers/STM32F4xx_HAL_Driver/Src/stm32f4xx_hal_uart.c ****            The HAL_UART_ErrorCallback()user callback will be executed when a reception error is det
 210:Drivers/STM32F4xx_HAL_Driver/Src/stm32f4xx_hal_uart.c **** 
 211:Drivers/STM32F4xx_HAL_Driver/Src/stm32f4xx_hal_uart.c ****     (#) Blocking mode API:
 212:Drivers/STM32F4xx_HAL_Driver/Src/stm32f4xx_hal_uart.c ****         (+) HAL_UARTEx_ReceiveToIdle()
 213:Drivers/STM32F4xx_HAL_Driver/Src/stm32f4xx_hal_uart.c **** 
 214:Drivers/STM32F4xx_HAL_Driver/Src/stm32f4xx_hal_uart.c ****     (#) Non-Blocking mode API with Interrupt:
 215:Drivers/STM32F4xx_HAL_Driver/Src/stm32f4xx_hal_uart.c ****         (+) HAL_UARTEx_ReceiveToIdle_IT()
 216:Drivers/STM32F4xx_HAL_Driver/Src/stm32f4xx_hal_uart.c **** 
 217:Drivers/STM32F4xx_HAL_Driver/Src/stm32f4xx_hal_uart.c ****     (#) Non-Blocking mode API with DMA:
 218:Drivers/STM32F4xx_HAL_Driver/Src/stm32f4xx_hal_uart.c ****         (+) HAL_UARTEx_ReceiveToIdle_DMA()
 219:Drivers/STM32F4xx_HAL_Driver/Src/stm32f4xx_hal_uart.c **** 
 220:Drivers/STM32F4xx_HAL_Driver/Src/stm32f4xx_hal_uart.c **** 
 221:Drivers/STM32F4xx_HAL_Driver/Src/stm32f4xx_hal_uart.c ****      *** UART HAL driver macros list ***
 222:Drivers/STM32F4xx_HAL_Driver/Src/stm32f4xx_hal_uart.c ****      =============================================
 223:Drivers/STM32F4xx_HAL_Driver/Src/stm32f4xx_hal_uart.c ****      [..]
 224:Drivers/STM32F4xx_HAL_Driver/Src/stm32f4xx_hal_uart.c ****        Below the list of most used macros in UART HAL driver.
 225:Drivers/STM32F4xx_HAL_Driver/Src/stm32f4xx_hal_uart.c **** 
 226:Drivers/STM32F4xx_HAL_Driver/Src/stm32f4xx_hal_uart.c ****       (+) __HAL_UART_ENABLE: Enable the UART peripheral
 227:Drivers/STM32F4xx_HAL_Driver/Src/stm32f4xx_hal_uart.c ****       (+) __HAL_UART_DISABLE: Disable the UART peripheral
 228:Drivers/STM32F4xx_HAL_Driver/Src/stm32f4xx_hal_uart.c ****       (+) __HAL_UART_GET_FLAG : Check whether the specified UART flag is set or not
 229:Drivers/STM32F4xx_HAL_Driver/Src/stm32f4xx_hal_uart.c ****       (+) __HAL_UART_CLEAR_FLAG : Clear the specified UART pending flag
 230:Drivers/STM32F4xx_HAL_Driver/Src/stm32f4xx_hal_uart.c ****       (+) __HAL_UART_ENABLE_IT: Enable the specified UART interrupt
 231:Drivers/STM32F4xx_HAL_Driver/Src/stm32f4xx_hal_uart.c ****       (+) __HAL_UART_DISABLE_IT: Disable the specified UART interrupt
 232:Drivers/STM32F4xx_HAL_Driver/Src/stm32f4xx_hal_uart.c ****       (+) __HAL_UART_GET_IT_SOURCE: Check whether the specified UART interrupt has occurred or not
 233:Drivers/STM32F4xx_HAL_Driver/Src/stm32f4xx_hal_uart.c **** 
 234:Drivers/STM32F4xx_HAL_Driver/Src/stm32f4xx_hal_uart.c ****      [..]
 235:Drivers/STM32F4xx_HAL_Driver/Src/stm32f4xx_hal_uart.c ****        (@) You can refer to the UART HAL driver header file for more useful macros
 236:Drivers/STM32F4xx_HAL_Driver/Src/stm32f4xx_hal_uart.c **** 
 237:Drivers/STM32F4xx_HAL_Driver/Src/stm32f4xx_hal_uart.c ****   @endverbatim
 238:Drivers/STM32F4xx_HAL_Driver/Src/stm32f4xx_hal_uart.c ****      [..]
 239:Drivers/STM32F4xx_HAL_Driver/Src/stm32f4xx_hal_uart.c ****        (@) Additional remark: If the parity is enabled, then the MSB bit of the data written
 240:Drivers/STM32F4xx_HAL_Driver/Src/stm32f4xx_hal_uart.c ****            in the data register is transmitted but is changed by the parity bit.
 241:Drivers/STM32F4xx_HAL_Driver/Src/stm32f4xx_hal_uart.c ****            Depending on the frame length defined by the M bit (8-bits or 9-bits),
 242:Drivers/STM32F4xx_HAL_Driver/Src/stm32f4xx_hal_uart.c ****            the possible UART frame formats are as listed in the following table:
 243:Drivers/STM32F4xx_HAL_Driver/Src/stm32f4xx_hal_uart.c ****     +-------------------------------------------------------------+
 244:Drivers/STM32F4xx_HAL_Driver/Src/stm32f4xx_hal_uart.c ****     |   M bit |  PCE bit  |            UART frame                 |
 245:Drivers/STM32F4xx_HAL_Driver/Src/stm32f4xx_hal_uart.c ****     |---------------------|---------------------------------------|
 246:Drivers/STM32F4xx_HAL_Driver/Src/stm32f4xx_hal_uart.c ****     |    0    |    0      |    | SB | 8 bit data | STB |          |
 247:Drivers/STM32F4xx_HAL_Driver/Src/stm32f4xx_hal_uart.c ****     |---------|-----------|---------------------------------------|
 248:Drivers/STM32F4xx_HAL_Driver/Src/stm32f4xx_hal_uart.c ****     |    0    |    1      |    | SB | 7 bit data | PB | STB |     |
 249:Drivers/STM32F4xx_HAL_Driver/Src/stm32f4xx_hal_uart.c ****     |---------|-----------|---------------------------------------|
 250:Drivers/STM32F4xx_HAL_Driver/Src/stm32f4xx_hal_uart.c ****     |    1    |    0      |    | SB | 9 bit data | STB |          |
 251:Drivers/STM32F4xx_HAL_Driver/Src/stm32f4xx_hal_uart.c ****     |---------|-----------|---------------------------------------|
 252:Drivers/STM32F4xx_HAL_Driver/Src/stm32f4xx_hal_uart.c ****     |    1    |    1      |    | SB | 8 bit data | PB | STB |     |
 253:Drivers/STM32F4xx_HAL_Driver/Src/stm32f4xx_hal_uart.c ****     +-------------------------------------------------------------+
 254:Drivers/STM32F4xx_HAL_Driver/Src/stm32f4xx_hal_uart.c ****   ******************************************************************************
 255:Drivers/STM32F4xx_HAL_Driver/Src/stm32f4xx_hal_uart.c ****   */
 256:Drivers/STM32F4xx_HAL_Driver/Src/stm32f4xx_hal_uart.c **** 
 257:Drivers/STM32F4xx_HAL_Driver/Src/stm32f4xx_hal_uart.c **** /* Includes ------------------------------------------------------------------*/
 258:Drivers/STM32F4xx_HAL_Driver/Src/stm32f4xx_hal_uart.c **** #include "stm32f4xx_hal.h"
ARM GAS  /tmp/ccIpdX1g.s 			page 6


 259:Drivers/STM32F4xx_HAL_Driver/Src/stm32f4xx_hal_uart.c **** 
 260:Drivers/STM32F4xx_HAL_Driver/Src/stm32f4xx_hal_uart.c **** /** @addtogroup STM32F4xx_HAL_Driver
 261:Drivers/STM32F4xx_HAL_Driver/Src/stm32f4xx_hal_uart.c ****   * @{
 262:Drivers/STM32F4xx_HAL_Driver/Src/stm32f4xx_hal_uart.c ****   */
 263:Drivers/STM32F4xx_HAL_Driver/Src/stm32f4xx_hal_uart.c **** 
 264:Drivers/STM32F4xx_HAL_Driver/Src/stm32f4xx_hal_uart.c **** /** @defgroup UART UART
 265:Drivers/STM32F4xx_HAL_Driver/Src/stm32f4xx_hal_uart.c ****   * @brief HAL UART module driver
 266:Drivers/STM32F4xx_HAL_Driver/Src/stm32f4xx_hal_uart.c ****   * @{
 267:Drivers/STM32F4xx_HAL_Driver/Src/stm32f4xx_hal_uart.c ****   */
 268:Drivers/STM32F4xx_HAL_Driver/Src/stm32f4xx_hal_uart.c **** #ifdef HAL_UART_MODULE_ENABLED
 269:Drivers/STM32F4xx_HAL_Driver/Src/stm32f4xx_hal_uart.c **** 
 270:Drivers/STM32F4xx_HAL_Driver/Src/stm32f4xx_hal_uart.c **** /* Private typedef -----------------------------------------------------------*/
 271:Drivers/STM32F4xx_HAL_Driver/Src/stm32f4xx_hal_uart.c **** /* Private define ------------------------------------------------------------*/
 272:Drivers/STM32F4xx_HAL_Driver/Src/stm32f4xx_hal_uart.c **** /** @addtogroup UART_Private_Constants
 273:Drivers/STM32F4xx_HAL_Driver/Src/stm32f4xx_hal_uart.c ****   * @{
 274:Drivers/STM32F4xx_HAL_Driver/Src/stm32f4xx_hal_uart.c ****   */
 275:Drivers/STM32F4xx_HAL_Driver/Src/stm32f4xx_hal_uart.c **** /**
 276:Drivers/STM32F4xx_HAL_Driver/Src/stm32f4xx_hal_uart.c ****   * @}
 277:Drivers/STM32F4xx_HAL_Driver/Src/stm32f4xx_hal_uart.c ****   */
 278:Drivers/STM32F4xx_HAL_Driver/Src/stm32f4xx_hal_uart.c **** /* Private macro -------------------------------------------------------------*/
 279:Drivers/STM32F4xx_HAL_Driver/Src/stm32f4xx_hal_uart.c **** /* Private variables ---------------------------------------------------------*/
 280:Drivers/STM32F4xx_HAL_Driver/Src/stm32f4xx_hal_uart.c **** /* Private function prototypes -----------------------------------------------*/
 281:Drivers/STM32F4xx_HAL_Driver/Src/stm32f4xx_hal_uart.c **** /** @addtogroup UART_Private_Functions  UART Private Functions
 282:Drivers/STM32F4xx_HAL_Driver/Src/stm32f4xx_hal_uart.c ****   * @{
 283:Drivers/STM32F4xx_HAL_Driver/Src/stm32f4xx_hal_uart.c ****   */
 284:Drivers/STM32F4xx_HAL_Driver/Src/stm32f4xx_hal_uart.c **** 
 285:Drivers/STM32F4xx_HAL_Driver/Src/stm32f4xx_hal_uart.c **** #if (USE_HAL_UART_REGISTER_CALLBACKS == 1)
 286:Drivers/STM32F4xx_HAL_Driver/Src/stm32f4xx_hal_uart.c **** void UART_InitCallbacksToDefault(UART_HandleTypeDef *huart);
 287:Drivers/STM32F4xx_HAL_Driver/Src/stm32f4xx_hal_uart.c **** #endif /* USE_HAL_UART_REGISTER_CALLBACKS */
 288:Drivers/STM32F4xx_HAL_Driver/Src/stm32f4xx_hal_uart.c **** static void UART_EndTxTransfer(UART_HandleTypeDef *huart);
 289:Drivers/STM32F4xx_HAL_Driver/Src/stm32f4xx_hal_uart.c **** static void UART_EndRxTransfer(UART_HandleTypeDef *huart);
 290:Drivers/STM32F4xx_HAL_Driver/Src/stm32f4xx_hal_uart.c **** static void UART_DMATransmitCplt(DMA_HandleTypeDef *hdma);
 291:Drivers/STM32F4xx_HAL_Driver/Src/stm32f4xx_hal_uart.c **** static void UART_DMAReceiveCplt(DMA_HandleTypeDef *hdma);
 292:Drivers/STM32F4xx_HAL_Driver/Src/stm32f4xx_hal_uart.c **** static void UART_DMATxHalfCplt(DMA_HandleTypeDef *hdma);
 293:Drivers/STM32F4xx_HAL_Driver/Src/stm32f4xx_hal_uart.c **** static void UART_DMARxHalfCplt(DMA_HandleTypeDef *hdma);
 294:Drivers/STM32F4xx_HAL_Driver/Src/stm32f4xx_hal_uart.c **** static void UART_DMAError(DMA_HandleTypeDef *hdma);
 295:Drivers/STM32F4xx_HAL_Driver/Src/stm32f4xx_hal_uart.c **** static void UART_DMAAbortOnError(DMA_HandleTypeDef *hdma);
 296:Drivers/STM32F4xx_HAL_Driver/Src/stm32f4xx_hal_uart.c **** static void UART_DMATxAbortCallback(DMA_HandleTypeDef *hdma);
 297:Drivers/STM32F4xx_HAL_Driver/Src/stm32f4xx_hal_uart.c **** static void UART_DMARxAbortCallback(DMA_HandleTypeDef *hdma);
 298:Drivers/STM32F4xx_HAL_Driver/Src/stm32f4xx_hal_uart.c **** static void UART_DMATxOnlyAbortCallback(DMA_HandleTypeDef *hdma);
 299:Drivers/STM32F4xx_HAL_Driver/Src/stm32f4xx_hal_uart.c **** static void UART_DMARxOnlyAbortCallback(DMA_HandleTypeDef *hdma);
 300:Drivers/STM32F4xx_HAL_Driver/Src/stm32f4xx_hal_uart.c **** static HAL_StatusTypeDef UART_Transmit_IT(UART_HandleTypeDef *huart);
 301:Drivers/STM32F4xx_HAL_Driver/Src/stm32f4xx_hal_uart.c **** static HAL_StatusTypeDef UART_EndTransmit_IT(UART_HandleTypeDef *huart);
 302:Drivers/STM32F4xx_HAL_Driver/Src/stm32f4xx_hal_uart.c **** static HAL_StatusTypeDef UART_Receive_IT(UART_HandleTypeDef *huart);
 303:Drivers/STM32F4xx_HAL_Driver/Src/stm32f4xx_hal_uart.c **** static HAL_StatusTypeDef UART_WaitOnFlagUntilTimeout(UART_HandleTypeDef *huart, uint32_t Flag, Flag
 304:Drivers/STM32F4xx_HAL_Driver/Src/stm32f4xx_hal_uart.c ****                                                      uint32_t Tickstart, uint32_t Timeout);
 305:Drivers/STM32F4xx_HAL_Driver/Src/stm32f4xx_hal_uart.c **** static void UART_SetConfig(UART_HandleTypeDef *huart);
 306:Drivers/STM32F4xx_HAL_Driver/Src/stm32f4xx_hal_uart.c **** 
 307:Drivers/STM32F4xx_HAL_Driver/Src/stm32f4xx_hal_uart.c **** /**
 308:Drivers/STM32F4xx_HAL_Driver/Src/stm32f4xx_hal_uart.c ****   * @}
 309:Drivers/STM32F4xx_HAL_Driver/Src/stm32f4xx_hal_uart.c ****   */
 310:Drivers/STM32F4xx_HAL_Driver/Src/stm32f4xx_hal_uart.c **** 
 311:Drivers/STM32F4xx_HAL_Driver/Src/stm32f4xx_hal_uart.c **** /* Exported functions ---------------------------------------------------------*/
 312:Drivers/STM32F4xx_HAL_Driver/Src/stm32f4xx_hal_uart.c **** /** @defgroup UART_Exported_Functions UART Exported Functions
 313:Drivers/STM32F4xx_HAL_Driver/Src/stm32f4xx_hal_uart.c ****   * @{
 314:Drivers/STM32F4xx_HAL_Driver/Src/stm32f4xx_hal_uart.c ****   */
 315:Drivers/STM32F4xx_HAL_Driver/Src/stm32f4xx_hal_uart.c **** 
ARM GAS  /tmp/ccIpdX1g.s 			page 7


 316:Drivers/STM32F4xx_HAL_Driver/Src/stm32f4xx_hal_uart.c **** /** @defgroup UART_Exported_Functions_Group1 Initialization and de-initialization functions
 317:Drivers/STM32F4xx_HAL_Driver/Src/stm32f4xx_hal_uart.c ****   *  @brief    Initialization and Configuration functions
 318:Drivers/STM32F4xx_HAL_Driver/Src/stm32f4xx_hal_uart.c ****   *
 319:Drivers/STM32F4xx_HAL_Driver/Src/stm32f4xx_hal_uart.c **** @verbatim
 320:Drivers/STM32F4xx_HAL_Driver/Src/stm32f4xx_hal_uart.c ****  ===============================================================================
 321:Drivers/STM32F4xx_HAL_Driver/Src/stm32f4xx_hal_uart.c ****             ##### Initialization and Configuration functions #####
 322:Drivers/STM32F4xx_HAL_Driver/Src/stm32f4xx_hal_uart.c ****  ===============================================================================
 323:Drivers/STM32F4xx_HAL_Driver/Src/stm32f4xx_hal_uart.c ****     [..]
 324:Drivers/STM32F4xx_HAL_Driver/Src/stm32f4xx_hal_uart.c ****     This subsection provides a set of functions allowing to initialize the USARTx or the UARTy
 325:Drivers/STM32F4xx_HAL_Driver/Src/stm32f4xx_hal_uart.c ****     in asynchronous mode.
 326:Drivers/STM32F4xx_HAL_Driver/Src/stm32f4xx_hal_uart.c ****       (+) For the asynchronous mode only these parameters can be configured:
 327:Drivers/STM32F4xx_HAL_Driver/Src/stm32f4xx_hal_uart.c ****         (++) Baud Rate
 328:Drivers/STM32F4xx_HAL_Driver/Src/stm32f4xx_hal_uart.c ****         (++) Word Length
 329:Drivers/STM32F4xx_HAL_Driver/Src/stm32f4xx_hal_uart.c ****         (++) Stop Bit
 330:Drivers/STM32F4xx_HAL_Driver/Src/stm32f4xx_hal_uart.c ****         (++) Parity: If the parity is enabled, then the MSB bit of the data written
 331:Drivers/STM32F4xx_HAL_Driver/Src/stm32f4xx_hal_uart.c ****              in the data register is transmitted but is changed by the parity bit.
 332:Drivers/STM32F4xx_HAL_Driver/Src/stm32f4xx_hal_uart.c ****              Depending on the frame length defined by the M bit (8-bits or 9-bits),
 333:Drivers/STM32F4xx_HAL_Driver/Src/stm32f4xx_hal_uart.c ****              please refer to Reference manual for possible UART frame formats.
 334:Drivers/STM32F4xx_HAL_Driver/Src/stm32f4xx_hal_uart.c ****         (++) Hardware flow control
 335:Drivers/STM32F4xx_HAL_Driver/Src/stm32f4xx_hal_uart.c ****         (++) Receiver/transmitter modes
 336:Drivers/STM32F4xx_HAL_Driver/Src/stm32f4xx_hal_uart.c ****         (++) Over Sampling Method
 337:Drivers/STM32F4xx_HAL_Driver/Src/stm32f4xx_hal_uart.c ****     [..]
 338:Drivers/STM32F4xx_HAL_Driver/Src/stm32f4xx_hal_uart.c ****     The HAL_UART_Init(), HAL_HalfDuplex_Init(), HAL_LIN_Init() and HAL_MultiProcessor_Init() APIs
 339:Drivers/STM32F4xx_HAL_Driver/Src/stm32f4xx_hal_uart.c ****     follow respectively the UART asynchronous, UART Half duplex, LIN and Multi-Processor configurat
 340:Drivers/STM32F4xx_HAL_Driver/Src/stm32f4xx_hal_uart.c ****     procedures (details for the procedures are available in reference manual
 341:Drivers/STM32F4xx_HAL_Driver/Src/stm32f4xx_hal_uart.c ****     (RM0430 for STM32F4X3xx MCUs and RM0402 for STM32F412xx MCUs
 342:Drivers/STM32F4xx_HAL_Driver/Src/stm32f4xx_hal_uart.c ****      RM0383 for STM32F411xC/E MCUs and RM0401 for STM32F410xx MCUs
 343:Drivers/STM32F4xx_HAL_Driver/Src/stm32f4xx_hal_uart.c ****      RM0090 for STM32F4X5xx/STM32F4X7xx/STM32F429xx/STM32F439xx MCUs
 344:Drivers/STM32F4xx_HAL_Driver/Src/stm32f4xx_hal_uart.c ****      RM0390 for STM32F446xx MCUs and RM0386 for STM32F469xx/STM32F479xx MCUs)).
 345:Drivers/STM32F4xx_HAL_Driver/Src/stm32f4xx_hal_uart.c **** 
 346:Drivers/STM32F4xx_HAL_Driver/Src/stm32f4xx_hal_uart.c **** @endverbatim
 347:Drivers/STM32F4xx_HAL_Driver/Src/stm32f4xx_hal_uart.c ****   * @{
 348:Drivers/STM32F4xx_HAL_Driver/Src/stm32f4xx_hal_uart.c ****   */
 349:Drivers/STM32F4xx_HAL_Driver/Src/stm32f4xx_hal_uart.c **** 
 350:Drivers/STM32F4xx_HAL_Driver/Src/stm32f4xx_hal_uart.c **** /**
 351:Drivers/STM32F4xx_HAL_Driver/Src/stm32f4xx_hal_uart.c ****   * @brief  Initializes the UART mode according to the specified parameters in
 352:Drivers/STM32F4xx_HAL_Driver/Src/stm32f4xx_hal_uart.c ****   *         the UART_InitTypeDef and create the associated handle.
 353:Drivers/STM32F4xx_HAL_Driver/Src/stm32f4xx_hal_uart.c ****   * @param  huart  Pointer to a UART_HandleTypeDef structure that contains
 354:Drivers/STM32F4xx_HAL_Driver/Src/stm32f4xx_hal_uart.c ****   *                the configuration information for the specified UART module.
 355:Drivers/STM32F4xx_HAL_Driver/Src/stm32f4xx_hal_uart.c ****   * @retval HAL status
 356:Drivers/STM32F4xx_HAL_Driver/Src/stm32f4xx_hal_uart.c ****   */
 357:Drivers/STM32F4xx_HAL_Driver/Src/stm32f4xx_hal_uart.c **** HAL_StatusTypeDef HAL_UART_Init(UART_HandleTypeDef *huart)
 358:Drivers/STM32F4xx_HAL_Driver/Src/stm32f4xx_hal_uart.c **** {
  29              		.loc 1 358 1
  30              		.cfi_startproc
  31              		@ args = 0, pretend = 0, frame = 8
  32              		@ frame_needed = 1, uses_anonymous_args = 0
  33 0000 80B5     		push	{r7, lr}
  34              	.LCFI0:
  35              		.cfi_def_cfa_offset 8
  36              		.cfi_offset 7, -8
  37              		.cfi_offset 14, -4
  38 0002 82B0     		sub	sp, sp, #8
  39              	.LCFI1:
  40              		.cfi_def_cfa_offset 16
  41 0004 00AF     		add	r7, sp, #0
  42              	.LCFI2:
ARM GAS  /tmp/ccIpdX1g.s 			page 8


  43              		.cfi_def_cfa_register 7
  44 0006 7860     		str	r0, [r7, #4]
 359:Drivers/STM32F4xx_HAL_Driver/Src/stm32f4xx_hal_uart.c ****   /* Check the UART handle allocation */
 360:Drivers/STM32F4xx_HAL_Driver/Src/stm32f4xx_hal_uart.c ****   if (huart == NULL)
  45              		.loc 1 360 6
  46 0008 7B68     		ldr	r3, [r7, #4]
  47 000a 002B     		cmp	r3, #0
  48 000c 01D1     		bne	.L2
 361:Drivers/STM32F4xx_HAL_Driver/Src/stm32f4xx_hal_uart.c ****   {
 362:Drivers/STM32F4xx_HAL_Driver/Src/stm32f4xx_hal_uart.c ****     return HAL_ERROR;
  49              		.loc 1 362 12
  50 000e 0123     		movs	r3, #1
  51 0010 3FE0     		b	.L3
  52              	.L2:
 363:Drivers/STM32F4xx_HAL_Driver/Src/stm32f4xx_hal_uart.c ****   }
 364:Drivers/STM32F4xx_HAL_Driver/Src/stm32f4xx_hal_uart.c **** 
 365:Drivers/STM32F4xx_HAL_Driver/Src/stm32f4xx_hal_uart.c ****   /* Check the parameters */
 366:Drivers/STM32F4xx_HAL_Driver/Src/stm32f4xx_hal_uart.c ****   if (huart->Init.HwFlowCtl != UART_HWCONTROL_NONE)
 367:Drivers/STM32F4xx_HAL_Driver/Src/stm32f4xx_hal_uart.c ****   {
 368:Drivers/STM32F4xx_HAL_Driver/Src/stm32f4xx_hal_uart.c ****     /* The hardware flow control is available only for USART1, USART2, USART3 and USART6.
 369:Drivers/STM32F4xx_HAL_Driver/Src/stm32f4xx_hal_uart.c ****        Except for STM32F446xx devices, that is available for USART1, USART2, USART3, USART6, UART4 
 370:Drivers/STM32F4xx_HAL_Driver/Src/stm32f4xx_hal_uart.c ****     */
 371:Drivers/STM32F4xx_HAL_Driver/Src/stm32f4xx_hal_uart.c ****     assert_param(IS_UART_HWFLOW_INSTANCE(huart->Instance));
 372:Drivers/STM32F4xx_HAL_Driver/Src/stm32f4xx_hal_uart.c ****     assert_param(IS_UART_HARDWARE_FLOW_CONTROL(huart->Init.HwFlowCtl));
 373:Drivers/STM32F4xx_HAL_Driver/Src/stm32f4xx_hal_uart.c ****   }
 374:Drivers/STM32F4xx_HAL_Driver/Src/stm32f4xx_hal_uart.c ****   else
 375:Drivers/STM32F4xx_HAL_Driver/Src/stm32f4xx_hal_uart.c ****   {
 376:Drivers/STM32F4xx_HAL_Driver/Src/stm32f4xx_hal_uart.c ****     assert_param(IS_UART_INSTANCE(huart->Instance));
 377:Drivers/STM32F4xx_HAL_Driver/Src/stm32f4xx_hal_uart.c ****   }
 378:Drivers/STM32F4xx_HAL_Driver/Src/stm32f4xx_hal_uart.c ****   assert_param(IS_UART_WORD_LENGTH(huart->Init.WordLength));
 379:Drivers/STM32F4xx_HAL_Driver/Src/stm32f4xx_hal_uart.c ****   assert_param(IS_UART_OVERSAMPLING(huart->Init.OverSampling));
 380:Drivers/STM32F4xx_HAL_Driver/Src/stm32f4xx_hal_uart.c **** 
 381:Drivers/STM32F4xx_HAL_Driver/Src/stm32f4xx_hal_uart.c ****   if (huart->gState == HAL_UART_STATE_RESET)
  53              		.loc 1 381 12
  54 0012 7B68     		ldr	r3, [r7, #4]
  55 0014 93F83D30 		ldrb	r3, [r3, #61]
  56 0018 DBB2     		uxtb	r3, r3
  57              		.loc 1 381 6
  58 001a 002B     		cmp	r3, #0
  59 001c 06D1     		bne	.L4
 382:Drivers/STM32F4xx_HAL_Driver/Src/stm32f4xx_hal_uart.c ****   {
 383:Drivers/STM32F4xx_HAL_Driver/Src/stm32f4xx_hal_uart.c ****     /* Allocate lock resource and initialize it */
 384:Drivers/STM32F4xx_HAL_Driver/Src/stm32f4xx_hal_uart.c ****     huart->Lock = HAL_UNLOCKED;
  60              		.loc 1 384 17
  61 001e 7B68     		ldr	r3, [r7, #4]
  62 0020 0022     		movs	r2, #0
  63 0022 83F83C20 		strb	r2, [r3, #60]
 385:Drivers/STM32F4xx_HAL_Driver/Src/stm32f4xx_hal_uart.c **** 
 386:Drivers/STM32F4xx_HAL_Driver/Src/stm32f4xx_hal_uart.c **** #if (USE_HAL_UART_REGISTER_CALLBACKS == 1)
 387:Drivers/STM32F4xx_HAL_Driver/Src/stm32f4xx_hal_uart.c ****     UART_InitCallbacksToDefault(huart);
 388:Drivers/STM32F4xx_HAL_Driver/Src/stm32f4xx_hal_uart.c **** 
 389:Drivers/STM32F4xx_HAL_Driver/Src/stm32f4xx_hal_uart.c ****     if (huart->MspInitCallback == NULL)
 390:Drivers/STM32F4xx_HAL_Driver/Src/stm32f4xx_hal_uart.c ****     {
 391:Drivers/STM32F4xx_HAL_Driver/Src/stm32f4xx_hal_uart.c ****       huart->MspInitCallback = HAL_UART_MspInit;
 392:Drivers/STM32F4xx_HAL_Driver/Src/stm32f4xx_hal_uart.c ****     }
 393:Drivers/STM32F4xx_HAL_Driver/Src/stm32f4xx_hal_uart.c **** 
 394:Drivers/STM32F4xx_HAL_Driver/Src/stm32f4xx_hal_uart.c ****     /* Init the low level hardware */
ARM GAS  /tmp/ccIpdX1g.s 			page 9


 395:Drivers/STM32F4xx_HAL_Driver/Src/stm32f4xx_hal_uart.c ****     huart->MspInitCallback(huart);
 396:Drivers/STM32F4xx_HAL_Driver/Src/stm32f4xx_hal_uart.c **** #else
 397:Drivers/STM32F4xx_HAL_Driver/Src/stm32f4xx_hal_uart.c ****     /* Init the low level hardware : GPIO, CLOCK */
 398:Drivers/STM32F4xx_HAL_Driver/Src/stm32f4xx_hal_uart.c ****     HAL_UART_MspInit(huart);
  64              		.loc 1 398 5
  65 0026 7868     		ldr	r0, [r7, #4]
  66 0028 FFF7FEFF 		bl	HAL_UART_MspInit
  67              	.L4:
 399:Drivers/STM32F4xx_HAL_Driver/Src/stm32f4xx_hal_uart.c **** #endif /* (USE_HAL_UART_REGISTER_CALLBACKS) */
 400:Drivers/STM32F4xx_HAL_Driver/Src/stm32f4xx_hal_uart.c ****   }
 401:Drivers/STM32F4xx_HAL_Driver/Src/stm32f4xx_hal_uart.c **** 
 402:Drivers/STM32F4xx_HAL_Driver/Src/stm32f4xx_hal_uart.c ****   huart->gState = HAL_UART_STATE_BUSY;
  68              		.loc 1 402 17
  69 002c 7B68     		ldr	r3, [r7, #4]
  70 002e 2422     		movs	r2, #36
  71 0030 83F83D20 		strb	r2, [r3, #61]
 403:Drivers/STM32F4xx_HAL_Driver/Src/stm32f4xx_hal_uart.c **** 
 404:Drivers/STM32F4xx_HAL_Driver/Src/stm32f4xx_hal_uart.c ****   /* Disable the peripheral */
 405:Drivers/STM32F4xx_HAL_Driver/Src/stm32f4xx_hal_uart.c ****   __HAL_UART_DISABLE(huart);
  72              		.loc 1 405 3
  73 0034 7B68     		ldr	r3, [r7, #4]
  74 0036 1B68     		ldr	r3, [r3]
  75 0038 DA68     		ldr	r2, [r3, #12]
  76 003a 7B68     		ldr	r3, [r7, #4]
  77 003c 1B68     		ldr	r3, [r3]
  78 003e 22F40052 		bic	r2, r2, #8192
  79 0042 DA60     		str	r2, [r3, #12]
 406:Drivers/STM32F4xx_HAL_Driver/Src/stm32f4xx_hal_uart.c **** 
 407:Drivers/STM32F4xx_HAL_Driver/Src/stm32f4xx_hal_uart.c ****   /* Set the UART Communication parameters */
 408:Drivers/STM32F4xx_HAL_Driver/Src/stm32f4xx_hal_uart.c ****   UART_SetConfig(huart);
  80              		.loc 1 408 3
  81 0044 7868     		ldr	r0, [r7, #4]
  82 0046 FFF7FEFF 		bl	UART_SetConfig
 409:Drivers/STM32F4xx_HAL_Driver/Src/stm32f4xx_hal_uart.c **** 
 410:Drivers/STM32F4xx_HAL_Driver/Src/stm32f4xx_hal_uart.c ****   /* In asynchronous mode, the following bits must be kept cleared:
 411:Drivers/STM32F4xx_HAL_Driver/Src/stm32f4xx_hal_uart.c ****      - LINEN and CLKEN bits in the USART_CR2 register,
 412:Drivers/STM32F4xx_HAL_Driver/Src/stm32f4xx_hal_uart.c ****      - SCEN, HDSEL and IREN  bits in the USART_CR3 register.*/
 413:Drivers/STM32F4xx_HAL_Driver/Src/stm32f4xx_hal_uart.c ****   CLEAR_BIT(huart->Instance->CR2, (USART_CR2_LINEN | USART_CR2_CLKEN));
  83              		.loc 1 413 3
  84 004a 7B68     		ldr	r3, [r7, #4]
  85 004c 1B68     		ldr	r3, [r3]
  86 004e 1A69     		ldr	r2, [r3, #16]
  87 0050 7B68     		ldr	r3, [r7, #4]
  88 0052 1B68     		ldr	r3, [r3]
  89 0054 22F49042 		bic	r2, r2, #18432
  90 0058 1A61     		str	r2, [r3, #16]
 414:Drivers/STM32F4xx_HAL_Driver/Src/stm32f4xx_hal_uart.c ****   CLEAR_BIT(huart->Instance->CR3, (USART_CR3_SCEN | USART_CR3_HDSEL | USART_CR3_IREN));
  91              		.loc 1 414 3
  92 005a 7B68     		ldr	r3, [r7, #4]
  93 005c 1B68     		ldr	r3, [r3]
  94 005e 5A69     		ldr	r2, [r3, #20]
  95 0060 7B68     		ldr	r3, [r7, #4]
  96 0062 1B68     		ldr	r3, [r3]
  97 0064 22F02A02 		bic	r2, r2, #42
  98 0068 5A61     		str	r2, [r3, #20]
 415:Drivers/STM32F4xx_HAL_Driver/Src/stm32f4xx_hal_uart.c **** 
 416:Drivers/STM32F4xx_HAL_Driver/Src/stm32f4xx_hal_uart.c ****   /* Enable the peripheral */
ARM GAS  /tmp/ccIpdX1g.s 			page 10


 417:Drivers/STM32F4xx_HAL_Driver/Src/stm32f4xx_hal_uart.c ****   __HAL_UART_ENABLE(huart);
  99              		.loc 1 417 3
 100 006a 7B68     		ldr	r3, [r7, #4]
 101 006c 1B68     		ldr	r3, [r3]
 102 006e DA68     		ldr	r2, [r3, #12]
 103 0070 7B68     		ldr	r3, [r7, #4]
 104 0072 1B68     		ldr	r3, [r3]
 105 0074 42F40052 		orr	r2, r2, #8192
 106 0078 DA60     		str	r2, [r3, #12]
 418:Drivers/STM32F4xx_HAL_Driver/Src/stm32f4xx_hal_uart.c **** 
 419:Drivers/STM32F4xx_HAL_Driver/Src/stm32f4xx_hal_uart.c ****   /* Initialize the UART state */
 420:Drivers/STM32F4xx_HAL_Driver/Src/stm32f4xx_hal_uart.c ****   huart->ErrorCode = HAL_UART_ERROR_NONE;
 107              		.loc 1 420 20
 108 007a 7B68     		ldr	r3, [r7, #4]
 109 007c 0022     		movs	r2, #0
 110 007e 1A64     		str	r2, [r3, #64]
 421:Drivers/STM32F4xx_HAL_Driver/Src/stm32f4xx_hal_uart.c ****   huart->gState = HAL_UART_STATE_READY;
 111              		.loc 1 421 17
 112 0080 7B68     		ldr	r3, [r7, #4]
 113 0082 2022     		movs	r2, #32
 114 0084 83F83D20 		strb	r2, [r3, #61]
 422:Drivers/STM32F4xx_HAL_Driver/Src/stm32f4xx_hal_uart.c ****   huart->RxState = HAL_UART_STATE_READY;
 115              		.loc 1 422 18
 116 0088 7B68     		ldr	r3, [r7, #4]
 117 008a 2022     		movs	r2, #32
 118 008c 83F83E20 		strb	r2, [r3, #62]
 423:Drivers/STM32F4xx_HAL_Driver/Src/stm32f4xx_hal_uart.c **** 
 424:Drivers/STM32F4xx_HAL_Driver/Src/stm32f4xx_hal_uart.c ****   return HAL_OK;
 119              		.loc 1 424 10
 120 0090 0023     		movs	r3, #0
 121              	.L3:
 425:Drivers/STM32F4xx_HAL_Driver/Src/stm32f4xx_hal_uart.c **** }
 122              		.loc 1 425 1
 123 0092 1846     		mov	r0, r3
 124 0094 0837     		adds	r7, r7, #8
 125              	.LCFI3:
 126              		.cfi_def_cfa_offset 8
 127 0096 BD46     		mov	sp, r7
 128              	.LCFI4:
 129              		.cfi_def_cfa_register 13
 130              		@ sp needed
 131 0098 80BD     		pop	{r7, pc}
 132              		.cfi_endproc
 133              	.LFE216:
 135              		.section	.text.HAL_HalfDuplex_Init,"ax",%progbits
 136              		.align	1
 137              		.global	HAL_HalfDuplex_Init
 138              		.syntax unified
 139              		.thumb
 140              		.thumb_func
 142              	HAL_HalfDuplex_Init:
 143              	.LFB217:
 426:Drivers/STM32F4xx_HAL_Driver/Src/stm32f4xx_hal_uart.c **** 
 427:Drivers/STM32F4xx_HAL_Driver/Src/stm32f4xx_hal_uart.c **** /**
 428:Drivers/STM32F4xx_HAL_Driver/Src/stm32f4xx_hal_uart.c ****   * @brief  Initializes the half-duplex mode according to the specified
 429:Drivers/STM32F4xx_HAL_Driver/Src/stm32f4xx_hal_uart.c ****   *         parameters in the UART_InitTypeDef and create the associated handle.
 430:Drivers/STM32F4xx_HAL_Driver/Src/stm32f4xx_hal_uart.c ****   * @param  huart  Pointer to a UART_HandleTypeDef structure that contains
ARM GAS  /tmp/ccIpdX1g.s 			page 11


 431:Drivers/STM32F4xx_HAL_Driver/Src/stm32f4xx_hal_uart.c ****   *                the configuration information for the specified UART module.
 432:Drivers/STM32F4xx_HAL_Driver/Src/stm32f4xx_hal_uart.c ****   * @retval HAL status
 433:Drivers/STM32F4xx_HAL_Driver/Src/stm32f4xx_hal_uart.c ****   */
 434:Drivers/STM32F4xx_HAL_Driver/Src/stm32f4xx_hal_uart.c **** HAL_StatusTypeDef HAL_HalfDuplex_Init(UART_HandleTypeDef *huart)
 435:Drivers/STM32F4xx_HAL_Driver/Src/stm32f4xx_hal_uart.c **** {
 144              		.loc 1 435 1
 145              		.cfi_startproc
 146              		@ args = 0, pretend = 0, frame = 8
 147              		@ frame_needed = 1, uses_anonymous_args = 0
 148 0000 80B5     		push	{r7, lr}
 149              	.LCFI5:
 150              		.cfi_def_cfa_offset 8
 151              		.cfi_offset 7, -8
 152              		.cfi_offset 14, -4
 153 0002 82B0     		sub	sp, sp, #8
 154              	.LCFI6:
 155              		.cfi_def_cfa_offset 16
 156 0004 00AF     		add	r7, sp, #0
 157              	.LCFI7:
 158              		.cfi_def_cfa_register 7
 159 0006 7860     		str	r0, [r7, #4]
 436:Drivers/STM32F4xx_HAL_Driver/Src/stm32f4xx_hal_uart.c ****   /* Check the UART handle allocation */
 437:Drivers/STM32F4xx_HAL_Driver/Src/stm32f4xx_hal_uart.c ****   if (huart == NULL)
 160              		.loc 1 437 6
 161 0008 7B68     		ldr	r3, [r7, #4]
 162 000a 002B     		cmp	r3, #0
 163 000c 01D1     		bne	.L6
 438:Drivers/STM32F4xx_HAL_Driver/Src/stm32f4xx_hal_uart.c ****   {
 439:Drivers/STM32F4xx_HAL_Driver/Src/stm32f4xx_hal_uart.c ****     return HAL_ERROR;
 164              		.loc 1 439 12
 165 000e 0123     		movs	r3, #1
 166 0010 47E0     		b	.L7
 167              	.L6:
 440:Drivers/STM32F4xx_HAL_Driver/Src/stm32f4xx_hal_uart.c ****   }
 441:Drivers/STM32F4xx_HAL_Driver/Src/stm32f4xx_hal_uart.c **** 
 442:Drivers/STM32F4xx_HAL_Driver/Src/stm32f4xx_hal_uart.c ****   /* Check the parameters */
 443:Drivers/STM32F4xx_HAL_Driver/Src/stm32f4xx_hal_uart.c ****   assert_param(IS_UART_HALFDUPLEX_INSTANCE(huart->Instance));
 444:Drivers/STM32F4xx_HAL_Driver/Src/stm32f4xx_hal_uart.c ****   assert_param(IS_UART_WORD_LENGTH(huart->Init.WordLength));
 445:Drivers/STM32F4xx_HAL_Driver/Src/stm32f4xx_hal_uart.c ****   assert_param(IS_UART_OVERSAMPLING(huart->Init.OverSampling));
 446:Drivers/STM32F4xx_HAL_Driver/Src/stm32f4xx_hal_uart.c **** 
 447:Drivers/STM32F4xx_HAL_Driver/Src/stm32f4xx_hal_uart.c ****   if (huart->gState == HAL_UART_STATE_RESET)
 168              		.loc 1 447 12
 169 0012 7B68     		ldr	r3, [r7, #4]
 170 0014 93F83D30 		ldrb	r3, [r3, #61]
 171 0018 DBB2     		uxtb	r3, r3
 172              		.loc 1 447 6
 173 001a 002B     		cmp	r3, #0
 174 001c 06D1     		bne	.L8
 448:Drivers/STM32F4xx_HAL_Driver/Src/stm32f4xx_hal_uart.c ****   {
 449:Drivers/STM32F4xx_HAL_Driver/Src/stm32f4xx_hal_uart.c ****     /* Allocate lock resource and initialize it */
 450:Drivers/STM32F4xx_HAL_Driver/Src/stm32f4xx_hal_uart.c ****     huart->Lock = HAL_UNLOCKED;
 175              		.loc 1 450 17
 176 001e 7B68     		ldr	r3, [r7, #4]
 177 0020 0022     		movs	r2, #0
 178 0022 83F83C20 		strb	r2, [r3, #60]
 451:Drivers/STM32F4xx_HAL_Driver/Src/stm32f4xx_hal_uart.c **** 
 452:Drivers/STM32F4xx_HAL_Driver/Src/stm32f4xx_hal_uart.c **** #if (USE_HAL_UART_REGISTER_CALLBACKS == 1)
ARM GAS  /tmp/ccIpdX1g.s 			page 12


 453:Drivers/STM32F4xx_HAL_Driver/Src/stm32f4xx_hal_uart.c ****     UART_InitCallbacksToDefault(huart);
 454:Drivers/STM32F4xx_HAL_Driver/Src/stm32f4xx_hal_uart.c **** 
 455:Drivers/STM32F4xx_HAL_Driver/Src/stm32f4xx_hal_uart.c ****     if (huart->MspInitCallback == NULL)
 456:Drivers/STM32F4xx_HAL_Driver/Src/stm32f4xx_hal_uart.c ****     {
 457:Drivers/STM32F4xx_HAL_Driver/Src/stm32f4xx_hal_uart.c ****       huart->MspInitCallback = HAL_UART_MspInit;
 458:Drivers/STM32F4xx_HAL_Driver/Src/stm32f4xx_hal_uart.c ****     }
 459:Drivers/STM32F4xx_HAL_Driver/Src/stm32f4xx_hal_uart.c **** 
 460:Drivers/STM32F4xx_HAL_Driver/Src/stm32f4xx_hal_uart.c ****     /* Init the low level hardware */
 461:Drivers/STM32F4xx_HAL_Driver/Src/stm32f4xx_hal_uart.c ****     huart->MspInitCallback(huart);
 462:Drivers/STM32F4xx_HAL_Driver/Src/stm32f4xx_hal_uart.c **** #else
 463:Drivers/STM32F4xx_HAL_Driver/Src/stm32f4xx_hal_uart.c ****     /* Init the low level hardware : GPIO, CLOCK */
 464:Drivers/STM32F4xx_HAL_Driver/Src/stm32f4xx_hal_uart.c ****     HAL_UART_MspInit(huart);
 179              		.loc 1 464 5
 180 0026 7868     		ldr	r0, [r7, #4]
 181 0028 FFF7FEFF 		bl	HAL_UART_MspInit
 182              	.L8:
 465:Drivers/STM32F4xx_HAL_Driver/Src/stm32f4xx_hal_uart.c **** #endif /* (USE_HAL_UART_REGISTER_CALLBACKS) */
 466:Drivers/STM32F4xx_HAL_Driver/Src/stm32f4xx_hal_uart.c ****   }
 467:Drivers/STM32F4xx_HAL_Driver/Src/stm32f4xx_hal_uart.c **** 
 468:Drivers/STM32F4xx_HAL_Driver/Src/stm32f4xx_hal_uart.c ****   huart->gState = HAL_UART_STATE_BUSY;
 183              		.loc 1 468 17
 184 002c 7B68     		ldr	r3, [r7, #4]
 185 002e 2422     		movs	r2, #36
 186 0030 83F83D20 		strb	r2, [r3, #61]
 469:Drivers/STM32F4xx_HAL_Driver/Src/stm32f4xx_hal_uart.c **** 
 470:Drivers/STM32F4xx_HAL_Driver/Src/stm32f4xx_hal_uart.c ****   /* Disable the peripheral */
 471:Drivers/STM32F4xx_HAL_Driver/Src/stm32f4xx_hal_uart.c ****   __HAL_UART_DISABLE(huart);
 187              		.loc 1 471 3
 188 0034 7B68     		ldr	r3, [r7, #4]
 189 0036 1B68     		ldr	r3, [r3]
 190 0038 DA68     		ldr	r2, [r3, #12]
 191 003a 7B68     		ldr	r3, [r7, #4]
 192 003c 1B68     		ldr	r3, [r3]
 193 003e 22F40052 		bic	r2, r2, #8192
 194 0042 DA60     		str	r2, [r3, #12]
 472:Drivers/STM32F4xx_HAL_Driver/Src/stm32f4xx_hal_uart.c **** 
 473:Drivers/STM32F4xx_HAL_Driver/Src/stm32f4xx_hal_uart.c ****   /* Set the UART Communication parameters */
 474:Drivers/STM32F4xx_HAL_Driver/Src/stm32f4xx_hal_uart.c ****   UART_SetConfig(huart);
 195              		.loc 1 474 3
 196 0044 7868     		ldr	r0, [r7, #4]
 197 0046 FFF7FEFF 		bl	UART_SetConfig
 475:Drivers/STM32F4xx_HAL_Driver/Src/stm32f4xx_hal_uart.c **** 
 476:Drivers/STM32F4xx_HAL_Driver/Src/stm32f4xx_hal_uart.c ****   /* In half-duplex mode, the following bits must be kept cleared:
 477:Drivers/STM32F4xx_HAL_Driver/Src/stm32f4xx_hal_uart.c ****      - LINEN and CLKEN bits in the USART_CR2 register,
 478:Drivers/STM32F4xx_HAL_Driver/Src/stm32f4xx_hal_uart.c ****      - SCEN and IREN bits in the USART_CR3 register.*/
 479:Drivers/STM32F4xx_HAL_Driver/Src/stm32f4xx_hal_uart.c ****   CLEAR_BIT(huart->Instance->CR2, (USART_CR2_LINEN | USART_CR2_CLKEN));
 198              		.loc 1 479 3
 199 004a 7B68     		ldr	r3, [r7, #4]
 200 004c 1B68     		ldr	r3, [r3]
 201 004e 1A69     		ldr	r2, [r3, #16]
 202 0050 7B68     		ldr	r3, [r7, #4]
 203 0052 1B68     		ldr	r3, [r3]
 204 0054 22F49042 		bic	r2, r2, #18432
 205 0058 1A61     		str	r2, [r3, #16]
 480:Drivers/STM32F4xx_HAL_Driver/Src/stm32f4xx_hal_uart.c ****   CLEAR_BIT(huart->Instance->CR3, (USART_CR3_IREN | USART_CR3_SCEN));
 206              		.loc 1 480 3
 207 005a 7B68     		ldr	r3, [r7, #4]
ARM GAS  /tmp/ccIpdX1g.s 			page 13


 208 005c 1B68     		ldr	r3, [r3]
 209 005e 5A69     		ldr	r2, [r3, #20]
 210 0060 7B68     		ldr	r3, [r7, #4]
 211 0062 1B68     		ldr	r3, [r3]
 212 0064 22F02202 		bic	r2, r2, #34
 213 0068 5A61     		str	r2, [r3, #20]
 481:Drivers/STM32F4xx_HAL_Driver/Src/stm32f4xx_hal_uart.c **** 
 482:Drivers/STM32F4xx_HAL_Driver/Src/stm32f4xx_hal_uart.c ****   /* Enable the Half-Duplex mode by setting the HDSEL bit in the CR3 register */
 483:Drivers/STM32F4xx_HAL_Driver/Src/stm32f4xx_hal_uart.c ****   SET_BIT(huart->Instance->CR3, USART_CR3_HDSEL);
 214              		.loc 1 483 3
 215 006a 7B68     		ldr	r3, [r7, #4]
 216 006c 1B68     		ldr	r3, [r3]
 217 006e 5A69     		ldr	r2, [r3, #20]
 218 0070 7B68     		ldr	r3, [r7, #4]
 219 0072 1B68     		ldr	r3, [r3]
 220 0074 42F00802 		orr	r2, r2, #8
 221 0078 5A61     		str	r2, [r3, #20]
 484:Drivers/STM32F4xx_HAL_Driver/Src/stm32f4xx_hal_uart.c **** 
 485:Drivers/STM32F4xx_HAL_Driver/Src/stm32f4xx_hal_uart.c ****   /* Enable the peripheral */
 486:Drivers/STM32F4xx_HAL_Driver/Src/stm32f4xx_hal_uart.c ****   __HAL_UART_ENABLE(huart);
 222              		.loc 1 486 3
 223 007a 7B68     		ldr	r3, [r7, #4]
 224 007c 1B68     		ldr	r3, [r3]
 225 007e DA68     		ldr	r2, [r3, #12]
 226 0080 7B68     		ldr	r3, [r7, #4]
 227 0082 1B68     		ldr	r3, [r3]
 228 0084 42F40052 		orr	r2, r2, #8192
 229 0088 DA60     		str	r2, [r3, #12]
 487:Drivers/STM32F4xx_HAL_Driver/Src/stm32f4xx_hal_uart.c **** 
 488:Drivers/STM32F4xx_HAL_Driver/Src/stm32f4xx_hal_uart.c ****   /* Initialize the UART state*/
 489:Drivers/STM32F4xx_HAL_Driver/Src/stm32f4xx_hal_uart.c ****   huart->ErrorCode = HAL_UART_ERROR_NONE;
 230              		.loc 1 489 20
 231 008a 7B68     		ldr	r3, [r7, #4]
 232 008c 0022     		movs	r2, #0
 233 008e 1A64     		str	r2, [r3, #64]
 490:Drivers/STM32F4xx_HAL_Driver/Src/stm32f4xx_hal_uart.c ****   huart->gState = HAL_UART_STATE_READY;
 234              		.loc 1 490 17
 235 0090 7B68     		ldr	r3, [r7, #4]
 236 0092 2022     		movs	r2, #32
 237 0094 83F83D20 		strb	r2, [r3, #61]
 491:Drivers/STM32F4xx_HAL_Driver/Src/stm32f4xx_hal_uart.c ****   huart->RxState = HAL_UART_STATE_READY;
 238              		.loc 1 491 18
 239 0098 7B68     		ldr	r3, [r7, #4]
 240 009a 2022     		movs	r2, #32
 241 009c 83F83E20 		strb	r2, [r3, #62]
 492:Drivers/STM32F4xx_HAL_Driver/Src/stm32f4xx_hal_uart.c **** 
 493:Drivers/STM32F4xx_HAL_Driver/Src/stm32f4xx_hal_uart.c ****   return HAL_OK;
 242              		.loc 1 493 10
 243 00a0 0023     		movs	r3, #0
 244              	.L7:
 494:Drivers/STM32F4xx_HAL_Driver/Src/stm32f4xx_hal_uart.c **** }
 245              		.loc 1 494 1
 246 00a2 1846     		mov	r0, r3
 247 00a4 0837     		adds	r7, r7, #8
 248              	.LCFI8:
 249              		.cfi_def_cfa_offset 8
 250 00a6 BD46     		mov	sp, r7
ARM GAS  /tmp/ccIpdX1g.s 			page 14


 251              	.LCFI9:
 252              		.cfi_def_cfa_register 13
 253              		@ sp needed
 254 00a8 80BD     		pop	{r7, pc}
 255              		.cfi_endproc
 256              	.LFE217:
 258              		.section	.text.HAL_LIN_Init,"ax",%progbits
 259              		.align	1
 260              		.global	HAL_LIN_Init
 261              		.syntax unified
 262              		.thumb
 263              		.thumb_func
 265              	HAL_LIN_Init:
 266              	.LFB218:
 495:Drivers/STM32F4xx_HAL_Driver/Src/stm32f4xx_hal_uart.c **** 
 496:Drivers/STM32F4xx_HAL_Driver/Src/stm32f4xx_hal_uart.c **** /**
 497:Drivers/STM32F4xx_HAL_Driver/Src/stm32f4xx_hal_uart.c ****   * @brief  Initializes the LIN mode according to the specified
 498:Drivers/STM32F4xx_HAL_Driver/Src/stm32f4xx_hal_uart.c ****   *         parameters in the UART_InitTypeDef and create the associated handle.
 499:Drivers/STM32F4xx_HAL_Driver/Src/stm32f4xx_hal_uart.c ****   * @param  huart  Pointer to a UART_HandleTypeDef structure that contains
 500:Drivers/STM32F4xx_HAL_Driver/Src/stm32f4xx_hal_uart.c ****   *                the configuration information for the specified UART module.
 501:Drivers/STM32F4xx_HAL_Driver/Src/stm32f4xx_hal_uart.c ****   * @param  BreakDetectLength Specifies the LIN break detection length.
 502:Drivers/STM32F4xx_HAL_Driver/Src/stm32f4xx_hal_uart.c ****   *         This parameter can be one of the following values:
 503:Drivers/STM32F4xx_HAL_Driver/Src/stm32f4xx_hal_uart.c ****   *            @arg UART_LINBREAKDETECTLENGTH_10B: 10-bit break detection
 504:Drivers/STM32F4xx_HAL_Driver/Src/stm32f4xx_hal_uart.c ****   *            @arg UART_LINBREAKDETECTLENGTH_11B: 11-bit break detection
 505:Drivers/STM32F4xx_HAL_Driver/Src/stm32f4xx_hal_uart.c ****   * @retval HAL status
 506:Drivers/STM32F4xx_HAL_Driver/Src/stm32f4xx_hal_uart.c ****   */
 507:Drivers/STM32F4xx_HAL_Driver/Src/stm32f4xx_hal_uart.c **** HAL_StatusTypeDef HAL_LIN_Init(UART_HandleTypeDef *huart, uint32_t BreakDetectLength)
 508:Drivers/STM32F4xx_HAL_Driver/Src/stm32f4xx_hal_uart.c **** {
 267              		.loc 1 508 1
 268              		.cfi_startproc
 269              		@ args = 0, pretend = 0, frame = 8
 270              		@ frame_needed = 1, uses_anonymous_args = 0
 271 0000 80B5     		push	{r7, lr}
 272              	.LCFI10:
 273              		.cfi_def_cfa_offset 8
 274              		.cfi_offset 7, -8
 275              		.cfi_offset 14, -4
 276 0002 82B0     		sub	sp, sp, #8
 277              	.LCFI11:
 278              		.cfi_def_cfa_offset 16
 279 0004 00AF     		add	r7, sp, #0
 280              	.LCFI12:
 281              		.cfi_def_cfa_register 7
 282 0006 7860     		str	r0, [r7, #4]
 283 0008 3960     		str	r1, [r7]
 509:Drivers/STM32F4xx_HAL_Driver/Src/stm32f4xx_hal_uart.c ****   /* Check the UART handle allocation */
 510:Drivers/STM32F4xx_HAL_Driver/Src/stm32f4xx_hal_uart.c ****   if (huart == NULL)
 284              		.loc 1 510 6
 285 000a 7B68     		ldr	r3, [r7, #4]
 286 000c 002B     		cmp	r3, #0
 287 000e 01D1     		bne	.L10
 511:Drivers/STM32F4xx_HAL_Driver/Src/stm32f4xx_hal_uart.c ****   {
 512:Drivers/STM32F4xx_HAL_Driver/Src/stm32f4xx_hal_uart.c ****     return HAL_ERROR;
 288              		.loc 1 512 12
 289 0010 0123     		movs	r3, #1
 290 0012 57E0     		b	.L11
 291              	.L10:
ARM GAS  /tmp/ccIpdX1g.s 			page 15


 513:Drivers/STM32F4xx_HAL_Driver/Src/stm32f4xx_hal_uart.c ****   }
 514:Drivers/STM32F4xx_HAL_Driver/Src/stm32f4xx_hal_uart.c **** 
 515:Drivers/STM32F4xx_HAL_Driver/Src/stm32f4xx_hal_uart.c ****   /* Check the LIN UART instance */
 516:Drivers/STM32F4xx_HAL_Driver/Src/stm32f4xx_hal_uart.c ****   assert_param(IS_UART_LIN_INSTANCE(huart->Instance));
 517:Drivers/STM32F4xx_HAL_Driver/Src/stm32f4xx_hal_uart.c **** 
 518:Drivers/STM32F4xx_HAL_Driver/Src/stm32f4xx_hal_uart.c ****   /* Check the Break detection length parameter */
 519:Drivers/STM32F4xx_HAL_Driver/Src/stm32f4xx_hal_uart.c ****   assert_param(IS_UART_LIN_BREAK_DETECT_LENGTH(BreakDetectLength));
 520:Drivers/STM32F4xx_HAL_Driver/Src/stm32f4xx_hal_uart.c ****   assert_param(IS_UART_LIN_WORD_LENGTH(huart->Init.WordLength));
 521:Drivers/STM32F4xx_HAL_Driver/Src/stm32f4xx_hal_uart.c ****   assert_param(IS_UART_LIN_OVERSAMPLING(huart->Init.OverSampling));
 522:Drivers/STM32F4xx_HAL_Driver/Src/stm32f4xx_hal_uart.c **** 
 523:Drivers/STM32F4xx_HAL_Driver/Src/stm32f4xx_hal_uart.c ****   if (huart->gState == HAL_UART_STATE_RESET)
 292              		.loc 1 523 12
 293 0014 7B68     		ldr	r3, [r7, #4]
 294 0016 93F83D30 		ldrb	r3, [r3, #61]
 295 001a DBB2     		uxtb	r3, r3
 296              		.loc 1 523 6
 297 001c 002B     		cmp	r3, #0
 298 001e 06D1     		bne	.L12
 524:Drivers/STM32F4xx_HAL_Driver/Src/stm32f4xx_hal_uart.c ****   {
 525:Drivers/STM32F4xx_HAL_Driver/Src/stm32f4xx_hal_uart.c ****     /* Allocate lock resource and initialize it */
 526:Drivers/STM32F4xx_HAL_Driver/Src/stm32f4xx_hal_uart.c ****     huart->Lock = HAL_UNLOCKED;
 299              		.loc 1 526 17
 300 0020 7B68     		ldr	r3, [r7, #4]
 301 0022 0022     		movs	r2, #0
 302 0024 83F83C20 		strb	r2, [r3, #60]
 527:Drivers/STM32F4xx_HAL_Driver/Src/stm32f4xx_hal_uart.c **** 
 528:Drivers/STM32F4xx_HAL_Driver/Src/stm32f4xx_hal_uart.c **** #if (USE_HAL_UART_REGISTER_CALLBACKS == 1)
 529:Drivers/STM32F4xx_HAL_Driver/Src/stm32f4xx_hal_uart.c ****     UART_InitCallbacksToDefault(huart);
 530:Drivers/STM32F4xx_HAL_Driver/Src/stm32f4xx_hal_uart.c **** 
 531:Drivers/STM32F4xx_HAL_Driver/Src/stm32f4xx_hal_uart.c ****     if (huart->MspInitCallback == NULL)
 532:Drivers/STM32F4xx_HAL_Driver/Src/stm32f4xx_hal_uart.c ****     {
 533:Drivers/STM32F4xx_HAL_Driver/Src/stm32f4xx_hal_uart.c ****       huart->MspInitCallback = HAL_UART_MspInit;
 534:Drivers/STM32F4xx_HAL_Driver/Src/stm32f4xx_hal_uart.c ****     }
 535:Drivers/STM32F4xx_HAL_Driver/Src/stm32f4xx_hal_uart.c **** 
 536:Drivers/STM32F4xx_HAL_Driver/Src/stm32f4xx_hal_uart.c ****     /* Init the low level hardware */
 537:Drivers/STM32F4xx_HAL_Driver/Src/stm32f4xx_hal_uart.c ****     huart->MspInitCallback(huart);
 538:Drivers/STM32F4xx_HAL_Driver/Src/stm32f4xx_hal_uart.c **** #else
 539:Drivers/STM32F4xx_HAL_Driver/Src/stm32f4xx_hal_uart.c ****     /* Init the low level hardware : GPIO, CLOCK */
 540:Drivers/STM32F4xx_HAL_Driver/Src/stm32f4xx_hal_uart.c ****     HAL_UART_MspInit(huart);
 303              		.loc 1 540 5
 304 0028 7868     		ldr	r0, [r7, #4]
 305 002a FFF7FEFF 		bl	HAL_UART_MspInit
 306              	.L12:
 541:Drivers/STM32F4xx_HAL_Driver/Src/stm32f4xx_hal_uart.c **** #endif /* (USE_HAL_UART_REGISTER_CALLBACKS) */
 542:Drivers/STM32F4xx_HAL_Driver/Src/stm32f4xx_hal_uart.c ****   }
 543:Drivers/STM32F4xx_HAL_Driver/Src/stm32f4xx_hal_uart.c **** 
 544:Drivers/STM32F4xx_HAL_Driver/Src/stm32f4xx_hal_uart.c ****   huart->gState = HAL_UART_STATE_BUSY;
 307              		.loc 1 544 17
 308 002e 7B68     		ldr	r3, [r7, #4]
 309 0030 2422     		movs	r2, #36
 310 0032 83F83D20 		strb	r2, [r3, #61]
 545:Drivers/STM32F4xx_HAL_Driver/Src/stm32f4xx_hal_uart.c **** 
 546:Drivers/STM32F4xx_HAL_Driver/Src/stm32f4xx_hal_uart.c ****   /* Disable the peripheral */
 547:Drivers/STM32F4xx_HAL_Driver/Src/stm32f4xx_hal_uart.c ****   __HAL_UART_DISABLE(huart);
 311              		.loc 1 547 3
 312 0036 7B68     		ldr	r3, [r7, #4]
 313 0038 1B68     		ldr	r3, [r3]
ARM GAS  /tmp/ccIpdX1g.s 			page 16


 314 003a DA68     		ldr	r2, [r3, #12]
 315 003c 7B68     		ldr	r3, [r7, #4]
 316 003e 1B68     		ldr	r3, [r3]
 317 0040 22F40052 		bic	r2, r2, #8192
 318 0044 DA60     		str	r2, [r3, #12]
 548:Drivers/STM32F4xx_HAL_Driver/Src/stm32f4xx_hal_uart.c **** 
 549:Drivers/STM32F4xx_HAL_Driver/Src/stm32f4xx_hal_uart.c ****   /* Set the UART Communication parameters */
 550:Drivers/STM32F4xx_HAL_Driver/Src/stm32f4xx_hal_uart.c ****   UART_SetConfig(huart);
 319              		.loc 1 550 3
 320 0046 7868     		ldr	r0, [r7, #4]
 321 0048 FFF7FEFF 		bl	UART_SetConfig
 551:Drivers/STM32F4xx_HAL_Driver/Src/stm32f4xx_hal_uart.c **** 
 552:Drivers/STM32F4xx_HAL_Driver/Src/stm32f4xx_hal_uart.c ****   /* In LIN mode, the following bits must be kept cleared:
 553:Drivers/STM32F4xx_HAL_Driver/Src/stm32f4xx_hal_uart.c ****      - CLKEN bits in the USART_CR2 register,
 554:Drivers/STM32F4xx_HAL_Driver/Src/stm32f4xx_hal_uart.c ****      - SCEN, HDSEL and IREN bits in the USART_CR3 register.*/
 555:Drivers/STM32F4xx_HAL_Driver/Src/stm32f4xx_hal_uart.c ****   CLEAR_BIT(huart->Instance->CR2, (USART_CR2_CLKEN));
 322              		.loc 1 555 3
 323 004c 7B68     		ldr	r3, [r7, #4]
 324 004e 1B68     		ldr	r3, [r3]
 325 0050 1A69     		ldr	r2, [r3, #16]
 326 0052 7B68     		ldr	r3, [r7, #4]
 327 0054 1B68     		ldr	r3, [r3]
 328 0056 22F40062 		bic	r2, r2, #2048
 329 005a 1A61     		str	r2, [r3, #16]
 556:Drivers/STM32F4xx_HAL_Driver/Src/stm32f4xx_hal_uart.c ****   CLEAR_BIT(huart->Instance->CR3, (USART_CR3_HDSEL | USART_CR3_IREN | USART_CR3_SCEN));
 330              		.loc 1 556 3
 331 005c 7B68     		ldr	r3, [r7, #4]
 332 005e 1B68     		ldr	r3, [r3]
 333 0060 5A69     		ldr	r2, [r3, #20]
 334 0062 7B68     		ldr	r3, [r7, #4]
 335 0064 1B68     		ldr	r3, [r3]
 336 0066 22F02A02 		bic	r2, r2, #42
 337 006a 5A61     		str	r2, [r3, #20]
 557:Drivers/STM32F4xx_HAL_Driver/Src/stm32f4xx_hal_uart.c **** 
 558:Drivers/STM32F4xx_HAL_Driver/Src/stm32f4xx_hal_uart.c ****   /* Enable the LIN mode by setting the LINEN bit in the CR2 register */
 559:Drivers/STM32F4xx_HAL_Driver/Src/stm32f4xx_hal_uart.c ****   SET_BIT(huart->Instance->CR2, USART_CR2_LINEN);
 338              		.loc 1 559 3
 339 006c 7B68     		ldr	r3, [r7, #4]
 340 006e 1B68     		ldr	r3, [r3]
 341 0070 1A69     		ldr	r2, [r3, #16]
 342 0072 7B68     		ldr	r3, [r7, #4]
 343 0074 1B68     		ldr	r3, [r3]
 344 0076 42F48042 		orr	r2, r2, #16384
 345 007a 1A61     		str	r2, [r3, #16]
 560:Drivers/STM32F4xx_HAL_Driver/Src/stm32f4xx_hal_uart.c **** 
 561:Drivers/STM32F4xx_HAL_Driver/Src/stm32f4xx_hal_uart.c ****   /* Set the USART LIN Break detection length. */
 562:Drivers/STM32F4xx_HAL_Driver/Src/stm32f4xx_hal_uart.c ****   CLEAR_BIT(huart->Instance->CR2, USART_CR2_LBDL);
 346              		.loc 1 562 3
 347 007c 7B68     		ldr	r3, [r7, #4]
 348 007e 1B68     		ldr	r3, [r3]
 349 0080 1A69     		ldr	r2, [r3, #16]
 350 0082 7B68     		ldr	r3, [r7, #4]
 351 0084 1B68     		ldr	r3, [r3]
 352 0086 22F02002 		bic	r2, r2, #32
 353 008a 1A61     		str	r2, [r3, #16]
 563:Drivers/STM32F4xx_HAL_Driver/Src/stm32f4xx_hal_uart.c ****   SET_BIT(huart->Instance->CR2, BreakDetectLength);
 354              		.loc 1 563 3
ARM GAS  /tmp/ccIpdX1g.s 			page 17


 355 008c 7B68     		ldr	r3, [r7, #4]
 356 008e 1B68     		ldr	r3, [r3]
 357 0090 1969     		ldr	r1, [r3, #16]
 358 0092 7B68     		ldr	r3, [r7, #4]
 359 0094 1B68     		ldr	r3, [r3]
 360 0096 3A68     		ldr	r2, [r7]
 361 0098 0A43     		orrs	r2, r2, r1
 362 009a 1A61     		str	r2, [r3, #16]
 564:Drivers/STM32F4xx_HAL_Driver/Src/stm32f4xx_hal_uart.c **** 
 565:Drivers/STM32F4xx_HAL_Driver/Src/stm32f4xx_hal_uart.c ****   /* Enable the peripheral */
 566:Drivers/STM32F4xx_HAL_Driver/Src/stm32f4xx_hal_uart.c ****   __HAL_UART_ENABLE(huart);
 363              		.loc 1 566 3
 364 009c 7B68     		ldr	r3, [r7, #4]
 365 009e 1B68     		ldr	r3, [r3]
 366 00a0 DA68     		ldr	r2, [r3, #12]
 367 00a2 7B68     		ldr	r3, [r7, #4]
 368 00a4 1B68     		ldr	r3, [r3]
 369 00a6 42F40052 		orr	r2, r2, #8192
 370 00aa DA60     		str	r2, [r3, #12]
 567:Drivers/STM32F4xx_HAL_Driver/Src/stm32f4xx_hal_uart.c **** 
 568:Drivers/STM32F4xx_HAL_Driver/Src/stm32f4xx_hal_uart.c ****   /* Initialize the UART state*/
 569:Drivers/STM32F4xx_HAL_Driver/Src/stm32f4xx_hal_uart.c ****   huart->ErrorCode = HAL_UART_ERROR_NONE;
 371              		.loc 1 569 20
 372 00ac 7B68     		ldr	r3, [r7, #4]
 373 00ae 0022     		movs	r2, #0
 374 00b0 1A64     		str	r2, [r3, #64]
 570:Drivers/STM32F4xx_HAL_Driver/Src/stm32f4xx_hal_uart.c ****   huart->gState = HAL_UART_STATE_READY;
 375              		.loc 1 570 17
 376 00b2 7B68     		ldr	r3, [r7, #4]
 377 00b4 2022     		movs	r2, #32
 378 00b6 83F83D20 		strb	r2, [r3, #61]
 571:Drivers/STM32F4xx_HAL_Driver/Src/stm32f4xx_hal_uart.c ****   huart->RxState = HAL_UART_STATE_READY;
 379              		.loc 1 571 18
 380 00ba 7B68     		ldr	r3, [r7, #4]
 381 00bc 2022     		movs	r2, #32
 382 00be 83F83E20 		strb	r2, [r3, #62]
 572:Drivers/STM32F4xx_HAL_Driver/Src/stm32f4xx_hal_uart.c **** 
 573:Drivers/STM32F4xx_HAL_Driver/Src/stm32f4xx_hal_uart.c ****   return HAL_OK;
 383              		.loc 1 573 10
 384 00c2 0023     		movs	r3, #0
 385              	.L11:
 574:Drivers/STM32F4xx_HAL_Driver/Src/stm32f4xx_hal_uart.c **** }
 386              		.loc 1 574 1
 387 00c4 1846     		mov	r0, r3
 388 00c6 0837     		adds	r7, r7, #8
 389              	.LCFI13:
 390              		.cfi_def_cfa_offset 8
 391 00c8 BD46     		mov	sp, r7
 392              	.LCFI14:
 393              		.cfi_def_cfa_register 13
 394              		@ sp needed
 395 00ca 80BD     		pop	{r7, pc}
 396              		.cfi_endproc
 397              	.LFE218:
 399              		.section	.text.HAL_MultiProcessor_Init,"ax",%progbits
 400              		.align	1
 401              		.global	HAL_MultiProcessor_Init
ARM GAS  /tmp/ccIpdX1g.s 			page 18


 402              		.syntax unified
 403              		.thumb
 404              		.thumb_func
 406              	HAL_MultiProcessor_Init:
 407              	.LFB219:
 575:Drivers/STM32F4xx_HAL_Driver/Src/stm32f4xx_hal_uart.c **** 
 576:Drivers/STM32F4xx_HAL_Driver/Src/stm32f4xx_hal_uart.c **** /**
 577:Drivers/STM32F4xx_HAL_Driver/Src/stm32f4xx_hal_uart.c ****   * @brief  Initializes the Multi-Processor mode according to the specified
 578:Drivers/STM32F4xx_HAL_Driver/Src/stm32f4xx_hal_uart.c ****   *         parameters in the UART_InitTypeDef and create the associated handle.
 579:Drivers/STM32F4xx_HAL_Driver/Src/stm32f4xx_hal_uart.c ****   * @param  huart  Pointer to a UART_HandleTypeDef structure that contains
 580:Drivers/STM32F4xx_HAL_Driver/Src/stm32f4xx_hal_uart.c ****   *                the configuration information for the specified UART module.
 581:Drivers/STM32F4xx_HAL_Driver/Src/stm32f4xx_hal_uart.c ****   * @param  Address USART address
 582:Drivers/STM32F4xx_HAL_Driver/Src/stm32f4xx_hal_uart.c ****   * @param  WakeUpMethod specifies the USART wake-up method.
 583:Drivers/STM32F4xx_HAL_Driver/Src/stm32f4xx_hal_uart.c ****   *         This parameter can be one of the following values:
 584:Drivers/STM32F4xx_HAL_Driver/Src/stm32f4xx_hal_uart.c ****   *            @arg UART_WAKEUPMETHOD_IDLELINE: Wake-up by an idle line detection
 585:Drivers/STM32F4xx_HAL_Driver/Src/stm32f4xx_hal_uart.c ****   *            @arg UART_WAKEUPMETHOD_ADDRESSMARK: Wake-up by an address mark
 586:Drivers/STM32F4xx_HAL_Driver/Src/stm32f4xx_hal_uart.c ****   * @retval HAL status
 587:Drivers/STM32F4xx_HAL_Driver/Src/stm32f4xx_hal_uart.c ****   */
 588:Drivers/STM32F4xx_HAL_Driver/Src/stm32f4xx_hal_uart.c **** HAL_StatusTypeDef HAL_MultiProcessor_Init(UART_HandleTypeDef *huart, uint8_t Address, uint32_t Wake
 589:Drivers/STM32F4xx_HAL_Driver/Src/stm32f4xx_hal_uart.c **** {
 408              		.loc 1 589 1
 409              		.cfi_startproc
 410              		@ args = 0, pretend = 0, frame = 16
 411              		@ frame_needed = 1, uses_anonymous_args = 0
 412 0000 80B5     		push	{r7, lr}
 413              	.LCFI15:
 414              		.cfi_def_cfa_offset 8
 415              		.cfi_offset 7, -8
 416              		.cfi_offset 14, -4
 417 0002 84B0     		sub	sp, sp, #16
 418              	.LCFI16:
 419              		.cfi_def_cfa_offset 24
 420 0004 00AF     		add	r7, sp, #0
 421              	.LCFI17:
 422              		.cfi_def_cfa_register 7
 423 0006 F860     		str	r0, [r7, #12]
 424 0008 0B46     		mov	r3, r1
 425 000a 7A60     		str	r2, [r7, #4]
 426 000c FB72     		strb	r3, [r7, #11]
 590:Drivers/STM32F4xx_HAL_Driver/Src/stm32f4xx_hal_uart.c ****   /* Check the UART handle allocation */
 591:Drivers/STM32F4xx_HAL_Driver/Src/stm32f4xx_hal_uart.c ****   if (huart == NULL)
 427              		.loc 1 591 6
 428 000e FB68     		ldr	r3, [r7, #12]
 429 0010 002B     		cmp	r3, #0
 430 0012 01D1     		bne	.L14
 592:Drivers/STM32F4xx_HAL_Driver/Src/stm32f4xx_hal_uart.c ****   {
 593:Drivers/STM32F4xx_HAL_Driver/Src/stm32f4xx_hal_uart.c ****     return HAL_ERROR;
 431              		.loc 1 593 12
 432 0014 0123     		movs	r3, #1
 433 0016 5FE0     		b	.L15
 434              	.L14:
 594:Drivers/STM32F4xx_HAL_Driver/Src/stm32f4xx_hal_uart.c ****   }
 595:Drivers/STM32F4xx_HAL_Driver/Src/stm32f4xx_hal_uart.c **** 
 596:Drivers/STM32F4xx_HAL_Driver/Src/stm32f4xx_hal_uart.c ****   /* Check the parameters */
 597:Drivers/STM32F4xx_HAL_Driver/Src/stm32f4xx_hal_uart.c ****   assert_param(IS_UART_INSTANCE(huart->Instance));
 598:Drivers/STM32F4xx_HAL_Driver/Src/stm32f4xx_hal_uart.c **** 
 599:Drivers/STM32F4xx_HAL_Driver/Src/stm32f4xx_hal_uart.c ****   /* Check the Address & wake up method parameters */
ARM GAS  /tmp/ccIpdX1g.s 			page 19


 600:Drivers/STM32F4xx_HAL_Driver/Src/stm32f4xx_hal_uart.c ****   assert_param(IS_UART_WAKEUPMETHOD(WakeUpMethod));
 601:Drivers/STM32F4xx_HAL_Driver/Src/stm32f4xx_hal_uart.c ****   assert_param(IS_UART_ADDRESS(Address));
 602:Drivers/STM32F4xx_HAL_Driver/Src/stm32f4xx_hal_uart.c ****   assert_param(IS_UART_WORD_LENGTH(huart->Init.WordLength));
 603:Drivers/STM32F4xx_HAL_Driver/Src/stm32f4xx_hal_uart.c ****   assert_param(IS_UART_OVERSAMPLING(huart->Init.OverSampling));
 604:Drivers/STM32F4xx_HAL_Driver/Src/stm32f4xx_hal_uart.c **** 
 605:Drivers/STM32F4xx_HAL_Driver/Src/stm32f4xx_hal_uart.c ****   if (huart->gState == HAL_UART_STATE_RESET)
 435              		.loc 1 605 12
 436 0018 FB68     		ldr	r3, [r7, #12]
 437 001a 93F83D30 		ldrb	r3, [r3, #61]
 438 001e DBB2     		uxtb	r3, r3
 439              		.loc 1 605 6
 440 0020 002B     		cmp	r3, #0
 441 0022 06D1     		bne	.L16
 606:Drivers/STM32F4xx_HAL_Driver/Src/stm32f4xx_hal_uart.c ****   {
 607:Drivers/STM32F4xx_HAL_Driver/Src/stm32f4xx_hal_uart.c ****     /* Allocate lock resource and initialize it */
 608:Drivers/STM32F4xx_HAL_Driver/Src/stm32f4xx_hal_uart.c ****     huart->Lock = HAL_UNLOCKED;
 442              		.loc 1 608 17
 443 0024 FB68     		ldr	r3, [r7, #12]
 444 0026 0022     		movs	r2, #0
 445 0028 83F83C20 		strb	r2, [r3, #60]
 609:Drivers/STM32F4xx_HAL_Driver/Src/stm32f4xx_hal_uart.c **** 
 610:Drivers/STM32F4xx_HAL_Driver/Src/stm32f4xx_hal_uart.c **** #if (USE_HAL_UART_REGISTER_CALLBACKS == 1)
 611:Drivers/STM32F4xx_HAL_Driver/Src/stm32f4xx_hal_uart.c ****     UART_InitCallbacksToDefault(huart);
 612:Drivers/STM32F4xx_HAL_Driver/Src/stm32f4xx_hal_uart.c **** 
 613:Drivers/STM32F4xx_HAL_Driver/Src/stm32f4xx_hal_uart.c ****     if (huart->MspInitCallback == NULL)
 614:Drivers/STM32F4xx_HAL_Driver/Src/stm32f4xx_hal_uart.c ****     {
 615:Drivers/STM32F4xx_HAL_Driver/Src/stm32f4xx_hal_uart.c ****       huart->MspInitCallback = HAL_UART_MspInit;
 616:Drivers/STM32F4xx_HAL_Driver/Src/stm32f4xx_hal_uart.c ****     }
 617:Drivers/STM32F4xx_HAL_Driver/Src/stm32f4xx_hal_uart.c **** 
 618:Drivers/STM32F4xx_HAL_Driver/Src/stm32f4xx_hal_uart.c ****     /* Init the low level hardware */
 619:Drivers/STM32F4xx_HAL_Driver/Src/stm32f4xx_hal_uart.c ****     huart->MspInitCallback(huart);
 620:Drivers/STM32F4xx_HAL_Driver/Src/stm32f4xx_hal_uart.c **** #else
 621:Drivers/STM32F4xx_HAL_Driver/Src/stm32f4xx_hal_uart.c ****     /* Init the low level hardware : GPIO, CLOCK */
 622:Drivers/STM32F4xx_HAL_Driver/Src/stm32f4xx_hal_uart.c ****     HAL_UART_MspInit(huart);
 446              		.loc 1 622 5
 447 002c F868     		ldr	r0, [r7, #12]
 448 002e FFF7FEFF 		bl	HAL_UART_MspInit
 449              	.L16:
 623:Drivers/STM32F4xx_HAL_Driver/Src/stm32f4xx_hal_uart.c **** #endif /* (USE_HAL_UART_REGISTER_CALLBACKS) */
 624:Drivers/STM32F4xx_HAL_Driver/Src/stm32f4xx_hal_uart.c ****   }
 625:Drivers/STM32F4xx_HAL_Driver/Src/stm32f4xx_hal_uart.c **** 
 626:Drivers/STM32F4xx_HAL_Driver/Src/stm32f4xx_hal_uart.c ****   huart->gState = HAL_UART_STATE_BUSY;
 450              		.loc 1 626 17
 451 0032 FB68     		ldr	r3, [r7, #12]
 452 0034 2422     		movs	r2, #36
 453 0036 83F83D20 		strb	r2, [r3, #61]
 627:Drivers/STM32F4xx_HAL_Driver/Src/stm32f4xx_hal_uart.c **** 
 628:Drivers/STM32F4xx_HAL_Driver/Src/stm32f4xx_hal_uart.c ****   /* Disable the peripheral */
 629:Drivers/STM32F4xx_HAL_Driver/Src/stm32f4xx_hal_uart.c ****   __HAL_UART_DISABLE(huart);
 454              		.loc 1 629 3
 455 003a FB68     		ldr	r3, [r7, #12]
 456 003c 1B68     		ldr	r3, [r3]
 457 003e DA68     		ldr	r2, [r3, #12]
 458 0040 FB68     		ldr	r3, [r7, #12]
 459 0042 1B68     		ldr	r3, [r3]
 460 0044 22F40052 		bic	r2, r2, #8192
 461 0048 DA60     		str	r2, [r3, #12]
ARM GAS  /tmp/ccIpdX1g.s 			page 20


 630:Drivers/STM32F4xx_HAL_Driver/Src/stm32f4xx_hal_uart.c **** 
 631:Drivers/STM32F4xx_HAL_Driver/Src/stm32f4xx_hal_uart.c ****   /* Set the UART Communication parameters */
 632:Drivers/STM32F4xx_HAL_Driver/Src/stm32f4xx_hal_uart.c ****   UART_SetConfig(huart);
 462              		.loc 1 632 3
 463 004a F868     		ldr	r0, [r7, #12]
 464 004c FFF7FEFF 		bl	UART_SetConfig
 633:Drivers/STM32F4xx_HAL_Driver/Src/stm32f4xx_hal_uart.c **** 
 634:Drivers/STM32F4xx_HAL_Driver/Src/stm32f4xx_hal_uart.c ****   /* In Multi-Processor mode, the following bits must be kept cleared:
 635:Drivers/STM32F4xx_HAL_Driver/Src/stm32f4xx_hal_uart.c ****      - LINEN and CLKEN bits in the USART_CR2 register,
 636:Drivers/STM32F4xx_HAL_Driver/Src/stm32f4xx_hal_uart.c ****      - SCEN, HDSEL and IREN  bits in the USART_CR3 register */
 637:Drivers/STM32F4xx_HAL_Driver/Src/stm32f4xx_hal_uart.c ****   CLEAR_BIT(huart->Instance->CR2, (USART_CR2_LINEN | USART_CR2_CLKEN));
 465              		.loc 1 637 3
 466 0050 FB68     		ldr	r3, [r7, #12]
 467 0052 1B68     		ldr	r3, [r3]
 468 0054 1A69     		ldr	r2, [r3, #16]
 469 0056 FB68     		ldr	r3, [r7, #12]
 470 0058 1B68     		ldr	r3, [r3]
 471 005a 22F49042 		bic	r2, r2, #18432
 472 005e 1A61     		str	r2, [r3, #16]
 638:Drivers/STM32F4xx_HAL_Driver/Src/stm32f4xx_hal_uart.c ****   CLEAR_BIT(huart->Instance->CR3, (USART_CR3_SCEN | USART_CR3_HDSEL | USART_CR3_IREN));
 473              		.loc 1 638 3
 474 0060 FB68     		ldr	r3, [r7, #12]
 475 0062 1B68     		ldr	r3, [r3]
 476 0064 5A69     		ldr	r2, [r3, #20]
 477 0066 FB68     		ldr	r3, [r7, #12]
 478 0068 1B68     		ldr	r3, [r3]
 479 006a 22F02A02 		bic	r2, r2, #42
 480 006e 5A61     		str	r2, [r3, #20]
 639:Drivers/STM32F4xx_HAL_Driver/Src/stm32f4xx_hal_uart.c **** 
 640:Drivers/STM32F4xx_HAL_Driver/Src/stm32f4xx_hal_uart.c ****   /* Set the USART address node */
 641:Drivers/STM32F4xx_HAL_Driver/Src/stm32f4xx_hal_uart.c ****   CLEAR_BIT(huart->Instance->CR2, USART_CR2_ADD);
 481              		.loc 1 641 3
 482 0070 FB68     		ldr	r3, [r7, #12]
 483 0072 1B68     		ldr	r3, [r3]
 484 0074 1A69     		ldr	r2, [r3, #16]
 485 0076 FB68     		ldr	r3, [r7, #12]
 486 0078 1B68     		ldr	r3, [r3]
 487 007a 22F00F02 		bic	r2, r2, #15
 488 007e 1A61     		str	r2, [r3, #16]
 642:Drivers/STM32F4xx_HAL_Driver/Src/stm32f4xx_hal_uart.c ****   SET_BIT(huart->Instance->CR2, Address);
 489              		.loc 1 642 3
 490 0080 FB68     		ldr	r3, [r7, #12]
 491 0082 1B68     		ldr	r3, [r3]
 492 0084 1969     		ldr	r1, [r3, #16]
 493 0086 FA7A     		ldrb	r2, [r7, #11]	@ zero_extendqisi2
 494 0088 FB68     		ldr	r3, [r7, #12]
 495 008a 1B68     		ldr	r3, [r3]
 496 008c 0A43     		orrs	r2, r2, r1
 497 008e 1A61     		str	r2, [r3, #16]
 643:Drivers/STM32F4xx_HAL_Driver/Src/stm32f4xx_hal_uart.c **** 
 644:Drivers/STM32F4xx_HAL_Driver/Src/stm32f4xx_hal_uart.c ****   /* Set the wake up method by setting the WAKE bit in the CR1 register */
 645:Drivers/STM32F4xx_HAL_Driver/Src/stm32f4xx_hal_uart.c ****   CLEAR_BIT(huart->Instance->CR1, USART_CR1_WAKE);
 498              		.loc 1 645 3
 499 0090 FB68     		ldr	r3, [r7, #12]
 500 0092 1B68     		ldr	r3, [r3]
 501 0094 DA68     		ldr	r2, [r3, #12]
 502 0096 FB68     		ldr	r3, [r7, #12]
ARM GAS  /tmp/ccIpdX1g.s 			page 21


 503 0098 1B68     		ldr	r3, [r3]
 504 009a 22F40062 		bic	r2, r2, #2048
 505 009e DA60     		str	r2, [r3, #12]
 646:Drivers/STM32F4xx_HAL_Driver/Src/stm32f4xx_hal_uart.c ****   SET_BIT(huart->Instance->CR1, WakeUpMethod);
 506              		.loc 1 646 3
 507 00a0 FB68     		ldr	r3, [r7, #12]
 508 00a2 1B68     		ldr	r3, [r3]
 509 00a4 D968     		ldr	r1, [r3, #12]
 510 00a6 FB68     		ldr	r3, [r7, #12]
 511 00a8 1B68     		ldr	r3, [r3]
 512 00aa 7A68     		ldr	r2, [r7, #4]
 513 00ac 0A43     		orrs	r2, r2, r1
 514 00ae DA60     		str	r2, [r3, #12]
 647:Drivers/STM32F4xx_HAL_Driver/Src/stm32f4xx_hal_uart.c **** 
 648:Drivers/STM32F4xx_HAL_Driver/Src/stm32f4xx_hal_uart.c ****   /* Enable the peripheral */
 649:Drivers/STM32F4xx_HAL_Driver/Src/stm32f4xx_hal_uart.c ****   __HAL_UART_ENABLE(huart);
 515              		.loc 1 649 3
 516 00b0 FB68     		ldr	r3, [r7, #12]
 517 00b2 1B68     		ldr	r3, [r3]
 518 00b4 DA68     		ldr	r2, [r3, #12]
 519 00b6 FB68     		ldr	r3, [r7, #12]
 520 00b8 1B68     		ldr	r3, [r3]
 521 00ba 42F40052 		orr	r2, r2, #8192
 522 00be DA60     		str	r2, [r3, #12]
 650:Drivers/STM32F4xx_HAL_Driver/Src/stm32f4xx_hal_uart.c **** 
 651:Drivers/STM32F4xx_HAL_Driver/Src/stm32f4xx_hal_uart.c ****   /* Initialize the UART state */
 652:Drivers/STM32F4xx_HAL_Driver/Src/stm32f4xx_hal_uart.c ****   huart->ErrorCode = HAL_UART_ERROR_NONE;
 523              		.loc 1 652 20
 524 00c0 FB68     		ldr	r3, [r7, #12]
 525 00c2 0022     		movs	r2, #0
 526 00c4 1A64     		str	r2, [r3, #64]
 653:Drivers/STM32F4xx_HAL_Driver/Src/stm32f4xx_hal_uart.c ****   huart->gState = HAL_UART_STATE_READY;
 527              		.loc 1 653 17
 528 00c6 FB68     		ldr	r3, [r7, #12]
 529 00c8 2022     		movs	r2, #32
 530 00ca 83F83D20 		strb	r2, [r3, #61]
 654:Drivers/STM32F4xx_HAL_Driver/Src/stm32f4xx_hal_uart.c ****   huart->RxState = HAL_UART_STATE_READY;
 531              		.loc 1 654 18
 532 00ce FB68     		ldr	r3, [r7, #12]
 533 00d0 2022     		movs	r2, #32
 534 00d2 83F83E20 		strb	r2, [r3, #62]
 655:Drivers/STM32F4xx_HAL_Driver/Src/stm32f4xx_hal_uart.c **** 
 656:Drivers/STM32F4xx_HAL_Driver/Src/stm32f4xx_hal_uart.c ****   return HAL_OK;
 535              		.loc 1 656 10
 536 00d6 0023     		movs	r3, #0
 537              	.L15:
 657:Drivers/STM32F4xx_HAL_Driver/Src/stm32f4xx_hal_uart.c **** }
 538              		.loc 1 657 1
 539 00d8 1846     		mov	r0, r3
 540 00da 1037     		adds	r7, r7, #16
 541              	.LCFI18:
 542              		.cfi_def_cfa_offset 8
 543 00dc BD46     		mov	sp, r7
 544              	.LCFI19:
 545              		.cfi_def_cfa_register 13
 546              		@ sp needed
 547 00de 80BD     		pop	{r7, pc}
ARM GAS  /tmp/ccIpdX1g.s 			page 22


 548              		.cfi_endproc
 549              	.LFE219:
 551              		.section	.text.HAL_UART_DeInit,"ax",%progbits
 552              		.align	1
 553              		.global	HAL_UART_DeInit
 554              		.syntax unified
 555              		.thumb
 556              		.thumb_func
 558              	HAL_UART_DeInit:
 559              	.LFB220:
 658:Drivers/STM32F4xx_HAL_Driver/Src/stm32f4xx_hal_uart.c **** 
 659:Drivers/STM32F4xx_HAL_Driver/Src/stm32f4xx_hal_uart.c **** /**
 660:Drivers/STM32F4xx_HAL_Driver/Src/stm32f4xx_hal_uart.c ****   * @brief  DeInitializes the UART peripheral.
 661:Drivers/STM32F4xx_HAL_Driver/Src/stm32f4xx_hal_uart.c ****   * @param  huart  Pointer to a UART_HandleTypeDef structure that contains
 662:Drivers/STM32F4xx_HAL_Driver/Src/stm32f4xx_hal_uart.c ****   *                the configuration information for the specified UART module.
 663:Drivers/STM32F4xx_HAL_Driver/Src/stm32f4xx_hal_uart.c ****   * @retval HAL status
 664:Drivers/STM32F4xx_HAL_Driver/Src/stm32f4xx_hal_uart.c ****   */
 665:Drivers/STM32F4xx_HAL_Driver/Src/stm32f4xx_hal_uart.c **** HAL_StatusTypeDef HAL_UART_DeInit(UART_HandleTypeDef *huart)
 666:Drivers/STM32F4xx_HAL_Driver/Src/stm32f4xx_hal_uart.c **** {
 560              		.loc 1 666 1
 561              		.cfi_startproc
 562              		@ args = 0, pretend = 0, frame = 8
 563              		@ frame_needed = 1, uses_anonymous_args = 0
 564 0000 80B5     		push	{r7, lr}
 565              	.LCFI20:
 566              		.cfi_def_cfa_offset 8
 567              		.cfi_offset 7, -8
 568              		.cfi_offset 14, -4
 569 0002 82B0     		sub	sp, sp, #8
 570              	.LCFI21:
 571              		.cfi_def_cfa_offset 16
 572 0004 00AF     		add	r7, sp, #0
 573              	.LCFI22:
 574              		.cfi_def_cfa_register 7
 575 0006 7860     		str	r0, [r7, #4]
 667:Drivers/STM32F4xx_HAL_Driver/Src/stm32f4xx_hal_uart.c ****   /* Check the UART handle allocation */
 668:Drivers/STM32F4xx_HAL_Driver/Src/stm32f4xx_hal_uart.c ****   if (huart == NULL)
 576              		.loc 1 668 6
 577 0008 7B68     		ldr	r3, [r7, #4]
 578 000a 002B     		cmp	r3, #0
 579 000c 01D1     		bne	.L18
 669:Drivers/STM32F4xx_HAL_Driver/Src/stm32f4xx_hal_uart.c ****   {
 670:Drivers/STM32F4xx_HAL_Driver/Src/stm32f4xx_hal_uart.c ****     return HAL_ERROR;
 580              		.loc 1 670 12
 581 000e 0123     		movs	r3, #1
 582 0010 21E0     		b	.L19
 583              	.L18:
 671:Drivers/STM32F4xx_HAL_Driver/Src/stm32f4xx_hal_uart.c ****   }
 672:Drivers/STM32F4xx_HAL_Driver/Src/stm32f4xx_hal_uart.c **** 
 673:Drivers/STM32F4xx_HAL_Driver/Src/stm32f4xx_hal_uart.c ****   /* Check the parameters */
 674:Drivers/STM32F4xx_HAL_Driver/Src/stm32f4xx_hal_uart.c ****   assert_param(IS_UART_INSTANCE(huart->Instance));
 675:Drivers/STM32F4xx_HAL_Driver/Src/stm32f4xx_hal_uart.c **** 
 676:Drivers/STM32F4xx_HAL_Driver/Src/stm32f4xx_hal_uart.c ****   huart->gState = HAL_UART_STATE_BUSY;
 584              		.loc 1 676 17
 585 0012 7B68     		ldr	r3, [r7, #4]
 586 0014 2422     		movs	r2, #36
 587 0016 83F83D20 		strb	r2, [r3, #61]
ARM GAS  /tmp/ccIpdX1g.s 			page 23


 677:Drivers/STM32F4xx_HAL_Driver/Src/stm32f4xx_hal_uart.c **** 
 678:Drivers/STM32F4xx_HAL_Driver/Src/stm32f4xx_hal_uart.c ****   /* Disable the Peripheral */
 679:Drivers/STM32F4xx_HAL_Driver/Src/stm32f4xx_hal_uart.c ****   __HAL_UART_DISABLE(huart);
 588              		.loc 1 679 3
 589 001a 7B68     		ldr	r3, [r7, #4]
 590 001c 1B68     		ldr	r3, [r3]
 591 001e DA68     		ldr	r2, [r3, #12]
 592 0020 7B68     		ldr	r3, [r7, #4]
 593 0022 1B68     		ldr	r3, [r3]
 594 0024 22F40052 		bic	r2, r2, #8192
 595 0028 DA60     		str	r2, [r3, #12]
 680:Drivers/STM32F4xx_HAL_Driver/Src/stm32f4xx_hal_uart.c **** 
 681:Drivers/STM32F4xx_HAL_Driver/Src/stm32f4xx_hal_uart.c **** #if (USE_HAL_UART_REGISTER_CALLBACKS == 1)
 682:Drivers/STM32F4xx_HAL_Driver/Src/stm32f4xx_hal_uart.c ****   if (huart->MspDeInitCallback == NULL)
 683:Drivers/STM32F4xx_HAL_Driver/Src/stm32f4xx_hal_uart.c ****   {
 684:Drivers/STM32F4xx_HAL_Driver/Src/stm32f4xx_hal_uart.c ****     huart->MspDeInitCallback = HAL_UART_MspDeInit;
 685:Drivers/STM32F4xx_HAL_Driver/Src/stm32f4xx_hal_uart.c ****   }
 686:Drivers/STM32F4xx_HAL_Driver/Src/stm32f4xx_hal_uart.c ****   /* DeInit the low level hardware */
 687:Drivers/STM32F4xx_HAL_Driver/Src/stm32f4xx_hal_uart.c ****   huart->MspDeInitCallback(huart);
 688:Drivers/STM32F4xx_HAL_Driver/Src/stm32f4xx_hal_uart.c **** #else
 689:Drivers/STM32F4xx_HAL_Driver/Src/stm32f4xx_hal_uart.c ****   /* DeInit the low level hardware */
 690:Drivers/STM32F4xx_HAL_Driver/Src/stm32f4xx_hal_uart.c ****   HAL_UART_MspDeInit(huart);
 596              		.loc 1 690 3
 597 002a 7868     		ldr	r0, [r7, #4]
 598 002c FFF7FEFF 		bl	HAL_UART_MspDeInit
 691:Drivers/STM32F4xx_HAL_Driver/Src/stm32f4xx_hal_uart.c **** #endif /* (USE_HAL_UART_REGISTER_CALLBACKS) */
 692:Drivers/STM32F4xx_HAL_Driver/Src/stm32f4xx_hal_uart.c **** 
 693:Drivers/STM32F4xx_HAL_Driver/Src/stm32f4xx_hal_uart.c ****   huart->ErrorCode = HAL_UART_ERROR_NONE;
 599              		.loc 1 693 20
 600 0030 7B68     		ldr	r3, [r7, #4]
 601 0032 0022     		movs	r2, #0
 602 0034 1A64     		str	r2, [r3, #64]
 694:Drivers/STM32F4xx_HAL_Driver/Src/stm32f4xx_hal_uart.c ****   huart->gState = HAL_UART_STATE_RESET;
 603              		.loc 1 694 17
 604 0036 7B68     		ldr	r3, [r7, #4]
 605 0038 0022     		movs	r2, #0
 606 003a 83F83D20 		strb	r2, [r3, #61]
 695:Drivers/STM32F4xx_HAL_Driver/Src/stm32f4xx_hal_uart.c ****   huart->RxState = HAL_UART_STATE_RESET;
 607              		.loc 1 695 18
 608 003e 7B68     		ldr	r3, [r7, #4]
 609 0040 0022     		movs	r2, #0
 610 0042 83F83E20 		strb	r2, [r3, #62]
 696:Drivers/STM32F4xx_HAL_Driver/Src/stm32f4xx_hal_uart.c ****   huart->ReceptionType = HAL_UART_RECEPTION_STANDARD;
 611              		.loc 1 696 24
 612 0046 7B68     		ldr	r3, [r7, #4]
 613 0048 0022     		movs	r2, #0
 614 004a 1A63     		str	r2, [r3, #48]
 697:Drivers/STM32F4xx_HAL_Driver/Src/stm32f4xx_hal_uart.c **** 
 698:Drivers/STM32F4xx_HAL_Driver/Src/stm32f4xx_hal_uart.c ****   /* Process Unlock */
 699:Drivers/STM32F4xx_HAL_Driver/Src/stm32f4xx_hal_uart.c ****   __HAL_UNLOCK(huart);
 615              		.loc 1 699 3
 616 004c 7B68     		ldr	r3, [r7, #4]
 617 004e 0022     		movs	r2, #0
 618 0050 83F83C20 		strb	r2, [r3, #60]
 700:Drivers/STM32F4xx_HAL_Driver/Src/stm32f4xx_hal_uart.c **** 
 701:Drivers/STM32F4xx_HAL_Driver/Src/stm32f4xx_hal_uart.c ****   return HAL_OK;
 619              		.loc 1 701 10
ARM GAS  /tmp/ccIpdX1g.s 			page 24


 620 0054 0023     		movs	r3, #0
 621              	.L19:
 702:Drivers/STM32F4xx_HAL_Driver/Src/stm32f4xx_hal_uart.c **** }
 622              		.loc 1 702 1
 623 0056 1846     		mov	r0, r3
 624 0058 0837     		adds	r7, r7, #8
 625              	.LCFI23:
 626              		.cfi_def_cfa_offset 8
 627 005a BD46     		mov	sp, r7
 628              	.LCFI24:
 629              		.cfi_def_cfa_register 13
 630              		@ sp needed
 631 005c 80BD     		pop	{r7, pc}
 632              		.cfi_endproc
 633              	.LFE220:
 635              		.section	.text.HAL_UART_MspInit,"ax",%progbits
 636              		.align	1
 637              		.weak	HAL_UART_MspInit
 638              		.syntax unified
 639              		.thumb
 640              		.thumb_func
 642              	HAL_UART_MspInit:
 643              	.LFB221:
 703:Drivers/STM32F4xx_HAL_Driver/Src/stm32f4xx_hal_uart.c **** 
 704:Drivers/STM32F4xx_HAL_Driver/Src/stm32f4xx_hal_uart.c **** /**
 705:Drivers/STM32F4xx_HAL_Driver/Src/stm32f4xx_hal_uart.c ****   * @brief  UART MSP Init.
 706:Drivers/STM32F4xx_HAL_Driver/Src/stm32f4xx_hal_uart.c ****   * @param  huart  Pointer to a UART_HandleTypeDef structure that contains
 707:Drivers/STM32F4xx_HAL_Driver/Src/stm32f4xx_hal_uart.c ****   *                the configuration information for the specified UART module.
 708:Drivers/STM32F4xx_HAL_Driver/Src/stm32f4xx_hal_uart.c ****   * @retval None
 709:Drivers/STM32F4xx_HAL_Driver/Src/stm32f4xx_hal_uart.c ****   */
 710:Drivers/STM32F4xx_HAL_Driver/Src/stm32f4xx_hal_uart.c **** __weak void HAL_UART_MspInit(UART_HandleTypeDef *huart)
 711:Drivers/STM32F4xx_HAL_Driver/Src/stm32f4xx_hal_uart.c **** {
 644              		.loc 1 711 1
 645              		.cfi_startproc
 646              		@ args = 0, pretend = 0, frame = 8
 647              		@ frame_needed = 1, uses_anonymous_args = 0
 648              		@ link register save eliminated.
 649 0000 80B4     		push	{r7}
 650              	.LCFI25:
 651              		.cfi_def_cfa_offset 4
 652              		.cfi_offset 7, -4
 653 0002 83B0     		sub	sp, sp, #12
 654              	.LCFI26:
 655              		.cfi_def_cfa_offset 16
 656 0004 00AF     		add	r7, sp, #0
 657              	.LCFI27:
 658              		.cfi_def_cfa_register 7
 659 0006 7860     		str	r0, [r7, #4]
 712:Drivers/STM32F4xx_HAL_Driver/Src/stm32f4xx_hal_uart.c ****   /* Prevent unused argument(s) compilation warning */
 713:Drivers/STM32F4xx_HAL_Driver/Src/stm32f4xx_hal_uart.c ****   UNUSED(huart);
 714:Drivers/STM32F4xx_HAL_Driver/Src/stm32f4xx_hal_uart.c ****   /* NOTE: This function should not be modified, when the callback is needed,
 715:Drivers/STM32F4xx_HAL_Driver/Src/stm32f4xx_hal_uart.c ****            the HAL_UART_MspInit could be implemented in the user file
 716:Drivers/STM32F4xx_HAL_Driver/Src/stm32f4xx_hal_uart.c ****    */
 717:Drivers/STM32F4xx_HAL_Driver/Src/stm32f4xx_hal_uart.c **** }
 660              		.loc 1 717 1
 661 0008 00BF     		nop
 662 000a 0C37     		adds	r7, r7, #12
ARM GAS  /tmp/ccIpdX1g.s 			page 25


 663              	.LCFI28:
 664              		.cfi_def_cfa_offset 4
 665 000c BD46     		mov	sp, r7
 666              	.LCFI29:
 667              		.cfi_def_cfa_register 13
 668              		@ sp needed
 669 000e 5DF8047B 		ldr	r7, [sp], #4
 670              	.LCFI30:
 671              		.cfi_restore 7
 672              		.cfi_def_cfa_offset 0
 673 0012 7047     		bx	lr
 674              		.cfi_endproc
 675              	.LFE221:
 677              		.section	.text.HAL_UART_MspDeInit,"ax",%progbits
 678              		.align	1
 679              		.weak	HAL_UART_MspDeInit
 680              		.syntax unified
 681              		.thumb
 682              		.thumb_func
 684              	HAL_UART_MspDeInit:
 685              	.LFB222:
 718:Drivers/STM32F4xx_HAL_Driver/Src/stm32f4xx_hal_uart.c **** 
 719:Drivers/STM32F4xx_HAL_Driver/Src/stm32f4xx_hal_uart.c **** /**
 720:Drivers/STM32F4xx_HAL_Driver/Src/stm32f4xx_hal_uart.c ****   * @brief  UART MSP DeInit.
 721:Drivers/STM32F4xx_HAL_Driver/Src/stm32f4xx_hal_uart.c ****   * @param  huart  Pointer to a UART_HandleTypeDef structure that contains
 722:Drivers/STM32F4xx_HAL_Driver/Src/stm32f4xx_hal_uart.c ****   *                the configuration information for the specified UART module.
 723:Drivers/STM32F4xx_HAL_Driver/Src/stm32f4xx_hal_uart.c ****   * @retval None
 724:Drivers/STM32F4xx_HAL_Driver/Src/stm32f4xx_hal_uart.c ****   */
 725:Drivers/STM32F4xx_HAL_Driver/Src/stm32f4xx_hal_uart.c **** __weak void HAL_UART_MspDeInit(UART_HandleTypeDef *huart)
 726:Drivers/STM32F4xx_HAL_Driver/Src/stm32f4xx_hal_uart.c **** {
 686              		.loc 1 726 1
 687              		.cfi_startproc
 688              		@ args = 0, pretend = 0, frame = 8
 689              		@ frame_needed = 1, uses_anonymous_args = 0
 690              		@ link register save eliminated.
 691 0000 80B4     		push	{r7}
 692              	.LCFI31:
 693              		.cfi_def_cfa_offset 4
 694              		.cfi_offset 7, -4
 695 0002 83B0     		sub	sp, sp, #12
 696              	.LCFI32:
 697              		.cfi_def_cfa_offset 16
 698 0004 00AF     		add	r7, sp, #0
 699              	.LCFI33:
 700              		.cfi_def_cfa_register 7
 701 0006 7860     		str	r0, [r7, #4]
 727:Drivers/STM32F4xx_HAL_Driver/Src/stm32f4xx_hal_uart.c ****   /* Prevent unused argument(s) compilation warning */
 728:Drivers/STM32F4xx_HAL_Driver/Src/stm32f4xx_hal_uart.c ****   UNUSED(huart);
 729:Drivers/STM32F4xx_HAL_Driver/Src/stm32f4xx_hal_uart.c ****   /* NOTE: This function should not be modified, when the callback is needed,
 730:Drivers/STM32F4xx_HAL_Driver/Src/stm32f4xx_hal_uart.c ****            the HAL_UART_MspDeInit could be implemented in the user file
 731:Drivers/STM32F4xx_HAL_Driver/Src/stm32f4xx_hal_uart.c ****    */
 732:Drivers/STM32F4xx_HAL_Driver/Src/stm32f4xx_hal_uart.c **** }
 702              		.loc 1 732 1
 703 0008 00BF     		nop
 704 000a 0C37     		adds	r7, r7, #12
 705              	.LCFI34:
 706              		.cfi_def_cfa_offset 4
ARM GAS  /tmp/ccIpdX1g.s 			page 26


 707 000c BD46     		mov	sp, r7
 708              	.LCFI35:
 709              		.cfi_def_cfa_register 13
 710              		@ sp needed
 711 000e 5DF8047B 		ldr	r7, [sp], #4
 712              	.LCFI36:
 713              		.cfi_restore 7
 714              		.cfi_def_cfa_offset 0
 715 0012 7047     		bx	lr
 716              		.cfi_endproc
 717              	.LFE222:
 719              		.section	.text.HAL_UART_Transmit,"ax",%progbits
 720              		.align	1
 721              		.global	HAL_UART_Transmit
 722              		.syntax unified
 723              		.thumb
 724              		.thumb_func
 726              	HAL_UART_Transmit:
 727              	.LFB223:
 733:Drivers/STM32F4xx_HAL_Driver/Src/stm32f4xx_hal_uart.c **** 
 734:Drivers/STM32F4xx_HAL_Driver/Src/stm32f4xx_hal_uart.c **** #if (USE_HAL_UART_REGISTER_CALLBACKS == 1)
 735:Drivers/STM32F4xx_HAL_Driver/Src/stm32f4xx_hal_uart.c **** /**
 736:Drivers/STM32F4xx_HAL_Driver/Src/stm32f4xx_hal_uart.c ****   * @brief  Register a User UART Callback
 737:Drivers/STM32F4xx_HAL_Driver/Src/stm32f4xx_hal_uart.c ****   *         To be used instead of the weak predefined callback
 738:Drivers/STM32F4xx_HAL_Driver/Src/stm32f4xx_hal_uart.c ****   * @param  huart uart handle
 739:Drivers/STM32F4xx_HAL_Driver/Src/stm32f4xx_hal_uart.c ****   * @param  CallbackID ID of the callback to be registered
 740:Drivers/STM32F4xx_HAL_Driver/Src/stm32f4xx_hal_uart.c ****   *         This parameter can be one of the following values:
 741:Drivers/STM32F4xx_HAL_Driver/Src/stm32f4xx_hal_uart.c ****   *           @arg @ref HAL_UART_TX_HALFCOMPLETE_CB_ID Tx Half Complete Callback ID
 742:Drivers/STM32F4xx_HAL_Driver/Src/stm32f4xx_hal_uart.c ****   *           @arg @ref HAL_UART_TX_COMPLETE_CB_ID Tx Complete Callback ID
 743:Drivers/STM32F4xx_HAL_Driver/Src/stm32f4xx_hal_uart.c ****   *           @arg @ref HAL_UART_RX_HALFCOMPLETE_CB_ID Rx Half Complete Callback ID
 744:Drivers/STM32F4xx_HAL_Driver/Src/stm32f4xx_hal_uart.c ****   *           @arg @ref HAL_UART_RX_COMPLETE_CB_ID Rx Complete Callback ID
 745:Drivers/STM32F4xx_HAL_Driver/Src/stm32f4xx_hal_uart.c ****   *           @arg @ref HAL_UART_ERROR_CB_ID Error Callback ID
 746:Drivers/STM32F4xx_HAL_Driver/Src/stm32f4xx_hal_uart.c ****   *           @arg @ref HAL_UART_ABORT_COMPLETE_CB_ID Abort Complete Callback ID
 747:Drivers/STM32F4xx_HAL_Driver/Src/stm32f4xx_hal_uart.c ****   *           @arg @ref HAL_UART_ABORT_TRANSMIT_COMPLETE_CB_ID Abort Transmit Complete Callback ID
 748:Drivers/STM32F4xx_HAL_Driver/Src/stm32f4xx_hal_uart.c ****   *           @arg @ref HAL_UART_ABORT_RECEIVE_COMPLETE_CB_ID Abort Receive Complete Callback ID
 749:Drivers/STM32F4xx_HAL_Driver/Src/stm32f4xx_hal_uart.c ****   *           @arg @ref HAL_UART_MSPINIT_CB_ID MspInit Callback ID
 750:Drivers/STM32F4xx_HAL_Driver/Src/stm32f4xx_hal_uart.c ****   *           @arg @ref HAL_UART_MSPDEINIT_CB_ID MspDeInit Callback ID
 751:Drivers/STM32F4xx_HAL_Driver/Src/stm32f4xx_hal_uart.c ****   * @param  pCallback pointer to the Callback function
 752:Drivers/STM32F4xx_HAL_Driver/Src/stm32f4xx_hal_uart.c ****   * @retval HAL status
 753:Drivers/STM32F4xx_HAL_Driver/Src/stm32f4xx_hal_uart.c ****   */
 754:Drivers/STM32F4xx_HAL_Driver/Src/stm32f4xx_hal_uart.c **** HAL_StatusTypeDef HAL_UART_RegisterCallback(UART_HandleTypeDef *huart, HAL_UART_CallbackIDTypeDef C
 755:Drivers/STM32F4xx_HAL_Driver/Src/stm32f4xx_hal_uart.c ****                                             pUART_CallbackTypeDef pCallback)
 756:Drivers/STM32F4xx_HAL_Driver/Src/stm32f4xx_hal_uart.c **** {
 757:Drivers/STM32F4xx_HAL_Driver/Src/stm32f4xx_hal_uart.c ****   HAL_StatusTypeDef status = HAL_OK;
 758:Drivers/STM32F4xx_HAL_Driver/Src/stm32f4xx_hal_uart.c **** 
 759:Drivers/STM32F4xx_HAL_Driver/Src/stm32f4xx_hal_uart.c ****   if (pCallback == NULL)
 760:Drivers/STM32F4xx_HAL_Driver/Src/stm32f4xx_hal_uart.c ****   {
 761:Drivers/STM32F4xx_HAL_Driver/Src/stm32f4xx_hal_uart.c ****     /* Update the error code */
 762:Drivers/STM32F4xx_HAL_Driver/Src/stm32f4xx_hal_uart.c ****     huart->ErrorCode |= HAL_UART_ERROR_INVALID_CALLBACK;
 763:Drivers/STM32F4xx_HAL_Driver/Src/stm32f4xx_hal_uart.c **** 
 764:Drivers/STM32F4xx_HAL_Driver/Src/stm32f4xx_hal_uart.c ****     return HAL_ERROR;
 765:Drivers/STM32F4xx_HAL_Driver/Src/stm32f4xx_hal_uart.c ****   }
 766:Drivers/STM32F4xx_HAL_Driver/Src/stm32f4xx_hal_uart.c ****   /* Process locked */
 767:Drivers/STM32F4xx_HAL_Driver/Src/stm32f4xx_hal_uart.c ****   __HAL_LOCK(huart);
 768:Drivers/STM32F4xx_HAL_Driver/Src/stm32f4xx_hal_uart.c **** 
 769:Drivers/STM32F4xx_HAL_Driver/Src/stm32f4xx_hal_uart.c ****   if (huart->gState == HAL_UART_STATE_READY)
 770:Drivers/STM32F4xx_HAL_Driver/Src/stm32f4xx_hal_uart.c ****   {
ARM GAS  /tmp/ccIpdX1g.s 			page 27


 771:Drivers/STM32F4xx_HAL_Driver/Src/stm32f4xx_hal_uart.c ****     switch (CallbackID)
 772:Drivers/STM32F4xx_HAL_Driver/Src/stm32f4xx_hal_uart.c ****     {
 773:Drivers/STM32F4xx_HAL_Driver/Src/stm32f4xx_hal_uart.c ****       case HAL_UART_TX_HALFCOMPLETE_CB_ID :
 774:Drivers/STM32F4xx_HAL_Driver/Src/stm32f4xx_hal_uart.c ****         huart->TxHalfCpltCallback = pCallback;
 775:Drivers/STM32F4xx_HAL_Driver/Src/stm32f4xx_hal_uart.c ****         break;
 776:Drivers/STM32F4xx_HAL_Driver/Src/stm32f4xx_hal_uart.c **** 
 777:Drivers/STM32F4xx_HAL_Driver/Src/stm32f4xx_hal_uart.c ****       case HAL_UART_TX_COMPLETE_CB_ID :
 778:Drivers/STM32F4xx_HAL_Driver/Src/stm32f4xx_hal_uart.c ****         huart->TxCpltCallback = pCallback;
 779:Drivers/STM32F4xx_HAL_Driver/Src/stm32f4xx_hal_uart.c ****         break;
 780:Drivers/STM32F4xx_HAL_Driver/Src/stm32f4xx_hal_uart.c **** 
 781:Drivers/STM32F4xx_HAL_Driver/Src/stm32f4xx_hal_uart.c ****       case HAL_UART_RX_HALFCOMPLETE_CB_ID :
 782:Drivers/STM32F4xx_HAL_Driver/Src/stm32f4xx_hal_uart.c ****         huart->RxHalfCpltCallback = pCallback;
 783:Drivers/STM32F4xx_HAL_Driver/Src/stm32f4xx_hal_uart.c ****         break;
 784:Drivers/STM32F4xx_HAL_Driver/Src/stm32f4xx_hal_uart.c **** 
 785:Drivers/STM32F4xx_HAL_Driver/Src/stm32f4xx_hal_uart.c ****       case HAL_UART_RX_COMPLETE_CB_ID :
 786:Drivers/STM32F4xx_HAL_Driver/Src/stm32f4xx_hal_uart.c ****         huart->RxCpltCallback = pCallback;
 787:Drivers/STM32F4xx_HAL_Driver/Src/stm32f4xx_hal_uart.c ****         break;
 788:Drivers/STM32F4xx_HAL_Driver/Src/stm32f4xx_hal_uart.c **** 
 789:Drivers/STM32F4xx_HAL_Driver/Src/stm32f4xx_hal_uart.c ****       case HAL_UART_ERROR_CB_ID :
 790:Drivers/STM32F4xx_HAL_Driver/Src/stm32f4xx_hal_uart.c ****         huart->ErrorCallback = pCallback;
 791:Drivers/STM32F4xx_HAL_Driver/Src/stm32f4xx_hal_uart.c ****         break;
 792:Drivers/STM32F4xx_HAL_Driver/Src/stm32f4xx_hal_uart.c **** 
 793:Drivers/STM32F4xx_HAL_Driver/Src/stm32f4xx_hal_uart.c ****       case HAL_UART_ABORT_COMPLETE_CB_ID :
 794:Drivers/STM32F4xx_HAL_Driver/Src/stm32f4xx_hal_uart.c ****         huart->AbortCpltCallback = pCallback;
 795:Drivers/STM32F4xx_HAL_Driver/Src/stm32f4xx_hal_uart.c ****         break;
 796:Drivers/STM32F4xx_HAL_Driver/Src/stm32f4xx_hal_uart.c **** 
 797:Drivers/STM32F4xx_HAL_Driver/Src/stm32f4xx_hal_uart.c ****       case HAL_UART_ABORT_TRANSMIT_COMPLETE_CB_ID :
 798:Drivers/STM32F4xx_HAL_Driver/Src/stm32f4xx_hal_uart.c ****         huart->AbortTransmitCpltCallback = pCallback;
 799:Drivers/STM32F4xx_HAL_Driver/Src/stm32f4xx_hal_uart.c ****         break;
 800:Drivers/STM32F4xx_HAL_Driver/Src/stm32f4xx_hal_uart.c **** 
 801:Drivers/STM32F4xx_HAL_Driver/Src/stm32f4xx_hal_uart.c ****       case HAL_UART_ABORT_RECEIVE_COMPLETE_CB_ID :
 802:Drivers/STM32F4xx_HAL_Driver/Src/stm32f4xx_hal_uart.c ****         huart->AbortReceiveCpltCallback = pCallback;
 803:Drivers/STM32F4xx_HAL_Driver/Src/stm32f4xx_hal_uart.c ****         break;
 804:Drivers/STM32F4xx_HAL_Driver/Src/stm32f4xx_hal_uart.c **** 
 805:Drivers/STM32F4xx_HAL_Driver/Src/stm32f4xx_hal_uart.c ****       case HAL_UART_MSPINIT_CB_ID :
 806:Drivers/STM32F4xx_HAL_Driver/Src/stm32f4xx_hal_uart.c ****         huart->MspInitCallback = pCallback;
 807:Drivers/STM32F4xx_HAL_Driver/Src/stm32f4xx_hal_uart.c ****         break;
 808:Drivers/STM32F4xx_HAL_Driver/Src/stm32f4xx_hal_uart.c **** 
 809:Drivers/STM32F4xx_HAL_Driver/Src/stm32f4xx_hal_uart.c ****       case HAL_UART_MSPDEINIT_CB_ID :
 810:Drivers/STM32F4xx_HAL_Driver/Src/stm32f4xx_hal_uart.c ****         huart->MspDeInitCallback = pCallback;
 811:Drivers/STM32F4xx_HAL_Driver/Src/stm32f4xx_hal_uart.c ****         break;
 812:Drivers/STM32F4xx_HAL_Driver/Src/stm32f4xx_hal_uart.c **** 
 813:Drivers/STM32F4xx_HAL_Driver/Src/stm32f4xx_hal_uart.c ****       default :
 814:Drivers/STM32F4xx_HAL_Driver/Src/stm32f4xx_hal_uart.c ****         /* Update the error code */
 815:Drivers/STM32F4xx_HAL_Driver/Src/stm32f4xx_hal_uart.c ****         huart->ErrorCode |= HAL_UART_ERROR_INVALID_CALLBACK;
 816:Drivers/STM32F4xx_HAL_Driver/Src/stm32f4xx_hal_uart.c **** 
 817:Drivers/STM32F4xx_HAL_Driver/Src/stm32f4xx_hal_uart.c ****         /* Return error status */
 818:Drivers/STM32F4xx_HAL_Driver/Src/stm32f4xx_hal_uart.c ****         status =  HAL_ERROR;
 819:Drivers/STM32F4xx_HAL_Driver/Src/stm32f4xx_hal_uart.c ****         break;
 820:Drivers/STM32F4xx_HAL_Driver/Src/stm32f4xx_hal_uart.c ****     }
 821:Drivers/STM32F4xx_HAL_Driver/Src/stm32f4xx_hal_uart.c ****   }
 822:Drivers/STM32F4xx_HAL_Driver/Src/stm32f4xx_hal_uart.c ****   else if (huart->gState == HAL_UART_STATE_RESET)
 823:Drivers/STM32F4xx_HAL_Driver/Src/stm32f4xx_hal_uart.c ****   {
 824:Drivers/STM32F4xx_HAL_Driver/Src/stm32f4xx_hal_uart.c ****     switch (CallbackID)
 825:Drivers/STM32F4xx_HAL_Driver/Src/stm32f4xx_hal_uart.c ****     {
 826:Drivers/STM32F4xx_HAL_Driver/Src/stm32f4xx_hal_uart.c ****       case HAL_UART_MSPINIT_CB_ID :
 827:Drivers/STM32F4xx_HAL_Driver/Src/stm32f4xx_hal_uart.c ****         huart->MspInitCallback = pCallback;
ARM GAS  /tmp/ccIpdX1g.s 			page 28


 828:Drivers/STM32F4xx_HAL_Driver/Src/stm32f4xx_hal_uart.c ****         break;
 829:Drivers/STM32F4xx_HAL_Driver/Src/stm32f4xx_hal_uart.c **** 
 830:Drivers/STM32F4xx_HAL_Driver/Src/stm32f4xx_hal_uart.c ****       case HAL_UART_MSPDEINIT_CB_ID :
 831:Drivers/STM32F4xx_HAL_Driver/Src/stm32f4xx_hal_uart.c ****         huart->MspDeInitCallback = pCallback;
 832:Drivers/STM32F4xx_HAL_Driver/Src/stm32f4xx_hal_uart.c ****         break;
 833:Drivers/STM32F4xx_HAL_Driver/Src/stm32f4xx_hal_uart.c **** 
 834:Drivers/STM32F4xx_HAL_Driver/Src/stm32f4xx_hal_uart.c ****       default :
 835:Drivers/STM32F4xx_HAL_Driver/Src/stm32f4xx_hal_uart.c ****         /* Update the error code */
 836:Drivers/STM32F4xx_HAL_Driver/Src/stm32f4xx_hal_uart.c ****         huart->ErrorCode |= HAL_UART_ERROR_INVALID_CALLBACK;
 837:Drivers/STM32F4xx_HAL_Driver/Src/stm32f4xx_hal_uart.c **** 
 838:Drivers/STM32F4xx_HAL_Driver/Src/stm32f4xx_hal_uart.c ****         /* Return error status */
 839:Drivers/STM32F4xx_HAL_Driver/Src/stm32f4xx_hal_uart.c ****         status =  HAL_ERROR;
 840:Drivers/STM32F4xx_HAL_Driver/Src/stm32f4xx_hal_uart.c ****         break;
 841:Drivers/STM32F4xx_HAL_Driver/Src/stm32f4xx_hal_uart.c ****     }
 842:Drivers/STM32F4xx_HAL_Driver/Src/stm32f4xx_hal_uart.c ****   }
 843:Drivers/STM32F4xx_HAL_Driver/Src/stm32f4xx_hal_uart.c ****   else
 844:Drivers/STM32F4xx_HAL_Driver/Src/stm32f4xx_hal_uart.c ****   {
 845:Drivers/STM32F4xx_HAL_Driver/Src/stm32f4xx_hal_uart.c ****     /* Update the error code */
 846:Drivers/STM32F4xx_HAL_Driver/Src/stm32f4xx_hal_uart.c ****     huart->ErrorCode |= HAL_UART_ERROR_INVALID_CALLBACK;
 847:Drivers/STM32F4xx_HAL_Driver/Src/stm32f4xx_hal_uart.c **** 
 848:Drivers/STM32F4xx_HAL_Driver/Src/stm32f4xx_hal_uart.c ****     /* Return error status */
 849:Drivers/STM32F4xx_HAL_Driver/Src/stm32f4xx_hal_uart.c ****     status =  HAL_ERROR;
 850:Drivers/STM32F4xx_HAL_Driver/Src/stm32f4xx_hal_uart.c ****   }
 851:Drivers/STM32F4xx_HAL_Driver/Src/stm32f4xx_hal_uart.c **** 
 852:Drivers/STM32F4xx_HAL_Driver/Src/stm32f4xx_hal_uart.c ****   /* Release Lock */
 853:Drivers/STM32F4xx_HAL_Driver/Src/stm32f4xx_hal_uart.c ****   __HAL_UNLOCK(huart);
 854:Drivers/STM32F4xx_HAL_Driver/Src/stm32f4xx_hal_uart.c **** 
 855:Drivers/STM32F4xx_HAL_Driver/Src/stm32f4xx_hal_uart.c ****   return status;
 856:Drivers/STM32F4xx_HAL_Driver/Src/stm32f4xx_hal_uart.c **** }
 857:Drivers/STM32F4xx_HAL_Driver/Src/stm32f4xx_hal_uart.c **** 
 858:Drivers/STM32F4xx_HAL_Driver/Src/stm32f4xx_hal_uart.c **** /**
 859:Drivers/STM32F4xx_HAL_Driver/Src/stm32f4xx_hal_uart.c ****   * @brief  Unregister an UART Callback
 860:Drivers/STM32F4xx_HAL_Driver/Src/stm32f4xx_hal_uart.c ****   *         UART callaback is redirected to the weak predefined callback
 861:Drivers/STM32F4xx_HAL_Driver/Src/stm32f4xx_hal_uart.c ****   * @param  huart uart handle
 862:Drivers/STM32F4xx_HAL_Driver/Src/stm32f4xx_hal_uart.c ****   * @param  CallbackID ID of the callback to be unregistered
 863:Drivers/STM32F4xx_HAL_Driver/Src/stm32f4xx_hal_uart.c ****   *         This parameter can be one of the following values:
 864:Drivers/STM32F4xx_HAL_Driver/Src/stm32f4xx_hal_uart.c ****   *           @arg @ref HAL_UART_TX_HALFCOMPLETE_CB_ID Tx Half Complete Callback ID
 865:Drivers/STM32F4xx_HAL_Driver/Src/stm32f4xx_hal_uart.c ****   *           @arg @ref HAL_UART_TX_COMPLETE_CB_ID Tx Complete Callback ID
 866:Drivers/STM32F4xx_HAL_Driver/Src/stm32f4xx_hal_uart.c ****   *           @arg @ref HAL_UART_RX_HALFCOMPLETE_CB_ID Rx Half Complete Callback ID
 867:Drivers/STM32F4xx_HAL_Driver/Src/stm32f4xx_hal_uart.c ****   *           @arg @ref HAL_UART_RX_COMPLETE_CB_ID Rx Complete Callback ID
 868:Drivers/STM32F4xx_HAL_Driver/Src/stm32f4xx_hal_uart.c ****   *           @arg @ref HAL_UART_ERROR_CB_ID Error Callback ID
 869:Drivers/STM32F4xx_HAL_Driver/Src/stm32f4xx_hal_uart.c ****   *           @arg @ref HAL_UART_ABORT_COMPLETE_CB_ID Abort Complete Callback ID
 870:Drivers/STM32F4xx_HAL_Driver/Src/stm32f4xx_hal_uart.c ****   *           @arg @ref HAL_UART_ABORT_TRANSMIT_COMPLETE_CB_ID Abort Transmit Complete Callback ID
 871:Drivers/STM32F4xx_HAL_Driver/Src/stm32f4xx_hal_uart.c ****   *           @arg @ref HAL_UART_ABORT_RECEIVE_COMPLETE_CB_ID Abort Receive Complete Callback ID
 872:Drivers/STM32F4xx_HAL_Driver/Src/stm32f4xx_hal_uart.c ****   *           @arg @ref HAL_UART_MSPINIT_CB_ID MspInit Callback ID
 873:Drivers/STM32F4xx_HAL_Driver/Src/stm32f4xx_hal_uart.c ****   *           @arg @ref HAL_UART_MSPDEINIT_CB_ID MspDeInit Callback ID
 874:Drivers/STM32F4xx_HAL_Driver/Src/stm32f4xx_hal_uart.c ****   * @retval HAL status
 875:Drivers/STM32F4xx_HAL_Driver/Src/stm32f4xx_hal_uart.c ****   */
 876:Drivers/STM32F4xx_HAL_Driver/Src/stm32f4xx_hal_uart.c **** HAL_StatusTypeDef HAL_UART_UnRegisterCallback(UART_HandleTypeDef *huart, HAL_UART_CallbackIDTypeDef
 877:Drivers/STM32F4xx_HAL_Driver/Src/stm32f4xx_hal_uart.c **** {
 878:Drivers/STM32F4xx_HAL_Driver/Src/stm32f4xx_hal_uart.c ****   HAL_StatusTypeDef status = HAL_OK;
 879:Drivers/STM32F4xx_HAL_Driver/Src/stm32f4xx_hal_uart.c **** 
 880:Drivers/STM32F4xx_HAL_Driver/Src/stm32f4xx_hal_uart.c ****   /* Process locked */
 881:Drivers/STM32F4xx_HAL_Driver/Src/stm32f4xx_hal_uart.c ****   __HAL_LOCK(huart);
 882:Drivers/STM32F4xx_HAL_Driver/Src/stm32f4xx_hal_uart.c **** 
 883:Drivers/STM32F4xx_HAL_Driver/Src/stm32f4xx_hal_uart.c ****   if (HAL_UART_STATE_READY == huart->gState)
 884:Drivers/STM32F4xx_HAL_Driver/Src/stm32f4xx_hal_uart.c ****   {
ARM GAS  /tmp/ccIpdX1g.s 			page 29


 885:Drivers/STM32F4xx_HAL_Driver/Src/stm32f4xx_hal_uart.c ****     switch (CallbackID)
 886:Drivers/STM32F4xx_HAL_Driver/Src/stm32f4xx_hal_uart.c ****     {
 887:Drivers/STM32F4xx_HAL_Driver/Src/stm32f4xx_hal_uart.c ****       case HAL_UART_TX_HALFCOMPLETE_CB_ID :
 888:Drivers/STM32F4xx_HAL_Driver/Src/stm32f4xx_hal_uart.c ****         huart->TxHalfCpltCallback = HAL_UART_TxHalfCpltCallback;               /* Legacy weak  TxHa
 889:Drivers/STM32F4xx_HAL_Driver/Src/stm32f4xx_hal_uart.c ****         break;
 890:Drivers/STM32F4xx_HAL_Driver/Src/stm32f4xx_hal_uart.c **** 
 891:Drivers/STM32F4xx_HAL_Driver/Src/stm32f4xx_hal_uart.c ****       case HAL_UART_TX_COMPLETE_CB_ID :
 892:Drivers/STM32F4xx_HAL_Driver/Src/stm32f4xx_hal_uart.c ****         huart->TxCpltCallback = HAL_UART_TxCpltCallback;                       /* Legacy weak TxCpl
 893:Drivers/STM32F4xx_HAL_Driver/Src/stm32f4xx_hal_uart.c ****         break;
 894:Drivers/STM32F4xx_HAL_Driver/Src/stm32f4xx_hal_uart.c **** 
 895:Drivers/STM32F4xx_HAL_Driver/Src/stm32f4xx_hal_uart.c ****       case HAL_UART_RX_HALFCOMPLETE_CB_ID :
 896:Drivers/STM32F4xx_HAL_Driver/Src/stm32f4xx_hal_uart.c ****         huart->RxHalfCpltCallback = HAL_UART_RxHalfCpltCallback;               /* Legacy weak RxHal
 897:Drivers/STM32F4xx_HAL_Driver/Src/stm32f4xx_hal_uart.c ****         break;
 898:Drivers/STM32F4xx_HAL_Driver/Src/stm32f4xx_hal_uart.c **** 
 899:Drivers/STM32F4xx_HAL_Driver/Src/stm32f4xx_hal_uart.c ****       case HAL_UART_RX_COMPLETE_CB_ID :
 900:Drivers/STM32F4xx_HAL_Driver/Src/stm32f4xx_hal_uart.c ****         huart->RxCpltCallback = HAL_UART_RxCpltCallback;                       /* Legacy weak RxCpl
 901:Drivers/STM32F4xx_HAL_Driver/Src/stm32f4xx_hal_uart.c ****         break;
 902:Drivers/STM32F4xx_HAL_Driver/Src/stm32f4xx_hal_uart.c **** 
 903:Drivers/STM32F4xx_HAL_Driver/Src/stm32f4xx_hal_uart.c ****       case HAL_UART_ERROR_CB_ID :
 904:Drivers/STM32F4xx_HAL_Driver/Src/stm32f4xx_hal_uart.c ****         huart->ErrorCallback = HAL_UART_ErrorCallback;                         /* Legacy weak Error
 905:Drivers/STM32F4xx_HAL_Driver/Src/stm32f4xx_hal_uart.c ****         break;
 906:Drivers/STM32F4xx_HAL_Driver/Src/stm32f4xx_hal_uart.c **** 
 907:Drivers/STM32F4xx_HAL_Driver/Src/stm32f4xx_hal_uart.c ****       case HAL_UART_ABORT_COMPLETE_CB_ID :
 908:Drivers/STM32F4xx_HAL_Driver/Src/stm32f4xx_hal_uart.c ****         huart->AbortCpltCallback = HAL_UART_AbortCpltCallback;                 /* Legacy weak Abort
 909:Drivers/STM32F4xx_HAL_Driver/Src/stm32f4xx_hal_uart.c ****         break;
 910:Drivers/STM32F4xx_HAL_Driver/Src/stm32f4xx_hal_uart.c **** 
 911:Drivers/STM32F4xx_HAL_Driver/Src/stm32f4xx_hal_uart.c ****       case HAL_UART_ABORT_TRANSMIT_COMPLETE_CB_ID :
 912:Drivers/STM32F4xx_HAL_Driver/Src/stm32f4xx_hal_uart.c ****         huart->AbortTransmitCpltCallback = HAL_UART_AbortTransmitCpltCallback; /* Legacy weak Abort
 913:Drivers/STM32F4xx_HAL_Driver/Src/stm32f4xx_hal_uart.c ****         break;
 914:Drivers/STM32F4xx_HAL_Driver/Src/stm32f4xx_hal_uart.c **** 
 915:Drivers/STM32F4xx_HAL_Driver/Src/stm32f4xx_hal_uart.c ****       case HAL_UART_ABORT_RECEIVE_COMPLETE_CB_ID :
 916:Drivers/STM32F4xx_HAL_Driver/Src/stm32f4xx_hal_uart.c ****         huart->AbortReceiveCpltCallback = HAL_UART_AbortReceiveCpltCallback;   /* Legacy weak Abort
 917:Drivers/STM32F4xx_HAL_Driver/Src/stm32f4xx_hal_uart.c ****         break;
 918:Drivers/STM32F4xx_HAL_Driver/Src/stm32f4xx_hal_uart.c **** 
 919:Drivers/STM32F4xx_HAL_Driver/Src/stm32f4xx_hal_uart.c ****       case HAL_UART_MSPINIT_CB_ID :
 920:Drivers/STM32F4xx_HAL_Driver/Src/stm32f4xx_hal_uart.c ****         huart->MspInitCallback = HAL_UART_MspInit;                             /* Legacy weak MspIn
 921:Drivers/STM32F4xx_HAL_Driver/Src/stm32f4xx_hal_uart.c ****         break;
 922:Drivers/STM32F4xx_HAL_Driver/Src/stm32f4xx_hal_uart.c **** 
 923:Drivers/STM32F4xx_HAL_Driver/Src/stm32f4xx_hal_uart.c ****       case HAL_UART_MSPDEINIT_CB_ID :
 924:Drivers/STM32F4xx_HAL_Driver/Src/stm32f4xx_hal_uart.c ****         huart->MspDeInitCallback = HAL_UART_MspDeInit;                         /* Legacy weak MspDe
 925:Drivers/STM32F4xx_HAL_Driver/Src/stm32f4xx_hal_uart.c ****         break;
 926:Drivers/STM32F4xx_HAL_Driver/Src/stm32f4xx_hal_uart.c **** 
 927:Drivers/STM32F4xx_HAL_Driver/Src/stm32f4xx_hal_uart.c ****       default :
 928:Drivers/STM32F4xx_HAL_Driver/Src/stm32f4xx_hal_uart.c ****         /* Update the error code */
 929:Drivers/STM32F4xx_HAL_Driver/Src/stm32f4xx_hal_uart.c ****         huart->ErrorCode |= HAL_UART_ERROR_INVALID_CALLBACK;
 930:Drivers/STM32F4xx_HAL_Driver/Src/stm32f4xx_hal_uart.c **** 
 931:Drivers/STM32F4xx_HAL_Driver/Src/stm32f4xx_hal_uart.c ****         /* Return error status */
 932:Drivers/STM32F4xx_HAL_Driver/Src/stm32f4xx_hal_uart.c ****         status =  HAL_ERROR;
 933:Drivers/STM32F4xx_HAL_Driver/Src/stm32f4xx_hal_uart.c ****         break;
 934:Drivers/STM32F4xx_HAL_Driver/Src/stm32f4xx_hal_uart.c ****     }
 935:Drivers/STM32F4xx_HAL_Driver/Src/stm32f4xx_hal_uart.c ****   }
 936:Drivers/STM32F4xx_HAL_Driver/Src/stm32f4xx_hal_uart.c ****   else if (HAL_UART_STATE_RESET == huart->gState)
 937:Drivers/STM32F4xx_HAL_Driver/Src/stm32f4xx_hal_uart.c ****   {
 938:Drivers/STM32F4xx_HAL_Driver/Src/stm32f4xx_hal_uart.c ****     switch (CallbackID)
 939:Drivers/STM32F4xx_HAL_Driver/Src/stm32f4xx_hal_uart.c ****     {
 940:Drivers/STM32F4xx_HAL_Driver/Src/stm32f4xx_hal_uart.c ****       case HAL_UART_MSPINIT_CB_ID :
 941:Drivers/STM32F4xx_HAL_Driver/Src/stm32f4xx_hal_uart.c ****         huart->MspInitCallback = HAL_UART_MspInit;
ARM GAS  /tmp/ccIpdX1g.s 			page 30


 942:Drivers/STM32F4xx_HAL_Driver/Src/stm32f4xx_hal_uart.c ****         break;
 943:Drivers/STM32F4xx_HAL_Driver/Src/stm32f4xx_hal_uart.c **** 
 944:Drivers/STM32F4xx_HAL_Driver/Src/stm32f4xx_hal_uart.c ****       case HAL_UART_MSPDEINIT_CB_ID :
 945:Drivers/STM32F4xx_HAL_Driver/Src/stm32f4xx_hal_uart.c ****         huart->MspDeInitCallback = HAL_UART_MspDeInit;
 946:Drivers/STM32F4xx_HAL_Driver/Src/stm32f4xx_hal_uart.c ****         break;
 947:Drivers/STM32F4xx_HAL_Driver/Src/stm32f4xx_hal_uart.c **** 
 948:Drivers/STM32F4xx_HAL_Driver/Src/stm32f4xx_hal_uart.c ****       default :
 949:Drivers/STM32F4xx_HAL_Driver/Src/stm32f4xx_hal_uart.c ****         /* Update the error code */
 950:Drivers/STM32F4xx_HAL_Driver/Src/stm32f4xx_hal_uart.c ****         huart->ErrorCode |= HAL_UART_ERROR_INVALID_CALLBACK;
 951:Drivers/STM32F4xx_HAL_Driver/Src/stm32f4xx_hal_uart.c **** 
 952:Drivers/STM32F4xx_HAL_Driver/Src/stm32f4xx_hal_uart.c ****         /* Return error status */
 953:Drivers/STM32F4xx_HAL_Driver/Src/stm32f4xx_hal_uart.c ****         status =  HAL_ERROR;
 954:Drivers/STM32F4xx_HAL_Driver/Src/stm32f4xx_hal_uart.c ****         break;
 955:Drivers/STM32F4xx_HAL_Driver/Src/stm32f4xx_hal_uart.c ****     }
 956:Drivers/STM32F4xx_HAL_Driver/Src/stm32f4xx_hal_uart.c ****   }
 957:Drivers/STM32F4xx_HAL_Driver/Src/stm32f4xx_hal_uart.c ****   else
 958:Drivers/STM32F4xx_HAL_Driver/Src/stm32f4xx_hal_uart.c ****   {
 959:Drivers/STM32F4xx_HAL_Driver/Src/stm32f4xx_hal_uart.c ****     /* Update the error code */
 960:Drivers/STM32F4xx_HAL_Driver/Src/stm32f4xx_hal_uart.c ****     huart->ErrorCode |= HAL_UART_ERROR_INVALID_CALLBACK;
 961:Drivers/STM32F4xx_HAL_Driver/Src/stm32f4xx_hal_uart.c **** 
 962:Drivers/STM32F4xx_HAL_Driver/Src/stm32f4xx_hal_uart.c ****     /* Return error status */
 963:Drivers/STM32F4xx_HAL_Driver/Src/stm32f4xx_hal_uart.c ****     status =  HAL_ERROR;
 964:Drivers/STM32F4xx_HAL_Driver/Src/stm32f4xx_hal_uart.c ****   }
 965:Drivers/STM32F4xx_HAL_Driver/Src/stm32f4xx_hal_uart.c **** 
 966:Drivers/STM32F4xx_HAL_Driver/Src/stm32f4xx_hal_uart.c ****   /* Release Lock */
 967:Drivers/STM32F4xx_HAL_Driver/Src/stm32f4xx_hal_uart.c ****   __HAL_UNLOCK(huart);
 968:Drivers/STM32F4xx_HAL_Driver/Src/stm32f4xx_hal_uart.c **** 
 969:Drivers/STM32F4xx_HAL_Driver/Src/stm32f4xx_hal_uart.c ****   return status;
 970:Drivers/STM32F4xx_HAL_Driver/Src/stm32f4xx_hal_uart.c **** }
 971:Drivers/STM32F4xx_HAL_Driver/Src/stm32f4xx_hal_uart.c **** 
 972:Drivers/STM32F4xx_HAL_Driver/Src/stm32f4xx_hal_uart.c **** /**
 973:Drivers/STM32F4xx_HAL_Driver/Src/stm32f4xx_hal_uart.c ****   * @brief  Register a User UART Rx Event Callback
 974:Drivers/STM32F4xx_HAL_Driver/Src/stm32f4xx_hal_uart.c ****   *         To be used instead of the weak predefined callback
 975:Drivers/STM32F4xx_HAL_Driver/Src/stm32f4xx_hal_uart.c ****   * @param  huart     Uart handle
 976:Drivers/STM32F4xx_HAL_Driver/Src/stm32f4xx_hal_uart.c ****   * @param  pCallback Pointer to the Rx Event Callback function
 977:Drivers/STM32F4xx_HAL_Driver/Src/stm32f4xx_hal_uart.c ****   * @retval HAL status
 978:Drivers/STM32F4xx_HAL_Driver/Src/stm32f4xx_hal_uart.c ****   */
 979:Drivers/STM32F4xx_HAL_Driver/Src/stm32f4xx_hal_uart.c **** HAL_StatusTypeDef HAL_UART_RegisterRxEventCallback(UART_HandleTypeDef *huart, pUART_RxEventCallback
 980:Drivers/STM32F4xx_HAL_Driver/Src/stm32f4xx_hal_uart.c **** {
 981:Drivers/STM32F4xx_HAL_Driver/Src/stm32f4xx_hal_uart.c ****   HAL_StatusTypeDef status = HAL_OK;
 982:Drivers/STM32F4xx_HAL_Driver/Src/stm32f4xx_hal_uart.c **** 
 983:Drivers/STM32F4xx_HAL_Driver/Src/stm32f4xx_hal_uart.c ****   if (pCallback == NULL)
 984:Drivers/STM32F4xx_HAL_Driver/Src/stm32f4xx_hal_uart.c ****   {
 985:Drivers/STM32F4xx_HAL_Driver/Src/stm32f4xx_hal_uart.c ****     huart->ErrorCode |= HAL_UART_ERROR_INVALID_CALLBACK;
 986:Drivers/STM32F4xx_HAL_Driver/Src/stm32f4xx_hal_uart.c **** 
 987:Drivers/STM32F4xx_HAL_Driver/Src/stm32f4xx_hal_uart.c ****     return HAL_ERROR;
 988:Drivers/STM32F4xx_HAL_Driver/Src/stm32f4xx_hal_uart.c ****   }
 989:Drivers/STM32F4xx_HAL_Driver/Src/stm32f4xx_hal_uart.c **** 
 990:Drivers/STM32F4xx_HAL_Driver/Src/stm32f4xx_hal_uart.c ****   /* Process locked */
 991:Drivers/STM32F4xx_HAL_Driver/Src/stm32f4xx_hal_uart.c ****   __HAL_LOCK(huart);
 992:Drivers/STM32F4xx_HAL_Driver/Src/stm32f4xx_hal_uart.c **** 
 993:Drivers/STM32F4xx_HAL_Driver/Src/stm32f4xx_hal_uart.c ****   if (huart->gState == HAL_UART_STATE_READY)
 994:Drivers/STM32F4xx_HAL_Driver/Src/stm32f4xx_hal_uart.c ****   {
 995:Drivers/STM32F4xx_HAL_Driver/Src/stm32f4xx_hal_uart.c ****     huart->RxEventCallback = pCallback;
 996:Drivers/STM32F4xx_HAL_Driver/Src/stm32f4xx_hal_uart.c ****   }
 997:Drivers/STM32F4xx_HAL_Driver/Src/stm32f4xx_hal_uart.c ****   else
 998:Drivers/STM32F4xx_HAL_Driver/Src/stm32f4xx_hal_uart.c ****   {
ARM GAS  /tmp/ccIpdX1g.s 			page 31


 999:Drivers/STM32F4xx_HAL_Driver/Src/stm32f4xx_hal_uart.c ****     huart->ErrorCode |= HAL_UART_ERROR_INVALID_CALLBACK;
1000:Drivers/STM32F4xx_HAL_Driver/Src/stm32f4xx_hal_uart.c **** 
1001:Drivers/STM32F4xx_HAL_Driver/Src/stm32f4xx_hal_uart.c ****     status =  HAL_ERROR;
1002:Drivers/STM32F4xx_HAL_Driver/Src/stm32f4xx_hal_uart.c ****   }
1003:Drivers/STM32F4xx_HAL_Driver/Src/stm32f4xx_hal_uart.c **** 
1004:Drivers/STM32F4xx_HAL_Driver/Src/stm32f4xx_hal_uart.c ****   /* Release Lock */
1005:Drivers/STM32F4xx_HAL_Driver/Src/stm32f4xx_hal_uart.c ****   __HAL_UNLOCK(huart);
1006:Drivers/STM32F4xx_HAL_Driver/Src/stm32f4xx_hal_uart.c **** 
1007:Drivers/STM32F4xx_HAL_Driver/Src/stm32f4xx_hal_uart.c ****   return status;
1008:Drivers/STM32F4xx_HAL_Driver/Src/stm32f4xx_hal_uart.c **** }
1009:Drivers/STM32F4xx_HAL_Driver/Src/stm32f4xx_hal_uart.c **** 
1010:Drivers/STM32F4xx_HAL_Driver/Src/stm32f4xx_hal_uart.c **** /**
1011:Drivers/STM32F4xx_HAL_Driver/Src/stm32f4xx_hal_uart.c ****   * @brief  UnRegister the UART Rx Event Callback
1012:Drivers/STM32F4xx_HAL_Driver/Src/stm32f4xx_hal_uart.c ****   *         UART Rx Event Callback is redirected to the weak HAL_UARTEx_RxEventCallback() predefine
1013:Drivers/STM32F4xx_HAL_Driver/Src/stm32f4xx_hal_uart.c ****   * @param  huart     Uart handle
1014:Drivers/STM32F4xx_HAL_Driver/Src/stm32f4xx_hal_uart.c ****   * @retval HAL status
1015:Drivers/STM32F4xx_HAL_Driver/Src/stm32f4xx_hal_uart.c ****   */
1016:Drivers/STM32F4xx_HAL_Driver/Src/stm32f4xx_hal_uart.c **** HAL_StatusTypeDef HAL_UART_UnRegisterRxEventCallback(UART_HandleTypeDef *huart)
1017:Drivers/STM32F4xx_HAL_Driver/Src/stm32f4xx_hal_uart.c **** {
1018:Drivers/STM32F4xx_HAL_Driver/Src/stm32f4xx_hal_uart.c ****   HAL_StatusTypeDef status = HAL_OK;
1019:Drivers/STM32F4xx_HAL_Driver/Src/stm32f4xx_hal_uart.c **** 
1020:Drivers/STM32F4xx_HAL_Driver/Src/stm32f4xx_hal_uart.c ****   /* Process locked */
1021:Drivers/STM32F4xx_HAL_Driver/Src/stm32f4xx_hal_uart.c ****   __HAL_LOCK(huart);
1022:Drivers/STM32F4xx_HAL_Driver/Src/stm32f4xx_hal_uart.c **** 
1023:Drivers/STM32F4xx_HAL_Driver/Src/stm32f4xx_hal_uart.c ****   if (huart->gState == HAL_UART_STATE_READY)
1024:Drivers/STM32F4xx_HAL_Driver/Src/stm32f4xx_hal_uart.c ****   {
1025:Drivers/STM32F4xx_HAL_Driver/Src/stm32f4xx_hal_uart.c ****     huart->RxEventCallback = HAL_UARTEx_RxEventCallback; /* Legacy weak UART Rx Event Callback  */
1026:Drivers/STM32F4xx_HAL_Driver/Src/stm32f4xx_hal_uart.c ****   }
1027:Drivers/STM32F4xx_HAL_Driver/Src/stm32f4xx_hal_uart.c ****   else
1028:Drivers/STM32F4xx_HAL_Driver/Src/stm32f4xx_hal_uart.c ****   {
1029:Drivers/STM32F4xx_HAL_Driver/Src/stm32f4xx_hal_uart.c ****     huart->ErrorCode |= HAL_UART_ERROR_INVALID_CALLBACK;
1030:Drivers/STM32F4xx_HAL_Driver/Src/stm32f4xx_hal_uart.c **** 
1031:Drivers/STM32F4xx_HAL_Driver/Src/stm32f4xx_hal_uart.c ****     status =  HAL_ERROR;
1032:Drivers/STM32F4xx_HAL_Driver/Src/stm32f4xx_hal_uart.c ****   }
1033:Drivers/STM32F4xx_HAL_Driver/Src/stm32f4xx_hal_uart.c **** 
1034:Drivers/STM32F4xx_HAL_Driver/Src/stm32f4xx_hal_uart.c ****   /* Release Lock */
1035:Drivers/STM32F4xx_HAL_Driver/Src/stm32f4xx_hal_uart.c ****   __HAL_UNLOCK(huart);
1036:Drivers/STM32F4xx_HAL_Driver/Src/stm32f4xx_hal_uart.c ****   return status;
1037:Drivers/STM32F4xx_HAL_Driver/Src/stm32f4xx_hal_uart.c **** }
1038:Drivers/STM32F4xx_HAL_Driver/Src/stm32f4xx_hal_uart.c **** #endif /* USE_HAL_UART_REGISTER_CALLBACKS */
1039:Drivers/STM32F4xx_HAL_Driver/Src/stm32f4xx_hal_uart.c **** 
1040:Drivers/STM32F4xx_HAL_Driver/Src/stm32f4xx_hal_uart.c **** /**
1041:Drivers/STM32F4xx_HAL_Driver/Src/stm32f4xx_hal_uart.c ****   * @}
1042:Drivers/STM32F4xx_HAL_Driver/Src/stm32f4xx_hal_uart.c ****   */
1043:Drivers/STM32F4xx_HAL_Driver/Src/stm32f4xx_hal_uart.c **** 
1044:Drivers/STM32F4xx_HAL_Driver/Src/stm32f4xx_hal_uart.c **** /** @defgroup UART_Exported_Functions_Group2 IO operation functions
1045:Drivers/STM32F4xx_HAL_Driver/Src/stm32f4xx_hal_uart.c ****   *  @brief UART Transmit and Receive functions
1046:Drivers/STM32F4xx_HAL_Driver/Src/stm32f4xx_hal_uart.c ****   *
1047:Drivers/STM32F4xx_HAL_Driver/Src/stm32f4xx_hal_uart.c **** @verbatim
1048:Drivers/STM32F4xx_HAL_Driver/Src/stm32f4xx_hal_uart.c ****  ===============================================================================
1049:Drivers/STM32F4xx_HAL_Driver/Src/stm32f4xx_hal_uart.c ****                       ##### IO operation functions #####
1050:Drivers/STM32F4xx_HAL_Driver/Src/stm32f4xx_hal_uart.c ****  ===============================================================================
1051:Drivers/STM32F4xx_HAL_Driver/Src/stm32f4xx_hal_uart.c ****     This subsection provides a set of functions allowing to manage the UART asynchronous
1052:Drivers/STM32F4xx_HAL_Driver/Src/stm32f4xx_hal_uart.c ****     and Half duplex data transfers.
1053:Drivers/STM32F4xx_HAL_Driver/Src/stm32f4xx_hal_uart.c **** 
1054:Drivers/STM32F4xx_HAL_Driver/Src/stm32f4xx_hal_uart.c ****     (#) There are two modes of transfer:
1055:Drivers/STM32F4xx_HAL_Driver/Src/stm32f4xx_hal_uart.c ****        (+) Blocking mode: The communication is performed in polling mode.
ARM GAS  /tmp/ccIpdX1g.s 			page 32


1056:Drivers/STM32F4xx_HAL_Driver/Src/stm32f4xx_hal_uart.c ****            The HAL status of all data processing is returned by the same function
1057:Drivers/STM32F4xx_HAL_Driver/Src/stm32f4xx_hal_uart.c ****            after finishing transfer.
1058:Drivers/STM32F4xx_HAL_Driver/Src/stm32f4xx_hal_uart.c ****        (+) Non-Blocking mode: The communication is performed using Interrupts
1059:Drivers/STM32F4xx_HAL_Driver/Src/stm32f4xx_hal_uart.c ****            or DMA, these API's return the HAL status.
1060:Drivers/STM32F4xx_HAL_Driver/Src/stm32f4xx_hal_uart.c ****            The end of the data processing will be indicated through the
1061:Drivers/STM32F4xx_HAL_Driver/Src/stm32f4xx_hal_uart.c ****            dedicated UART IRQ when using Interrupt mode or the DMA IRQ when
1062:Drivers/STM32F4xx_HAL_Driver/Src/stm32f4xx_hal_uart.c ****            using DMA mode.
1063:Drivers/STM32F4xx_HAL_Driver/Src/stm32f4xx_hal_uart.c ****            The HAL_UART_TxCpltCallback(), HAL_UART_RxCpltCallback() user callbacks
1064:Drivers/STM32F4xx_HAL_Driver/Src/stm32f4xx_hal_uart.c ****            will be executed respectively at the end of the transmit or receive process
1065:Drivers/STM32F4xx_HAL_Driver/Src/stm32f4xx_hal_uart.c ****            The HAL_UART_ErrorCallback()user callback will be executed when a communication error is
1066:Drivers/STM32F4xx_HAL_Driver/Src/stm32f4xx_hal_uart.c **** 
1067:Drivers/STM32F4xx_HAL_Driver/Src/stm32f4xx_hal_uart.c ****     (#) Blocking mode API's are :
1068:Drivers/STM32F4xx_HAL_Driver/Src/stm32f4xx_hal_uart.c ****         (+) HAL_UART_Transmit()
1069:Drivers/STM32F4xx_HAL_Driver/Src/stm32f4xx_hal_uart.c ****         (+) HAL_UART_Receive()
1070:Drivers/STM32F4xx_HAL_Driver/Src/stm32f4xx_hal_uart.c **** 
1071:Drivers/STM32F4xx_HAL_Driver/Src/stm32f4xx_hal_uart.c ****     (#) Non-Blocking mode API's with Interrupt are :
1072:Drivers/STM32F4xx_HAL_Driver/Src/stm32f4xx_hal_uart.c ****         (+) HAL_UART_Transmit_IT()
1073:Drivers/STM32F4xx_HAL_Driver/Src/stm32f4xx_hal_uart.c ****         (+) HAL_UART_Receive_IT()
1074:Drivers/STM32F4xx_HAL_Driver/Src/stm32f4xx_hal_uart.c ****         (+) HAL_UART_IRQHandler()
1075:Drivers/STM32F4xx_HAL_Driver/Src/stm32f4xx_hal_uart.c **** 
1076:Drivers/STM32F4xx_HAL_Driver/Src/stm32f4xx_hal_uart.c ****     (#) Non-Blocking mode API's with DMA are :
1077:Drivers/STM32F4xx_HAL_Driver/Src/stm32f4xx_hal_uart.c ****         (+) HAL_UART_Transmit_DMA()
1078:Drivers/STM32F4xx_HAL_Driver/Src/stm32f4xx_hal_uart.c ****         (+) HAL_UART_Receive_DMA()
1079:Drivers/STM32F4xx_HAL_Driver/Src/stm32f4xx_hal_uart.c ****         (+) HAL_UART_DMAPause()
1080:Drivers/STM32F4xx_HAL_Driver/Src/stm32f4xx_hal_uart.c ****         (+) HAL_UART_DMAResume()
1081:Drivers/STM32F4xx_HAL_Driver/Src/stm32f4xx_hal_uart.c ****         (+) HAL_UART_DMAStop()
1082:Drivers/STM32F4xx_HAL_Driver/Src/stm32f4xx_hal_uart.c **** 
1083:Drivers/STM32F4xx_HAL_Driver/Src/stm32f4xx_hal_uart.c ****     (#) A set of Transfer Complete Callbacks are provided in Non_Blocking mode:
1084:Drivers/STM32F4xx_HAL_Driver/Src/stm32f4xx_hal_uart.c ****         (+) HAL_UART_TxHalfCpltCallback()
1085:Drivers/STM32F4xx_HAL_Driver/Src/stm32f4xx_hal_uart.c ****         (+) HAL_UART_TxCpltCallback()
1086:Drivers/STM32F4xx_HAL_Driver/Src/stm32f4xx_hal_uart.c ****         (+) HAL_UART_RxHalfCpltCallback()
1087:Drivers/STM32F4xx_HAL_Driver/Src/stm32f4xx_hal_uart.c ****         (+) HAL_UART_RxCpltCallback()
1088:Drivers/STM32F4xx_HAL_Driver/Src/stm32f4xx_hal_uart.c ****         (+) HAL_UART_ErrorCallback()
1089:Drivers/STM32F4xx_HAL_Driver/Src/stm32f4xx_hal_uart.c **** 
1090:Drivers/STM32F4xx_HAL_Driver/Src/stm32f4xx_hal_uart.c ****     (#) Non-Blocking mode transfers could be aborted using Abort API's :
1091:Drivers/STM32F4xx_HAL_Driver/Src/stm32f4xx_hal_uart.c ****         (+) HAL_UART_Abort()
1092:Drivers/STM32F4xx_HAL_Driver/Src/stm32f4xx_hal_uart.c ****         (+) HAL_UART_AbortTransmit()
1093:Drivers/STM32F4xx_HAL_Driver/Src/stm32f4xx_hal_uart.c ****         (+) HAL_UART_AbortReceive()
1094:Drivers/STM32F4xx_HAL_Driver/Src/stm32f4xx_hal_uart.c ****         (+) HAL_UART_Abort_IT()
1095:Drivers/STM32F4xx_HAL_Driver/Src/stm32f4xx_hal_uart.c ****         (+) HAL_UART_AbortTransmit_IT()
1096:Drivers/STM32F4xx_HAL_Driver/Src/stm32f4xx_hal_uart.c ****         (+) HAL_UART_AbortReceive_IT()
1097:Drivers/STM32F4xx_HAL_Driver/Src/stm32f4xx_hal_uart.c **** 
1098:Drivers/STM32F4xx_HAL_Driver/Src/stm32f4xx_hal_uart.c ****     (#) For Abort services based on interrupts (HAL_UART_Abortxxx_IT), a set of Abort Complete Call
1099:Drivers/STM32F4xx_HAL_Driver/Src/stm32f4xx_hal_uart.c ****         (+) HAL_UART_AbortCpltCallback()
1100:Drivers/STM32F4xx_HAL_Driver/Src/stm32f4xx_hal_uart.c ****         (+) HAL_UART_AbortTransmitCpltCallback()
1101:Drivers/STM32F4xx_HAL_Driver/Src/stm32f4xx_hal_uart.c ****         (+) HAL_UART_AbortReceiveCpltCallback()
1102:Drivers/STM32F4xx_HAL_Driver/Src/stm32f4xx_hal_uart.c **** 
1103:Drivers/STM32F4xx_HAL_Driver/Src/stm32f4xx_hal_uart.c ****     (#) A Rx Event Reception Callback (Rx event notification) is available for Non_Blocking modes o
1104:Drivers/STM32F4xx_HAL_Driver/Src/stm32f4xx_hal_uart.c ****         (+) HAL_UARTEx_RxEventCallback()
1105:Drivers/STM32F4xx_HAL_Driver/Src/stm32f4xx_hal_uart.c **** 
1106:Drivers/STM32F4xx_HAL_Driver/Src/stm32f4xx_hal_uart.c ****     (#) In Non-Blocking mode transfers, possible errors are split into 2 categories.
1107:Drivers/STM32F4xx_HAL_Driver/Src/stm32f4xx_hal_uart.c ****         Errors are handled as follows :
1108:Drivers/STM32F4xx_HAL_Driver/Src/stm32f4xx_hal_uart.c ****        (+) Error is considered as Recoverable and non blocking : Transfer could go till end, but er
1109:Drivers/STM32F4xx_HAL_Driver/Src/stm32f4xx_hal_uart.c ****            to be evaluated by user : this concerns Frame Error, Parity Error or Noise Error in Inte
1110:Drivers/STM32F4xx_HAL_Driver/Src/stm32f4xx_hal_uart.c ****            Received character is then retrieved and stored in Rx buffer, Error code is set to allow
1111:Drivers/STM32F4xx_HAL_Driver/Src/stm32f4xx_hal_uart.c ****            and HAL_UART_ErrorCallback() user callback is executed. Transfer is kept ongoing on UART
1112:Drivers/STM32F4xx_HAL_Driver/Src/stm32f4xx_hal_uart.c ****            If user wants to abort it, Abort services should be called by user.
ARM GAS  /tmp/ccIpdX1g.s 			page 33


1113:Drivers/STM32F4xx_HAL_Driver/Src/stm32f4xx_hal_uart.c ****        (+) Error is considered as Blocking : Transfer could not be completed properly and is aborte
1114:Drivers/STM32F4xx_HAL_Driver/Src/stm32f4xx_hal_uart.c ****            This concerns Overrun Error In Interrupt mode reception and all errors in DMA mode.
1115:Drivers/STM32F4xx_HAL_Driver/Src/stm32f4xx_hal_uart.c ****            Error code is set to allow user to identify error type, and HAL_UART_ErrorCallback() use
1116:Drivers/STM32F4xx_HAL_Driver/Src/stm32f4xx_hal_uart.c **** 
1117:Drivers/STM32F4xx_HAL_Driver/Src/stm32f4xx_hal_uart.c ****     -@- In the Half duplex communication, it is forbidden to run the transmit
1118:Drivers/STM32F4xx_HAL_Driver/Src/stm32f4xx_hal_uart.c ****         and receive process in parallel, the UART state HAL_UART_STATE_BUSY_TX_RX can't be useful.
1119:Drivers/STM32F4xx_HAL_Driver/Src/stm32f4xx_hal_uart.c **** 
1120:Drivers/STM32F4xx_HAL_Driver/Src/stm32f4xx_hal_uart.c **** @endverbatim
1121:Drivers/STM32F4xx_HAL_Driver/Src/stm32f4xx_hal_uart.c ****   * @{
1122:Drivers/STM32F4xx_HAL_Driver/Src/stm32f4xx_hal_uart.c ****   */
1123:Drivers/STM32F4xx_HAL_Driver/Src/stm32f4xx_hal_uart.c **** 
1124:Drivers/STM32F4xx_HAL_Driver/Src/stm32f4xx_hal_uart.c **** /**
1125:Drivers/STM32F4xx_HAL_Driver/Src/stm32f4xx_hal_uart.c ****   * @brief  Sends an amount of data in blocking mode.
1126:Drivers/STM32F4xx_HAL_Driver/Src/stm32f4xx_hal_uart.c ****   * @note   When UART parity is not enabled (PCE = 0), and Word Length is configured to 9 bits (M1-
1127:Drivers/STM32F4xx_HAL_Driver/Src/stm32f4xx_hal_uart.c ****   *         the sent data is handled as a set of u16. In this case, Size must indicate the number
1128:Drivers/STM32F4xx_HAL_Driver/Src/stm32f4xx_hal_uart.c ****   *         of u16 provided through pData.
1129:Drivers/STM32F4xx_HAL_Driver/Src/stm32f4xx_hal_uart.c ****   * @param  huart Pointer to a UART_HandleTypeDef structure that contains
1130:Drivers/STM32F4xx_HAL_Driver/Src/stm32f4xx_hal_uart.c ****   *               the configuration information for the specified UART module.
1131:Drivers/STM32F4xx_HAL_Driver/Src/stm32f4xx_hal_uart.c ****   * @param  pData Pointer to data buffer (u8 or u16 data elements).
1132:Drivers/STM32F4xx_HAL_Driver/Src/stm32f4xx_hal_uart.c ****   * @param  Size  Amount of data elements (u8 or u16) to be sent
1133:Drivers/STM32F4xx_HAL_Driver/Src/stm32f4xx_hal_uart.c ****   * @param  Timeout Timeout duration
1134:Drivers/STM32F4xx_HAL_Driver/Src/stm32f4xx_hal_uart.c ****   * @retval HAL status
1135:Drivers/STM32F4xx_HAL_Driver/Src/stm32f4xx_hal_uart.c ****   */
1136:Drivers/STM32F4xx_HAL_Driver/Src/stm32f4xx_hal_uart.c **** HAL_StatusTypeDef HAL_UART_Transmit(UART_HandleTypeDef *huart, const uint8_t *pData, uint16_t Size,
1137:Drivers/STM32F4xx_HAL_Driver/Src/stm32f4xx_hal_uart.c **** {
 728              		.loc 1 1137 1
 729              		.cfi_startproc
 730              		@ args = 0, pretend = 0, frame = 32
 731              		@ frame_needed = 1, uses_anonymous_args = 0
 732 0000 80B5     		push	{r7, lr}
 733              	.LCFI37:
 734              		.cfi_def_cfa_offset 8
 735              		.cfi_offset 7, -8
 736              		.cfi_offset 14, -4
 737 0002 8AB0     		sub	sp, sp, #40
 738              	.LCFI38:
 739              		.cfi_def_cfa_offset 48
 740 0004 02AF     		add	r7, sp, #8
 741              	.LCFI39:
 742              		.cfi_def_cfa 7, 40
 743 0006 F860     		str	r0, [r7, #12]
 744 0008 B960     		str	r1, [r7, #8]
 745 000a 3B60     		str	r3, [r7]
 746 000c 1346     		mov	r3, r2	@ movhi
 747 000e FB80     		strh	r3, [r7, #6]	@ movhi
1138:Drivers/STM32F4xx_HAL_Driver/Src/stm32f4xx_hal_uart.c ****   const uint8_t  *pdata8bits;
1139:Drivers/STM32F4xx_HAL_Driver/Src/stm32f4xx_hal_uart.c ****   const uint16_t *pdata16bits;
1140:Drivers/STM32F4xx_HAL_Driver/Src/stm32f4xx_hal_uart.c ****   uint32_t tickstart = 0U;
 748              		.loc 1 1140 12
 749 0010 0023     		movs	r3, #0
 750 0012 7B61     		str	r3, [r7, #20]
1141:Drivers/STM32F4xx_HAL_Driver/Src/stm32f4xx_hal_uart.c **** 
1142:Drivers/STM32F4xx_HAL_Driver/Src/stm32f4xx_hal_uart.c ****   /* Check that a Tx process is not already ongoing */
1143:Drivers/STM32F4xx_HAL_Driver/Src/stm32f4xx_hal_uart.c ****   if (huart->gState == HAL_UART_STATE_READY)
 751              		.loc 1 1143 12
 752 0014 FB68     		ldr	r3, [r7, #12]
 753 0016 93F83D30 		ldrb	r3, [r3, #61]
ARM GAS  /tmp/ccIpdX1g.s 			page 34


 754 001a DBB2     		uxtb	r3, r3
 755              		.loc 1 1143 6
 756 001c 202B     		cmp	r3, #32
 757 001e 7CD1     		bne	.L23
1144:Drivers/STM32F4xx_HAL_Driver/Src/stm32f4xx_hal_uart.c ****   {
1145:Drivers/STM32F4xx_HAL_Driver/Src/stm32f4xx_hal_uart.c ****     if ((pData == NULL) || (Size == 0U))
 758              		.loc 1 1145 8
 759 0020 BB68     		ldr	r3, [r7, #8]
 760 0022 002B     		cmp	r3, #0
 761 0024 02D0     		beq	.L24
 762              		.loc 1 1145 25 discriminator 1
 763 0026 FB88     		ldrh	r3, [r7, #6]
 764 0028 002B     		cmp	r3, #0
 765 002a 01D1     		bne	.L25
 766              	.L24:
1146:Drivers/STM32F4xx_HAL_Driver/Src/stm32f4xx_hal_uart.c ****     {
1147:Drivers/STM32F4xx_HAL_Driver/Src/stm32f4xx_hal_uart.c ****       return  HAL_ERROR;
 767              		.loc 1 1147 15
 768 002c 0123     		movs	r3, #1
 769 002e 75E0     		b	.L26
 770              	.L25:
1148:Drivers/STM32F4xx_HAL_Driver/Src/stm32f4xx_hal_uart.c ****     }
1149:Drivers/STM32F4xx_HAL_Driver/Src/stm32f4xx_hal_uart.c **** 
1150:Drivers/STM32F4xx_HAL_Driver/Src/stm32f4xx_hal_uart.c ****     /* Process Locked */
1151:Drivers/STM32F4xx_HAL_Driver/Src/stm32f4xx_hal_uart.c ****     __HAL_LOCK(huart);
 771              		.loc 1 1151 5
 772 0030 FB68     		ldr	r3, [r7, #12]
 773 0032 93F83C30 		ldrb	r3, [r3, #60]	@ zero_extendqisi2
 774 0036 012B     		cmp	r3, #1
 775 0038 01D1     		bne	.L27
 776              		.loc 1 1151 5 is_stmt 0 discriminator 1
 777 003a 0223     		movs	r3, #2
 778 003c 6EE0     		b	.L26
 779              	.L27:
 780              		.loc 1 1151 5 discriminator 2
 781 003e FB68     		ldr	r3, [r7, #12]
 782 0040 0122     		movs	r2, #1
 783 0042 83F83C20 		strb	r2, [r3, #60]
1152:Drivers/STM32F4xx_HAL_Driver/Src/stm32f4xx_hal_uart.c **** 
1153:Drivers/STM32F4xx_HAL_Driver/Src/stm32f4xx_hal_uart.c ****     huart->ErrorCode = HAL_UART_ERROR_NONE;
 784              		.loc 1 1153 22 is_stmt 1 discriminator 2
 785 0046 FB68     		ldr	r3, [r7, #12]
 786 0048 0022     		movs	r2, #0
 787 004a 1A64     		str	r2, [r3, #64]
1154:Drivers/STM32F4xx_HAL_Driver/Src/stm32f4xx_hal_uart.c ****     huart->gState = HAL_UART_STATE_BUSY_TX;
 788              		.loc 1 1154 19 discriminator 2
 789 004c FB68     		ldr	r3, [r7, #12]
 790 004e 2122     		movs	r2, #33
 791 0050 83F83D20 		strb	r2, [r3, #61]
1155:Drivers/STM32F4xx_HAL_Driver/Src/stm32f4xx_hal_uart.c **** 
1156:Drivers/STM32F4xx_HAL_Driver/Src/stm32f4xx_hal_uart.c ****     /* Init tickstart for timeout management */
1157:Drivers/STM32F4xx_HAL_Driver/Src/stm32f4xx_hal_uart.c ****     tickstart = HAL_GetTick();
 792              		.loc 1 1157 17 discriminator 2
 793 0054 FFF7FEFF 		bl	HAL_GetTick
 794 0058 7861     		str	r0, [r7, #20]
1158:Drivers/STM32F4xx_HAL_Driver/Src/stm32f4xx_hal_uart.c **** 
1159:Drivers/STM32F4xx_HAL_Driver/Src/stm32f4xx_hal_uart.c ****     huart->TxXferSize = Size;
ARM GAS  /tmp/ccIpdX1g.s 			page 35


 795              		.loc 1 1159 23 discriminator 2
 796 005a FB68     		ldr	r3, [r7, #12]
 797 005c FA88     		ldrh	r2, [r7, #6]	@ movhi
 798 005e 9A84     		strh	r2, [r3, #36]	@ movhi
1160:Drivers/STM32F4xx_HAL_Driver/Src/stm32f4xx_hal_uart.c ****     huart->TxXferCount = Size;
 799              		.loc 1 1160 24 discriminator 2
 800 0060 FB68     		ldr	r3, [r7, #12]
 801 0062 FA88     		ldrh	r2, [r7, #6]	@ movhi
 802 0064 DA84     		strh	r2, [r3, #38]	@ movhi
1161:Drivers/STM32F4xx_HAL_Driver/Src/stm32f4xx_hal_uart.c **** 
1162:Drivers/STM32F4xx_HAL_Driver/Src/stm32f4xx_hal_uart.c ****     /* In case of 9bits/No Parity transfer, pData needs to be handled as a uint16_t pointer */
1163:Drivers/STM32F4xx_HAL_Driver/Src/stm32f4xx_hal_uart.c ****     if ((huart->Init.WordLength == UART_WORDLENGTH_9B) && (huart->Init.Parity == UART_PARITY_NONE))
 803              		.loc 1 1163 21 discriminator 2
 804 0066 FB68     		ldr	r3, [r7, #12]
 805 0068 9B68     		ldr	r3, [r3, #8]
 806              		.loc 1 1163 8 discriminator 2
 807 006a B3F5805F 		cmp	r3, #4096
 808 006e 08D1     		bne	.L28
 809              		.loc 1 1163 71 discriminator 1
 810 0070 FB68     		ldr	r3, [r7, #12]
 811 0072 1B69     		ldr	r3, [r3, #16]
 812              		.loc 1 1163 56 discriminator 1
 813 0074 002B     		cmp	r3, #0
 814 0076 04D1     		bne	.L28
1164:Drivers/STM32F4xx_HAL_Driver/Src/stm32f4xx_hal_uart.c ****     {
1165:Drivers/STM32F4xx_HAL_Driver/Src/stm32f4xx_hal_uart.c ****       pdata8bits  = NULL;
 815              		.loc 1 1165 19
 816 0078 0023     		movs	r3, #0
 817 007a FB61     		str	r3, [r7, #28]
1166:Drivers/STM32F4xx_HAL_Driver/Src/stm32f4xx_hal_uart.c ****       pdata16bits = (const uint16_t *) pData;
 818              		.loc 1 1166 19
 819 007c BB68     		ldr	r3, [r7, #8]
 820 007e BB61     		str	r3, [r7, #24]
 821 0080 03E0     		b	.L29
 822              	.L28:
1167:Drivers/STM32F4xx_HAL_Driver/Src/stm32f4xx_hal_uart.c ****     }
1168:Drivers/STM32F4xx_HAL_Driver/Src/stm32f4xx_hal_uart.c ****     else
1169:Drivers/STM32F4xx_HAL_Driver/Src/stm32f4xx_hal_uart.c ****     {
1170:Drivers/STM32F4xx_HAL_Driver/Src/stm32f4xx_hal_uart.c ****       pdata8bits  = pData;
 823              		.loc 1 1170 19
 824 0082 BB68     		ldr	r3, [r7, #8]
 825 0084 FB61     		str	r3, [r7, #28]
1171:Drivers/STM32F4xx_HAL_Driver/Src/stm32f4xx_hal_uart.c ****       pdata16bits = NULL;
 826              		.loc 1 1171 19
 827 0086 0023     		movs	r3, #0
 828 0088 BB61     		str	r3, [r7, #24]
 829              	.L29:
1172:Drivers/STM32F4xx_HAL_Driver/Src/stm32f4xx_hal_uart.c ****     }
1173:Drivers/STM32F4xx_HAL_Driver/Src/stm32f4xx_hal_uart.c **** 
1174:Drivers/STM32F4xx_HAL_Driver/Src/stm32f4xx_hal_uart.c ****     /* Process Unlocked */
1175:Drivers/STM32F4xx_HAL_Driver/Src/stm32f4xx_hal_uart.c ****     __HAL_UNLOCK(huart);
 830              		.loc 1 1175 5
 831 008a FB68     		ldr	r3, [r7, #12]
 832 008c 0022     		movs	r2, #0
 833 008e 83F83C20 		strb	r2, [r3, #60]
1176:Drivers/STM32F4xx_HAL_Driver/Src/stm32f4xx_hal_uart.c **** 
1177:Drivers/STM32F4xx_HAL_Driver/Src/stm32f4xx_hal_uart.c ****     while (huart->TxXferCount > 0U)
ARM GAS  /tmp/ccIpdX1g.s 			page 36


 834              		.loc 1 1177 11
 835 0092 2AE0     		b	.L30
 836              	.L34:
1178:Drivers/STM32F4xx_HAL_Driver/Src/stm32f4xx_hal_uart.c ****     {
1179:Drivers/STM32F4xx_HAL_Driver/Src/stm32f4xx_hal_uart.c ****       if (UART_WaitOnFlagUntilTimeout(huart, UART_FLAG_TXE, RESET, tickstart, Timeout) != HAL_OK)
 837              		.loc 1 1179 11
 838 0094 3B68     		ldr	r3, [r7]
 839 0096 0093     		str	r3, [sp]
 840 0098 7B69     		ldr	r3, [r7, #20]
 841 009a 0022     		movs	r2, #0
 842 009c 8021     		movs	r1, #128
 843 009e F868     		ldr	r0, [r7, #12]
 844 00a0 FFF7FEFF 		bl	UART_WaitOnFlagUntilTimeout
 845 00a4 0346     		mov	r3, r0
 846              		.loc 1 1179 10
 847 00a6 002B     		cmp	r3, #0
 848 00a8 01D0     		beq	.L31
1180:Drivers/STM32F4xx_HAL_Driver/Src/stm32f4xx_hal_uart.c ****       {
1181:Drivers/STM32F4xx_HAL_Driver/Src/stm32f4xx_hal_uart.c ****         return HAL_TIMEOUT;
 849              		.loc 1 1181 16
 850 00aa 0323     		movs	r3, #3
 851 00ac 36E0     		b	.L26
 852              	.L31:
1182:Drivers/STM32F4xx_HAL_Driver/Src/stm32f4xx_hal_uart.c ****       }
1183:Drivers/STM32F4xx_HAL_Driver/Src/stm32f4xx_hal_uart.c ****       if (pdata8bits == NULL)
 853              		.loc 1 1183 10
 854 00ae FB69     		ldr	r3, [r7, #28]
 855 00b0 002B     		cmp	r3, #0
 856 00b2 0BD1     		bne	.L32
1184:Drivers/STM32F4xx_HAL_Driver/Src/stm32f4xx_hal_uart.c ****       {
1185:Drivers/STM32F4xx_HAL_Driver/Src/stm32f4xx_hal_uart.c ****         huart->Instance->DR = (uint16_t)(*pdata16bits & 0x01FFU);
 857              		.loc 1 1185 42
 858 00b4 BB69     		ldr	r3, [r7, #24]
 859 00b6 1B88     		ldrh	r3, [r3]
 860              		.loc 1 1185 31
 861 00b8 1A46     		mov	r2, r3
 862              		.loc 1 1185 14
 863 00ba FB68     		ldr	r3, [r7, #12]
 864 00bc 1B68     		ldr	r3, [r3]
 865              		.loc 1 1185 31
 866 00be C2F30802 		ubfx	r2, r2, #0, #9
 867              		.loc 1 1185 29
 868 00c2 5A60     		str	r2, [r3, #4]
1186:Drivers/STM32F4xx_HAL_Driver/Src/stm32f4xx_hal_uart.c ****         pdata16bits++;
 869              		.loc 1 1186 20
 870 00c4 BB69     		ldr	r3, [r7, #24]
 871 00c6 0233     		adds	r3, r3, #2
 872 00c8 BB61     		str	r3, [r7, #24]
 873 00ca 07E0     		b	.L33
 874              	.L32:
1187:Drivers/STM32F4xx_HAL_Driver/Src/stm32f4xx_hal_uart.c ****       }
1188:Drivers/STM32F4xx_HAL_Driver/Src/stm32f4xx_hal_uart.c ****       else
1189:Drivers/STM32F4xx_HAL_Driver/Src/stm32f4xx_hal_uart.c ****       {
1190:Drivers/STM32F4xx_HAL_Driver/Src/stm32f4xx_hal_uart.c ****         huart->Instance->DR = (uint8_t)(*pdata8bits & 0xFFU);
 875              		.loc 1 1190 41
 876 00cc FB69     		ldr	r3, [r7, #28]
 877 00ce 1A78     		ldrb	r2, [r3]	@ zero_extendqisi2
ARM GAS  /tmp/ccIpdX1g.s 			page 37


 878              		.loc 1 1190 14
 879 00d0 FB68     		ldr	r3, [r7, #12]
 880 00d2 1B68     		ldr	r3, [r3]
 881              		.loc 1 1190 29
 882 00d4 5A60     		str	r2, [r3, #4]
1191:Drivers/STM32F4xx_HAL_Driver/Src/stm32f4xx_hal_uart.c ****         pdata8bits++;
 883              		.loc 1 1191 19
 884 00d6 FB69     		ldr	r3, [r7, #28]
 885 00d8 0133     		adds	r3, r3, #1
 886 00da FB61     		str	r3, [r7, #28]
 887              	.L33:
1192:Drivers/STM32F4xx_HAL_Driver/Src/stm32f4xx_hal_uart.c ****       }
1193:Drivers/STM32F4xx_HAL_Driver/Src/stm32f4xx_hal_uart.c ****       huart->TxXferCount--;
 888              		.loc 1 1193 12
 889 00dc FB68     		ldr	r3, [r7, #12]
 890 00de DB8C     		ldrh	r3, [r3, #38]	@ movhi
 891 00e0 9BB2     		uxth	r3, r3
 892              		.loc 1 1193 25
 893 00e2 013B     		subs	r3, r3, #1
 894 00e4 9AB2     		uxth	r2, r3
 895 00e6 FB68     		ldr	r3, [r7, #12]
 896 00e8 DA84     		strh	r2, [r3, #38]	@ movhi
 897              	.L30:
1177:Drivers/STM32F4xx_HAL_Driver/Src/stm32f4xx_hal_uart.c ****     {
 898              		.loc 1 1177 17
 899 00ea FB68     		ldr	r3, [r7, #12]
 900 00ec DB8C     		ldrh	r3, [r3, #38]	@ movhi
 901 00ee 9BB2     		uxth	r3, r3
1177:Drivers/STM32F4xx_HAL_Driver/Src/stm32f4xx_hal_uart.c ****     {
 902              		.loc 1 1177 31
 903 00f0 002B     		cmp	r3, #0
 904 00f2 CFD1     		bne	.L34
1194:Drivers/STM32F4xx_HAL_Driver/Src/stm32f4xx_hal_uart.c ****     }
1195:Drivers/STM32F4xx_HAL_Driver/Src/stm32f4xx_hal_uart.c **** 
1196:Drivers/STM32F4xx_HAL_Driver/Src/stm32f4xx_hal_uart.c ****     if (UART_WaitOnFlagUntilTimeout(huart, UART_FLAG_TC, RESET, tickstart, Timeout) != HAL_OK)
 905              		.loc 1 1196 9
 906 00f4 3B68     		ldr	r3, [r7]
 907 00f6 0093     		str	r3, [sp]
 908 00f8 7B69     		ldr	r3, [r7, #20]
 909 00fa 0022     		movs	r2, #0
 910 00fc 4021     		movs	r1, #64
 911 00fe F868     		ldr	r0, [r7, #12]
 912 0100 FFF7FEFF 		bl	UART_WaitOnFlagUntilTimeout
 913 0104 0346     		mov	r3, r0
 914              		.loc 1 1196 8
 915 0106 002B     		cmp	r3, #0
 916 0108 01D0     		beq	.L35
1197:Drivers/STM32F4xx_HAL_Driver/Src/stm32f4xx_hal_uart.c ****     {
1198:Drivers/STM32F4xx_HAL_Driver/Src/stm32f4xx_hal_uart.c ****       return HAL_TIMEOUT;
 917              		.loc 1 1198 14
 918 010a 0323     		movs	r3, #3
 919 010c 06E0     		b	.L26
 920              	.L35:
1199:Drivers/STM32F4xx_HAL_Driver/Src/stm32f4xx_hal_uart.c ****     }
1200:Drivers/STM32F4xx_HAL_Driver/Src/stm32f4xx_hal_uart.c **** 
1201:Drivers/STM32F4xx_HAL_Driver/Src/stm32f4xx_hal_uart.c ****     /* At end of Tx process, restore huart->gState to Ready */
1202:Drivers/STM32F4xx_HAL_Driver/Src/stm32f4xx_hal_uart.c ****     huart->gState = HAL_UART_STATE_READY;
ARM GAS  /tmp/ccIpdX1g.s 			page 38


 921              		.loc 1 1202 19
 922 010e FB68     		ldr	r3, [r7, #12]
 923 0110 2022     		movs	r2, #32
 924 0112 83F83D20 		strb	r2, [r3, #61]
1203:Drivers/STM32F4xx_HAL_Driver/Src/stm32f4xx_hal_uart.c **** 
1204:Drivers/STM32F4xx_HAL_Driver/Src/stm32f4xx_hal_uart.c ****     return HAL_OK;
 925              		.loc 1 1204 12
 926 0116 0023     		movs	r3, #0
 927 0118 00E0     		b	.L26
 928              	.L23:
1205:Drivers/STM32F4xx_HAL_Driver/Src/stm32f4xx_hal_uart.c ****   }
1206:Drivers/STM32F4xx_HAL_Driver/Src/stm32f4xx_hal_uart.c ****   else
1207:Drivers/STM32F4xx_HAL_Driver/Src/stm32f4xx_hal_uart.c ****   {
1208:Drivers/STM32F4xx_HAL_Driver/Src/stm32f4xx_hal_uart.c ****     return HAL_BUSY;
 929              		.loc 1 1208 12
 930 011a 0223     		movs	r3, #2
 931              	.L26:
1209:Drivers/STM32F4xx_HAL_Driver/Src/stm32f4xx_hal_uart.c ****   }
1210:Drivers/STM32F4xx_HAL_Driver/Src/stm32f4xx_hal_uart.c **** }
 932              		.loc 1 1210 1
 933 011c 1846     		mov	r0, r3
 934 011e 2037     		adds	r7, r7, #32
 935              	.LCFI40:
 936              		.cfi_def_cfa_offset 8
 937 0120 BD46     		mov	sp, r7
 938              	.LCFI41:
 939              		.cfi_def_cfa_register 13
 940              		@ sp needed
 941 0122 80BD     		pop	{r7, pc}
 942              		.cfi_endproc
 943              	.LFE223:
 945              		.section	.text.HAL_UART_Receive,"ax",%progbits
 946              		.align	1
 947              		.global	HAL_UART_Receive
 948              		.syntax unified
 949              		.thumb
 950              		.thumb_func
 952              	HAL_UART_Receive:
 953              	.LFB224:
1211:Drivers/STM32F4xx_HAL_Driver/Src/stm32f4xx_hal_uart.c **** 
1212:Drivers/STM32F4xx_HAL_Driver/Src/stm32f4xx_hal_uart.c **** /**
1213:Drivers/STM32F4xx_HAL_Driver/Src/stm32f4xx_hal_uart.c ****   * @brief  Receives an amount of data in blocking mode.
1214:Drivers/STM32F4xx_HAL_Driver/Src/stm32f4xx_hal_uart.c ****   * @note   When UART parity is not enabled (PCE = 0), and Word Length is configured to 9 bits (M1-
1215:Drivers/STM32F4xx_HAL_Driver/Src/stm32f4xx_hal_uart.c ****   *         the received data is handled as a set of u16. In this case, Size must indicate the numb
1216:Drivers/STM32F4xx_HAL_Driver/Src/stm32f4xx_hal_uart.c ****   *         of u16 available through pData.
1217:Drivers/STM32F4xx_HAL_Driver/Src/stm32f4xx_hal_uart.c ****   * @param  huart Pointer to a UART_HandleTypeDef structure that contains
1218:Drivers/STM32F4xx_HAL_Driver/Src/stm32f4xx_hal_uart.c ****   *               the configuration information for the specified UART module.
1219:Drivers/STM32F4xx_HAL_Driver/Src/stm32f4xx_hal_uart.c ****   * @param  pData Pointer to data buffer (u8 or u16 data elements).
1220:Drivers/STM32F4xx_HAL_Driver/Src/stm32f4xx_hal_uart.c ****   * @param  Size  Amount of data elements (u8 or u16) to be received.
1221:Drivers/STM32F4xx_HAL_Driver/Src/stm32f4xx_hal_uart.c ****   * @param  Timeout Timeout duration
1222:Drivers/STM32F4xx_HAL_Driver/Src/stm32f4xx_hal_uart.c ****   * @retval HAL status
1223:Drivers/STM32F4xx_HAL_Driver/Src/stm32f4xx_hal_uart.c ****   */
1224:Drivers/STM32F4xx_HAL_Driver/Src/stm32f4xx_hal_uart.c **** HAL_StatusTypeDef HAL_UART_Receive(UART_HandleTypeDef *huart, uint8_t *pData, uint16_t Size, uint32
1225:Drivers/STM32F4xx_HAL_Driver/Src/stm32f4xx_hal_uart.c **** {
 954              		.loc 1 1225 1
 955              		.cfi_startproc
 956              		@ args = 0, pretend = 0, frame = 32
ARM GAS  /tmp/ccIpdX1g.s 			page 39


 957              		@ frame_needed = 1, uses_anonymous_args = 0
 958 0000 80B5     		push	{r7, lr}
 959              	.LCFI42:
 960              		.cfi_def_cfa_offset 8
 961              		.cfi_offset 7, -8
 962              		.cfi_offset 14, -4
 963 0002 8AB0     		sub	sp, sp, #40
 964              	.LCFI43:
 965              		.cfi_def_cfa_offset 48
 966 0004 02AF     		add	r7, sp, #8
 967              	.LCFI44:
 968              		.cfi_def_cfa 7, 40
 969 0006 F860     		str	r0, [r7, #12]
 970 0008 B960     		str	r1, [r7, #8]
 971 000a 3B60     		str	r3, [r7]
 972 000c 1346     		mov	r3, r2	@ movhi
 973 000e FB80     		strh	r3, [r7, #6]	@ movhi
1226:Drivers/STM32F4xx_HAL_Driver/Src/stm32f4xx_hal_uart.c ****   uint8_t  *pdata8bits;
1227:Drivers/STM32F4xx_HAL_Driver/Src/stm32f4xx_hal_uart.c ****   uint16_t *pdata16bits;
1228:Drivers/STM32F4xx_HAL_Driver/Src/stm32f4xx_hal_uart.c ****   uint32_t tickstart = 0U;
 974              		.loc 1 1228 12
 975 0010 0023     		movs	r3, #0
 976 0012 7B61     		str	r3, [r7, #20]
1229:Drivers/STM32F4xx_HAL_Driver/Src/stm32f4xx_hal_uart.c **** 
1230:Drivers/STM32F4xx_HAL_Driver/Src/stm32f4xx_hal_uart.c ****   /* Check that a Rx process is not already ongoing */
1231:Drivers/STM32F4xx_HAL_Driver/Src/stm32f4xx_hal_uart.c ****   if (huart->RxState == HAL_UART_STATE_READY)
 977              		.loc 1 1231 12
 978 0014 FB68     		ldr	r3, [r7, #12]
 979 0016 93F83E30 		ldrb	r3, [r3, #62]
 980 001a DBB2     		uxtb	r3, r3
 981              		.loc 1 1231 6
 982 001c 202B     		cmp	r3, #32
 983 001e 40F08C80 		bne	.L37
1232:Drivers/STM32F4xx_HAL_Driver/Src/stm32f4xx_hal_uart.c ****   {
1233:Drivers/STM32F4xx_HAL_Driver/Src/stm32f4xx_hal_uart.c ****     if ((pData == NULL) || (Size == 0U))
 984              		.loc 1 1233 8
 985 0022 BB68     		ldr	r3, [r7, #8]
 986 0024 002B     		cmp	r3, #0
 987 0026 02D0     		beq	.L38
 988              		.loc 1 1233 25 discriminator 1
 989 0028 FB88     		ldrh	r3, [r7, #6]
 990 002a 002B     		cmp	r3, #0
 991 002c 01D1     		bne	.L39
 992              	.L38:
1234:Drivers/STM32F4xx_HAL_Driver/Src/stm32f4xx_hal_uart.c ****     {
1235:Drivers/STM32F4xx_HAL_Driver/Src/stm32f4xx_hal_uart.c ****       return  HAL_ERROR;
 993              		.loc 1 1235 15
 994 002e 0123     		movs	r3, #1
 995 0030 84E0     		b	.L40
 996              	.L39:
1236:Drivers/STM32F4xx_HAL_Driver/Src/stm32f4xx_hal_uart.c ****     }
1237:Drivers/STM32F4xx_HAL_Driver/Src/stm32f4xx_hal_uart.c **** 
1238:Drivers/STM32F4xx_HAL_Driver/Src/stm32f4xx_hal_uart.c ****     /* Process Locked */
1239:Drivers/STM32F4xx_HAL_Driver/Src/stm32f4xx_hal_uart.c ****     __HAL_LOCK(huart);
 997              		.loc 1 1239 5
 998 0032 FB68     		ldr	r3, [r7, #12]
 999 0034 93F83C30 		ldrb	r3, [r3, #60]	@ zero_extendqisi2
ARM GAS  /tmp/ccIpdX1g.s 			page 40


 1000 0038 012B     		cmp	r3, #1
 1001 003a 01D1     		bne	.L41
 1002              		.loc 1 1239 5 is_stmt 0 discriminator 1
 1003 003c 0223     		movs	r3, #2
 1004 003e 7DE0     		b	.L40
 1005              	.L41:
 1006              		.loc 1 1239 5 discriminator 2
 1007 0040 FB68     		ldr	r3, [r7, #12]
 1008 0042 0122     		movs	r2, #1
 1009 0044 83F83C20 		strb	r2, [r3, #60]
1240:Drivers/STM32F4xx_HAL_Driver/Src/stm32f4xx_hal_uart.c **** 
1241:Drivers/STM32F4xx_HAL_Driver/Src/stm32f4xx_hal_uart.c ****     huart->ErrorCode = HAL_UART_ERROR_NONE;
 1010              		.loc 1 1241 22 is_stmt 1 discriminator 2
 1011 0048 FB68     		ldr	r3, [r7, #12]
 1012 004a 0022     		movs	r2, #0
 1013 004c 1A64     		str	r2, [r3, #64]
1242:Drivers/STM32F4xx_HAL_Driver/Src/stm32f4xx_hal_uart.c ****     huart->RxState = HAL_UART_STATE_BUSY_RX;
 1014              		.loc 1 1242 20 discriminator 2
 1015 004e FB68     		ldr	r3, [r7, #12]
 1016 0050 2222     		movs	r2, #34
 1017 0052 83F83E20 		strb	r2, [r3, #62]
1243:Drivers/STM32F4xx_HAL_Driver/Src/stm32f4xx_hal_uart.c ****     huart->ReceptionType = HAL_UART_RECEPTION_STANDARD;
 1018              		.loc 1 1243 26 discriminator 2
 1019 0056 FB68     		ldr	r3, [r7, #12]
 1020 0058 0022     		movs	r2, #0
 1021 005a 1A63     		str	r2, [r3, #48]
1244:Drivers/STM32F4xx_HAL_Driver/Src/stm32f4xx_hal_uart.c **** 
1245:Drivers/STM32F4xx_HAL_Driver/Src/stm32f4xx_hal_uart.c ****     /* Init tickstart for timeout management */
1246:Drivers/STM32F4xx_HAL_Driver/Src/stm32f4xx_hal_uart.c ****     tickstart = HAL_GetTick();
 1022              		.loc 1 1246 17 discriminator 2
 1023 005c FFF7FEFF 		bl	HAL_GetTick
 1024 0060 7861     		str	r0, [r7, #20]
1247:Drivers/STM32F4xx_HAL_Driver/Src/stm32f4xx_hal_uart.c **** 
1248:Drivers/STM32F4xx_HAL_Driver/Src/stm32f4xx_hal_uart.c ****     huart->RxXferSize = Size;
 1025              		.loc 1 1248 23 discriminator 2
 1026 0062 FB68     		ldr	r3, [r7, #12]
 1027 0064 FA88     		ldrh	r2, [r7, #6]	@ movhi
 1028 0066 9A85     		strh	r2, [r3, #44]	@ movhi
1249:Drivers/STM32F4xx_HAL_Driver/Src/stm32f4xx_hal_uart.c ****     huart->RxXferCount = Size;
 1029              		.loc 1 1249 24 discriminator 2
 1030 0068 FB68     		ldr	r3, [r7, #12]
 1031 006a FA88     		ldrh	r2, [r7, #6]	@ movhi
 1032 006c DA85     		strh	r2, [r3, #46]	@ movhi
1250:Drivers/STM32F4xx_HAL_Driver/Src/stm32f4xx_hal_uart.c **** 
1251:Drivers/STM32F4xx_HAL_Driver/Src/stm32f4xx_hal_uart.c ****     /* In case of 9bits/No Parity transfer, pRxData needs to be handled as a uint16_t pointer */
1252:Drivers/STM32F4xx_HAL_Driver/Src/stm32f4xx_hal_uart.c ****     if ((huart->Init.WordLength == UART_WORDLENGTH_9B) && (huart->Init.Parity == UART_PARITY_NONE))
 1033              		.loc 1 1252 21 discriminator 2
 1034 006e FB68     		ldr	r3, [r7, #12]
 1035 0070 9B68     		ldr	r3, [r3, #8]
 1036              		.loc 1 1252 8 discriminator 2
 1037 0072 B3F5805F 		cmp	r3, #4096
 1038 0076 08D1     		bne	.L42
 1039              		.loc 1 1252 71 discriminator 1
 1040 0078 FB68     		ldr	r3, [r7, #12]
 1041 007a 1B69     		ldr	r3, [r3, #16]
 1042              		.loc 1 1252 56 discriminator 1
 1043 007c 002B     		cmp	r3, #0
ARM GAS  /tmp/ccIpdX1g.s 			page 41


 1044 007e 04D1     		bne	.L42
1253:Drivers/STM32F4xx_HAL_Driver/Src/stm32f4xx_hal_uart.c ****     {
1254:Drivers/STM32F4xx_HAL_Driver/Src/stm32f4xx_hal_uart.c ****       pdata8bits  = NULL;
 1045              		.loc 1 1254 19
 1046 0080 0023     		movs	r3, #0
 1047 0082 FB61     		str	r3, [r7, #28]
1255:Drivers/STM32F4xx_HAL_Driver/Src/stm32f4xx_hal_uart.c ****       pdata16bits = (uint16_t *) pData;
 1048              		.loc 1 1255 19
 1049 0084 BB68     		ldr	r3, [r7, #8]
 1050 0086 BB61     		str	r3, [r7, #24]
 1051 0088 03E0     		b	.L43
 1052              	.L42:
1256:Drivers/STM32F4xx_HAL_Driver/Src/stm32f4xx_hal_uart.c ****     }
1257:Drivers/STM32F4xx_HAL_Driver/Src/stm32f4xx_hal_uart.c ****     else
1258:Drivers/STM32F4xx_HAL_Driver/Src/stm32f4xx_hal_uart.c ****     {
1259:Drivers/STM32F4xx_HAL_Driver/Src/stm32f4xx_hal_uart.c ****       pdata8bits  = pData;
 1053              		.loc 1 1259 19
 1054 008a BB68     		ldr	r3, [r7, #8]
 1055 008c FB61     		str	r3, [r7, #28]
1260:Drivers/STM32F4xx_HAL_Driver/Src/stm32f4xx_hal_uart.c ****       pdata16bits = NULL;
 1056              		.loc 1 1260 19
 1057 008e 0023     		movs	r3, #0
 1058 0090 BB61     		str	r3, [r7, #24]
 1059              	.L43:
1261:Drivers/STM32F4xx_HAL_Driver/Src/stm32f4xx_hal_uart.c ****     }
1262:Drivers/STM32F4xx_HAL_Driver/Src/stm32f4xx_hal_uart.c **** 
1263:Drivers/STM32F4xx_HAL_Driver/Src/stm32f4xx_hal_uart.c ****     /* Process Unlocked */
1264:Drivers/STM32F4xx_HAL_Driver/Src/stm32f4xx_hal_uart.c ****     __HAL_UNLOCK(huart);
 1060              		.loc 1 1264 5
 1061 0092 FB68     		ldr	r3, [r7, #12]
 1062 0094 0022     		movs	r2, #0
 1063 0096 83F83C20 		strb	r2, [r3, #60]
1265:Drivers/STM32F4xx_HAL_Driver/Src/stm32f4xx_hal_uart.c **** 
1266:Drivers/STM32F4xx_HAL_Driver/Src/stm32f4xx_hal_uart.c ****     /* Check the remain data to be received */
1267:Drivers/STM32F4xx_HAL_Driver/Src/stm32f4xx_hal_uart.c ****     while (huart->RxXferCount > 0U)
 1064              		.loc 1 1267 11
 1065 009a 43E0     		b	.L44
 1066              	.L51:
1268:Drivers/STM32F4xx_HAL_Driver/Src/stm32f4xx_hal_uart.c ****     {
1269:Drivers/STM32F4xx_HAL_Driver/Src/stm32f4xx_hal_uart.c ****       if (UART_WaitOnFlagUntilTimeout(huart, UART_FLAG_RXNE, RESET, tickstart, Timeout) != HAL_OK)
 1067              		.loc 1 1269 11
 1068 009c 3B68     		ldr	r3, [r7]
 1069 009e 0093     		str	r3, [sp]
 1070 00a0 7B69     		ldr	r3, [r7, #20]
 1071 00a2 0022     		movs	r2, #0
 1072 00a4 2021     		movs	r1, #32
 1073 00a6 F868     		ldr	r0, [r7, #12]
 1074 00a8 FFF7FEFF 		bl	UART_WaitOnFlagUntilTimeout
 1075 00ac 0346     		mov	r3, r0
 1076              		.loc 1 1269 10
 1077 00ae 002B     		cmp	r3, #0
 1078 00b0 01D0     		beq	.L45
1270:Drivers/STM32F4xx_HAL_Driver/Src/stm32f4xx_hal_uart.c ****       {
1271:Drivers/STM32F4xx_HAL_Driver/Src/stm32f4xx_hal_uart.c ****         return HAL_TIMEOUT;
 1079              		.loc 1 1271 16
 1080 00b2 0323     		movs	r3, #3
 1081 00b4 42E0     		b	.L40
ARM GAS  /tmp/ccIpdX1g.s 			page 42


 1082              	.L45:
1272:Drivers/STM32F4xx_HAL_Driver/Src/stm32f4xx_hal_uart.c ****       }
1273:Drivers/STM32F4xx_HAL_Driver/Src/stm32f4xx_hal_uart.c ****       if (pdata8bits == NULL)
 1083              		.loc 1 1273 10
 1084 00b6 FB69     		ldr	r3, [r7, #28]
 1085 00b8 002B     		cmp	r3, #0
 1086 00ba 0CD1     		bne	.L46
1274:Drivers/STM32F4xx_HAL_Driver/Src/stm32f4xx_hal_uart.c ****       {
1275:Drivers/STM32F4xx_HAL_Driver/Src/stm32f4xx_hal_uart.c ****         *pdata16bits = (uint16_t)(huart->Instance->DR & 0x01FF);
 1087              		.loc 1 1275 40
 1088 00bc FB68     		ldr	r3, [r7, #12]
 1089 00be 1B68     		ldr	r3, [r3]
 1090              		.loc 1 1275 50
 1091 00c0 5B68     		ldr	r3, [r3, #4]
 1092              		.loc 1 1275 24
 1093 00c2 9BB2     		uxth	r3, r3
 1094 00c4 C3F30803 		ubfx	r3, r3, #0, #9
 1095 00c8 9AB2     		uxth	r2, r3
 1096              		.loc 1 1275 22
 1097 00ca BB69     		ldr	r3, [r7, #24]
 1098 00cc 1A80     		strh	r2, [r3]	@ movhi
1276:Drivers/STM32F4xx_HAL_Driver/Src/stm32f4xx_hal_uart.c ****         pdata16bits++;
 1099              		.loc 1 1276 20
 1100 00ce BB69     		ldr	r3, [r7, #24]
 1101 00d0 0233     		adds	r3, r3, #2
 1102 00d2 BB61     		str	r3, [r7, #24]
 1103 00d4 1FE0     		b	.L47
 1104              	.L46:
1277:Drivers/STM32F4xx_HAL_Driver/Src/stm32f4xx_hal_uart.c ****       }
1278:Drivers/STM32F4xx_HAL_Driver/Src/stm32f4xx_hal_uart.c ****       else
1279:Drivers/STM32F4xx_HAL_Driver/Src/stm32f4xx_hal_uart.c ****       {
1280:Drivers/STM32F4xx_HAL_Driver/Src/stm32f4xx_hal_uart.c ****         if ((huart->Init.WordLength == UART_WORDLENGTH_9B) || ((huart->Init.WordLength == UART_WORD
 1105              		.loc 1 1280 25
 1106 00d6 FB68     		ldr	r3, [r7, #12]
 1107 00d8 9B68     		ldr	r3, [r3, #8]
 1108              		.loc 1 1280 12
 1109 00da B3F5805F 		cmp	r3, #4096
 1110 00de 07D0     		beq	.L48
 1111              		.loc 1 1280 76 discriminator 1
 1112 00e0 FB68     		ldr	r3, [r7, #12]
 1113 00e2 9B68     		ldr	r3, [r3, #8]
 1114              		.loc 1 1280 60 discriminator 1
 1115 00e4 002B     		cmp	r3, #0
 1116 00e6 0AD1     		bne	.L49
 1117              		.loc 1 1280 126 discriminator 2
 1118 00e8 FB68     		ldr	r3, [r7, #12]
 1119 00ea 1B69     		ldr	r3, [r3, #16]
 1120              		.loc 1 1280 111 discriminator 2
 1121 00ec 002B     		cmp	r3, #0
 1122 00ee 06D1     		bne	.L49
 1123              	.L48:
1281:Drivers/STM32F4xx_HAL_Driver/Src/stm32f4xx_hal_uart.c ****         {
1282:Drivers/STM32F4xx_HAL_Driver/Src/stm32f4xx_hal_uart.c ****           *pdata8bits = (uint8_t)(huart->Instance->DR & (uint8_t)0x00FF);
 1124              		.loc 1 1282 40
 1125 00f0 FB68     		ldr	r3, [r7, #12]
 1126 00f2 1B68     		ldr	r3, [r3]
 1127              		.loc 1 1282 50
ARM GAS  /tmp/ccIpdX1g.s 			page 43


 1128 00f4 5B68     		ldr	r3, [r3, #4]
 1129              		.loc 1 1282 25
 1130 00f6 DAB2     		uxtb	r2, r3
 1131              		.loc 1 1282 23
 1132 00f8 FB69     		ldr	r3, [r7, #28]
 1133 00fa 1A70     		strb	r2, [r3]
 1134 00fc 08E0     		b	.L50
 1135              	.L49:
1283:Drivers/STM32F4xx_HAL_Driver/Src/stm32f4xx_hal_uart.c ****         }
1284:Drivers/STM32F4xx_HAL_Driver/Src/stm32f4xx_hal_uart.c ****         else
1285:Drivers/STM32F4xx_HAL_Driver/Src/stm32f4xx_hal_uart.c ****         {
1286:Drivers/STM32F4xx_HAL_Driver/Src/stm32f4xx_hal_uart.c ****           *pdata8bits = (uint8_t)(huart->Instance->DR & (uint8_t)0x007F);
 1136              		.loc 1 1286 40
 1137 00fe FB68     		ldr	r3, [r7, #12]
 1138 0100 1B68     		ldr	r3, [r3]
 1139              		.loc 1 1286 50
 1140 0102 5B68     		ldr	r3, [r3, #4]
 1141              		.loc 1 1286 25
 1142 0104 DBB2     		uxtb	r3, r3
 1143 0106 03F07F03 		and	r3, r3, #127
 1144 010a DAB2     		uxtb	r2, r3
 1145              		.loc 1 1286 23
 1146 010c FB69     		ldr	r3, [r7, #28]
 1147 010e 1A70     		strb	r2, [r3]
 1148              	.L50:
1287:Drivers/STM32F4xx_HAL_Driver/Src/stm32f4xx_hal_uart.c ****         }
1288:Drivers/STM32F4xx_HAL_Driver/Src/stm32f4xx_hal_uart.c ****         pdata8bits++;
 1149              		.loc 1 1288 19
 1150 0110 FB69     		ldr	r3, [r7, #28]
 1151 0112 0133     		adds	r3, r3, #1
 1152 0114 FB61     		str	r3, [r7, #28]
 1153              	.L47:
1289:Drivers/STM32F4xx_HAL_Driver/Src/stm32f4xx_hal_uart.c ****       }
1290:Drivers/STM32F4xx_HAL_Driver/Src/stm32f4xx_hal_uart.c ****       huart->RxXferCount--;
 1154              		.loc 1 1290 12
 1155 0116 FB68     		ldr	r3, [r7, #12]
 1156 0118 DB8D     		ldrh	r3, [r3, #46]	@ movhi
 1157 011a 9BB2     		uxth	r3, r3
 1158              		.loc 1 1290 25
 1159 011c 013B     		subs	r3, r3, #1
 1160 011e 9AB2     		uxth	r2, r3
 1161 0120 FB68     		ldr	r3, [r7, #12]
 1162 0122 DA85     		strh	r2, [r3, #46]	@ movhi
 1163              	.L44:
1267:Drivers/STM32F4xx_HAL_Driver/Src/stm32f4xx_hal_uart.c ****     {
 1164              		.loc 1 1267 17
 1165 0124 FB68     		ldr	r3, [r7, #12]
 1166 0126 DB8D     		ldrh	r3, [r3, #46]	@ movhi
 1167 0128 9BB2     		uxth	r3, r3
1267:Drivers/STM32F4xx_HAL_Driver/Src/stm32f4xx_hal_uart.c ****     {
 1168              		.loc 1 1267 31
 1169 012a 002B     		cmp	r3, #0
 1170 012c B6D1     		bne	.L51
1291:Drivers/STM32F4xx_HAL_Driver/Src/stm32f4xx_hal_uart.c ****     }
1292:Drivers/STM32F4xx_HAL_Driver/Src/stm32f4xx_hal_uart.c **** 
1293:Drivers/STM32F4xx_HAL_Driver/Src/stm32f4xx_hal_uart.c ****     /* At end of Rx process, restore huart->RxState to Ready */
1294:Drivers/STM32F4xx_HAL_Driver/Src/stm32f4xx_hal_uart.c ****     huart->RxState = HAL_UART_STATE_READY;
ARM GAS  /tmp/ccIpdX1g.s 			page 44


 1171              		.loc 1 1294 20
 1172 012e FB68     		ldr	r3, [r7, #12]
 1173 0130 2022     		movs	r2, #32
 1174 0132 83F83E20 		strb	r2, [r3, #62]
1295:Drivers/STM32F4xx_HAL_Driver/Src/stm32f4xx_hal_uart.c **** 
1296:Drivers/STM32F4xx_HAL_Driver/Src/stm32f4xx_hal_uart.c ****     return HAL_OK;
 1175              		.loc 1 1296 12
 1176 0136 0023     		movs	r3, #0
 1177 0138 00E0     		b	.L40
 1178              	.L37:
1297:Drivers/STM32F4xx_HAL_Driver/Src/stm32f4xx_hal_uart.c ****   }
1298:Drivers/STM32F4xx_HAL_Driver/Src/stm32f4xx_hal_uart.c ****   else
1299:Drivers/STM32F4xx_HAL_Driver/Src/stm32f4xx_hal_uart.c ****   {
1300:Drivers/STM32F4xx_HAL_Driver/Src/stm32f4xx_hal_uart.c ****     return HAL_BUSY;
 1179              		.loc 1 1300 12
 1180 013a 0223     		movs	r3, #2
 1181              	.L40:
1301:Drivers/STM32F4xx_HAL_Driver/Src/stm32f4xx_hal_uart.c ****   }
1302:Drivers/STM32F4xx_HAL_Driver/Src/stm32f4xx_hal_uart.c **** }
 1182              		.loc 1 1302 1
 1183 013c 1846     		mov	r0, r3
 1184 013e 2037     		adds	r7, r7, #32
 1185              	.LCFI45:
 1186              		.cfi_def_cfa_offset 8
 1187 0140 BD46     		mov	sp, r7
 1188              	.LCFI46:
 1189              		.cfi_def_cfa_register 13
 1190              		@ sp needed
 1191 0142 80BD     		pop	{r7, pc}
 1192              		.cfi_endproc
 1193              	.LFE224:
 1195              		.section	.text.HAL_UART_Transmit_IT,"ax",%progbits
 1196              		.align	1
 1197              		.global	HAL_UART_Transmit_IT
 1198              		.syntax unified
 1199              		.thumb
 1200              		.thumb_func
 1202              	HAL_UART_Transmit_IT:
 1203              	.LFB225:
1303:Drivers/STM32F4xx_HAL_Driver/Src/stm32f4xx_hal_uart.c **** 
1304:Drivers/STM32F4xx_HAL_Driver/Src/stm32f4xx_hal_uart.c **** /**
1305:Drivers/STM32F4xx_HAL_Driver/Src/stm32f4xx_hal_uart.c ****   * @brief  Sends an amount of data in non blocking mode.
1306:Drivers/STM32F4xx_HAL_Driver/Src/stm32f4xx_hal_uart.c ****   * @note   When UART parity is not enabled (PCE = 0), and Word Length is configured to 9 bits (M1-
1307:Drivers/STM32F4xx_HAL_Driver/Src/stm32f4xx_hal_uart.c ****   *         the sent data is handled as a set of u16. In this case, Size must indicate the number
1308:Drivers/STM32F4xx_HAL_Driver/Src/stm32f4xx_hal_uart.c ****   *         of u16 provided through pData.
1309:Drivers/STM32F4xx_HAL_Driver/Src/stm32f4xx_hal_uart.c ****   * @param  huart Pointer to a UART_HandleTypeDef structure that contains
1310:Drivers/STM32F4xx_HAL_Driver/Src/stm32f4xx_hal_uart.c ****   *               the configuration information for the specified UART module.
1311:Drivers/STM32F4xx_HAL_Driver/Src/stm32f4xx_hal_uart.c ****   * @param  pData Pointer to data buffer (u8 or u16 data elements).
1312:Drivers/STM32F4xx_HAL_Driver/Src/stm32f4xx_hal_uart.c ****   * @param  Size  Amount of data elements (u8 or u16) to be sent
1313:Drivers/STM32F4xx_HAL_Driver/Src/stm32f4xx_hal_uart.c ****   * @retval HAL status
1314:Drivers/STM32F4xx_HAL_Driver/Src/stm32f4xx_hal_uart.c ****   */
1315:Drivers/STM32F4xx_HAL_Driver/Src/stm32f4xx_hal_uart.c **** HAL_StatusTypeDef HAL_UART_Transmit_IT(UART_HandleTypeDef *huart, const uint8_t *pData, uint16_t Si
1316:Drivers/STM32F4xx_HAL_Driver/Src/stm32f4xx_hal_uart.c **** {
 1204              		.loc 1 1316 1
 1205              		.cfi_startproc
 1206              		@ args = 0, pretend = 0, frame = 16
 1207              		@ frame_needed = 1, uses_anonymous_args = 0
ARM GAS  /tmp/ccIpdX1g.s 			page 45


 1208              		@ link register save eliminated.
 1209 0000 80B4     		push	{r7}
 1210              	.LCFI47:
 1211              		.cfi_def_cfa_offset 4
 1212              		.cfi_offset 7, -4
 1213 0002 85B0     		sub	sp, sp, #20
 1214              	.LCFI48:
 1215              		.cfi_def_cfa_offset 24
 1216 0004 00AF     		add	r7, sp, #0
 1217              	.LCFI49:
 1218              		.cfi_def_cfa_register 7
 1219 0006 F860     		str	r0, [r7, #12]
 1220 0008 B960     		str	r1, [r7, #8]
 1221 000a 1346     		mov	r3, r2
 1222 000c FB80     		strh	r3, [r7, #6]	@ movhi
1317:Drivers/STM32F4xx_HAL_Driver/Src/stm32f4xx_hal_uart.c ****   /* Check that a Tx process is not already ongoing */
1318:Drivers/STM32F4xx_HAL_Driver/Src/stm32f4xx_hal_uart.c ****   if (huart->gState == HAL_UART_STATE_READY)
 1223              		.loc 1 1318 12
 1224 000e FB68     		ldr	r3, [r7, #12]
 1225 0010 93F83D30 		ldrb	r3, [r3, #61]
 1226 0014 DBB2     		uxtb	r3, r3
 1227              		.loc 1 1318 6
 1228 0016 202B     		cmp	r3, #32
 1229 0018 30D1     		bne	.L53
1319:Drivers/STM32F4xx_HAL_Driver/Src/stm32f4xx_hal_uart.c ****   {
1320:Drivers/STM32F4xx_HAL_Driver/Src/stm32f4xx_hal_uart.c ****     if ((pData == NULL) || (Size == 0U))
 1230              		.loc 1 1320 8
 1231 001a BB68     		ldr	r3, [r7, #8]
 1232 001c 002B     		cmp	r3, #0
 1233 001e 02D0     		beq	.L54
 1234              		.loc 1 1320 25 discriminator 1
 1235 0020 FB88     		ldrh	r3, [r7, #6]
 1236 0022 002B     		cmp	r3, #0
 1237 0024 01D1     		bne	.L55
 1238              	.L54:
1321:Drivers/STM32F4xx_HAL_Driver/Src/stm32f4xx_hal_uart.c ****     {
1322:Drivers/STM32F4xx_HAL_Driver/Src/stm32f4xx_hal_uart.c ****       return HAL_ERROR;
 1239              		.loc 1 1322 14
 1240 0026 0123     		movs	r3, #1
 1241 0028 29E0     		b	.L56
 1242              	.L55:
1323:Drivers/STM32F4xx_HAL_Driver/Src/stm32f4xx_hal_uart.c ****     }
1324:Drivers/STM32F4xx_HAL_Driver/Src/stm32f4xx_hal_uart.c **** 
1325:Drivers/STM32F4xx_HAL_Driver/Src/stm32f4xx_hal_uart.c ****     /* Process Locked */
1326:Drivers/STM32F4xx_HAL_Driver/Src/stm32f4xx_hal_uart.c ****     __HAL_LOCK(huart);
 1243              		.loc 1 1326 5
 1244 002a FB68     		ldr	r3, [r7, #12]
 1245 002c 93F83C30 		ldrb	r3, [r3, #60]	@ zero_extendqisi2
 1246 0030 012B     		cmp	r3, #1
 1247 0032 01D1     		bne	.L57
 1248              		.loc 1 1326 5 is_stmt 0 discriminator 1
 1249 0034 0223     		movs	r3, #2
 1250 0036 22E0     		b	.L56
 1251              	.L57:
 1252              		.loc 1 1326 5 discriminator 2
 1253 0038 FB68     		ldr	r3, [r7, #12]
 1254 003a 0122     		movs	r2, #1
ARM GAS  /tmp/ccIpdX1g.s 			page 46


 1255 003c 83F83C20 		strb	r2, [r3, #60]
1327:Drivers/STM32F4xx_HAL_Driver/Src/stm32f4xx_hal_uart.c **** 
1328:Drivers/STM32F4xx_HAL_Driver/Src/stm32f4xx_hal_uart.c ****     huart->pTxBuffPtr = pData;
 1256              		.loc 1 1328 23 is_stmt 1 discriminator 2
 1257 0040 FB68     		ldr	r3, [r7, #12]
 1258 0042 BA68     		ldr	r2, [r7, #8]
 1259 0044 1A62     		str	r2, [r3, #32]
1329:Drivers/STM32F4xx_HAL_Driver/Src/stm32f4xx_hal_uart.c ****     huart->TxXferSize = Size;
 1260              		.loc 1 1329 23 discriminator 2
 1261 0046 FB68     		ldr	r3, [r7, #12]
 1262 0048 FA88     		ldrh	r2, [r7, #6]	@ movhi
 1263 004a 9A84     		strh	r2, [r3, #36]	@ movhi
1330:Drivers/STM32F4xx_HAL_Driver/Src/stm32f4xx_hal_uart.c ****     huart->TxXferCount = Size;
 1264              		.loc 1 1330 24 discriminator 2
 1265 004c FB68     		ldr	r3, [r7, #12]
 1266 004e FA88     		ldrh	r2, [r7, #6]	@ movhi
 1267 0050 DA84     		strh	r2, [r3, #38]	@ movhi
1331:Drivers/STM32F4xx_HAL_Driver/Src/stm32f4xx_hal_uart.c **** 
1332:Drivers/STM32F4xx_HAL_Driver/Src/stm32f4xx_hal_uart.c ****     huart->ErrorCode = HAL_UART_ERROR_NONE;
 1268              		.loc 1 1332 22 discriminator 2
 1269 0052 FB68     		ldr	r3, [r7, #12]
 1270 0054 0022     		movs	r2, #0
 1271 0056 1A64     		str	r2, [r3, #64]
1333:Drivers/STM32F4xx_HAL_Driver/Src/stm32f4xx_hal_uart.c ****     huart->gState = HAL_UART_STATE_BUSY_TX;
 1272              		.loc 1 1333 19 discriminator 2
 1273 0058 FB68     		ldr	r3, [r7, #12]
 1274 005a 2122     		movs	r2, #33
 1275 005c 83F83D20 		strb	r2, [r3, #61]
1334:Drivers/STM32F4xx_HAL_Driver/Src/stm32f4xx_hal_uart.c **** 
1335:Drivers/STM32F4xx_HAL_Driver/Src/stm32f4xx_hal_uart.c ****     /* Process Unlocked */
1336:Drivers/STM32F4xx_HAL_Driver/Src/stm32f4xx_hal_uart.c ****     __HAL_UNLOCK(huart);
 1276              		.loc 1 1336 5 discriminator 2
 1277 0060 FB68     		ldr	r3, [r7, #12]
 1278 0062 0022     		movs	r2, #0
 1279 0064 83F83C20 		strb	r2, [r3, #60]
1337:Drivers/STM32F4xx_HAL_Driver/Src/stm32f4xx_hal_uart.c **** 
1338:Drivers/STM32F4xx_HAL_Driver/Src/stm32f4xx_hal_uart.c ****     /* Enable the UART Transmit data register empty Interrupt */
1339:Drivers/STM32F4xx_HAL_Driver/Src/stm32f4xx_hal_uart.c ****     __HAL_UART_ENABLE_IT(huart, UART_IT_TXE);
 1280              		.loc 1 1339 5 discriminator 2
 1281 0068 FB68     		ldr	r3, [r7, #12]
 1282 006a 1B68     		ldr	r3, [r3]
 1283 006c DA68     		ldr	r2, [r3, #12]
 1284 006e FB68     		ldr	r3, [r7, #12]
 1285 0070 1B68     		ldr	r3, [r3]
 1286 0072 42F08002 		orr	r2, r2, #128
 1287 0076 DA60     		str	r2, [r3, #12]
1340:Drivers/STM32F4xx_HAL_Driver/Src/stm32f4xx_hal_uart.c **** 
1341:Drivers/STM32F4xx_HAL_Driver/Src/stm32f4xx_hal_uart.c ****     return HAL_OK;
 1288              		.loc 1 1341 12 discriminator 2
 1289 0078 0023     		movs	r3, #0
 1290 007a 00E0     		b	.L56
 1291              	.L53:
1342:Drivers/STM32F4xx_HAL_Driver/Src/stm32f4xx_hal_uart.c ****   }
1343:Drivers/STM32F4xx_HAL_Driver/Src/stm32f4xx_hal_uart.c ****   else
1344:Drivers/STM32F4xx_HAL_Driver/Src/stm32f4xx_hal_uart.c ****   {
1345:Drivers/STM32F4xx_HAL_Driver/Src/stm32f4xx_hal_uart.c ****     return HAL_BUSY;
 1292              		.loc 1 1345 12
ARM GAS  /tmp/ccIpdX1g.s 			page 47


 1293 007c 0223     		movs	r3, #2
 1294              	.L56:
1346:Drivers/STM32F4xx_HAL_Driver/Src/stm32f4xx_hal_uart.c ****   }
1347:Drivers/STM32F4xx_HAL_Driver/Src/stm32f4xx_hal_uart.c **** }
 1295              		.loc 1 1347 1
 1296 007e 1846     		mov	r0, r3
 1297 0080 1437     		adds	r7, r7, #20
 1298              	.LCFI50:
 1299              		.cfi_def_cfa_offset 4
 1300 0082 BD46     		mov	sp, r7
 1301              	.LCFI51:
 1302              		.cfi_def_cfa_register 13
 1303              		@ sp needed
 1304 0084 5DF8047B 		ldr	r7, [sp], #4
 1305              	.LCFI52:
 1306              		.cfi_restore 7
 1307              		.cfi_def_cfa_offset 0
 1308 0088 7047     		bx	lr
 1309              		.cfi_endproc
 1310              	.LFE225:
 1312              		.section	.text.HAL_UART_Receive_IT,"ax",%progbits
 1313              		.align	1
 1314              		.global	HAL_UART_Receive_IT
 1315              		.syntax unified
 1316              		.thumb
 1317              		.thumb_func
 1319              	HAL_UART_Receive_IT:
 1320              	.LFB226:
1348:Drivers/STM32F4xx_HAL_Driver/Src/stm32f4xx_hal_uart.c **** 
1349:Drivers/STM32F4xx_HAL_Driver/Src/stm32f4xx_hal_uart.c **** /**
1350:Drivers/STM32F4xx_HAL_Driver/Src/stm32f4xx_hal_uart.c ****   * @brief  Receives an amount of data in non blocking mode.
1351:Drivers/STM32F4xx_HAL_Driver/Src/stm32f4xx_hal_uart.c ****   * @note   When UART parity is not enabled (PCE = 0), and Word Length is configured to 9 bits (M1-
1352:Drivers/STM32F4xx_HAL_Driver/Src/stm32f4xx_hal_uart.c ****   *         the received data is handled as a set of u16. In this case, Size must indicate the numb
1353:Drivers/STM32F4xx_HAL_Driver/Src/stm32f4xx_hal_uart.c ****   *         of u16 available through pData.
1354:Drivers/STM32F4xx_HAL_Driver/Src/stm32f4xx_hal_uart.c ****   * @param  huart Pointer to a UART_HandleTypeDef structure that contains
1355:Drivers/STM32F4xx_HAL_Driver/Src/stm32f4xx_hal_uart.c ****   *               the configuration information for the specified UART module.
1356:Drivers/STM32F4xx_HAL_Driver/Src/stm32f4xx_hal_uart.c ****   * @param  pData Pointer to data buffer (u8 or u16 data elements).
1357:Drivers/STM32F4xx_HAL_Driver/Src/stm32f4xx_hal_uart.c ****   * @param  Size  Amount of data elements (u8 or u16) to be received.
1358:Drivers/STM32F4xx_HAL_Driver/Src/stm32f4xx_hal_uart.c ****   * @retval HAL status
1359:Drivers/STM32F4xx_HAL_Driver/Src/stm32f4xx_hal_uart.c ****   */
1360:Drivers/STM32F4xx_HAL_Driver/Src/stm32f4xx_hal_uart.c **** HAL_StatusTypeDef HAL_UART_Receive_IT(UART_HandleTypeDef *huart, uint8_t *pData, uint16_t Size)
1361:Drivers/STM32F4xx_HAL_Driver/Src/stm32f4xx_hal_uart.c **** {
 1321              		.loc 1 1361 1
 1322              		.cfi_startproc
 1323              		@ args = 0, pretend = 0, frame = 16
 1324              		@ frame_needed = 1, uses_anonymous_args = 0
 1325 0000 80B5     		push	{r7, lr}
 1326              	.LCFI53:
 1327              		.cfi_def_cfa_offset 8
 1328              		.cfi_offset 7, -8
 1329              		.cfi_offset 14, -4
 1330 0002 84B0     		sub	sp, sp, #16
 1331              	.LCFI54:
 1332              		.cfi_def_cfa_offset 24
 1333 0004 00AF     		add	r7, sp, #0
 1334              	.LCFI55:
 1335              		.cfi_def_cfa_register 7
ARM GAS  /tmp/ccIpdX1g.s 			page 48


 1336 0006 F860     		str	r0, [r7, #12]
 1337 0008 B960     		str	r1, [r7, #8]
 1338 000a 1346     		mov	r3, r2
 1339 000c FB80     		strh	r3, [r7, #6]	@ movhi
1362:Drivers/STM32F4xx_HAL_Driver/Src/stm32f4xx_hal_uart.c ****   /* Check that a Rx process is not already ongoing */
1363:Drivers/STM32F4xx_HAL_Driver/Src/stm32f4xx_hal_uart.c ****   if (huart->RxState == HAL_UART_STATE_READY)
 1340              		.loc 1 1363 12
 1341 000e FB68     		ldr	r3, [r7, #12]
 1342 0010 93F83E30 		ldrb	r3, [r3, #62]
 1343 0014 DBB2     		uxtb	r3, r3
 1344              		.loc 1 1363 6
 1345 0016 202B     		cmp	r3, #32
 1346 0018 1DD1     		bne	.L59
1364:Drivers/STM32F4xx_HAL_Driver/Src/stm32f4xx_hal_uart.c ****   {
1365:Drivers/STM32F4xx_HAL_Driver/Src/stm32f4xx_hal_uart.c ****     if ((pData == NULL) || (Size == 0U))
 1347              		.loc 1 1365 8
 1348 001a BB68     		ldr	r3, [r7, #8]
 1349 001c 002B     		cmp	r3, #0
 1350 001e 02D0     		beq	.L60
 1351              		.loc 1 1365 25 discriminator 1
 1352 0020 FB88     		ldrh	r3, [r7, #6]
 1353 0022 002B     		cmp	r3, #0
 1354 0024 01D1     		bne	.L61
 1355              	.L60:
1366:Drivers/STM32F4xx_HAL_Driver/Src/stm32f4xx_hal_uart.c ****     {
1367:Drivers/STM32F4xx_HAL_Driver/Src/stm32f4xx_hal_uart.c ****       return HAL_ERROR;
 1356              		.loc 1 1367 14
 1357 0026 0123     		movs	r3, #1
 1358 0028 16E0     		b	.L62
 1359              	.L61:
1368:Drivers/STM32F4xx_HAL_Driver/Src/stm32f4xx_hal_uart.c ****     }
1369:Drivers/STM32F4xx_HAL_Driver/Src/stm32f4xx_hal_uart.c **** 
1370:Drivers/STM32F4xx_HAL_Driver/Src/stm32f4xx_hal_uart.c ****     /* Process Locked */
1371:Drivers/STM32F4xx_HAL_Driver/Src/stm32f4xx_hal_uart.c ****     __HAL_LOCK(huart);
 1360              		.loc 1 1371 5
 1361 002a FB68     		ldr	r3, [r7, #12]
 1362 002c 93F83C30 		ldrb	r3, [r3, #60]	@ zero_extendqisi2
 1363 0030 012B     		cmp	r3, #1
 1364 0032 01D1     		bne	.L63
 1365              		.loc 1 1371 5 is_stmt 0 discriminator 1
 1366 0034 0223     		movs	r3, #2
 1367 0036 0FE0     		b	.L62
 1368              	.L63:
 1369              		.loc 1 1371 5 discriminator 2
 1370 0038 FB68     		ldr	r3, [r7, #12]
 1371 003a 0122     		movs	r2, #1
 1372 003c 83F83C20 		strb	r2, [r3, #60]
1372:Drivers/STM32F4xx_HAL_Driver/Src/stm32f4xx_hal_uart.c **** 
1373:Drivers/STM32F4xx_HAL_Driver/Src/stm32f4xx_hal_uart.c ****     /* Set Reception type to Standard reception */
1374:Drivers/STM32F4xx_HAL_Driver/Src/stm32f4xx_hal_uart.c ****     huart->ReceptionType = HAL_UART_RECEPTION_STANDARD;
 1373              		.loc 1 1374 26 is_stmt 1 discriminator 2
 1374 0040 FB68     		ldr	r3, [r7, #12]
 1375 0042 0022     		movs	r2, #0
 1376 0044 1A63     		str	r2, [r3, #48]
1375:Drivers/STM32F4xx_HAL_Driver/Src/stm32f4xx_hal_uart.c **** 
1376:Drivers/STM32F4xx_HAL_Driver/Src/stm32f4xx_hal_uart.c ****     return (UART_Start_Receive_IT(huart, pData, Size));
 1377              		.loc 1 1376 13 discriminator 2
ARM GAS  /tmp/ccIpdX1g.s 			page 49


 1378 0046 FB88     		ldrh	r3, [r7, #6]
 1379 0048 1A46     		mov	r2, r3
 1380 004a B968     		ldr	r1, [r7, #8]
 1381 004c F868     		ldr	r0, [r7, #12]
 1382 004e FFF7FEFF 		bl	UART_Start_Receive_IT
 1383 0052 0346     		mov	r3, r0
 1384 0054 00E0     		b	.L62
 1385              	.L59:
1377:Drivers/STM32F4xx_HAL_Driver/Src/stm32f4xx_hal_uart.c ****   }
1378:Drivers/STM32F4xx_HAL_Driver/Src/stm32f4xx_hal_uart.c ****   else
1379:Drivers/STM32F4xx_HAL_Driver/Src/stm32f4xx_hal_uart.c ****   {
1380:Drivers/STM32F4xx_HAL_Driver/Src/stm32f4xx_hal_uart.c ****     return HAL_BUSY;
 1386              		.loc 1 1380 12
 1387 0056 0223     		movs	r3, #2
 1388              	.L62:
1381:Drivers/STM32F4xx_HAL_Driver/Src/stm32f4xx_hal_uart.c ****   }
1382:Drivers/STM32F4xx_HAL_Driver/Src/stm32f4xx_hal_uart.c **** }
 1389              		.loc 1 1382 1
 1390 0058 1846     		mov	r0, r3
 1391 005a 1037     		adds	r7, r7, #16
 1392              	.LCFI56:
 1393              		.cfi_def_cfa_offset 8
 1394 005c BD46     		mov	sp, r7
 1395              	.LCFI57:
 1396              		.cfi_def_cfa_register 13
 1397              		@ sp needed
 1398 005e 80BD     		pop	{r7, pc}
 1399              		.cfi_endproc
 1400              	.LFE226:
 1402              		.section	.text.HAL_UART_Transmit_DMA,"ax",%progbits
 1403              		.align	1
 1404              		.global	HAL_UART_Transmit_DMA
 1405              		.syntax unified
 1406              		.thumb
 1407              		.thumb_func
 1409              	HAL_UART_Transmit_DMA:
 1410              	.LFB227:
1383:Drivers/STM32F4xx_HAL_Driver/Src/stm32f4xx_hal_uart.c **** 
1384:Drivers/STM32F4xx_HAL_Driver/Src/stm32f4xx_hal_uart.c **** /**
1385:Drivers/STM32F4xx_HAL_Driver/Src/stm32f4xx_hal_uart.c ****   * @brief  Sends an amount of data in DMA mode.
1386:Drivers/STM32F4xx_HAL_Driver/Src/stm32f4xx_hal_uart.c ****   * @note   When UART parity is not enabled (PCE = 0), and Word Length is configured to 9 bits (M1-
1387:Drivers/STM32F4xx_HAL_Driver/Src/stm32f4xx_hal_uart.c ****   *         the sent data is handled as a set of u16. In this case, Size must indicate the number
1388:Drivers/STM32F4xx_HAL_Driver/Src/stm32f4xx_hal_uart.c ****   *         of u16 provided through pData.
1389:Drivers/STM32F4xx_HAL_Driver/Src/stm32f4xx_hal_uart.c ****   * @param  huart  Pointer to a UART_HandleTypeDef structure that contains
1390:Drivers/STM32F4xx_HAL_Driver/Src/stm32f4xx_hal_uart.c ****   *                the configuration information for the specified UART module.
1391:Drivers/STM32F4xx_HAL_Driver/Src/stm32f4xx_hal_uart.c ****   * @param  pData Pointer to data buffer (u8 or u16 data elements).
1392:Drivers/STM32F4xx_HAL_Driver/Src/stm32f4xx_hal_uart.c ****   * @param  Size  Amount of data elements (u8 or u16) to be sent
1393:Drivers/STM32F4xx_HAL_Driver/Src/stm32f4xx_hal_uart.c ****   * @retval HAL status
1394:Drivers/STM32F4xx_HAL_Driver/Src/stm32f4xx_hal_uart.c ****   */
1395:Drivers/STM32F4xx_HAL_Driver/Src/stm32f4xx_hal_uart.c **** HAL_StatusTypeDef HAL_UART_Transmit_DMA(UART_HandleTypeDef *huart, const uint8_t *pData, uint16_t S
1396:Drivers/STM32F4xx_HAL_Driver/Src/stm32f4xx_hal_uart.c **** {
 1411              		.loc 1 1396 1
 1412              		.cfi_startproc
 1413              		@ args = 0, pretend = 0, frame = 48
 1414              		@ frame_needed = 1, uses_anonymous_args = 0
 1415 0000 80B5     		push	{r7, lr}
 1416              	.LCFI58:
ARM GAS  /tmp/ccIpdX1g.s 			page 50


 1417              		.cfi_def_cfa_offset 8
 1418              		.cfi_offset 7, -8
 1419              		.cfi_offset 14, -4
 1420 0002 8CB0     		sub	sp, sp, #48
 1421              	.LCFI59:
 1422              		.cfi_def_cfa_offset 56
 1423 0004 00AF     		add	r7, sp, #0
 1424              	.LCFI60:
 1425              		.cfi_def_cfa_register 7
 1426 0006 F860     		str	r0, [r7, #12]
 1427 0008 B960     		str	r1, [r7, #8]
 1428 000a 1346     		mov	r3, r2
 1429 000c FB80     		strh	r3, [r7, #6]	@ movhi
1397:Drivers/STM32F4xx_HAL_Driver/Src/stm32f4xx_hal_uart.c ****   const uint32_t *tmp;
1398:Drivers/STM32F4xx_HAL_Driver/Src/stm32f4xx_hal_uart.c **** 
1399:Drivers/STM32F4xx_HAL_Driver/Src/stm32f4xx_hal_uart.c ****   /* Check that a Tx process is not already ongoing */
1400:Drivers/STM32F4xx_HAL_Driver/Src/stm32f4xx_hal_uart.c ****   if (huart->gState == HAL_UART_STATE_READY)
 1430              		.loc 1 1400 12
 1431 000e FB68     		ldr	r3, [r7, #12]
 1432 0010 93F83D30 		ldrb	r3, [r3, #61]
 1433 0014 DBB2     		uxtb	r3, r3
 1434              		.loc 1 1400 6
 1435 0016 202B     		cmp	r3, #32
 1436 0018 65D1     		bne	.L65
1401:Drivers/STM32F4xx_HAL_Driver/Src/stm32f4xx_hal_uart.c ****   {
1402:Drivers/STM32F4xx_HAL_Driver/Src/stm32f4xx_hal_uart.c ****     if ((pData == NULL) || (Size == 0U))
 1437              		.loc 1 1402 16
 1438 001a BB68     		ldr	r3, [r7, #8]
 1439              		.loc 1 1402 8
 1440 001c 002B     		cmp	r3, #0
 1441 001e 02D0     		beq	.L66
 1442              		.loc 1 1402 25 discriminator 1
 1443 0020 FB88     		ldrh	r3, [r7, #6]
 1444 0022 002B     		cmp	r3, #0
 1445 0024 01D1     		bne	.L67
 1446              	.L66:
1403:Drivers/STM32F4xx_HAL_Driver/Src/stm32f4xx_hal_uart.c ****     {
1404:Drivers/STM32F4xx_HAL_Driver/Src/stm32f4xx_hal_uart.c ****       return HAL_ERROR;
 1447              		.loc 1 1404 14
 1448 0026 0123     		movs	r3, #1
 1449 0028 5EE0     		b	.L68
 1450              	.L67:
1405:Drivers/STM32F4xx_HAL_Driver/Src/stm32f4xx_hal_uart.c ****     }
1406:Drivers/STM32F4xx_HAL_Driver/Src/stm32f4xx_hal_uart.c **** 
1407:Drivers/STM32F4xx_HAL_Driver/Src/stm32f4xx_hal_uart.c ****     /* Process Locked */
1408:Drivers/STM32F4xx_HAL_Driver/Src/stm32f4xx_hal_uart.c ****     __HAL_LOCK(huart);
 1451              		.loc 1 1408 5
 1452 002a FB68     		ldr	r3, [r7, #12]
 1453 002c 93F83C30 		ldrb	r3, [r3, #60]	@ zero_extendqisi2
 1454 0030 012B     		cmp	r3, #1
 1455 0032 01D1     		bne	.L69
 1456              		.loc 1 1408 5 is_stmt 0 discriminator 1
 1457 0034 0223     		movs	r3, #2
 1458 0036 57E0     		b	.L68
 1459              	.L69:
 1460              		.loc 1 1408 5 discriminator 2
 1461 0038 FB68     		ldr	r3, [r7, #12]
ARM GAS  /tmp/ccIpdX1g.s 			page 51


 1462 003a 0122     		movs	r2, #1
 1463 003c 83F83C20 		strb	r2, [r3, #60]
1409:Drivers/STM32F4xx_HAL_Driver/Src/stm32f4xx_hal_uart.c **** 
1410:Drivers/STM32F4xx_HAL_Driver/Src/stm32f4xx_hal_uart.c ****     huart->pTxBuffPtr = pData;
 1464              		.loc 1 1410 23 is_stmt 1 discriminator 2
 1465 0040 BA68     		ldr	r2, [r7, #8]
 1466 0042 FB68     		ldr	r3, [r7, #12]
 1467 0044 1A62     		str	r2, [r3, #32]
1411:Drivers/STM32F4xx_HAL_Driver/Src/stm32f4xx_hal_uart.c ****     huart->TxXferSize = Size;
 1468              		.loc 1 1411 23 discriminator 2
 1469 0046 FB68     		ldr	r3, [r7, #12]
 1470 0048 FA88     		ldrh	r2, [r7, #6]	@ movhi
 1471 004a 9A84     		strh	r2, [r3, #36]	@ movhi
1412:Drivers/STM32F4xx_HAL_Driver/Src/stm32f4xx_hal_uart.c ****     huart->TxXferCount = Size;
 1472              		.loc 1 1412 24 discriminator 2
 1473 004c FB68     		ldr	r3, [r7, #12]
 1474 004e FA88     		ldrh	r2, [r7, #6]	@ movhi
 1475 0050 DA84     		strh	r2, [r3, #38]	@ movhi
1413:Drivers/STM32F4xx_HAL_Driver/Src/stm32f4xx_hal_uart.c **** 
1414:Drivers/STM32F4xx_HAL_Driver/Src/stm32f4xx_hal_uart.c ****     huart->ErrorCode = HAL_UART_ERROR_NONE;
 1476              		.loc 1 1414 22 discriminator 2
 1477 0052 FB68     		ldr	r3, [r7, #12]
 1478 0054 0022     		movs	r2, #0
 1479 0056 1A64     		str	r2, [r3, #64]
1415:Drivers/STM32F4xx_HAL_Driver/Src/stm32f4xx_hal_uart.c ****     huart->gState = HAL_UART_STATE_BUSY_TX;
 1480              		.loc 1 1415 19 discriminator 2
 1481 0058 FB68     		ldr	r3, [r7, #12]
 1482 005a 2122     		movs	r2, #33
 1483 005c 83F83D20 		strb	r2, [r3, #61]
1416:Drivers/STM32F4xx_HAL_Driver/Src/stm32f4xx_hal_uart.c **** 
1417:Drivers/STM32F4xx_HAL_Driver/Src/stm32f4xx_hal_uart.c ****     /* Set the UART DMA transfer complete callback */
1418:Drivers/STM32F4xx_HAL_Driver/Src/stm32f4xx_hal_uart.c ****     huart->hdmatx->XferCpltCallback = UART_DMATransmitCplt;
 1484              		.loc 1 1418 10 discriminator 2
 1485 0060 FB68     		ldr	r3, [r7, #12]
 1486 0062 5B6B     		ldr	r3, [r3, #52]
 1487              		.loc 1 1418 37 discriminator 2
 1488 0064 224A     		ldr	r2, .L73
 1489 0066 DA63     		str	r2, [r3, #60]
1419:Drivers/STM32F4xx_HAL_Driver/Src/stm32f4xx_hal_uart.c **** 
1420:Drivers/STM32F4xx_HAL_Driver/Src/stm32f4xx_hal_uart.c ****     /* Set the UART DMA Half transfer complete callback */
1421:Drivers/STM32F4xx_HAL_Driver/Src/stm32f4xx_hal_uart.c ****     huart->hdmatx->XferHalfCpltCallback = UART_DMATxHalfCplt;
 1490              		.loc 1 1421 10 discriminator 2
 1491 0068 FB68     		ldr	r3, [r7, #12]
 1492 006a 5B6B     		ldr	r3, [r3, #52]
 1493              		.loc 1 1421 41 discriminator 2
 1494 006c 214A     		ldr	r2, .L73+4
 1495 006e 1A64     		str	r2, [r3, #64]
1422:Drivers/STM32F4xx_HAL_Driver/Src/stm32f4xx_hal_uart.c **** 
1423:Drivers/STM32F4xx_HAL_Driver/Src/stm32f4xx_hal_uart.c ****     /* Set the DMA error callback */
1424:Drivers/STM32F4xx_HAL_Driver/Src/stm32f4xx_hal_uart.c ****     huart->hdmatx->XferErrorCallback = UART_DMAError;
 1496              		.loc 1 1424 10 discriminator 2
 1497 0070 FB68     		ldr	r3, [r7, #12]
 1498 0072 5B6B     		ldr	r3, [r3, #52]
 1499              		.loc 1 1424 38 discriminator 2
 1500 0074 204A     		ldr	r2, .L73+8
 1501 0076 DA64     		str	r2, [r3, #76]
1425:Drivers/STM32F4xx_HAL_Driver/Src/stm32f4xx_hal_uart.c **** 
ARM GAS  /tmp/ccIpdX1g.s 			page 52


1426:Drivers/STM32F4xx_HAL_Driver/Src/stm32f4xx_hal_uart.c ****     /* Set the DMA abort callback */
1427:Drivers/STM32F4xx_HAL_Driver/Src/stm32f4xx_hal_uart.c ****     huart->hdmatx->XferAbortCallback = NULL;
 1502              		.loc 1 1427 10 discriminator 2
 1503 0078 FB68     		ldr	r3, [r7, #12]
 1504 007a 5B6B     		ldr	r3, [r3, #52]
 1505              		.loc 1 1427 38 discriminator 2
 1506 007c 0022     		movs	r2, #0
 1507 007e 1A65     		str	r2, [r3, #80]
1428:Drivers/STM32F4xx_HAL_Driver/Src/stm32f4xx_hal_uart.c **** 
1429:Drivers/STM32F4xx_HAL_Driver/Src/stm32f4xx_hal_uart.c ****     /* Enable the UART transmit DMA stream */
1430:Drivers/STM32F4xx_HAL_Driver/Src/stm32f4xx_hal_uart.c ****     tmp = (const uint32_t *)&pData;
 1508              		.loc 1 1430 9 discriminator 2
 1509 0080 07F10803 		add	r3, r7, #8
 1510 0084 FB62     		str	r3, [r7, #44]
1431:Drivers/STM32F4xx_HAL_Driver/Src/stm32f4xx_hal_uart.c ****     HAL_DMA_Start_IT(huart->hdmatx, *(const uint32_t *)tmp, (uint32_t)&huart->Instance->DR, Size);
 1511              		.loc 1 1431 5 discriminator 2
 1512 0086 FB68     		ldr	r3, [r7, #12]
 1513 0088 586B     		ldr	r0, [r3, #52]
 1514 008a FB6A     		ldr	r3, [r7, #44]
 1515 008c 1968     		ldr	r1, [r3]
 1516              		.loc 1 1431 77 discriminator 2
 1517 008e FB68     		ldr	r3, [r7, #12]
 1518 0090 1B68     		ldr	r3, [r3]
 1519              		.loc 1 1431 71 discriminator 2
 1520 0092 0433     		adds	r3, r3, #4
 1521              		.loc 1 1431 5 discriminator 2
 1522 0094 1A46     		mov	r2, r3
 1523 0096 FB88     		ldrh	r3, [r7, #6]
 1524 0098 FFF7FEFF 		bl	HAL_DMA_Start_IT
1432:Drivers/STM32F4xx_HAL_Driver/Src/stm32f4xx_hal_uart.c **** 
1433:Drivers/STM32F4xx_HAL_Driver/Src/stm32f4xx_hal_uart.c ****     /* Clear the TC flag in the SR register by writing 0 to it */
1434:Drivers/STM32F4xx_HAL_Driver/Src/stm32f4xx_hal_uart.c ****     __HAL_UART_CLEAR_FLAG(huart, UART_FLAG_TC);
 1525              		.loc 1 1434 5 discriminator 2
 1526 009c FB68     		ldr	r3, [r7, #12]
 1527 009e 1B68     		ldr	r3, [r3]
 1528 00a0 6FF04002 		mvn	r2, #64
 1529 00a4 1A60     		str	r2, [r3]
1435:Drivers/STM32F4xx_HAL_Driver/Src/stm32f4xx_hal_uart.c **** 
1436:Drivers/STM32F4xx_HAL_Driver/Src/stm32f4xx_hal_uart.c ****     /* Process Unlocked */
1437:Drivers/STM32F4xx_HAL_Driver/Src/stm32f4xx_hal_uart.c ****     __HAL_UNLOCK(huart);
 1530              		.loc 1 1437 5 discriminator 2
 1531 00a6 FB68     		ldr	r3, [r7, #12]
 1532 00a8 0022     		movs	r2, #0
 1533 00aa 83F83C20 		strb	r2, [r3, #60]
 1534              	.L72:
 1535              	.LBB320:
1438:Drivers/STM32F4xx_HAL_Driver/Src/stm32f4xx_hal_uart.c **** 
1439:Drivers/STM32F4xx_HAL_Driver/Src/stm32f4xx_hal_uart.c ****     /* Enable the DMA transfer for transmit request by setting the DMAT bit
1440:Drivers/STM32F4xx_HAL_Driver/Src/stm32f4xx_hal_uart.c ****        in the UART CR3 register */
1441:Drivers/STM32F4xx_HAL_Driver/Src/stm32f4xx_hal_uart.c ****     ATOMIC_SET_BIT(huart->Instance->CR3, USART_CR3_DMAT);
 1536              		.loc 1 1441 5 discriminator 1
 1537 00ae FB68     		ldr	r3, [r7, #12]
 1538 00b0 1B68     		ldr	r3, [r3]
 1539 00b2 1433     		adds	r3, r3, #20
 1540 00b4 BB61     		str	r3, [r7, #24]
 1541              	.LBB321:
 1542              	.LBB322:
ARM GAS  /tmp/ccIpdX1g.s 			page 53


 1543              		.file 2 "Drivers/CMSIS/Include/cmsis_gcc.h"
   1:Drivers/CMSIS/Include/cmsis_gcc.h **** /**************************************************************************//**
   2:Drivers/CMSIS/Include/cmsis_gcc.h ****  * @file     cmsis_gcc.h
   3:Drivers/CMSIS/Include/cmsis_gcc.h ****  * @brief    CMSIS compiler GCC header file
   4:Drivers/CMSIS/Include/cmsis_gcc.h ****  * @version  V5.0.4
   5:Drivers/CMSIS/Include/cmsis_gcc.h ****  * @date     09. April 2018
   6:Drivers/CMSIS/Include/cmsis_gcc.h ****  ******************************************************************************/
   7:Drivers/CMSIS/Include/cmsis_gcc.h **** /*
   8:Drivers/CMSIS/Include/cmsis_gcc.h ****  * Copyright (c) 2009-2018 Arm Limited. All rights reserved.
   9:Drivers/CMSIS/Include/cmsis_gcc.h ****  *
  10:Drivers/CMSIS/Include/cmsis_gcc.h ****  * SPDX-License-Identifier: Apache-2.0
  11:Drivers/CMSIS/Include/cmsis_gcc.h ****  *
  12:Drivers/CMSIS/Include/cmsis_gcc.h ****  * Licensed under the Apache License, Version 2.0 (the License); you may
  13:Drivers/CMSIS/Include/cmsis_gcc.h ****  * not use this file except in compliance with the License.
  14:Drivers/CMSIS/Include/cmsis_gcc.h ****  * You may obtain a copy of the License at
  15:Drivers/CMSIS/Include/cmsis_gcc.h ****  *
  16:Drivers/CMSIS/Include/cmsis_gcc.h ****  * www.apache.org/licenses/LICENSE-2.0
  17:Drivers/CMSIS/Include/cmsis_gcc.h ****  *
  18:Drivers/CMSIS/Include/cmsis_gcc.h ****  * Unless required by applicable law or agreed to in writing, software
  19:Drivers/CMSIS/Include/cmsis_gcc.h ****  * distributed under the License is distributed on an AS IS BASIS, WITHOUT
  20:Drivers/CMSIS/Include/cmsis_gcc.h ****  * WARRANTIES OR CONDITIONS OF ANY KIND, either express or implied.
  21:Drivers/CMSIS/Include/cmsis_gcc.h ****  * See the License for the specific language governing permissions and
  22:Drivers/CMSIS/Include/cmsis_gcc.h ****  * limitations under the License.
  23:Drivers/CMSIS/Include/cmsis_gcc.h ****  */
  24:Drivers/CMSIS/Include/cmsis_gcc.h **** 
  25:Drivers/CMSIS/Include/cmsis_gcc.h **** #ifndef __CMSIS_GCC_H
  26:Drivers/CMSIS/Include/cmsis_gcc.h **** #define __CMSIS_GCC_H
  27:Drivers/CMSIS/Include/cmsis_gcc.h **** 
  28:Drivers/CMSIS/Include/cmsis_gcc.h **** /* ignore some GCC warnings */
  29:Drivers/CMSIS/Include/cmsis_gcc.h **** #pragma GCC diagnostic push
  30:Drivers/CMSIS/Include/cmsis_gcc.h **** #pragma GCC diagnostic ignored "-Wsign-conversion"
  31:Drivers/CMSIS/Include/cmsis_gcc.h **** #pragma GCC diagnostic ignored "-Wconversion"
  32:Drivers/CMSIS/Include/cmsis_gcc.h **** #pragma GCC diagnostic ignored "-Wunused-parameter"
  33:Drivers/CMSIS/Include/cmsis_gcc.h **** 
  34:Drivers/CMSIS/Include/cmsis_gcc.h **** /* Fallback for __has_builtin */
  35:Drivers/CMSIS/Include/cmsis_gcc.h **** #ifndef __has_builtin
  36:Drivers/CMSIS/Include/cmsis_gcc.h ****   #define __has_builtin(x) (0)
  37:Drivers/CMSIS/Include/cmsis_gcc.h **** #endif
  38:Drivers/CMSIS/Include/cmsis_gcc.h **** 
  39:Drivers/CMSIS/Include/cmsis_gcc.h **** /* CMSIS compiler specific defines */
  40:Drivers/CMSIS/Include/cmsis_gcc.h **** #ifndef   __ASM
  41:Drivers/CMSIS/Include/cmsis_gcc.h ****   #define __ASM                                  __asm
  42:Drivers/CMSIS/Include/cmsis_gcc.h **** #endif
  43:Drivers/CMSIS/Include/cmsis_gcc.h **** #ifndef   __INLINE
  44:Drivers/CMSIS/Include/cmsis_gcc.h ****   #define __INLINE                               inline
  45:Drivers/CMSIS/Include/cmsis_gcc.h **** #endif
  46:Drivers/CMSIS/Include/cmsis_gcc.h **** #ifndef   __STATIC_INLINE
  47:Drivers/CMSIS/Include/cmsis_gcc.h ****   #define __STATIC_INLINE                        static inline
  48:Drivers/CMSIS/Include/cmsis_gcc.h **** #endif
  49:Drivers/CMSIS/Include/cmsis_gcc.h **** #ifndef   __STATIC_FORCEINLINE                 
  50:Drivers/CMSIS/Include/cmsis_gcc.h ****   #define __STATIC_FORCEINLINE                   __attribute__((always_inline)) static inline
  51:Drivers/CMSIS/Include/cmsis_gcc.h **** #endif                                           
  52:Drivers/CMSIS/Include/cmsis_gcc.h **** #ifndef   __NO_RETURN
  53:Drivers/CMSIS/Include/cmsis_gcc.h ****   #define __NO_RETURN                            __attribute__((__noreturn__))
  54:Drivers/CMSIS/Include/cmsis_gcc.h **** #endif
  55:Drivers/CMSIS/Include/cmsis_gcc.h **** #ifndef   __USED
  56:Drivers/CMSIS/Include/cmsis_gcc.h ****   #define __USED                                 __attribute__((used))
ARM GAS  /tmp/ccIpdX1g.s 			page 54


  57:Drivers/CMSIS/Include/cmsis_gcc.h **** #endif
  58:Drivers/CMSIS/Include/cmsis_gcc.h **** #ifndef   __WEAK
  59:Drivers/CMSIS/Include/cmsis_gcc.h ****   #define __WEAK                                 __attribute__((weak))
  60:Drivers/CMSIS/Include/cmsis_gcc.h **** #endif
  61:Drivers/CMSIS/Include/cmsis_gcc.h **** #ifndef   __PACKED
  62:Drivers/CMSIS/Include/cmsis_gcc.h ****   #define __PACKED                               __attribute__((packed, aligned(1)))
  63:Drivers/CMSIS/Include/cmsis_gcc.h **** #endif
  64:Drivers/CMSIS/Include/cmsis_gcc.h **** #ifndef   __PACKED_STRUCT
  65:Drivers/CMSIS/Include/cmsis_gcc.h ****   #define __PACKED_STRUCT                        struct __attribute__((packed, aligned(1)))
  66:Drivers/CMSIS/Include/cmsis_gcc.h **** #endif
  67:Drivers/CMSIS/Include/cmsis_gcc.h **** #ifndef   __PACKED_UNION
  68:Drivers/CMSIS/Include/cmsis_gcc.h ****   #define __PACKED_UNION                         union __attribute__((packed, aligned(1)))
  69:Drivers/CMSIS/Include/cmsis_gcc.h **** #endif
  70:Drivers/CMSIS/Include/cmsis_gcc.h **** #ifndef   __UNALIGNED_UINT32        /* deprecated */
  71:Drivers/CMSIS/Include/cmsis_gcc.h ****   #pragma GCC diagnostic push
  72:Drivers/CMSIS/Include/cmsis_gcc.h ****   #pragma GCC diagnostic ignored "-Wpacked"
  73:Drivers/CMSIS/Include/cmsis_gcc.h ****   #pragma GCC diagnostic ignored "-Wattributes"
  74:Drivers/CMSIS/Include/cmsis_gcc.h ****   struct __attribute__((packed)) T_UINT32 { uint32_t v; };
  75:Drivers/CMSIS/Include/cmsis_gcc.h ****   #pragma GCC diagnostic pop
  76:Drivers/CMSIS/Include/cmsis_gcc.h ****   #define __UNALIGNED_UINT32(x)                  (((struct T_UINT32 *)(x))->v)
  77:Drivers/CMSIS/Include/cmsis_gcc.h **** #endif
  78:Drivers/CMSIS/Include/cmsis_gcc.h **** #ifndef   __UNALIGNED_UINT16_WRITE
  79:Drivers/CMSIS/Include/cmsis_gcc.h ****   #pragma GCC diagnostic push
  80:Drivers/CMSIS/Include/cmsis_gcc.h ****   #pragma GCC diagnostic ignored "-Wpacked"
  81:Drivers/CMSIS/Include/cmsis_gcc.h ****   #pragma GCC diagnostic ignored "-Wattributes"
  82:Drivers/CMSIS/Include/cmsis_gcc.h ****   __PACKED_STRUCT T_UINT16_WRITE { uint16_t v; };
  83:Drivers/CMSIS/Include/cmsis_gcc.h ****   #pragma GCC diagnostic pop
  84:Drivers/CMSIS/Include/cmsis_gcc.h ****   #define __UNALIGNED_UINT16_WRITE(addr, val)    (void)((((struct T_UINT16_WRITE *)(void *)(addr))-
  85:Drivers/CMSIS/Include/cmsis_gcc.h **** #endif
  86:Drivers/CMSIS/Include/cmsis_gcc.h **** #ifndef   __UNALIGNED_UINT16_READ
  87:Drivers/CMSIS/Include/cmsis_gcc.h ****   #pragma GCC diagnostic push
  88:Drivers/CMSIS/Include/cmsis_gcc.h ****   #pragma GCC diagnostic ignored "-Wpacked"
  89:Drivers/CMSIS/Include/cmsis_gcc.h ****   #pragma GCC diagnostic ignored "-Wattributes"
  90:Drivers/CMSIS/Include/cmsis_gcc.h ****   __PACKED_STRUCT T_UINT16_READ { uint16_t v; };
  91:Drivers/CMSIS/Include/cmsis_gcc.h ****   #pragma GCC diagnostic pop
  92:Drivers/CMSIS/Include/cmsis_gcc.h ****   #define __UNALIGNED_UINT16_READ(addr)          (((const struct T_UINT16_READ *)(const void *)(add
  93:Drivers/CMSIS/Include/cmsis_gcc.h **** #endif
  94:Drivers/CMSIS/Include/cmsis_gcc.h **** #ifndef   __UNALIGNED_UINT32_WRITE
  95:Drivers/CMSIS/Include/cmsis_gcc.h ****   #pragma GCC diagnostic push
  96:Drivers/CMSIS/Include/cmsis_gcc.h ****   #pragma GCC diagnostic ignored "-Wpacked"
  97:Drivers/CMSIS/Include/cmsis_gcc.h ****   #pragma GCC diagnostic ignored "-Wattributes"
  98:Drivers/CMSIS/Include/cmsis_gcc.h ****   __PACKED_STRUCT T_UINT32_WRITE { uint32_t v; };
  99:Drivers/CMSIS/Include/cmsis_gcc.h ****   #pragma GCC diagnostic pop
 100:Drivers/CMSIS/Include/cmsis_gcc.h ****   #define __UNALIGNED_UINT32_WRITE(addr, val)    (void)((((struct T_UINT32_WRITE *)(void *)(addr))-
 101:Drivers/CMSIS/Include/cmsis_gcc.h **** #endif
 102:Drivers/CMSIS/Include/cmsis_gcc.h **** #ifndef   __UNALIGNED_UINT32_READ
 103:Drivers/CMSIS/Include/cmsis_gcc.h ****   #pragma GCC diagnostic push
 104:Drivers/CMSIS/Include/cmsis_gcc.h ****   #pragma GCC diagnostic ignored "-Wpacked"
 105:Drivers/CMSIS/Include/cmsis_gcc.h ****   #pragma GCC diagnostic ignored "-Wattributes"
 106:Drivers/CMSIS/Include/cmsis_gcc.h ****   __PACKED_STRUCT T_UINT32_READ { uint32_t v; };
 107:Drivers/CMSIS/Include/cmsis_gcc.h ****   #pragma GCC diagnostic pop
 108:Drivers/CMSIS/Include/cmsis_gcc.h ****   #define __UNALIGNED_UINT32_READ(addr)          (((const struct T_UINT32_READ *)(const void *)(add
 109:Drivers/CMSIS/Include/cmsis_gcc.h **** #endif
 110:Drivers/CMSIS/Include/cmsis_gcc.h **** #ifndef   __ALIGNED
 111:Drivers/CMSIS/Include/cmsis_gcc.h ****   #define __ALIGNED(x)                           __attribute__((aligned(x)))
 112:Drivers/CMSIS/Include/cmsis_gcc.h **** #endif
 113:Drivers/CMSIS/Include/cmsis_gcc.h **** #ifndef   __RESTRICT
ARM GAS  /tmp/ccIpdX1g.s 			page 55


 114:Drivers/CMSIS/Include/cmsis_gcc.h ****   #define __RESTRICT                             __restrict
 115:Drivers/CMSIS/Include/cmsis_gcc.h **** #endif
 116:Drivers/CMSIS/Include/cmsis_gcc.h **** 
 117:Drivers/CMSIS/Include/cmsis_gcc.h **** 
 118:Drivers/CMSIS/Include/cmsis_gcc.h **** /* ###########################  Core Function Access  ########################### */
 119:Drivers/CMSIS/Include/cmsis_gcc.h **** /** \ingroup  CMSIS_Core_FunctionInterface
 120:Drivers/CMSIS/Include/cmsis_gcc.h ****     \defgroup CMSIS_Core_RegAccFunctions CMSIS Core Register Access Functions
 121:Drivers/CMSIS/Include/cmsis_gcc.h ****   @{
 122:Drivers/CMSIS/Include/cmsis_gcc.h ****  */
 123:Drivers/CMSIS/Include/cmsis_gcc.h **** 
 124:Drivers/CMSIS/Include/cmsis_gcc.h **** /**
 125:Drivers/CMSIS/Include/cmsis_gcc.h ****   \brief   Enable IRQ Interrupts
 126:Drivers/CMSIS/Include/cmsis_gcc.h ****   \details Enables IRQ interrupts by clearing the I-bit in the CPSR.
 127:Drivers/CMSIS/Include/cmsis_gcc.h ****            Can only be executed in Privileged modes.
 128:Drivers/CMSIS/Include/cmsis_gcc.h ****  */
 129:Drivers/CMSIS/Include/cmsis_gcc.h **** __STATIC_FORCEINLINE void __enable_irq(void)
 130:Drivers/CMSIS/Include/cmsis_gcc.h **** {
 131:Drivers/CMSIS/Include/cmsis_gcc.h ****   __ASM volatile ("cpsie i" : : : "memory");
 132:Drivers/CMSIS/Include/cmsis_gcc.h **** }
 133:Drivers/CMSIS/Include/cmsis_gcc.h **** 
 134:Drivers/CMSIS/Include/cmsis_gcc.h **** 
 135:Drivers/CMSIS/Include/cmsis_gcc.h **** /**
 136:Drivers/CMSIS/Include/cmsis_gcc.h ****   \brief   Disable IRQ Interrupts
 137:Drivers/CMSIS/Include/cmsis_gcc.h ****   \details Disables IRQ interrupts by setting the I-bit in the CPSR.
 138:Drivers/CMSIS/Include/cmsis_gcc.h ****            Can only be executed in Privileged modes.
 139:Drivers/CMSIS/Include/cmsis_gcc.h ****  */
 140:Drivers/CMSIS/Include/cmsis_gcc.h **** __STATIC_FORCEINLINE void __disable_irq(void)
 141:Drivers/CMSIS/Include/cmsis_gcc.h **** {
 142:Drivers/CMSIS/Include/cmsis_gcc.h ****   __ASM volatile ("cpsid i" : : : "memory");
 143:Drivers/CMSIS/Include/cmsis_gcc.h **** }
 144:Drivers/CMSIS/Include/cmsis_gcc.h **** 
 145:Drivers/CMSIS/Include/cmsis_gcc.h **** 
 146:Drivers/CMSIS/Include/cmsis_gcc.h **** /**
 147:Drivers/CMSIS/Include/cmsis_gcc.h ****   \brief   Get Control Register
 148:Drivers/CMSIS/Include/cmsis_gcc.h ****   \details Returns the content of the Control Register.
 149:Drivers/CMSIS/Include/cmsis_gcc.h ****   \return               Control Register value
 150:Drivers/CMSIS/Include/cmsis_gcc.h ****  */
 151:Drivers/CMSIS/Include/cmsis_gcc.h **** __STATIC_FORCEINLINE uint32_t __get_CONTROL(void)
 152:Drivers/CMSIS/Include/cmsis_gcc.h **** {
 153:Drivers/CMSIS/Include/cmsis_gcc.h ****   uint32_t result;
 154:Drivers/CMSIS/Include/cmsis_gcc.h **** 
 155:Drivers/CMSIS/Include/cmsis_gcc.h ****   __ASM volatile ("MRS %0, control" : "=r" (result) );
 156:Drivers/CMSIS/Include/cmsis_gcc.h ****   return(result);
 157:Drivers/CMSIS/Include/cmsis_gcc.h **** }
 158:Drivers/CMSIS/Include/cmsis_gcc.h **** 
 159:Drivers/CMSIS/Include/cmsis_gcc.h **** 
 160:Drivers/CMSIS/Include/cmsis_gcc.h **** #if (defined (__ARM_FEATURE_CMSE ) && (__ARM_FEATURE_CMSE == 3))
 161:Drivers/CMSIS/Include/cmsis_gcc.h **** /**
 162:Drivers/CMSIS/Include/cmsis_gcc.h ****   \brief   Get Control Register (non-secure)
 163:Drivers/CMSIS/Include/cmsis_gcc.h ****   \details Returns the content of the non-secure Control Register when in secure mode.
 164:Drivers/CMSIS/Include/cmsis_gcc.h ****   \return               non-secure Control Register value
 165:Drivers/CMSIS/Include/cmsis_gcc.h ****  */
 166:Drivers/CMSIS/Include/cmsis_gcc.h **** __STATIC_FORCEINLINE uint32_t __TZ_get_CONTROL_NS(void)
 167:Drivers/CMSIS/Include/cmsis_gcc.h **** {
 168:Drivers/CMSIS/Include/cmsis_gcc.h ****   uint32_t result;
 169:Drivers/CMSIS/Include/cmsis_gcc.h **** 
 170:Drivers/CMSIS/Include/cmsis_gcc.h ****   __ASM volatile ("MRS %0, control_ns" : "=r" (result) );
ARM GAS  /tmp/ccIpdX1g.s 			page 56


 171:Drivers/CMSIS/Include/cmsis_gcc.h ****   return(result);
 172:Drivers/CMSIS/Include/cmsis_gcc.h **** }
 173:Drivers/CMSIS/Include/cmsis_gcc.h **** #endif
 174:Drivers/CMSIS/Include/cmsis_gcc.h **** 
 175:Drivers/CMSIS/Include/cmsis_gcc.h **** 
 176:Drivers/CMSIS/Include/cmsis_gcc.h **** /**
 177:Drivers/CMSIS/Include/cmsis_gcc.h ****   \brief   Set Control Register
 178:Drivers/CMSIS/Include/cmsis_gcc.h ****   \details Writes the given value to the Control Register.
 179:Drivers/CMSIS/Include/cmsis_gcc.h ****   \param [in]    control  Control Register value to set
 180:Drivers/CMSIS/Include/cmsis_gcc.h ****  */
 181:Drivers/CMSIS/Include/cmsis_gcc.h **** __STATIC_FORCEINLINE void __set_CONTROL(uint32_t control)
 182:Drivers/CMSIS/Include/cmsis_gcc.h **** {
 183:Drivers/CMSIS/Include/cmsis_gcc.h ****   __ASM volatile ("MSR control, %0" : : "r" (control) : "memory");
 184:Drivers/CMSIS/Include/cmsis_gcc.h **** }
 185:Drivers/CMSIS/Include/cmsis_gcc.h **** 
 186:Drivers/CMSIS/Include/cmsis_gcc.h **** 
 187:Drivers/CMSIS/Include/cmsis_gcc.h **** #if (defined (__ARM_FEATURE_CMSE ) && (__ARM_FEATURE_CMSE == 3))
 188:Drivers/CMSIS/Include/cmsis_gcc.h **** /**
 189:Drivers/CMSIS/Include/cmsis_gcc.h ****   \brief   Set Control Register (non-secure)
 190:Drivers/CMSIS/Include/cmsis_gcc.h ****   \details Writes the given value to the non-secure Control Register when in secure state.
 191:Drivers/CMSIS/Include/cmsis_gcc.h ****   \param [in]    control  Control Register value to set
 192:Drivers/CMSIS/Include/cmsis_gcc.h ****  */
 193:Drivers/CMSIS/Include/cmsis_gcc.h **** __STATIC_FORCEINLINE void __TZ_set_CONTROL_NS(uint32_t control)
 194:Drivers/CMSIS/Include/cmsis_gcc.h **** {
 195:Drivers/CMSIS/Include/cmsis_gcc.h ****   __ASM volatile ("MSR control_ns, %0" : : "r" (control) : "memory");
 196:Drivers/CMSIS/Include/cmsis_gcc.h **** }
 197:Drivers/CMSIS/Include/cmsis_gcc.h **** #endif
 198:Drivers/CMSIS/Include/cmsis_gcc.h **** 
 199:Drivers/CMSIS/Include/cmsis_gcc.h **** 
 200:Drivers/CMSIS/Include/cmsis_gcc.h **** /**
 201:Drivers/CMSIS/Include/cmsis_gcc.h ****   \brief   Get IPSR Register
 202:Drivers/CMSIS/Include/cmsis_gcc.h ****   \details Returns the content of the IPSR Register.
 203:Drivers/CMSIS/Include/cmsis_gcc.h ****   \return               IPSR Register value
 204:Drivers/CMSIS/Include/cmsis_gcc.h ****  */
 205:Drivers/CMSIS/Include/cmsis_gcc.h **** __STATIC_FORCEINLINE uint32_t __get_IPSR(void)
 206:Drivers/CMSIS/Include/cmsis_gcc.h **** {
 207:Drivers/CMSIS/Include/cmsis_gcc.h ****   uint32_t result;
 208:Drivers/CMSIS/Include/cmsis_gcc.h **** 
 209:Drivers/CMSIS/Include/cmsis_gcc.h ****   __ASM volatile ("MRS %0, ipsr" : "=r" (result) );
 210:Drivers/CMSIS/Include/cmsis_gcc.h ****   return(result);
 211:Drivers/CMSIS/Include/cmsis_gcc.h **** }
 212:Drivers/CMSIS/Include/cmsis_gcc.h **** 
 213:Drivers/CMSIS/Include/cmsis_gcc.h **** 
 214:Drivers/CMSIS/Include/cmsis_gcc.h **** /**
 215:Drivers/CMSIS/Include/cmsis_gcc.h ****   \brief   Get APSR Register
 216:Drivers/CMSIS/Include/cmsis_gcc.h ****   \details Returns the content of the APSR Register.
 217:Drivers/CMSIS/Include/cmsis_gcc.h ****   \return               APSR Register value
 218:Drivers/CMSIS/Include/cmsis_gcc.h ****  */
 219:Drivers/CMSIS/Include/cmsis_gcc.h **** __STATIC_FORCEINLINE uint32_t __get_APSR(void)
 220:Drivers/CMSIS/Include/cmsis_gcc.h **** {
 221:Drivers/CMSIS/Include/cmsis_gcc.h ****   uint32_t result;
 222:Drivers/CMSIS/Include/cmsis_gcc.h **** 
 223:Drivers/CMSIS/Include/cmsis_gcc.h ****   __ASM volatile ("MRS %0, apsr" : "=r" (result) );
 224:Drivers/CMSIS/Include/cmsis_gcc.h ****   return(result);
 225:Drivers/CMSIS/Include/cmsis_gcc.h **** }
 226:Drivers/CMSIS/Include/cmsis_gcc.h **** 
 227:Drivers/CMSIS/Include/cmsis_gcc.h **** 
ARM GAS  /tmp/ccIpdX1g.s 			page 57


 228:Drivers/CMSIS/Include/cmsis_gcc.h **** /**
 229:Drivers/CMSIS/Include/cmsis_gcc.h ****   \brief   Get xPSR Register
 230:Drivers/CMSIS/Include/cmsis_gcc.h ****   \details Returns the content of the xPSR Register.
 231:Drivers/CMSIS/Include/cmsis_gcc.h ****   \return               xPSR Register value
 232:Drivers/CMSIS/Include/cmsis_gcc.h ****  */
 233:Drivers/CMSIS/Include/cmsis_gcc.h **** __STATIC_FORCEINLINE uint32_t __get_xPSR(void)
 234:Drivers/CMSIS/Include/cmsis_gcc.h **** {
 235:Drivers/CMSIS/Include/cmsis_gcc.h ****   uint32_t result;
 236:Drivers/CMSIS/Include/cmsis_gcc.h **** 
 237:Drivers/CMSIS/Include/cmsis_gcc.h ****   __ASM volatile ("MRS %0, xpsr" : "=r" (result) );
 238:Drivers/CMSIS/Include/cmsis_gcc.h ****   return(result);
 239:Drivers/CMSIS/Include/cmsis_gcc.h **** }
 240:Drivers/CMSIS/Include/cmsis_gcc.h **** 
 241:Drivers/CMSIS/Include/cmsis_gcc.h **** 
 242:Drivers/CMSIS/Include/cmsis_gcc.h **** /**
 243:Drivers/CMSIS/Include/cmsis_gcc.h ****   \brief   Get Process Stack Pointer
 244:Drivers/CMSIS/Include/cmsis_gcc.h ****   \details Returns the current value of the Process Stack Pointer (PSP).
 245:Drivers/CMSIS/Include/cmsis_gcc.h ****   \return               PSP Register value
 246:Drivers/CMSIS/Include/cmsis_gcc.h ****  */
 247:Drivers/CMSIS/Include/cmsis_gcc.h **** __STATIC_FORCEINLINE uint32_t __get_PSP(void)
 248:Drivers/CMSIS/Include/cmsis_gcc.h **** {
 249:Drivers/CMSIS/Include/cmsis_gcc.h ****   uint32_t result;
 250:Drivers/CMSIS/Include/cmsis_gcc.h **** 
 251:Drivers/CMSIS/Include/cmsis_gcc.h ****   __ASM volatile ("MRS %0, psp"  : "=r" (result) );
 252:Drivers/CMSIS/Include/cmsis_gcc.h ****   return(result);
 253:Drivers/CMSIS/Include/cmsis_gcc.h **** }
 254:Drivers/CMSIS/Include/cmsis_gcc.h **** 
 255:Drivers/CMSIS/Include/cmsis_gcc.h **** 
 256:Drivers/CMSIS/Include/cmsis_gcc.h **** #if (defined (__ARM_FEATURE_CMSE ) && (__ARM_FEATURE_CMSE == 3))
 257:Drivers/CMSIS/Include/cmsis_gcc.h **** /**
 258:Drivers/CMSIS/Include/cmsis_gcc.h ****   \brief   Get Process Stack Pointer (non-secure)
 259:Drivers/CMSIS/Include/cmsis_gcc.h ****   \details Returns the current value of the non-secure Process Stack Pointer (PSP) when in secure s
 260:Drivers/CMSIS/Include/cmsis_gcc.h ****   \return               PSP Register value
 261:Drivers/CMSIS/Include/cmsis_gcc.h ****  */
 262:Drivers/CMSIS/Include/cmsis_gcc.h **** __STATIC_FORCEINLINE uint32_t __TZ_get_PSP_NS(void)
 263:Drivers/CMSIS/Include/cmsis_gcc.h **** {
 264:Drivers/CMSIS/Include/cmsis_gcc.h ****   uint32_t result;
 265:Drivers/CMSIS/Include/cmsis_gcc.h **** 
 266:Drivers/CMSIS/Include/cmsis_gcc.h ****   __ASM volatile ("MRS %0, psp_ns"  : "=r" (result) );
 267:Drivers/CMSIS/Include/cmsis_gcc.h ****   return(result);
 268:Drivers/CMSIS/Include/cmsis_gcc.h **** }
 269:Drivers/CMSIS/Include/cmsis_gcc.h **** #endif
 270:Drivers/CMSIS/Include/cmsis_gcc.h **** 
 271:Drivers/CMSIS/Include/cmsis_gcc.h **** 
 272:Drivers/CMSIS/Include/cmsis_gcc.h **** /**
 273:Drivers/CMSIS/Include/cmsis_gcc.h ****   \brief   Set Process Stack Pointer
 274:Drivers/CMSIS/Include/cmsis_gcc.h ****   \details Assigns the given value to the Process Stack Pointer (PSP).
 275:Drivers/CMSIS/Include/cmsis_gcc.h ****   \param [in]    topOfProcStack  Process Stack Pointer value to set
 276:Drivers/CMSIS/Include/cmsis_gcc.h ****  */
 277:Drivers/CMSIS/Include/cmsis_gcc.h **** __STATIC_FORCEINLINE void __set_PSP(uint32_t topOfProcStack)
 278:Drivers/CMSIS/Include/cmsis_gcc.h **** {
 279:Drivers/CMSIS/Include/cmsis_gcc.h ****   __ASM volatile ("MSR psp, %0" : : "r" (topOfProcStack) : );
 280:Drivers/CMSIS/Include/cmsis_gcc.h **** }
 281:Drivers/CMSIS/Include/cmsis_gcc.h **** 
 282:Drivers/CMSIS/Include/cmsis_gcc.h **** 
 283:Drivers/CMSIS/Include/cmsis_gcc.h **** #if (defined (__ARM_FEATURE_CMSE ) && (__ARM_FEATURE_CMSE == 3))
 284:Drivers/CMSIS/Include/cmsis_gcc.h **** /**
ARM GAS  /tmp/ccIpdX1g.s 			page 58


 285:Drivers/CMSIS/Include/cmsis_gcc.h ****   \brief   Set Process Stack Pointer (non-secure)
 286:Drivers/CMSIS/Include/cmsis_gcc.h ****   \details Assigns the given value to the non-secure Process Stack Pointer (PSP) when in secure sta
 287:Drivers/CMSIS/Include/cmsis_gcc.h ****   \param [in]    topOfProcStack  Process Stack Pointer value to set
 288:Drivers/CMSIS/Include/cmsis_gcc.h ****  */
 289:Drivers/CMSIS/Include/cmsis_gcc.h **** __STATIC_FORCEINLINE void __TZ_set_PSP_NS(uint32_t topOfProcStack)
 290:Drivers/CMSIS/Include/cmsis_gcc.h **** {
 291:Drivers/CMSIS/Include/cmsis_gcc.h ****   __ASM volatile ("MSR psp_ns, %0" : : "r" (topOfProcStack) : );
 292:Drivers/CMSIS/Include/cmsis_gcc.h **** }
 293:Drivers/CMSIS/Include/cmsis_gcc.h **** #endif
 294:Drivers/CMSIS/Include/cmsis_gcc.h **** 
 295:Drivers/CMSIS/Include/cmsis_gcc.h **** 
 296:Drivers/CMSIS/Include/cmsis_gcc.h **** /**
 297:Drivers/CMSIS/Include/cmsis_gcc.h ****   \brief   Get Main Stack Pointer
 298:Drivers/CMSIS/Include/cmsis_gcc.h ****   \details Returns the current value of the Main Stack Pointer (MSP).
 299:Drivers/CMSIS/Include/cmsis_gcc.h ****   \return               MSP Register value
 300:Drivers/CMSIS/Include/cmsis_gcc.h ****  */
 301:Drivers/CMSIS/Include/cmsis_gcc.h **** __STATIC_FORCEINLINE uint32_t __get_MSP(void)
 302:Drivers/CMSIS/Include/cmsis_gcc.h **** {
 303:Drivers/CMSIS/Include/cmsis_gcc.h ****   uint32_t result;
 304:Drivers/CMSIS/Include/cmsis_gcc.h **** 
 305:Drivers/CMSIS/Include/cmsis_gcc.h ****   __ASM volatile ("MRS %0, msp" : "=r" (result) );
 306:Drivers/CMSIS/Include/cmsis_gcc.h ****   return(result);
 307:Drivers/CMSIS/Include/cmsis_gcc.h **** }
 308:Drivers/CMSIS/Include/cmsis_gcc.h **** 
 309:Drivers/CMSIS/Include/cmsis_gcc.h **** 
 310:Drivers/CMSIS/Include/cmsis_gcc.h **** #if (defined (__ARM_FEATURE_CMSE ) && (__ARM_FEATURE_CMSE == 3))
 311:Drivers/CMSIS/Include/cmsis_gcc.h **** /**
 312:Drivers/CMSIS/Include/cmsis_gcc.h ****   \brief   Get Main Stack Pointer (non-secure)
 313:Drivers/CMSIS/Include/cmsis_gcc.h ****   \details Returns the current value of the non-secure Main Stack Pointer (MSP) when in secure stat
 314:Drivers/CMSIS/Include/cmsis_gcc.h ****   \return               MSP Register value
 315:Drivers/CMSIS/Include/cmsis_gcc.h ****  */
 316:Drivers/CMSIS/Include/cmsis_gcc.h **** __STATIC_FORCEINLINE uint32_t __TZ_get_MSP_NS(void)
 317:Drivers/CMSIS/Include/cmsis_gcc.h **** {
 318:Drivers/CMSIS/Include/cmsis_gcc.h ****   uint32_t result;
 319:Drivers/CMSIS/Include/cmsis_gcc.h **** 
 320:Drivers/CMSIS/Include/cmsis_gcc.h ****   __ASM volatile ("MRS %0, msp_ns" : "=r" (result) );
 321:Drivers/CMSIS/Include/cmsis_gcc.h ****   return(result);
 322:Drivers/CMSIS/Include/cmsis_gcc.h **** }
 323:Drivers/CMSIS/Include/cmsis_gcc.h **** #endif
 324:Drivers/CMSIS/Include/cmsis_gcc.h **** 
 325:Drivers/CMSIS/Include/cmsis_gcc.h **** 
 326:Drivers/CMSIS/Include/cmsis_gcc.h **** /**
 327:Drivers/CMSIS/Include/cmsis_gcc.h ****   \brief   Set Main Stack Pointer
 328:Drivers/CMSIS/Include/cmsis_gcc.h ****   \details Assigns the given value to the Main Stack Pointer (MSP).
 329:Drivers/CMSIS/Include/cmsis_gcc.h ****   \param [in]    topOfMainStack  Main Stack Pointer value to set
 330:Drivers/CMSIS/Include/cmsis_gcc.h ****  */
 331:Drivers/CMSIS/Include/cmsis_gcc.h **** __STATIC_FORCEINLINE void __set_MSP(uint32_t topOfMainStack)
 332:Drivers/CMSIS/Include/cmsis_gcc.h **** {
 333:Drivers/CMSIS/Include/cmsis_gcc.h ****   __ASM volatile ("MSR msp, %0" : : "r" (topOfMainStack) : );
 334:Drivers/CMSIS/Include/cmsis_gcc.h **** }
 335:Drivers/CMSIS/Include/cmsis_gcc.h **** 
 336:Drivers/CMSIS/Include/cmsis_gcc.h **** 
 337:Drivers/CMSIS/Include/cmsis_gcc.h **** #if (defined (__ARM_FEATURE_CMSE ) && (__ARM_FEATURE_CMSE == 3))
 338:Drivers/CMSIS/Include/cmsis_gcc.h **** /**
 339:Drivers/CMSIS/Include/cmsis_gcc.h ****   \brief   Set Main Stack Pointer (non-secure)
 340:Drivers/CMSIS/Include/cmsis_gcc.h ****   \details Assigns the given value to the non-secure Main Stack Pointer (MSP) when in secure state.
 341:Drivers/CMSIS/Include/cmsis_gcc.h ****   \param [in]    topOfMainStack  Main Stack Pointer value to set
ARM GAS  /tmp/ccIpdX1g.s 			page 59


 342:Drivers/CMSIS/Include/cmsis_gcc.h ****  */
 343:Drivers/CMSIS/Include/cmsis_gcc.h **** __STATIC_FORCEINLINE void __TZ_set_MSP_NS(uint32_t topOfMainStack)
 344:Drivers/CMSIS/Include/cmsis_gcc.h **** {
 345:Drivers/CMSIS/Include/cmsis_gcc.h ****   __ASM volatile ("MSR msp_ns, %0" : : "r" (topOfMainStack) : );
 346:Drivers/CMSIS/Include/cmsis_gcc.h **** }
 347:Drivers/CMSIS/Include/cmsis_gcc.h **** #endif
 348:Drivers/CMSIS/Include/cmsis_gcc.h **** 
 349:Drivers/CMSIS/Include/cmsis_gcc.h **** 
 350:Drivers/CMSIS/Include/cmsis_gcc.h **** #if (defined (__ARM_FEATURE_CMSE ) && (__ARM_FEATURE_CMSE == 3))
 351:Drivers/CMSIS/Include/cmsis_gcc.h **** /**
 352:Drivers/CMSIS/Include/cmsis_gcc.h ****   \brief   Get Stack Pointer (non-secure)
 353:Drivers/CMSIS/Include/cmsis_gcc.h ****   \details Returns the current value of the non-secure Stack Pointer (SP) when in secure state.
 354:Drivers/CMSIS/Include/cmsis_gcc.h ****   \return               SP Register value
 355:Drivers/CMSIS/Include/cmsis_gcc.h ****  */
 356:Drivers/CMSIS/Include/cmsis_gcc.h **** __STATIC_FORCEINLINE uint32_t __TZ_get_SP_NS(void)
 357:Drivers/CMSIS/Include/cmsis_gcc.h **** {
 358:Drivers/CMSIS/Include/cmsis_gcc.h ****   uint32_t result;
 359:Drivers/CMSIS/Include/cmsis_gcc.h **** 
 360:Drivers/CMSIS/Include/cmsis_gcc.h ****   __ASM volatile ("MRS %0, sp_ns" : "=r" (result) );
 361:Drivers/CMSIS/Include/cmsis_gcc.h ****   return(result);
 362:Drivers/CMSIS/Include/cmsis_gcc.h **** }
 363:Drivers/CMSIS/Include/cmsis_gcc.h **** 
 364:Drivers/CMSIS/Include/cmsis_gcc.h **** 
 365:Drivers/CMSIS/Include/cmsis_gcc.h **** /**
 366:Drivers/CMSIS/Include/cmsis_gcc.h ****   \brief   Set Stack Pointer (non-secure)
 367:Drivers/CMSIS/Include/cmsis_gcc.h ****   \details Assigns the given value to the non-secure Stack Pointer (SP) when in secure state.
 368:Drivers/CMSIS/Include/cmsis_gcc.h ****   \param [in]    topOfStack  Stack Pointer value to set
 369:Drivers/CMSIS/Include/cmsis_gcc.h ****  */
 370:Drivers/CMSIS/Include/cmsis_gcc.h **** __STATIC_FORCEINLINE void __TZ_set_SP_NS(uint32_t topOfStack)
 371:Drivers/CMSIS/Include/cmsis_gcc.h **** {
 372:Drivers/CMSIS/Include/cmsis_gcc.h ****   __ASM volatile ("MSR sp_ns, %0" : : "r" (topOfStack) : );
 373:Drivers/CMSIS/Include/cmsis_gcc.h **** }
 374:Drivers/CMSIS/Include/cmsis_gcc.h **** #endif
 375:Drivers/CMSIS/Include/cmsis_gcc.h **** 
 376:Drivers/CMSIS/Include/cmsis_gcc.h **** 
 377:Drivers/CMSIS/Include/cmsis_gcc.h **** /**
 378:Drivers/CMSIS/Include/cmsis_gcc.h ****   \brief   Get Priority Mask
 379:Drivers/CMSIS/Include/cmsis_gcc.h ****   \details Returns the current state of the priority mask bit from the Priority Mask Register.
 380:Drivers/CMSIS/Include/cmsis_gcc.h ****   \return               Priority Mask value
 381:Drivers/CMSIS/Include/cmsis_gcc.h ****  */
 382:Drivers/CMSIS/Include/cmsis_gcc.h **** __STATIC_FORCEINLINE uint32_t __get_PRIMASK(void)
 383:Drivers/CMSIS/Include/cmsis_gcc.h **** {
 384:Drivers/CMSIS/Include/cmsis_gcc.h ****   uint32_t result;
 385:Drivers/CMSIS/Include/cmsis_gcc.h **** 
 386:Drivers/CMSIS/Include/cmsis_gcc.h ****   __ASM volatile ("MRS %0, primask" : "=r" (result) :: "memory");
 387:Drivers/CMSIS/Include/cmsis_gcc.h ****   return(result);
 388:Drivers/CMSIS/Include/cmsis_gcc.h **** }
 389:Drivers/CMSIS/Include/cmsis_gcc.h **** 
 390:Drivers/CMSIS/Include/cmsis_gcc.h **** 
 391:Drivers/CMSIS/Include/cmsis_gcc.h **** #if (defined (__ARM_FEATURE_CMSE ) && (__ARM_FEATURE_CMSE == 3))
 392:Drivers/CMSIS/Include/cmsis_gcc.h **** /**
 393:Drivers/CMSIS/Include/cmsis_gcc.h ****   \brief   Get Priority Mask (non-secure)
 394:Drivers/CMSIS/Include/cmsis_gcc.h ****   \details Returns the current state of the non-secure priority mask bit from the Priority Mask Reg
 395:Drivers/CMSIS/Include/cmsis_gcc.h ****   \return               Priority Mask value
 396:Drivers/CMSIS/Include/cmsis_gcc.h ****  */
 397:Drivers/CMSIS/Include/cmsis_gcc.h **** __STATIC_FORCEINLINE uint32_t __TZ_get_PRIMASK_NS(void)
 398:Drivers/CMSIS/Include/cmsis_gcc.h **** {
ARM GAS  /tmp/ccIpdX1g.s 			page 60


 399:Drivers/CMSIS/Include/cmsis_gcc.h ****   uint32_t result;
 400:Drivers/CMSIS/Include/cmsis_gcc.h **** 
 401:Drivers/CMSIS/Include/cmsis_gcc.h ****   __ASM volatile ("MRS %0, primask_ns" : "=r" (result) :: "memory");
 402:Drivers/CMSIS/Include/cmsis_gcc.h ****   return(result);
 403:Drivers/CMSIS/Include/cmsis_gcc.h **** }
 404:Drivers/CMSIS/Include/cmsis_gcc.h **** #endif
 405:Drivers/CMSIS/Include/cmsis_gcc.h **** 
 406:Drivers/CMSIS/Include/cmsis_gcc.h **** 
 407:Drivers/CMSIS/Include/cmsis_gcc.h **** /**
 408:Drivers/CMSIS/Include/cmsis_gcc.h ****   \brief   Set Priority Mask
 409:Drivers/CMSIS/Include/cmsis_gcc.h ****   \details Assigns the given value to the Priority Mask Register.
 410:Drivers/CMSIS/Include/cmsis_gcc.h ****   \param [in]    priMask  Priority Mask
 411:Drivers/CMSIS/Include/cmsis_gcc.h ****  */
 412:Drivers/CMSIS/Include/cmsis_gcc.h **** __STATIC_FORCEINLINE void __set_PRIMASK(uint32_t priMask)
 413:Drivers/CMSIS/Include/cmsis_gcc.h **** {
 414:Drivers/CMSIS/Include/cmsis_gcc.h ****   __ASM volatile ("MSR primask, %0" : : "r" (priMask) : "memory");
 415:Drivers/CMSIS/Include/cmsis_gcc.h **** }
 416:Drivers/CMSIS/Include/cmsis_gcc.h **** 
 417:Drivers/CMSIS/Include/cmsis_gcc.h **** 
 418:Drivers/CMSIS/Include/cmsis_gcc.h **** #if (defined (__ARM_FEATURE_CMSE ) && (__ARM_FEATURE_CMSE == 3))
 419:Drivers/CMSIS/Include/cmsis_gcc.h **** /**
 420:Drivers/CMSIS/Include/cmsis_gcc.h ****   \brief   Set Priority Mask (non-secure)
 421:Drivers/CMSIS/Include/cmsis_gcc.h ****   \details Assigns the given value to the non-secure Priority Mask Register when in secure state.
 422:Drivers/CMSIS/Include/cmsis_gcc.h ****   \param [in]    priMask  Priority Mask
 423:Drivers/CMSIS/Include/cmsis_gcc.h ****  */
 424:Drivers/CMSIS/Include/cmsis_gcc.h **** __STATIC_FORCEINLINE void __TZ_set_PRIMASK_NS(uint32_t priMask)
 425:Drivers/CMSIS/Include/cmsis_gcc.h **** {
 426:Drivers/CMSIS/Include/cmsis_gcc.h ****   __ASM volatile ("MSR primask_ns, %0" : : "r" (priMask) : "memory");
 427:Drivers/CMSIS/Include/cmsis_gcc.h **** }
 428:Drivers/CMSIS/Include/cmsis_gcc.h **** #endif
 429:Drivers/CMSIS/Include/cmsis_gcc.h **** 
 430:Drivers/CMSIS/Include/cmsis_gcc.h **** 
 431:Drivers/CMSIS/Include/cmsis_gcc.h **** #if ((defined (__ARM_ARCH_7M__      ) && (__ARM_ARCH_7M__      == 1)) || \
 432:Drivers/CMSIS/Include/cmsis_gcc.h ****      (defined (__ARM_ARCH_7EM__     ) && (__ARM_ARCH_7EM__     == 1)) || \
 433:Drivers/CMSIS/Include/cmsis_gcc.h ****      (defined (__ARM_ARCH_8M_MAIN__ ) && (__ARM_ARCH_8M_MAIN__ == 1))    )
 434:Drivers/CMSIS/Include/cmsis_gcc.h **** /**
 435:Drivers/CMSIS/Include/cmsis_gcc.h ****   \brief   Enable FIQ
 436:Drivers/CMSIS/Include/cmsis_gcc.h ****   \details Enables FIQ interrupts by clearing the F-bit in the CPSR.
 437:Drivers/CMSIS/Include/cmsis_gcc.h ****            Can only be executed in Privileged modes.
 438:Drivers/CMSIS/Include/cmsis_gcc.h ****  */
 439:Drivers/CMSIS/Include/cmsis_gcc.h **** __STATIC_FORCEINLINE void __enable_fault_irq(void)
 440:Drivers/CMSIS/Include/cmsis_gcc.h **** {
 441:Drivers/CMSIS/Include/cmsis_gcc.h ****   __ASM volatile ("cpsie f" : : : "memory");
 442:Drivers/CMSIS/Include/cmsis_gcc.h **** }
 443:Drivers/CMSIS/Include/cmsis_gcc.h **** 
 444:Drivers/CMSIS/Include/cmsis_gcc.h **** 
 445:Drivers/CMSIS/Include/cmsis_gcc.h **** /**
 446:Drivers/CMSIS/Include/cmsis_gcc.h ****   \brief   Disable FIQ
 447:Drivers/CMSIS/Include/cmsis_gcc.h ****   \details Disables FIQ interrupts by setting the F-bit in the CPSR.
 448:Drivers/CMSIS/Include/cmsis_gcc.h ****            Can only be executed in Privileged modes.
 449:Drivers/CMSIS/Include/cmsis_gcc.h ****  */
 450:Drivers/CMSIS/Include/cmsis_gcc.h **** __STATIC_FORCEINLINE void __disable_fault_irq(void)
 451:Drivers/CMSIS/Include/cmsis_gcc.h **** {
 452:Drivers/CMSIS/Include/cmsis_gcc.h ****   __ASM volatile ("cpsid f" : : : "memory");
 453:Drivers/CMSIS/Include/cmsis_gcc.h **** }
 454:Drivers/CMSIS/Include/cmsis_gcc.h **** 
 455:Drivers/CMSIS/Include/cmsis_gcc.h **** 
ARM GAS  /tmp/ccIpdX1g.s 			page 61


 456:Drivers/CMSIS/Include/cmsis_gcc.h **** /**
 457:Drivers/CMSIS/Include/cmsis_gcc.h ****   \brief   Get Base Priority
 458:Drivers/CMSIS/Include/cmsis_gcc.h ****   \details Returns the current value of the Base Priority register.
 459:Drivers/CMSIS/Include/cmsis_gcc.h ****   \return               Base Priority register value
 460:Drivers/CMSIS/Include/cmsis_gcc.h ****  */
 461:Drivers/CMSIS/Include/cmsis_gcc.h **** __STATIC_FORCEINLINE uint32_t __get_BASEPRI(void)
 462:Drivers/CMSIS/Include/cmsis_gcc.h **** {
 463:Drivers/CMSIS/Include/cmsis_gcc.h ****   uint32_t result;
 464:Drivers/CMSIS/Include/cmsis_gcc.h **** 
 465:Drivers/CMSIS/Include/cmsis_gcc.h ****   __ASM volatile ("MRS %0, basepri" : "=r" (result) );
 466:Drivers/CMSIS/Include/cmsis_gcc.h ****   return(result);
 467:Drivers/CMSIS/Include/cmsis_gcc.h **** }
 468:Drivers/CMSIS/Include/cmsis_gcc.h **** 
 469:Drivers/CMSIS/Include/cmsis_gcc.h **** 
 470:Drivers/CMSIS/Include/cmsis_gcc.h **** #if (defined (__ARM_FEATURE_CMSE ) && (__ARM_FEATURE_CMSE == 3))
 471:Drivers/CMSIS/Include/cmsis_gcc.h **** /**
 472:Drivers/CMSIS/Include/cmsis_gcc.h ****   \brief   Get Base Priority (non-secure)
 473:Drivers/CMSIS/Include/cmsis_gcc.h ****   \details Returns the current value of the non-secure Base Priority register when in secure state.
 474:Drivers/CMSIS/Include/cmsis_gcc.h ****   \return               Base Priority register value
 475:Drivers/CMSIS/Include/cmsis_gcc.h ****  */
 476:Drivers/CMSIS/Include/cmsis_gcc.h **** __STATIC_FORCEINLINE uint32_t __TZ_get_BASEPRI_NS(void)
 477:Drivers/CMSIS/Include/cmsis_gcc.h **** {
 478:Drivers/CMSIS/Include/cmsis_gcc.h ****   uint32_t result;
 479:Drivers/CMSIS/Include/cmsis_gcc.h **** 
 480:Drivers/CMSIS/Include/cmsis_gcc.h ****   __ASM volatile ("MRS %0, basepri_ns" : "=r" (result) );
 481:Drivers/CMSIS/Include/cmsis_gcc.h ****   return(result);
 482:Drivers/CMSIS/Include/cmsis_gcc.h **** }
 483:Drivers/CMSIS/Include/cmsis_gcc.h **** #endif
 484:Drivers/CMSIS/Include/cmsis_gcc.h **** 
 485:Drivers/CMSIS/Include/cmsis_gcc.h **** 
 486:Drivers/CMSIS/Include/cmsis_gcc.h **** /**
 487:Drivers/CMSIS/Include/cmsis_gcc.h ****   \brief   Set Base Priority
 488:Drivers/CMSIS/Include/cmsis_gcc.h ****   \details Assigns the given value to the Base Priority register.
 489:Drivers/CMSIS/Include/cmsis_gcc.h ****   \param [in]    basePri  Base Priority value to set
 490:Drivers/CMSIS/Include/cmsis_gcc.h ****  */
 491:Drivers/CMSIS/Include/cmsis_gcc.h **** __STATIC_FORCEINLINE void __set_BASEPRI(uint32_t basePri)
 492:Drivers/CMSIS/Include/cmsis_gcc.h **** {
 493:Drivers/CMSIS/Include/cmsis_gcc.h ****   __ASM volatile ("MSR basepri, %0" : : "r" (basePri) : "memory");
 494:Drivers/CMSIS/Include/cmsis_gcc.h **** }
 495:Drivers/CMSIS/Include/cmsis_gcc.h **** 
 496:Drivers/CMSIS/Include/cmsis_gcc.h **** 
 497:Drivers/CMSIS/Include/cmsis_gcc.h **** #if (defined (__ARM_FEATURE_CMSE ) && (__ARM_FEATURE_CMSE == 3))
 498:Drivers/CMSIS/Include/cmsis_gcc.h **** /**
 499:Drivers/CMSIS/Include/cmsis_gcc.h ****   \brief   Set Base Priority (non-secure)
 500:Drivers/CMSIS/Include/cmsis_gcc.h ****   \details Assigns the given value to the non-secure Base Priority register when in secure state.
 501:Drivers/CMSIS/Include/cmsis_gcc.h ****   \param [in]    basePri  Base Priority value to set
 502:Drivers/CMSIS/Include/cmsis_gcc.h ****  */
 503:Drivers/CMSIS/Include/cmsis_gcc.h **** __STATIC_FORCEINLINE void __TZ_set_BASEPRI_NS(uint32_t basePri)
 504:Drivers/CMSIS/Include/cmsis_gcc.h **** {
 505:Drivers/CMSIS/Include/cmsis_gcc.h ****   __ASM volatile ("MSR basepri_ns, %0" : : "r" (basePri) : "memory");
 506:Drivers/CMSIS/Include/cmsis_gcc.h **** }
 507:Drivers/CMSIS/Include/cmsis_gcc.h **** #endif
 508:Drivers/CMSIS/Include/cmsis_gcc.h **** 
 509:Drivers/CMSIS/Include/cmsis_gcc.h **** 
 510:Drivers/CMSIS/Include/cmsis_gcc.h **** /**
 511:Drivers/CMSIS/Include/cmsis_gcc.h ****   \brief   Set Base Priority with condition
 512:Drivers/CMSIS/Include/cmsis_gcc.h ****   \details Assigns the given value to the Base Priority register only if BASEPRI masking is disable
ARM GAS  /tmp/ccIpdX1g.s 			page 62


 513:Drivers/CMSIS/Include/cmsis_gcc.h ****            or the new value increases the BASEPRI priority level.
 514:Drivers/CMSIS/Include/cmsis_gcc.h ****   \param [in]    basePri  Base Priority value to set
 515:Drivers/CMSIS/Include/cmsis_gcc.h ****  */
 516:Drivers/CMSIS/Include/cmsis_gcc.h **** __STATIC_FORCEINLINE void __set_BASEPRI_MAX(uint32_t basePri)
 517:Drivers/CMSIS/Include/cmsis_gcc.h **** {
 518:Drivers/CMSIS/Include/cmsis_gcc.h ****   __ASM volatile ("MSR basepri_max, %0" : : "r" (basePri) : "memory");
 519:Drivers/CMSIS/Include/cmsis_gcc.h **** }
 520:Drivers/CMSIS/Include/cmsis_gcc.h **** 
 521:Drivers/CMSIS/Include/cmsis_gcc.h **** 
 522:Drivers/CMSIS/Include/cmsis_gcc.h **** /**
 523:Drivers/CMSIS/Include/cmsis_gcc.h ****   \brief   Get Fault Mask
 524:Drivers/CMSIS/Include/cmsis_gcc.h ****   \details Returns the current value of the Fault Mask register.
 525:Drivers/CMSIS/Include/cmsis_gcc.h ****   \return               Fault Mask register value
 526:Drivers/CMSIS/Include/cmsis_gcc.h ****  */
 527:Drivers/CMSIS/Include/cmsis_gcc.h **** __STATIC_FORCEINLINE uint32_t __get_FAULTMASK(void)
 528:Drivers/CMSIS/Include/cmsis_gcc.h **** {
 529:Drivers/CMSIS/Include/cmsis_gcc.h ****   uint32_t result;
 530:Drivers/CMSIS/Include/cmsis_gcc.h **** 
 531:Drivers/CMSIS/Include/cmsis_gcc.h ****   __ASM volatile ("MRS %0, faultmask" : "=r" (result) );
 532:Drivers/CMSIS/Include/cmsis_gcc.h ****   return(result);
 533:Drivers/CMSIS/Include/cmsis_gcc.h **** }
 534:Drivers/CMSIS/Include/cmsis_gcc.h **** 
 535:Drivers/CMSIS/Include/cmsis_gcc.h **** 
 536:Drivers/CMSIS/Include/cmsis_gcc.h **** #if (defined (__ARM_FEATURE_CMSE ) && (__ARM_FEATURE_CMSE == 3))
 537:Drivers/CMSIS/Include/cmsis_gcc.h **** /**
 538:Drivers/CMSIS/Include/cmsis_gcc.h ****   \brief   Get Fault Mask (non-secure)
 539:Drivers/CMSIS/Include/cmsis_gcc.h ****   \details Returns the current value of the non-secure Fault Mask register when in secure state.
 540:Drivers/CMSIS/Include/cmsis_gcc.h ****   \return               Fault Mask register value
 541:Drivers/CMSIS/Include/cmsis_gcc.h ****  */
 542:Drivers/CMSIS/Include/cmsis_gcc.h **** __STATIC_FORCEINLINE uint32_t __TZ_get_FAULTMASK_NS(void)
 543:Drivers/CMSIS/Include/cmsis_gcc.h **** {
 544:Drivers/CMSIS/Include/cmsis_gcc.h ****   uint32_t result;
 545:Drivers/CMSIS/Include/cmsis_gcc.h **** 
 546:Drivers/CMSIS/Include/cmsis_gcc.h ****   __ASM volatile ("MRS %0, faultmask_ns" : "=r" (result) );
 547:Drivers/CMSIS/Include/cmsis_gcc.h ****   return(result);
 548:Drivers/CMSIS/Include/cmsis_gcc.h **** }
 549:Drivers/CMSIS/Include/cmsis_gcc.h **** #endif
 550:Drivers/CMSIS/Include/cmsis_gcc.h **** 
 551:Drivers/CMSIS/Include/cmsis_gcc.h **** 
 552:Drivers/CMSIS/Include/cmsis_gcc.h **** /**
 553:Drivers/CMSIS/Include/cmsis_gcc.h ****   \brief   Set Fault Mask
 554:Drivers/CMSIS/Include/cmsis_gcc.h ****   \details Assigns the given value to the Fault Mask register.
 555:Drivers/CMSIS/Include/cmsis_gcc.h ****   \param [in]    faultMask  Fault Mask value to set
 556:Drivers/CMSIS/Include/cmsis_gcc.h ****  */
 557:Drivers/CMSIS/Include/cmsis_gcc.h **** __STATIC_FORCEINLINE void __set_FAULTMASK(uint32_t faultMask)
 558:Drivers/CMSIS/Include/cmsis_gcc.h **** {
 559:Drivers/CMSIS/Include/cmsis_gcc.h ****   __ASM volatile ("MSR faultmask, %0" : : "r" (faultMask) : "memory");
 560:Drivers/CMSIS/Include/cmsis_gcc.h **** }
 561:Drivers/CMSIS/Include/cmsis_gcc.h **** 
 562:Drivers/CMSIS/Include/cmsis_gcc.h **** 
 563:Drivers/CMSIS/Include/cmsis_gcc.h **** #if (defined (__ARM_FEATURE_CMSE ) && (__ARM_FEATURE_CMSE == 3))
 564:Drivers/CMSIS/Include/cmsis_gcc.h **** /**
 565:Drivers/CMSIS/Include/cmsis_gcc.h ****   \brief   Set Fault Mask (non-secure)
 566:Drivers/CMSIS/Include/cmsis_gcc.h ****   \details Assigns the given value to the non-secure Fault Mask register when in secure state.
 567:Drivers/CMSIS/Include/cmsis_gcc.h ****   \param [in]    faultMask  Fault Mask value to set
 568:Drivers/CMSIS/Include/cmsis_gcc.h ****  */
 569:Drivers/CMSIS/Include/cmsis_gcc.h **** __STATIC_FORCEINLINE void __TZ_set_FAULTMASK_NS(uint32_t faultMask)
ARM GAS  /tmp/ccIpdX1g.s 			page 63


 570:Drivers/CMSIS/Include/cmsis_gcc.h **** {
 571:Drivers/CMSIS/Include/cmsis_gcc.h ****   __ASM volatile ("MSR faultmask_ns, %0" : : "r" (faultMask) : "memory");
 572:Drivers/CMSIS/Include/cmsis_gcc.h **** }
 573:Drivers/CMSIS/Include/cmsis_gcc.h **** #endif
 574:Drivers/CMSIS/Include/cmsis_gcc.h **** 
 575:Drivers/CMSIS/Include/cmsis_gcc.h **** #endif /* ((defined (__ARM_ARCH_7M__      ) && (__ARM_ARCH_7M__      == 1)) || \
 576:Drivers/CMSIS/Include/cmsis_gcc.h ****            (defined (__ARM_ARCH_7EM__     ) && (__ARM_ARCH_7EM__     == 1)) || \
 577:Drivers/CMSIS/Include/cmsis_gcc.h ****            (defined (__ARM_ARCH_8M_MAIN__ ) && (__ARM_ARCH_8M_MAIN__ == 1))    ) */
 578:Drivers/CMSIS/Include/cmsis_gcc.h **** 
 579:Drivers/CMSIS/Include/cmsis_gcc.h **** 
 580:Drivers/CMSIS/Include/cmsis_gcc.h **** #if ((defined (__ARM_ARCH_8M_MAIN__ ) && (__ARM_ARCH_8M_MAIN__ == 1)) || \
 581:Drivers/CMSIS/Include/cmsis_gcc.h ****      (defined (__ARM_ARCH_8M_BASE__ ) && (__ARM_ARCH_8M_BASE__ == 1))    )
 582:Drivers/CMSIS/Include/cmsis_gcc.h **** 
 583:Drivers/CMSIS/Include/cmsis_gcc.h **** /**
 584:Drivers/CMSIS/Include/cmsis_gcc.h ****   \brief   Get Process Stack Pointer Limit
 585:Drivers/CMSIS/Include/cmsis_gcc.h ****   Devices without ARMv8-M Main Extensions (i.e. Cortex-M23) lack the non-secure
 586:Drivers/CMSIS/Include/cmsis_gcc.h ****   Stack Pointer Limit register hence zero is returned always in non-secure
 587:Drivers/CMSIS/Include/cmsis_gcc.h ****   mode.
 588:Drivers/CMSIS/Include/cmsis_gcc.h ****   
 589:Drivers/CMSIS/Include/cmsis_gcc.h ****   \details Returns the current value of the Process Stack Pointer Limit (PSPLIM).
 590:Drivers/CMSIS/Include/cmsis_gcc.h ****   \return               PSPLIM Register value
 591:Drivers/CMSIS/Include/cmsis_gcc.h ****  */
 592:Drivers/CMSIS/Include/cmsis_gcc.h **** __STATIC_FORCEINLINE uint32_t __get_PSPLIM(void)
 593:Drivers/CMSIS/Include/cmsis_gcc.h **** {
 594:Drivers/CMSIS/Include/cmsis_gcc.h **** #if (!(defined (__ARM_ARCH_8M_MAIN__ ) && (__ARM_ARCH_8M_MAIN__ == 1)) && \
 595:Drivers/CMSIS/Include/cmsis_gcc.h ****     (!defined (__ARM_FEATURE_CMSE) || (__ARM_FEATURE_CMSE < 3)))
 596:Drivers/CMSIS/Include/cmsis_gcc.h ****     // without main extensions, the non-secure PSPLIM is RAZ/WI
 597:Drivers/CMSIS/Include/cmsis_gcc.h ****   return 0U;
 598:Drivers/CMSIS/Include/cmsis_gcc.h **** #else
 599:Drivers/CMSIS/Include/cmsis_gcc.h ****   uint32_t result;
 600:Drivers/CMSIS/Include/cmsis_gcc.h ****   __ASM volatile ("MRS %0, psplim"  : "=r" (result) );
 601:Drivers/CMSIS/Include/cmsis_gcc.h ****   return result;
 602:Drivers/CMSIS/Include/cmsis_gcc.h **** #endif
 603:Drivers/CMSIS/Include/cmsis_gcc.h **** }
 604:Drivers/CMSIS/Include/cmsis_gcc.h **** 
 605:Drivers/CMSIS/Include/cmsis_gcc.h **** #if (defined (__ARM_FEATURE_CMSE) && (__ARM_FEATURE_CMSE == 3))
 606:Drivers/CMSIS/Include/cmsis_gcc.h **** /**
 607:Drivers/CMSIS/Include/cmsis_gcc.h ****   \brief   Get Process Stack Pointer Limit (non-secure)
 608:Drivers/CMSIS/Include/cmsis_gcc.h ****   Devices without ARMv8-M Main Extensions (i.e. Cortex-M23) lack the non-secure
 609:Drivers/CMSIS/Include/cmsis_gcc.h ****   Stack Pointer Limit register hence zero is returned always.
 610:Drivers/CMSIS/Include/cmsis_gcc.h **** 
 611:Drivers/CMSIS/Include/cmsis_gcc.h ****   \details Returns the current value of the non-secure Process Stack Pointer Limit (PSPLIM) when in
 612:Drivers/CMSIS/Include/cmsis_gcc.h ****   \return               PSPLIM Register value
 613:Drivers/CMSIS/Include/cmsis_gcc.h ****  */
 614:Drivers/CMSIS/Include/cmsis_gcc.h **** __STATIC_FORCEINLINE uint32_t __TZ_get_PSPLIM_NS(void)
 615:Drivers/CMSIS/Include/cmsis_gcc.h **** {
 616:Drivers/CMSIS/Include/cmsis_gcc.h **** #if (!(defined (__ARM_ARCH_8M_MAIN__ ) && (__ARM_ARCH_8M_MAIN__ == 1)))
 617:Drivers/CMSIS/Include/cmsis_gcc.h ****   // without main extensions, the non-secure PSPLIM is RAZ/WI
 618:Drivers/CMSIS/Include/cmsis_gcc.h ****   return 0U;
 619:Drivers/CMSIS/Include/cmsis_gcc.h **** #else
 620:Drivers/CMSIS/Include/cmsis_gcc.h ****   uint32_t result;
 621:Drivers/CMSIS/Include/cmsis_gcc.h ****   __ASM volatile ("MRS %0, psplim_ns"  : "=r" (result) );
 622:Drivers/CMSIS/Include/cmsis_gcc.h ****   return result;
 623:Drivers/CMSIS/Include/cmsis_gcc.h **** #endif
 624:Drivers/CMSIS/Include/cmsis_gcc.h **** }
 625:Drivers/CMSIS/Include/cmsis_gcc.h **** #endif
 626:Drivers/CMSIS/Include/cmsis_gcc.h **** 
ARM GAS  /tmp/ccIpdX1g.s 			page 64


 627:Drivers/CMSIS/Include/cmsis_gcc.h **** 
 628:Drivers/CMSIS/Include/cmsis_gcc.h **** /**
 629:Drivers/CMSIS/Include/cmsis_gcc.h ****   \brief   Set Process Stack Pointer Limit
 630:Drivers/CMSIS/Include/cmsis_gcc.h ****   Devices without ARMv8-M Main Extensions (i.e. Cortex-M23) lack the non-secure
 631:Drivers/CMSIS/Include/cmsis_gcc.h ****   Stack Pointer Limit register hence the write is silently ignored in non-secure
 632:Drivers/CMSIS/Include/cmsis_gcc.h ****   mode.
 633:Drivers/CMSIS/Include/cmsis_gcc.h ****   
 634:Drivers/CMSIS/Include/cmsis_gcc.h ****   \details Assigns the given value to the Process Stack Pointer Limit (PSPLIM).
 635:Drivers/CMSIS/Include/cmsis_gcc.h ****   \param [in]    ProcStackPtrLimit  Process Stack Pointer Limit value to set
 636:Drivers/CMSIS/Include/cmsis_gcc.h ****  */
 637:Drivers/CMSIS/Include/cmsis_gcc.h **** __STATIC_FORCEINLINE void __set_PSPLIM(uint32_t ProcStackPtrLimit)
 638:Drivers/CMSIS/Include/cmsis_gcc.h **** {
 639:Drivers/CMSIS/Include/cmsis_gcc.h **** #if (!(defined (__ARM_ARCH_8M_MAIN__ ) && (__ARM_ARCH_8M_MAIN__ == 1)) && \
 640:Drivers/CMSIS/Include/cmsis_gcc.h ****     (!defined (__ARM_FEATURE_CMSE) || (__ARM_FEATURE_CMSE < 3)))
 641:Drivers/CMSIS/Include/cmsis_gcc.h ****   // without main extensions, the non-secure PSPLIM is RAZ/WI
 642:Drivers/CMSIS/Include/cmsis_gcc.h ****   (void)ProcStackPtrLimit;
 643:Drivers/CMSIS/Include/cmsis_gcc.h **** #else
 644:Drivers/CMSIS/Include/cmsis_gcc.h ****   __ASM volatile ("MSR psplim, %0" : : "r" (ProcStackPtrLimit));
 645:Drivers/CMSIS/Include/cmsis_gcc.h **** #endif
 646:Drivers/CMSIS/Include/cmsis_gcc.h **** }
 647:Drivers/CMSIS/Include/cmsis_gcc.h **** 
 648:Drivers/CMSIS/Include/cmsis_gcc.h **** 
 649:Drivers/CMSIS/Include/cmsis_gcc.h **** #if (defined (__ARM_FEATURE_CMSE  ) && (__ARM_FEATURE_CMSE   == 3))
 650:Drivers/CMSIS/Include/cmsis_gcc.h **** /**
 651:Drivers/CMSIS/Include/cmsis_gcc.h ****   \brief   Set Process Stack Pointer (non-secure)
 652:Drivers/CMSIS/Include/cmsis_gcc.h ****   Devices without ARMv8-M Main Extensions (i.e. Cortex-M23) lack the non-secure
 653:Drivers/CMSIS/Include/cmsis_gcc.h ****   Stack Pointer Limit register hence the write is silently ignored.
 654:Drivers/CMSIS/Include/cmsis_gcc.h **** 
 655:Drivers/CMSIS/Include/cmsis_gcc.h ****   \details Assigns the given value to the non-secure Process Stack Pointer Limit (PSPLIM) when in s
 656:Drivers/CMSIS/Include/cmsis_gcc.h ****   \param [in]    ProcStackPtrLimit  Process Stack Pointer Limit value to set
 657:Drivers/CMSIS/Include/cmsis_gcc.h ****  */
 658:Drivers/CMSIS/Include/cmsis_gcc.h **** __STATIC_FORCEINLINE void __TZ_set_PSPLIM_NS(uint32_t ProcStackPtrLimit)
 659:Drivers/CMSIS/Include/cmsis_gcc.h **** {
 660:Drivers/CMSIS/Include/cmsis_gcc.h **** #if (!(defined (__ARM_ARCH_8M_MAIN__ ) && (__ARM_ARCH_8M_MAIN__ == 1)))
 661:Drivers/CMSIS/Include/cmsis_gcc.h ****   // without main extensions, the non-secure PSPLIM is RAZ/WI
 662:Drivers/CMSIS/Include/cmsis_gcc.h ****   (void)ProcStackPtrLimit;
 663:Drivers/CMSIS/Include/cmsis_gcc.h **** #else
 664:Drivers/CMSIS/Include/cmsis_gcc.h ****   __ASM volatile ("MSR psplim_ns, %0\n" : : "r" (ProcStackPtrLimit));
 665:Drivers/CMSIS/Include/cmsis_gcc.h **** #endif
 666:Drivers/CMSIS/Include/cmsis_gcc.h **** }
 667:Drivers/CMSIS/Include/cmsis_gcc.h **** #endif
 668:Drivers/CMSIS/Include/cmsis_gcc.h **** 
 669:Drivers/CMSIS/Include/cmsis_gcc.h **** 
 670:Drivers/CMSIS/Include/cmsis_gcc.h **** /**
 671:Drivers/CMSIS/Include/cmsis_gcc.h ****   \brief   Get Main Stack Pointer Limit
 672:Drivers/CMSIS/Include/cmsis_gcc.h ****   Devices without ARMv8-M Main Extensions (i.e. Cortex-M23) lack the non-secure
 673:Drivers/CMSIS/Include/cmsis_gcc.h ****   Stack Pointer Limit register hence zero is returned always in non-secure
 674:Drivers/CMSIS/Include/cmsis_gcc.h ****   mode.
 675:Drivers/CMSIS/Include/cmsis_gcc.h **** 
 676:Drivers/CMSIS/Include/cmsis_gcc.h ****   \details Returns the current value of the Main Stack Pointer Limit (MSPLIM).
 677:Drivers/CMSIS/Include/cmsis_gcc.h ****   \return               MSPLIM Register value
 678:Drivers/CMSIS/Include/cmsis_gcc.h ****  */
 679:Drivers/CMSIS/Include/cmsis_gcc.h **** __STATIC_FORCEINLINE uint32_t __get_MSPLIM(void)
 680:Drivers/CMSIS/Include/cmsis_gcc.h **** {
 681:Drivers/CMSIS/Include/cmsis_gcc.h **** #if (!(defined (__ARM_ARCH_8M_MAIN__ ) && (__ARM_ARCH_8M_MAIN__ == 1)) && \
 682:Drivers/CMSIS/Include/cmsis_gcc.h ****     (!defined (__ARM_FEATURE_CMSE) || (__ARM_FEATURE_CMSE < 3)))
 683:Drivers/CMSIS/Include/cmsis_gcc.h ****   // without main extensions, the non-secure MSPLIM is RAZ/WI
ARM GAS  /tmp/ccIpdX1g.s 			page 65


 684:Drivers/CMSIS/Include/cmsis_gcc.h ****   return 0U;
 685:Drivers/CMSIS/Include/cmsis_gcc.h **** #else
 686:Drivers/CMSIS/Include/cmsis_gcc.h ****   uint32_t result;
 687:Drivers/CMSIS/Include/cmsis_gcc.h ****   __ASM volatile ("MRS %0, msplim" : "=r" (result) );
 688:Drivers/CMSIS/Include/cmsis_gcc.h ****   return result;
 689:Drivers/CMSIS/Include/cmsis_gcc.h **** #endif
 690:Drivers/CMSIS/Include/cmsis_gcc.h **** }
 691:Drivers/CMSIS/Include/cmsis_gcc.h **** 
 692:Drivers/CMSIS/Include/cmsis_gcc.h **** 
 693:Drivers/CMSIS/Include/cmsis_gcc.h **** #if (defined (__ARM_FEATURE_CMSE  ) && (__ARM_FEATURE_CMSE   == 3))
 694:Drivers/CMSIS/Include/cmsis_gcc.h **** /**
 695:Drivers/CMSIS/Include/cmsis_gcc.h ****   \brief   Get Main Stack Pointer Limit (non-secure)
 696:Drivers/CMSIS/Include/cmsis_gcc.h ****   Devices without ARMv8-M Main Extensions (i.e. Cortex-M23) lack the non-secure
 697:Drivers/CMSIS/Include/cmsis_gcc.h ****   Stack Pointer Limit register hence zero is returned always.
 698:Drivers/CMSIS/Include/cmsis_gcc.h **** 
 699:Drivers/CMSIS/Include/cmsis_gcc.h ****   \details Returns the current value of the non-secure Main Stack Pointer Limit(MSPLIM) when in sec
 700:Drivers/CMSIS/Include/cmsis_gcc.h ****   \return               MSPLIM Register value
 701:Drivers/CMSIS/Include/cmsis_gcc.h ****  */
 702:Drivers/CMSIS/Include/cmsis_gcc.h **** __STATIC_FORCEINLINE uint32_t __TZ_get_MSPLIM_NS(void)
 703:Drivers/CMSIS/Include/cmsis_gcc.h **** {
 704:Drivers/CMSIS/Include/cmsis_gcc.h **** #if (!(defined (__ARM_ARCH_8M_MAIN__ ) && (__ARM_ARCH_8M_MAIN__ == 1)))
 705:Drivers/CMSIS/Include/cmsis_gcc.h ****   // without main extensions, the non-secure MSPLIM is RAZ/WI
 706:Drivers/CMSIS/Include/cmsis_gcc.h ****   return 0U;
 707:Drivers/CMSIS/Include/cmsis_gcc.h **** #else
 708:Drivers/CMSIS/Include/cmsis_gcc.h ****   uint32_t result;
 709:Drivers/CMSIS/Include/cmsis_gcc.h ****   __ASM volatile ("MRS %0, msplim_ns" : "=r" (result) );
 710:Drivers/CMSIS/Include/cmsis_gcc.h ****   return result;
 711:Drivers/CMSIS/Include/cmsis_gcc.h **** #endif
 712:Drivers/CMSIS/Include/cmsis_gcc.h **** }
 713:Drivers/CMSIS/Include/cmsis_gcc.h **** #endif
 714:Drivers/CMSIS/Include/cmsis_gcc.h **** 
 715:Drivers/CMSIS/Include/cmsis_gcc.h **** 
 716:Drivers/CMSIS/Include/cmsis_gcc.h **** /**
 717:Drivers/CMSIS/Include/cmsis_gcc.h ****   \brief   Set Main Stack Pointer Limit
 718:Drivers/CMSIS/Include/cmsis_gcc.h ****   Devices without ARMv8-M Main Extensions (i.e. Cortex-M23) lack the non-secure
 719:Drivers/CMSIS/Include/cmsis_gcc.h ****   Stack Pointer Limit register hence the write is silently ignored in non-secure
 720:Drivers/CMSIS/Include/cmsis_gcc.h ****   mode.
 721:Drivers/CMSIS/Include/cmsis_gcc.h **** 
 722:Drivers/CMSIS/Include/cmsis_gcc.h ****   \details Assigns the given value to the Main Stack Pointer Limit (MSPLIM).
 723:Drivers/CMSIS/Include/cmsis_gcc.h ****   \param [in]    MainStackPtrLimit  Main Stack Pointer Limit value to set
 724:Drivers/CMSIS/Include/cmsis_gcc.h ****  */
 725:Drivers/CMSIS/Include/cmsis_gcc.h **** __STATIC_FORCEINLINE void __set_MSPLIM(uint32_t MainStackPtrLimit)
 726:Drivers/CMSIS/Include/cmsis_gcc.h **** {
 727:Drivers/CMSIS/Include/cmsis_gcc.h **** #if (!(defined (__ARM_ARCH_8M_MAIN__ ) && (__ARM_ARCH_8M_MAIN__ == 1)) && \
 728:Drivers/CMSIS/Include/cmsis_gcc.h ****     (!defined (__ARM_FEATURE_CMSE) || (__ARM_FEATURE_CMSE < 3)))
 729:Drivers/CMSIS/Include/cmsis_gcc.h ****   // without main extensions, the non-secure MSPLIM is RAZ/WI
 730:Drivers/CMSIS/Include/cmsis_gcc.h ****   (void)MainStackPtrLimit;
 731:Drivers/CMSIS/Include/cmsis_gcc.h **** #else
 732:Drivers/CMSIS/Include/cmsis_gcc.h ****   __ASM volatile ("MSR msplim, %0" : : "r" (MainStackPtrLimit));
 733:Drivers/CMSIS/Include/cmsis_gcc.h **** #endif
 734:Drivers/CMSIS/Include/cmsis_gcc.h **** }
 735:Drivers/CMSIS/Include/cmsis_gcc.h **** 
 736:Drivers/CMSIS/Include/cmsis_gcc.h **** 
 737:Drivers/CMSIS/Include/cmsis_gcc.h **** #if (defined (__ARM_FEATURE_CMSE  ) && (__ARM_FEATURE_CMSE   == 3))
 738:Drivers/CMSIS/Include/cmsis_gcc.h **** /**
 739:Drivers/CMSIS/Include/cmsis_gcc.h ****   \brief   Set Main Stack Pointer Limit (non-secure)
 740:Drivers/CMSIS/Include/cmsis_gcc.h ****   Devices without ARMv8-M Main Extensions (i.e. Cortex-M23) lack the non-secure
ARM GAS  /tmp/ccIpdX1g.s 			page 66


 741:Drivers/CMSIS/Include/cmsis_gcc.h ****   Stack Pointer Limit register hence the write is silently ignored.
 742:Drivers/CMSIS/Include/cmsis_gcc.h **** 
 743:Drivers/CMSIS/Include/cmsis_gcc.h ****   \details Assigns the given value to the non-secure Main Stack Pointer Limit (MSPLIM) when in secu
 744:Drivers/CMSIS/Include/cmsis_gcc.h ****   \param [in]    MainStackPtrLimit  Main Stack Pointer value to set
 745:Drivers/CMSIS/Include/cmsis_gcc.h ****  */
 746:Drivers/CMSIS/Include/cmsis_gcc.h **** __STATIC_FORCEINLINE void __TZ_set_MSPLIM_NS(uint32_t MainStackPtrLimit)
 747:Drivers/CMSIS/Include/cmsis_gcc.h **** {
 748:Drivers/CMSIS/Include/cmsis_gcc.h **** #if (!(defined (__ARM_ARCH_8M_MAIN__ ) && (__ARM_ARCH_8M_MAIN__ == 1)))
 749:Drivers/CMSIS/Include/cmsis_gcc.h ****   // without main extensions, the non-secure MSPLIM is RAZ/WI
 750:Drivers/CMSIS/Include/cmsis_gcc.h ****   (void)MainStackPtrLimit;
 751:Drivers/CMSIS/Include/cmsis_gcc.h **** #else
 752:Drivers/CMSIS/Include/cmsis_gcc.h ****   __ASM volatile ("MSR msplim_ns, %0" : : "r" (MainStackPtrLimit));
 753:Drivers/CMSIS/Include/cmsis_gcc.h **** #endif
 754:Drivers/CMSIS/Include/cmsis_gcc.h **** }
 755:Drivers/CMSIS/Include/cmsis_gcc.h **** #endif
 756:Drivers/CMSIS/Include/cmsis_gcc.h **** 
 757:Drivers/CMSIS/Include/cmsis_gcc.h **** #endif /* ((defined (__ARM_ARCH_8M_MAIN__ ) && (__ARM_ARCH_8M_MAIN__ == 1)) || \
 758:Drivers/CMSIS/Include/cmsis_gcc.h ****            (defined (__ARM_ARCH_8M_BASE__ ) && (__ARM_ARCH_8M_BASE__ == 1))    ) */
 759:Drivers/CMSIS/Include/cmsis_gcc.h **** 
 760:Drivers/CMSIS/Include/cmsis_gcc.h **** 
 761:Drivers/CMSIS/Include/cmsis_gcc.h **** /**
 762:Drivers/CMSIS/Include/cmsis_gcc.h ****   \brief   Get FPSCR
 763:Drivers/CMSIS/Include/cmsis_gcc.h ****   \details Returns the current value of the Floating Point Status/Control register.
 764:Drivers/CMSIS/Include/cmsis_gcc.h ****   \return               Floating Point Status/Control register value
 765:Drivers/CMSIS/Include/cmsis_gcc.h ****  */
 766:Drivers/CMSIS/Include/cmsis_gcc.h **** __STATIC_FORCEINLINE uint32_t __get_FPSCR(void)
 767:Drivers/CMSIS/Include/cmsis_gcc.h **** {
 768:Drivers/CMSIS/Include/cmsis_gcc.h **** #if ((defined (__FPU_PRESENT) && (__FPU_PRESENT == 1U)) && \
 769:Drivers/CMSIS/Include/cmsis_gcc.h ****      (defined (__FPU_USED   ) && (__FPU_USED    == 1U))     )
 770:Drivers/CMSIS/Include/cmsis_gcc.h **** #if __has_builtin(__builtin_arm_get_fpscr) 
 771:Drivers/CMSIS/Include/cmsis_gcc.h **** // Re-enable using built-in when GCC has been fixed
 772:Drivers/CMSIS/Include/cmsis_gcc.h **** // || (__GNUC__ > 7) || (__GNUC__ == 7 && __GNUC_MINOR__ >= 2)
 773:Drivers/CMSIS/Include/cmsis_gcc.h ****   /* see https://gcc.gnu.org/ml/gcc-patches/2017-04/msg00443.html */
 774:Drivers/CMSIS/Include/cmsis_gcc.h ****   return __builtin_arm_get_fpscr();
 775:Drivers/CMSIS/Include/cmsis_gcc.h **** #else
 776:Drivers/CMSIS/Include/cmsis_gcc.h ****   uint32_t result;
 777:Drivers/CMSIS/Include/cmsis_gcc.h **** 
 778:Drivers/CMSIS/Include/cmsis_gcc.h ****   __ASM volatile ("VMRS %0, fpscr" : "=r" (result) );
 779:Drivers/CMSIS/Include/cmsis_gcc.h ****   return(result);
 780:Drivers/CMSIS/Include/cmsis_gcc.h **** #endif
 781:Drivers/CMSIS/Include/cmsis_gcc.h **** #else
 782:Drivers/CMSIS/Include/cmsis_gcc.h ****   return(0U);
 783:Drivers/CMSIS/Include/cmsis_gcc.h **** #endif
 784:Drivers/CMSIS/Include/cmsis_gcc.h **** }
 785:Drivers/CMSIS/Include/cmsis_gcc.h **** 
 786:Drivers/CMSIS/Include/cmsis_gcc.h **** 
 787:Drivers/CMSIS/Include/cmsis_gcc.h **** /**
 788:Drivers/CMSIS/Include/cmsis_gcc.h ****   \brief   Set FPSCR
 789:Drivers/CMSIS/Include/cmsis_gcc.h ****   \details Assigns the given value to the Floating Point Status/Control register.
 790:Drivers/CMSIS/Include/cmsis_gcc.h ****   \param [in]    fpscr  Floating Point Status/Control value to set
 791:Drivers/CMSIS/Include/cmsis_gcc.h ****  */
 792:Drivers/CMSIS/Include/cmsis_gcc.h **** __STATIC_FORCEINLINE void __set_FPSCR(uint32_t fpscr)
 793:Drivers/CMSIS/Include/cmsis_gcc.h **** {
 794:Drivers/CMSIS/Include/cmsis_gcc.h **** #if ((defined (__FPU_PRESENT) && (__FPU_PRESENT == 1U)) && \
 795:Drivers/CMSIS/Include/cmsis_gcc.h ****      (defined (__FPU_USED   ) && (__FPU_USED    == 1U))     )
 796:Drivers/CMSIS/Include/cmsis_gcc.h **** #if __has_builtin(__builtin_arm_set_fpscr)
 797:Drivers/CMSIS/Include/cmsis_gcc.h **** // Re-enable using built-in when GCC has been fixed
ARM GAS  /tmp/ccIpdX1g.s 			page 67


 798:Drivers/CMSIS/Include/cmsis_gcc.h **** // || (__GNUC__ > 7) || (__GNUC__ == 7 && __GNUC_MINOR__ >= 2)
 799:Drivers/CMSIS/Include/cmsis_gcc.h ****   /* see https://gcc.gnu.org/ml/gcc-patches/2017-04/msg00443.html */
 800:Drivers/CMSIS/Include/cmsis_gcc.h ****   __builtin_arm_set_fpscr(fpscr);
 801:Drivers/CMSIS/Include/cmsis_gcc.h **** #else
 802:Drivers/CMSIS/Include/cmsis_gcc.h ****   __ASM volatile ("VMSR fpscr, %0" : : "r" (fpscr) : "vfpcc", "memory");
 803:Drivers/CMSIS/Include/cmsis_gcc.h **** #endif
 804:Drivers/CMSIS/Include/cmsis_gcc.h **** #else
 805:Drivers/CMSIS/Include/cmsis_gcc.h ****   (void)fpscr;
 806:Drivers/CMSIS/Include/cmsis_gcc.h **** #endif
 807:Drivers/CMSIS/Include/cmsis_gcc.h **** }
 808:Drivers/CMSIS/Include/cmsis_gcc.h **** 
 809:Drivers/CMSIS/Include/cmsis_gcc.h **** 
 810:Drivers/CMSIS/Include/cmsis_gcc.h **** /*@} end of CMSIS_Core_RegAccFunctions */
 811:Drivers/CMSIS/Include/cmsis_gcc.h **** 
 812:Drivers/CMSIS/Include/cmsis_gcc.h **** 
 813:Drivers/CMSIS/Include/cmsis_gcc.h **** /* ##########################  Core Instruction Access  ######################### */
 814:Drivers/CMSIS/Include/cmsis_gcc.h **** /** \defgroup CMSIS_Core_InstructionInterface CMSIS Core Instruction Interface
 815:Drivers/CMSIS/Include/cmsis_gcc.h ****   Access to dedicated instructions
 816:Drivers/CMSIS/Include/cmsis_gcc.h ****   @{
 817:Drivers/CMSIS/Include/cmsis_gcc.h **** */
 818:Drivers/CMSIS/Include/cmsis_gcc.h **** 
 819:Drivers/CMSIS/Include/cmsis_gcc.h **** /* Define macros for porting to both thumb1 and thumb2.
 820:Drivers/CMSIS/Include/cmsis_gcc.h ****  * For thumb1, use low register (r0-r7), specified by constraint "l"
 821:Drivers/CMSIS/Include/cmsis_gcc.h ****  * Otherwise, use general registers, specified by constraint "r" */
 822:Drivers/CMSIS/Include/cmsis_gcc.h **** #if defined (__thumb__) && !defined (__thumb2__)
 823:Drivers/CMSIS/Include/cmsis_gcc.h **** #define __CMSIS_GCC_OUT_REG(r) "=l" (r)
 824:Drivers/CMSIS/Include/cmsis_gcc.h **** #define __CMSIS_GCC_RW_REG(r) "+l" (r)
 825:Drivers/CMSIS/Include/cmsis_gcc.h **** #define __CMSIS_GCC_USE_REG(r) "l" (r)
 826:Drivers/CMSIS/Include/cmsis_gcc.h **** #else
 827:Drivers/CMSIS/Include/cmsis_gcc.h **** #define __CMSIS_GCC_OUT_REG(r) "=r" (r)
 828:Drivers/CMSIS/Include/cmsis_gcc.h **** #define __CMSIS_GCC_RW_REG(r) "+r" (r)
 829:Drivers/CMSIS/Include/cmsis_gcc.h **** #define __CMSIS_GCC_USE_REG(r) "r" (r)
 830:Drivers/CMSIS/Include/cmsis_gcc.h **** #endif
 831:Drivers/CMSIS/Include/cmsis_gcc.h **** 
 832:Drivers/CMSIS/Include/cmsis_gcc.h **** /**
 833:Drivers/CMSIS/Include/cmsis_gcc.h ****   \brief   No Operation
 834:Drivers/CMSIS/Include/cmsis_gcc.h ****   \details No Operation does nothing. This instruction can be used for code alignment purposes.
 835:Drivers/CMSIS/Include/cmsis_gcc.h ****  */
 836:Drivers/CMSIS/Include/cmsis_gcc.h **** #define __NOP()                             __ASM volatile ("nop")
 837:Drivers/CMSIS/Include/cmsis_gcc.h **** 
 838:Drivers/CMSIS/Include/cmsis_gcc.h **** /**
 839:Drivers/CMSIS/Include/cmsis_gcc.h ****   \brief   Wait For Interrupt
 840:Drivers/CMSIS/Include/cmsis_gcc.h ****   \details Wait For Interrupt is a hint instruction that suspends execution until one of a number o
 841:Drivers/CMSIS/Include/cmsis_gcc.h ****  */
 842:Drivers/CMSIS/Include/cmsis_gcc.h **** #define __WFI()                             __ASM volatile ("wfi")
 843:Drivers/CMSIS/Include/cmsis_gcc.h **** 
 844:Drivers/CMSIS/Include/cmsis_gcc.h **** 
 845:Drivers/CMSIS/Include/cmsis_gcc.h **** /**
 846:Drivers/CMSIS/Include/cmsis_gcc.h ****   \brief   Wait For Event
 847:Drivers/CMSIS/Include/cmsis_gcc.h ****   \details Wait For Event is a hint instruction that permits the processor to enter
 848:Drivers/CMSIS/Include/cmsis_gcc.h ****            a low-power state until one of a number of events occurs.
 849:Drivers/CMSIS/Include/cmsis_gcc.h ****  */
 850:Drivers/CMSIS/Include/cmsis_gcc.h **** #define __WFE()                             __ASM volatile ("wfe")
 851:Drivers/CMSIS/Include/cmsis_gcc.h **** 
 852:Drivers/CMSIS/Include/cmsis_gcc.h **** 
 853:Drivers/CMSIS/Include/cmsis_gcc.h **** /**
 854:Drivers/CMSIS/Include/cmsis_gcc.h ****   \brief   Send Event
ARM GAS  /tmp/ccIpdX1g.s 			page 68


 855:Drivers/CMSIS/Include/cmsis_gcc.h ****   \details Send Event is a hint instruction. It causes an event to be signaled to the CPU.
 856:Drivers/CMSIS/Include/cmsis_gcc.h ****  */
 857:Drivers/CMSIS/Include/cmsis_gcc.h **** #define __SEV()                             __ASM volatile ("sev")
 858:Drivers/CMSIS/Include/cmsis_gcc.h **** 
 859:Drivers/CMSIS/Include/cmsis_gcc.h **** 
 860:Drivers/CMSIS/Include/cmsis_gcc.h **** /**
 861:Drivers/CMSIS/Include/cmsis_gcc.h ****   \brief   Instruction Synchronization Barrier
 862:Drivers/CMSIS/Include/cmsis_gcc.h ****   \details Instruction Synchronization Barrier flushes the pipeline in the processor,
 863:Drivers/CMSIS/Include/cmsis_gcc.h ****            so that all instructions following the ISB are fetched from cache or memory,
 864:Drivers/CMSIS/Include/cmsis_gcc.h ****            after the instruction has been completed.
 865:Drivers/CMSIS/Include/cmsis_gcc.h ****  */
 866:Drivers/CMSIS/Include/cmsis_gcc.h **** __STATIC_FORCEINLINE void __ISB(void)
 867:Drivers/CMSIS/Include/cmsis_gcc.h **** {
 868:Drivers/CMSIS/Include/cmsis_gcc.h ****   __ASM volatile ("isb 0xF":::"memory");
 869:Drivers/CMSIS/Include/cmsis_gcc.h **** }
 870:Drivers/CMSIS/Include/cmsis_gcc.h **** 
 871:Drivers/CMSIS/Include/cmsis_gcc.h **** 
 872:Drivers/CMSIS/Include/cmsis_gcc.h **** /**
 873:Drivers/CMSIS/Include/cmsis_gcc.h ****   \brief   Data Synchronization Barrier
 874:Drivers/CMSIS/Include/cmsis_gcc.h ****   \details Acts as a special kind of Data Memory Barrier.
 875:Drivers/CMSIS/Include/cmsis_gcc.h ****            It completes when all explicit memory accesses before this instruction complete.
 876:Drivers/CMSIS/Include/cmsis_gcc.h ****  */
 877:Drivers/CMSIS/Include/cmsis_gcc.h **** __STATIC_FORCEINLINE void __DSB(void)
 878:Drivers/CMSIS/Include/cmsis_gcc.h **** {
 879:Drivers/CMSIS/Include/cmsis_gcc.h ****   __ASM volatile ("dsb 0xF":::"memory");
 880:Drivers/CMSIS/Include/cmsis_gcc.h **** }
 881:Drivers/CMSIS/Include/cmsis_gcc.h **** 
 882:Drivers/CMSIS/Include/cmsis_gcc.h **** 
 883:Drivers/CMSIS/Include/cmsis_gcc.h **** /**
 884:Drivers/CMSIS/Include/cmsis_gcc.h ****   \brief   Data Memory Barrier
 885:Drivers/CMSIS/Include/cmsis_gcc.h ****   \details Ensures the apparent order of the explicit memory operations before
 886:Drivers/CMSIS/Include/cmsis_gcc.h ****            and after the instruction, without ensuring their completion.
 887:Drivers/CMSIS/Include/cmsis_gcc.h ****  */
 888:Drivers/CMSIS/Include/cmsis_gcc.h **** __STATIC_FORCEINLINE void __DMB(void)
 889:Drivers/CMSIS/Include/cmsis_gcc.h **** {
 890:Drivers/CMSIS/Include/cmsis_gcc.h ****   __ASM volatile ("dmb 0xF":::"memory");
 891:Drivers/CMSIS/Include/cmsis_gcc.h **** }
 892:Drivers/CMSIS/Include/cmsis_gcc.h **** 
 893:Drivers/CMSIS/Include/cmsis_gcc.h **** 
 894:Drivers/CMSIS/Include/cmsis_gcc.h **** /**
 895:Drivers/CMSIS/Include/cmsis_gcc.h ****   \brief   Reverse byte order (32 bit)
 896:Drivers/CMSIS/Include/cmsis_gcc.h ****   \details Reverses the byte order in unsigned integer value. For example, 0x12345678 becomes 0x785
 897:Drivers/CMSIS/Include/cmsis_gcc.h ****   \param [in]    value  Value to reverse
 898:Drivers/CMSIS/Include/cmsis_gcc.h ****   \return               Reversed value
 899:Drivers/CMSIS/Include/cmsis_gcc.h ****  */
 900:Drivers/CMSIS/Include/cmsis_gcc.h **** __STATIC_FORCEINLINE uint32_t __REV(uint32_t value)
 901:Drivers/CMSIS/Include/cmsis_gcc.h **** {
 902:Drivers/CMSIS/Include/cmsis_gcc.h **** #if (__GNUC__ > 4) || (__GNUC__ == 4 && __GNUC_MINOR__ >= 5)
 903:Drivers/CMSIS/Include/cmsis_gcc.h ****   return __builtin_bswap32(value);
 904:Drivers/CMSIS/Include/cmsis_gcc.h **** #else
 905:Drivers/CMSIS/Include/cmsis_gcc.h ****   uint32_t result;
 906:Drivers/CMSIS/Include/cmsis_gcc.h **** 
 907:Drivers/CMSIS/Include/cmsis_gcc.h ****   __ASM volatile ("rev %0, %1" : __CMSIS_GCC_OUT_REG (result) : __CMSIS_GCC_USE_REG (value) );
 908:Drivers/CMSIS/Include/cmsis_gcc.h ****   return result;
 909:Drivers/CMSIS/Include/cmsis_gcc.h **** #endif
 910:Drivers/CMSIS/Include/cmsis_gcc.h **** }
 911:Drivers/CMSIS/Include/cmsis_gcc.h **** 
ARM GAS  /tmp/ccIpdX1g.s 			page 69


 912:Drivers/CMSIS/Include/cmsis_gcc.h **** 
 913:Drivers/CMSIS/Include/cmsis_gcc.h **** /**
 914:Drivers/CMSIS/Include/cmsis_gcc.h ****   \brief   Reverse byte order (16 bit)
 915:Drivers/CMSIS/Include/cmsis_gcc.h ****   \details Reverses the byte order within each halfword of a word. For example, 0x12345678 becomes 
 916:Drivers/CMSIS/Include/cmsis_gcc.h ****   \param [in]    value  Value to reverse
 917:Drivers/CMSIS/Include/cmsis_gcc.h ****   \return               Reversed value
 918:Drivers/CMSIS/Include/cmsis_gcc.h ****  */
 919:Drivers/CMSIS/Include/cmsis_gcc.h **** __STATIC_FORCEINLINE uint32_t __REV16(uint32_t value)
 920:Drivers/CMSIS/Include/cmsis_gcc.h **** {
 921:Drivers/CMSIS/Include/cmsis_gcc.h ****   uint32_t result;
 922:Drivers/CMSIS/Include/cmsis_gcc.h **** 
 923:Drivers/CMSIS/Include/cmsis_gcc.h ****   __ASM volatile ("rev16 %0, %1" : __CMSIS_GCC_OUT_REG (result) : __CMSIS_GCC_USE_REG (value) );
 924:Drivers/CMSIS/Include/cmsis_gcc.h ****   return result;
 925:Drivers/CMSIS/Include/cmsis_gcc.h **** }
 926:Drivers/CMSIS/Include/cmsis_gcc.h **** 
 927:Drivers/CMSIS/Include/cmsis_gcc.h **** 
 928:Drivers/CMSIS/Include/cmsis_gcc.h **** /**
 929:Drivers/CMSIS/Include/cmsis_gcc.h ****   \brief   Reverse byte order (16 bit)
 930:Drivers/CMSIS/Include/cmsis_gcc.h ****   \details Reverses the byte order in a 16-bit value and returns the signed 16-bit result. For exam
 931:Drivers/CMSIS/Include/cmsis_gcc.h ****   \param [in]    value  Value to reverse
 932:Drivers/CMSIS/Include/cmsis_gcc.h ****   \return               Reversed value
 933:Drivers/CMSIS/Include/cmsis_gcc.h ****  */
 934:Drivers/CMSIS/Include/cmsis_gcc.h **** __STATIC_FORCEINLINE int16_t __REVSH(int16_t value)
 935:Drivers/CMSIS/Include/cmsis_gcc.h **** {
 936:Drivers/CMSIS/Include/cmsis_gcc.h **** #if (__GNUC__ > 4) || (__GNUC__ == 4 && __GNUC_MINOR__ >= 8)
 937:Drivers/CMSIS/Include/cmsis_gcc.h ****   return (int16_t)__builtin_bswap16(value);
 938:Drivers/CMSIS/Include/cmsis_gcc.h **** #else
 939:Drivers/CMSIS/Include/cmsis_gcc.h ****   int16_t result;
 940:Drivers/CMSIS/Include/cmsis_gcc.h **** 
 941:Drivers/CMSIS/Include/cmsis_gcc.h ****   __ASM volatile ("revsh %0, %1" : __CMSIS_GCC_OUT_REG (result) : __CMSIS_GCC_USE_REG (value) );
 942:Drivers/CMSIS/Include/cmsis_gcc.h ****   return result;
 943:Drivers/CMSIS/Include/cmsis_gcc.h **** #endif
 944:Drivers/CMSIS/Include/cmsis_gcc.h **** }
 945:Drivers/CMSIS/Include/cmsis_gcc.h **** 
 946:Drivers/CMSIS/Include/cmsis_gcc.h **** 
 947:Drivers/CMSIS/Include/cmsis_gcc.h **** /**
 948:Drivers/CMSIS/Include/cmsis_gcc.h ****   \brief   Rotate Right in unsigned value (32 bit)
 949:Drivers/CMSIS/Include/cmsis_gcc.h ****   \details Rotate Right (immediate) provides the value of the contents of a register rotated by a v
 950:Drivers/CMSIS/Include/cmsis_gcc.h ****   \param [in]    op1  Value to rotate
 951:Drivers/CMSIS/Include/cmsis_gcc.h ****   \param [in]    op2  Number of Bits to rotate
 952:Drivers/CMSIS/Include/cmsis_gcc.h ****   \return               Rotated value
 953:Drivers/CMSIS/Include/cmsis_gcc.h ****  */
 954:Drivers/CMSIS/Include/cmsis_gcc.h **** __STATIC_FORCEINLINE uint32_t __ROR(uint32_t op1, uint32_t op2)
 955:Drivers/CMSIS/Include/cmsis_gcc.h **** {
 956:Drivers/CMSIS/Include/cmsis_gcc.h ****   op2 %= 32U;
 957:Drivers/CMSIS/Include/cmsis_gcc.h ****   if (op2 == 0U)
 958:Drivers/CMSIS/Include/cmsis_gcc.h ****   {
 959:Drivers/CMSIS/Include/cmsis_gcc.h ****     return op1;
 960:Drivers/CMSIS/Include/cmsis_gcc.h ****   }
 961:Drivers/CMSIS/Include/cmsis_gcc.h ****   return (op1 >> op2) | (op1 << (32U - op2));
 962:Drivers/CMSIS/Include/cmsis_gcc.h **** }
 963:Drivers/CMSIS/Include/cmsis_gcc.h **** 
 964:Drivers/CMSIS/Include/cmsis_gcc.h **** 
 965:Drivers/CMSIS/Include/cmsis_gcc.h **** /**
 966:Drivers/CMSIS/Include/cmsis_gcc.h ****   \brief   Breakpoint
 967:Drivers/CMSIS/Include/cmsis_gcc.h ****   \details Causes the processor to enter Debug state.
 968:Drivers/CMSIS/Include/cmsis_gcc.h ****            Debug tools can use this to investigate system state when the instruction at a particula
ARM GAS  /tmp/ccIpdX1g.s 			page 70


 969:Drivers/CMSIS/Include/cmsis_gcc.h ****   \param [in]    value  is ignored by the processor.
 970:Drivers/CMSIS/Include/cmsis_gcc.h ****                  If required, a debugger can use it to store additional information about the break
 971:Drivers/CMSIS/Include/cmsis_gcc.h ****  */
 972:Drivers/CMSIS/Include/cmsis_gcc.h **** #define __BKPT(value)                       __ASM volatile ("bkpt "#value)
 973:Drivers/CMSIS/Include/cmsis_gcc.h **** 
 974:Drivers/CMSIS/Include/cmsis_gcc.h **** 
 975:Drivers/CMSIS/Include/cmsis_gcc.h **** /**
 976:Drivers/CMSIS/Include/cmsis_gcc.h ****   \brief   Reverse bit order of value
 977:Drivers/CMSIS/Include/cmsis_gcc.h ****   \details Reverses the bit order of the given value.
 978:Drivers/CMSIS/Include/cmsis_gcc.h ****   \param [in]    value  Value to reverse
 979:Drivers/CMSIS/Include/cmsis_gcc.h ****   \return               Reversed value
 980:Drivers/CMSIS/Include/cmsis_gcc.h ****  */
 981:Drivers/CMSIS/Include/cmsis_gcc.h **** __STATIC_FORCEINLINE uint32_t __RBIT(uint32_t value)
 982:Drivers/CMSIS/Include/cmsis_gcc.h **** {
 983:Drivers/CMSIS/Include/cmsis_gcc.h ****   uint32_t result;
 984:Drivers/CMSIS/Include/cmsis_gcc.h **** 
 985:Drivers/CMSIS/Include/cmsis_gcc.h **** #if ((defined (__ARM_ARCH_7M__      ) && (__ARM_ARCH_7M__      == 1)) || \
 986:Drivers/CMSIS/Include/cmsis_gcc.h ****      (defined (__ARM_ARCH_7EM__     ) && (__ARM_ARCH_7EM__     == 1)) || \
 987:Drivers/CMSIS/Include/cmsis_gcc.h ****      (defined (__ARM_ARCH_8M_MAIN__ ) && (__ARM_ARCH_8M_MAIN__ == 1))    )
 988:Drivers/CMSIS/Include/cmsis_gcc.h ****    __ASM volatile ("rbit %0, %1" : "=r" (result) : "r" (value) );
 989:Drivers/CMSIS/Include/cmsis_gcc.h **** #else
 990:Drivers/CMSIS/Include/cmsis_gcc.h ****   uint32_t s = (4U /*sizeof(v)*/ * 8U) - 1U; /* extra shift needed at end */
 991:Drivers/CMSIS/Include/cmsis_gcc.h **** 
 992:Drivers/CMSIS/Include/cmsis_gcc.h ****   result = value;                      /* r will be reversed bits of v; first get LSB of v */
 993:Drivers/CMSIS/Include/cmsis_gcc.h ****   for (value >>= 1U; value != 0U; value >>= 1U)
 994:Drivers/CMSIS/Include/cmsis_gcc.h ****   {
 995:Drivers/CMSIS/Include/cmsis_gcc.h ****     result <<= 1U;
 996:Drivers/CMSIS/Include/cmsis_gcc.h ****     result |= value & 1U;
 997:Drivers/CMSIS/Include/cmsis_gcc.h ****     s--;
 998:Drivers/CMSIS/Include/cmsis_gcc.h ****   }
 999:Drivers/CMSIS/Include/cmsis_gcc.h ****   result <<= s;                        /* shift when v's highest bits are zero */
1000:Drivers/CMSIS/Include/cmsis_gcc.h **** #endif
1001:Drivers/CMSIS/Include/cmsis_gcc.h ****   return result;
1002:Drivers/CMSIS/Include/cmsis_gcc.h **** }
1003:Drivers/CMSIS/Include/cmsis_gcc.h **** 
1004:Drivers/CMSIS/Include/cmsis_gcc.h **** 
1005:Drivers/CMSIS/Include/cmsis_gcc.h **** /**
1006:Drivers/CMSIS/Include/cmsis_gcc.h ****   \brief   Count leading zeros
1007:Drivers/CMSIS/Include/cmsis_gcc.h ****   \details Counts the number of leading zeros of a data value.
1008:Drivers/CMSIS/Include/cmsis_gcc.h ****   \param [in]  value  Value to count the leading zeros
1009:Drivers/CMSIS/Include/cmsis_gcc.h ****   \return             number of leading zeros in value
1010:Drivers/CMSIS/Include/cmsis_gcc.h ****  */
1011:Drivers/CMSIS/Include/cmsis_gcc.h **** #define __CLZ             (uint8_t)__builtin_clz
1012:Drivers/CMSIS/Include/cmsis_gcc.h **** 
1013:Drivers/CMSIS/Include/cmsis_gcc.h **** 
1014:Drivers/CMSIS/Include/cmsis_gcc.h **** #if ((defined (__ARM_ARCH_7M__      ) && (__ARM_ARCH_7M__      == 1)) || \
1015:Drivers/CMSIS/Include/cmsis_gcc.h ****      (defined (__ARM_ARCH_7EM__     ) && (__ARM_ARCH_7EM__     == 1)) || \
1016:Drivers/CMSIS/Include/cmsis_gcc.h ****      (defined (__ARM_ARCH_8M_MAIN__ ) && (__ARM_ARCH_8M_MAIN__ == 1)) || \
1017:Drivers/CMSIS/Include/cmsis_gcc.h ****      (defined (__ARM_ARCH_8M_BASE__ ) && (__ARM_ARCH_8M_BASE__ == 1))    )
1018:Drivers/CMSIS/Include/cmsis_gcc.h **** /**
1019:Drivers/CMSIS/Include/cmsis_gcc.h ****   \brief   LDR Exclusive (8 bit)
1020:Drivers/CMSIS/Include/cmsis_gcc.h ****   \details Executes a exclusive LDR instruction for 8 bit value.
1021:Drivers/CMSIS/Include/cmsis_gcc.h ****   \param [in]    ptr  Pointer to data
1022:Drivers/CMSIS/Include/cmsis_gcc.h ****   \return             value of type uint8_t at (*ptr)
1023:Drivers/CMSIS/Include/cmsis_gcc.h ****  */
1024:Drivers/CMSIS/Include/cmsis_gcc.h **** __STATIC_FORCEINLINE uint8_t __LDREXB(volatile uint8_t *addr)
1025:Drivers/CMSIS/Include/cmsis_gcc.h **** {
ARM GAS  /tmp/ccIpdX1g.s 			page 71


1026:Drivers/CMSIS/Include/cmsis_gcc.h ****     uint32_t result;
1027:Drivers/CMSIS/Include/cmsis_gcc.h **** 
1028:Drivers/CMSIS/Include/cmsis_gcc.h **** #if (__GNUC__ > 4) || (__GNUC__ == 4 && __GNUC_MINOR__ >= 8)
1029:Drivers/CMSIS/Include/cmsis_gcc.h ****    __ASM volatile ("ldrexb %0, %1" : "=r" (result) : "Q" (*addr) );
1030:Drivers/CMSIS/Include/cmsis_gcc.h **** #else
1031:Drivers/CMSIS/Include/cmsis_gcc.h ****     /* Prior to GCC 4.8, "Q" will be expanded to [rx, #0] which is not
1032:Drivers/CMSIS/Include/cmsis_gcc.h ****        accepted by assembler. So has to use following less efficient pattern.
1033:Drivers/CMSIS/Include/cmsis_gcc.h ****     */
1034:Drivers/CMSIS/Include/cmsis_gcc.h ****    __ASM volatile ("ldrexb %0, [%1]" : "=r" (result) : "r" (addr) : "memory" );
1035:Drivers/CMSIS/Include/cmsis_gcc.h **** #endif
1036:Drivers/CMSIS/Include/cmsis_gcc.h ****    return ((uint8_t) result);    /* Add explicit type cast here */
1037:Drivers/CMSIS/Include/cmsis_gcc.h **** }
1038:Drivers/CMSIS/Include/cmsis_gcc.h **** 
1039:Drivers/CMSIS/Include/cmsis_gcc.h **** 
1040:Drivers/CMSIS/Include/cmsis_gcc.h **** /**
1041:Drivers/CMSIS/Include/cmsis_gcc.h ****   \brief   LDR Exclusive (16 bit)
1042:Drivers/CMSIS/Include/cmsis_gcc.h ****   \details Executes a exclusive LDR instruction for 16 bit values.
1043:Drivers/CMSIS/Include/cmsis_gcc.h ****   \param [in]    ptr  Pointer to data
1044:Drivers/CMSIS/Include/cmsis_gcc.h ****   \return        value of type uint16_t at (*ptr)
1045:Drivers/CMSIS/Include/cmsis_gcc.h ****  */
1046:Drivers/CMSIS/Include/cmsis_gcc.h **** __STATIC_FORCEINLINE uint16_t __LDREXH(volatile uint16_t *addr)
1047:Drivers/CMSIS/Include/cmsis_gcc.h **** {
1048:Drivers/CMSIS/Include/cmsis_gcc.h ****     uint32_t result;
1049:Drivers/CMSIS/Include/cmsis_gcc.h **** 
1050:Drivers/CMSIS/Include/cmsis_gcc.h **** #if (__GNUC__ > 4) || (__GNUC__ == 4 && __GNUC_MINOR__ >= 8)
1051:Drivers/CMSIS/Include/cmsis_gcc.h ****    __ASM volatile ("ldrexh %0, %1" : "=r" (result) : "Q" (*addr) );
1052:Drivers/CMSIS/Include/cmsis_gcc.h **** #else
1053:Drivers/CMSIS/Include/cmsis_gcc.h ****     /* Prior to GCC 4.8, "Q" will be expanded to [rx, #0] which is not
1054:Drivers/CMSIS/Include/cmsis_gcc.h ****        accepted by assembler. So has to use following less efficient pattern.
1055:Drivers/CMSIS/Include/cmsis_gcc.h ****     */
1056:Drivers/CMSIS/Include/cmsis_gcc.h ****    __ASM volatile ("ldrexh %0, [%1]" : "=r" (result) : "r" (addr) : "memory" );
1057:Drivers/CMSIS/Include/cmsis_gcc.h **** #endif
1058:Drivers/CMSIS/Include/cmsis_gcc.h ****    return ((uint16_t) result);    /* Add explicit type cast here */
1059:Drivers/CMSIS/Include/cmsis_gcc.h **** }
1060:Drivers/CMSIS/Include/cmsis_gcc.h **** 
1061:Drivers/CMSIS/Include/cmsis_gcc.h **** 
1062:Drivers/CMSIS/Include/cmsis_gcc.h **** /**
1063:Drivers/CMSIS/Include/cmsis_gcc.h ****   \brief   LDR Exclusive (32 bit)
1064:Drivers/CMSIS/Include/cmsis_gcc.h ****   \details Executes a exclusive LDR instruction for 32 bit values.
1065:Drivers/CMSIS/Include/cmsis_gcc.h ****   \param [in]    ptr  Pointer to data
1066:Drivers/CMSIS/Include/cmsis_gcc.h ****   \return        value of type uint32_t at (*ptr)
1067:Drivers/CMSIS/Include/cmsis_gcc.h ****  */
1068:Drivers/CMSIS/Include/cmsis_gcc.h **** __STATIC_FORCEINLINE uint32_t __LDREXW(volatile uint32_t *addr)
1069:Drivers/CMSIS/Include/cmsis_gcc.h **** {
1070:Drivers/CMSIS/Include/cmsis_gcc.h ****     uint32_t result;
1071:Drivers/CMSIS/Include/cmsis_gcc.h **** 
1072:Drivers/CMSIS/Include/cmsis_gcc.h ****    __ASM volatile ("ldrex %0, %1" : "=r" (result) : "Q" (*addr) );
 1544              		.loc 2 1072 4 discriminator 1
 1545 00b6 BB69     		ldr	r3, [r7, #24]
 1546              		.syntax unified
 1547              	@ 1072 "Drivers/CMSIS/Include/cmsis_gcc.h" 1
 1548 00b8 53E8003F 		ldrex r3, [r3]
 1549              	@ 0 "" 2
 1550              		.thumb
 1551              		.syntax unified
 1552 00bc 7B61     		str	r3, [r7, #20]
1073:Drivers/CMSIS/Include/cmsis_gcc.h ****    return(result);
ARM GAS  /tmp/ccIpdX1g.s 			page 72


 1553              		.loc 2 1073 10 discriminator 1
 1554 00be 7B69     		ldr	r3, [r7, #20]
 1555              	.LBE322:
 1556              	.LBE321:
 1557              		.loc 1 1441 5 discriminator 1
 1558 00c0 43F08003 		orr	r3, r3, #128
 1559 00c4 BB62     		str	r3, [r7, #40]
 1560 00c6 FB68     		ldr	r3, [r7, #12]
 1561 00c8 1B68     		ldr	r3, [r3]
 1562 00ca 1433     		adds	r3, r3, #20
 1563 00cc BA6A     		ldr	r2, [r7, #40]
 1564 00ce 7A62     		str	r2, [r7, #36]
 1565 00d0 3B62     		str	r3, [r7, #32]
 1566              	.LBB323:
 1567              	.LBB324:
1074:Drivers/CMSIS/Include/cmsis_gcc.h **** }
1075:Drivers/CMSIS/Include/cmsis_gcc.h **** 
1076:Drivers/CMSIS/Include/cmsis_gcc.h **** 
1077:Drivers/CMSIS/Include/cmsis_gcc.h **** /**
1078:Drivers/CMSIS/Include/cmsis_gcc.h ****   \brief   STR Exclusive (8 bit)
1079:Drivers/CMSIS/Include/cmsis_gcc.h ****   \details Executes a exclusive STR instruction for 8 bit values.
1080:Drivers/CMSIS/Include/cmsis_gcc.h ****   \param [in]  value  Value to store
1081:Drivers/CMSIS/Include/cmsis_gcc.h ****   \param [in]    ptr  Pointer to location
1082:Drivers/CMSIS/Include/cmsis_gcc.h ****   \return          0  Function succeeded
1083:Drivers/CMSIS/Include/cmsis_gcc.h ****   \return          1  Function failed
1084:Drivers/CMSIS/Include/cmsis_gcc.h ****  */
1085:Drivers/CMSIS/Include/cmsis_gcc.h **** __STATIC_FORCEINLINE uint32_t __STREXB(uint8_t value, volatile uint8_t *addr)
1086:Drivers/CMSIS/Include/cmsis_gcc.h **** {
1087:Drivers/CMSIS/Include/cmsis_gcc.h ****    uint32_t result;
1088:Drivers/CMSIS/Include/cmsis_gcc.h **** 
1089:Drivers/CMSIS/Include/cmsis_gcc.h ****    __ASM volatile ("strexb %0, %2, %1" : "=&r" (result), "=Q" (*addr) : "r" ((uint32_t)value) );
1090:Drivers/CMSIS/Include/cmsis_gcc.h ****    return(result);
1091:Drivers/CMSIS/Include/cmsis_gcc.h **** }
1092:Drivers/CMSIS/Include/cmsis_gcc.h **** 
1093:Drivers/CMSIS/Include/cmsis_gcc.h **** 
1094:Drivers/CMSIS/Include/cmsis_gcc.h **** /**
1095:Drivers/CMSIS/Include/cmsis_gcc.h ****   \brief   STR Exclusive (16 bit)
1096:Drivers/CMSIS/Include/cmsis_gcc.h ****   \details Executes a exclusive STR instruction for 16 bit values.
1097:Drivers/CMSIS/Include/cmsis_gcc.h ****   \param [in]  value  Value to store
1098:Drivers/CMSIS/Include/cmsis_gcc.h ****   \param [in]    ptr  Pointer to location
1099:Drivers/CMSIS/Include/cmsis_gcc.h ****   \return          0  Function succeeded
1100:Drivers/CMSIS/Include/cmsis_gcc.h ****   \return          1  Function failed
1101:Drivers/CMSIS/Include/cmsis_gcc.h ****  */
1102:Drivers/CMSIS/Include/cmsis_gcc.h **** __STATIC_FORCEINLINE uint32_t __STREXH(uint16_t value, volatile uint16_t *addr)
1103:Drivers/CMSIS/Include/cmsis_gcc.h **** {
1104:Drivers/CMSIS/Include/cmsis_gcc.h ****    uint32_t result;
1105:Drivers/CMSIS/Include/cmsis_gcc.h **** 
1106:Drivers/CMSIS/Include/cmsis_gcc.h ****    __ASM volatile ("strexh %0, %2, %1" : "=&r" (result), "=Q" (*addr) : "r" ((uint32_t)value) );
1107:Drivers/CMSIS/Include/cmsis_gcc.h ****    return(result);
1108:Drivers/CMSIS/Include/cmsis_gcc.h **** }
1109:Drivers/CMSIS/Include/cmsis_gcc.h **** 
1110:Drivers/CMSIS/Include/cmsis_gcc.h **** 
1111:Drivers/CMSIS/Include/cmsis_gcc.h **** /**
1112:Drivers/CMSIS/Include/cmsis_gcc.h ****   \brief   STR Exclusive (32 bit)
1113:Drivers/CMSIS/Include/cmsis_gcc.h ****   \details Executes a exclusive STR instruction for 32 bit values.
1114:Drivers/CMSIS/Include/cmsis_gcc.h ****   \param [in]  value  Value to store
1115:Drivers/CMSIS/Include/cmsis_gcc.h ****   \param [in]    ptr  Pointer to location
ARM GAS  /tmp/ccIpdX1g.s 			page 73


1116:Drivers/CMSIS/Include/cmsis_gcc.h ****   \return          0  Function succeeded
1117:Drivers/CMSIS/Include/cmsis_gcc.h ****   \return          1  Function failed
1118:Drivers/CMSIS/Include/cmsis_gcc.h ****  */
1119:Drivers/CMSIS/Include/cmsis_gcc.h **** __STATIC_FORCEINLINE uint32_t __STREXW(uint32_t value, volatile uint32_t *addr)
1120:Drivers/CMSIS/Include/cmsis_gcc.h **** {
1121:Drivers/CMSIS/Include/cmsis_gcc.h ****    uint32_t result;
1122:Drivers/CMSIS/Include/cmsis_gcc.h **** 
1123:Drivers/CMSIS/Include/cmsis_gcc.h ****    __ASM volatile ("strex %0, %2, %1" : "=&r" (result), "=Q" (*addr) : "r" (value) );
 1568              		.loc 2 1123 4 discriminator 1
 1569 00d2 396A     		ldr	r1, [r7, #32]
 1570 00d4 7A6A     		ldr	r2, [r7, #36]
 1571              		.syntax unified
 1572              	@ 1123 "Drivers/CMSIS/Include/cmsis_gcc.h" 1
 1573 00d6 41E80023 		strex r3, r2, [r1]
 1574              	@ 0 "" 2
 1575              		.thumb
 1576              		.syntax unified
 1577 00da FB61     		str	r3, [r7, #28]
1124:Drivers/CMSIS/Include/cmsis_gcc.h ****    return(result);
 1578              		.loc 2 1124 10 discriminator 1
 1579 00dc FB69     		ldr	r3, [r7, #28]
 1580              	.LBE324:
 1581              	.LBE323:
 1582              		.loc 1 1441 5 discriminator 1
 1583 00de 002B     		cmp	r3, #0
 1584 00e0 E5D1     		bne	.L72
 1585              	.LBE320:
1442:Drivers/STM32F4xx_HAL_Driver/Src/stm32f4xx_hal_uart.c **** 
1443:Drivers/STM32F4xx_HAL_Driver/Src/stm32f4xx_hal_uart.c ****     return HAL_OK;
 1586              		.loc 1 1443 12
 1587 00e2 0023     		movs	r3, #0
 1588 00e4 00E0     		b	.L68
 1589              	.L65:
1444:Drivers/STM32F4xx_HAL_Driver/Src/stm32f4xx_hal_uart.c ****   }
1445:Drivers/STM32F4xx_HAL_Driver/Src/stm32f4xx_hal_uart.c ****   else
1446:Drivers/STM32F4xx_HAL_Driver/Src/stm32f4xx_hal_uart.c ****   {
1447:Drivers/STM32F4xx_HAL_Driver/Src/stm32f4xx_hal_uart.c ****     return HAL_BUSY;
 1590              		.loc 1 1447 12
 1591 00e6 0223     		movs	r3, #2
 1592              	.L68:
1448:Drivers/STM32F4xx_HAL_Driver/Src/stm32f4xx_hal_uart.c ****   }
1449:Drivers/STM32F4xx_HAL_Driver/Src/stm32f4xx_hal_uart.c **** }
 1593              		.loc 1 1449 1
 1594 00e8 1846     		mov	r0, r3
 1595 00ea 3037     		adds	r7, r7, #48
 1596              	.LCFI61:
 1597              		.cfi_def_cfa_offset 8
 1598 00ec BD46     		mov	sp, r7
 1599              	.LCFI62:
 1600              		.cfi_def_cfa_register 13
 1601              		@ sp needed
 1602 00ee 80BD     		pop	{r7, pc}
 1603              	.L74:
 1604              		.align	2
 1605              	.L73:
 1606 00f0 00000000 		.word	UART_DMATransmitCplt
 1607 00f4 00000000 		.word	UART_DMATxHalfCplt
ARM GAS  /tmp/ccIpdX1g.s 			page 74


 1608 00f8 00000000 		.word	UART_DMAError
 1609              		.cfi_endproc
 1610              	.LFE227:
 1612              		.section	.text.HAL_UART_Receive_DMA,"ax",%progbits
 1613              		.align	1
 1614              		.global	HAL_UART_Receive_DMA
 1615              		.syntax unified
 1616              		.thumb
 1617              		.thumb_func
 1619              	HAL_UART_Receive_DMA:
 1620              	.LFB228:
1450:Drivers/STM32F4xx_HAL_Driver/Src/stm32f4xx_hal_uart.c **** 
1451:Drivers/STM32F4xx_HAL_Driver/Src/stm32f4xx_hal_uart.c **** /**
1452:Drivers/STM32F4xx_HAL_Driver/Src/stm32f4xx_hal_uart.c ****   * @brief  Receives an amount of data in DMA mode.
1453:Drivers/STM32F4xx_HAL_Driver/Src/stm32f4xx_hal_uart.c ****   * @note   When UART parity is not enabled (PCE = 0), and Word Length is configured to 9 bits (M1-
1454:Drivers/STM32F4xx_HAL_Driver/Src/stm32f4xx_hal_uart.c ****   *         the received data is handled as a set of u16. In this case, Size must indicate the numb
1455:Drivers/STM32F4xx_HAL_Driver/Src/stm32f4xx_hal_uart.c ****   *         of u16 available through pData.
1456:Drivers/STM32F4xx_HAL_Driver/Src/stm32f4xx_hal_uart.c ****   * @param  huart Pointer to a UART_HandleTypeDef structure that contains
1457:Drivers/STM32F4xx_HAL_Driver/Src/stm32f4xx_hal_uart.c ****   *               the configuration information for the specified UART module.
1458:Drivers/STM32F4xx_HAL_Driver/Src/stm32f4xx_hal_uart.c ****   * @param  pData Pointer to data buffer (u8 or u16 data elements).
1459:Drivers/STM32F4xx_HAL_Driver/Src/stm32f4xx_hal_uart.c ****   * @param  Size  Amount of data elements (u8 or u16) to be received.
1460:Drivers/STM32F4xx_HAL_Driver/Src/stm32f4xx_hal_uart.c ****   * @note   When the UART parity is enabled (PCE = 1) the received data contains the parity bit.
1461:Drivers/STM32F4xx_HAL_Driver/Src/stm32f4xx_hal_uart.c ****   * @retval HAL status
1462:Drivers/STM32F4xx_HAL_Driver/Src/stm32f4xx_hal_uart.c ****   */
1463:Drivers/STM32F4xx_HAL_Driver/Src/stm32f4xx_hal_uart.c **** HAL_StatusTypeDef HAL_UART_Receive_DMA(UART_HandleTypeDef *huart, uint8_t *pData, uint16_t Size)
1464:Drivers/STM32F4xx_HAL_Driver/Src/stm32f4xx_hal_uart.c **** {
 1621              		.loc 1 1464 1
 1622              		.cfi_startproc
 1623              		@ args = 0, pretend = 0, frame = 16
 1624              		@ frame_needed = 1, uses_anonymous_args = 0
 1625 0000 80B5     		push	{r7, lr}
 1626              	.LCFI63:
 1627              		.cfi_def_cfa_offset 8
 1628              		.cfi_offset 7, -8
 1629              		.cfi_offset 14, -4
 1630 0002 84B0     		sub	sp, sp, #16
 1631              	.LCFI64:
 1632              		.cfi_def_cfa_offset 24
 1633 0004 00AF     		add	r7, sp, #0
 1634              	.LCFI65:
 1635              		.cfi_def_cfa_register 7
 1636 0006 F860     		str	r0, [r7, #12]
 1637 0008 B960     		str	r1, [r7, #8]
 1638 000a 1346     		mov	r3, r2
 1639 000c FB80     		strh	r3, [r7, #6]	@ movhi
1465:Drivers/STM32F4xx_HAL_Driver/Src/stm32f4xx_hal_uart.c ****   /* Check that a Rx process is not already ongoing */
1466:Drivers/STM32F4xx_HAL_Driver/Src/stm32f4xx_hal_uart.c ****   if (huart->RxState == HAL_UART_STATE_READY)
 1640              		.loc 1 1466 12
 1641 000e FB68     		ldr	r3, [r7, #12]
 1642 0010 93F83E30 		ldrb	r3, [r3, #62]
 1643 0014 DBB2     		uxtb	r3, r3
 1644              		.loc 1 1466 6
 1645 0016 202B     		cmp	r3, #32
 1646 0018 1DD1     		bne	.L76
1467:Drivers/STM32F4xx_HAL_Driver/Src/stm32f4xx_hal_uart.c ****   {
1468:Drivers/STM32F4xx_HAL_Driver/Src/stm32f4xx_hal_uart.c ****     if ((pData == NULL) || (Size == 0U))
 1647              		.loc 1 1468 8
ARM GAS  /tmp/ccIpdX1g.s 			page 75


 1648 001a BB68     		ldr	r3, [r7, #8]
 1649 001c 002B     		cmp	r3, #0
 1650 001e 02D0     		beq	.L77
 1651              		.loc 1 1468 25 discriminator 1
 1652 0020 FB88     		ldrh	r3, [r7, #6]
 1653 0022 002B     		cmp	r3, #0
 1654 0024 01D1     		bne	.L78
 1655              	.L77:
1469:Drivers/STM32F4xx_HAL_Driver/Src/stm32f4xx_hal_uart.c ****     {
1470:Drivers/STM32F4xx_HAL_Driver/Src/stm32f4xx_hal_uart.c ****       return HAL_ERROR;
 1656              		.loc 1 1470 14
 1657 0026 0123     		movs	r3, #1
 1658 0028 16E0     		b	.L79
 1659              	.L78:
1471:Drivers/STM32F4xx_HAL_Driver/Src/stm32f4xx_hal_uart.c ****     }
1472:Drivers/STM32F4xx_HAL_Driver/Src/stm32f4xx_hal_uart.c **** 
1473:Drivers/STM32F4xx_HAL_Driver/Src/stm32f4xx_hal_uart.c ****     /* Process Locked */
1474:Drivers/STM32F4xx_HAL_Driver/Src/stm32f4xx_hal_uart.c ****     __HAL_LOCK(huart);
 1660              		.loc 1 1474 5
 1661 002a FB68     		ldr	r3, [r7, #12]
 1662 002c 93F83C30 		ldrb	r3, [r3, #60]	@ zero_extendqisi2
 1663 0030 012B     		cmp	r3, #1
 1664 0032 01D1     		bne	.L80
 1665              		.loc 1 1474 5 is_stmt 0 discriminator 1
 1666 0034 0223     		movs	r3, #2
 1667 0036 0FE0     		b	.L79
 1668              	.L80:
 1669              		.loc 1 1474 5 discriminator 2
 1670 0038 FB68     		ldr	r3, [r7, #12]
 1671 003a 0122     		movs	r2, #1
 1672 003c 83F83C20 		strb	r2, [r3, #60]
1475:Drivers/STM32F4xx_HAL_Driver/Src/stm32f4xx_hal_uart.c **** 
1476:Drivers/STM32F4xx_HAL_Driver/Src/stm32f4xx_hal_uart.c ****     /* Set Reception type to Standard reception */
1477:Drivers/STM32F4xx_HAL_Driver/Src/stm32f4xx_hal_uart.c ****     huart->ReceptionType = HAL_UART_RECEPTION_STANDARD;
 1673              		.loc 1 1477 26 is_stmt 1 discriminator 2
 1674 0040 FB68     		ldr	r3, [r7, #12]
 1675 0042 0022     		movs	r2, #0
 1676 0044 1A63     		str	r2, [r3, #48]
1478:Drivers/STM32F4xx_HAL_Driver/Src/stm32f4xx_hal_uart.c **** 
1479:Drivers/STM32F4xx_HAL_Driver/Src/stm32f4xx_hal_uart.c ****     return (UART_Start_Receive_DMA(huart, pData, Size));
 1677              		.loc 1 1479 13 discriminator 2
 1678 0046 FB88     		ldrh	r3, [r7, #6]
 1679 0048 1A46     		mov	r2, r3
 1680 004a B968     		ldr	r1, [r7, #8]
 1681 004c F868     		ldr	r0, [r7, #12]
 1682 004e FFF7FEFF 		bl	UART_Start_Receive_DMA
 1683 0052 0346     		mov	r3, r0
 1684 0054 00E0     		b	.L79
 1685              	.L76:
1480:Drivers/STM32F4xx_HAL_Driver/Src/stm32f4xx_hal_uart.c ****   }
1481:Drivers/STM32F4xx_HAL_Driver/Src/stm32f4xx_hal_uart.c ****   else
1482:Drivers/STM32F4xx_HAL_Driver/Src/stm32f4xx_hal_uart.c ****   {
1483:Drivers/STM32F4xx_HAL_Driver/Src/stm32f4xx_hal_uart.c ****     return HAL_BUSY;
 1686              		.loc 1 1483 12
 1687 0056 0223     		movs	r3, #2
 1688              	.L79:
1484:Drivers/STM32F4xx_HAL_Driver/Src/stm32f4xx_hal_uart.c ****   }
ARM GAS  /tmp/ccIpdX1g.s 			page 76


1485:Drivers/STM32F4xx_HAL_Driver/Src/stm32f4xx_hal_uart.c **** }
 1689              		.loc 1 1485 1
 1690 0058 1846     		mov	r0, r3
 1691 005a 1037     		adds	r7, r7, #16
 1692              	.LCFI66:
 1693              		.cfi_def_cfa_offset 8
 1694 005c BD46     		mov	sp, r7
 1695              	.LCFI67:
 1696              		.cfi_def_cfa_register 13
 1697              		@ sp needed
 1698 005e 80BD     		pop	{r7, pc}
 1699              		.cfi_endproc
 1700              	.LFE228:
 1702              		.section	.text.HAL_UART_DMAPause,"ax",%progbits
 1703              		.align	1
 1704              		.global	HAL_UART_DMAPause
 1705              		.syntax unified
 1706              		.thumb
 1707              		.thumb_func
 1709              	HAL_UART_DMAPause:
 1710              	.LFB229:
1486:Drivers/STM32F4xx_HAL_Driver/Src/stm32f4xx_hal_uart.c **** 
1487:Drivers/STM32F4xx_HAL_Driver/Src/stm32f4xx_hal_uart.c **** /**
1488:Drivers/STM32F4xx_HAL_Driver/Src/stm32f4xx_hal_uart.c ****   * @brief Pauses the DMA Transfer.
1489:Drivers/STM32F4xx_HAL_Driver/Src/stm32f4xx_hal_uart.c ****   * @param  huart  Pointer to a UART_HandleTypeDef structure that contains
1490:Drivers/STM32F4xx_HAL_Driver/Src/stm32f4xx_hal_uart.c ****   *                the configuration information for the specified UART module.
1491:Drivers/STM32F4xx_HAL_Driver/Src/stm32f4xx_hal_uart.c ****   * @retval HAL status
1492:Drivers/STM32F4xx_HAL_Driver/Src/stm32f4xx_hal_uart.c ****   */
1493:Drivers/STM32F4xx_HAL_Driver/Src/stm32f4xx_hal_uart.c **** HAL_StatusTypeDef HAL_UART_DMAPause(UART_HandleTypeDef *huart)
1494:Drivers/STM32F4xx_HAL_Driver/Src/stm32f4xx_hal_uart.c **** {
 1711              		.loc 1 1494 1
 1712              		.cfi_startproc
 1713              		@ args = 0, pretend = 0, frame = 112
 1714              		@ frame_needed = 1, uses_anonymous_args = 0
 1715              		@ link register save eliminated.
 1716 0000 80B4     		push	{r7}
 1717              	.LCFI68:
 1718              		.cfi_def_cfa_offset 4
 1719              		.cfi_offset 7, -4
 1720 0002 9DB0     		sub	sp, sp, #116
 1721              	.LCFI69:
 1722              		.cfi_def_cfa_offset 120
 1723 0004 00AF     		add	r7, sp, #0
 1724              	.LCFI70:
 1725              		.cfi_def_cfa_register 7
 1726 0006 7860     		str	r0, [r7, #4]
1495:Drivers/STM32F4xx_HAL_Driver/Src/stm32f4xx_hal_uart.c ****   uint32_t dmarequest = 0x00U;
 1727              		.loc 1 1495 12
 1728 0008 0023     		movs	r3, #0
 1729 000a FB66     		str	r3, [r7, #108]
1496:Drivers/STM32F4xx_HAL_Driver/Src/stm32f4xx_hal_uart.c **** 
1497:Drivers/STM32F4xx_HAL_Driver/Src/stm32f4xx_hal_uart.c ****   /* Process Locked */
1498:Drivers/STM32F4xx_HAL_Driver/Src/stm32f4xx_hal_uart.c ****   __HAL_LOCK(huart);
 1730              		.loc 1 1498 3
 1731 000c 7B68     		ldr	r3, [r7, #4]
 1732 000e 93F83C30 		ldrb	r3, [r3, #60]	@ zero_extendqisi2
 1733 0012 012B     		cmp	r3, #1
ARM GAS  /tmp/ccIpdX1g.s 			page 77


 1734 0014 01D1     		bne	.L82
 1735              		.loc 1 1498 3 is_stmt 0 discriminator 1
 1736 0016 0223     		movs	r3, #2
 1737 0018 98E0     		b	.L83
 1738              	.L82:
 1739              		.loc 1 1498 3 discriminator 2
 1740 001a 7B68     		ldr	r3, [r7, #4]
 1741 001c 0122     		movs	r2, #1
 1742 001e 83F83C20 		strb	r2, [r3, #60]
1499:Drivers/STM32F4xx_HAL_Driver/Src/stm32f4xx_hal_uart.c **** 
1500:Drivers/STM32F4xx_HAL_Driver/Src/stm32f4xx_hal_uart.c ****   dmarequest = HAL_IS_BIT_SET(huart->Instance->CR3, USART_CR3_DMAT);
 1743              		.loc 1 1500 16 is_stmt 1 discriminator 2
 1744 0022 7B68     		ldr	r3, [r7, #4]
 1745 0024 1B68     		ldr	r3, [r3]
 1746 0026 5B69     		ldr	r3, [r3, #20]
 1747 0028 03F08003 		and	r3, r3, #128
 1748 002c 802B     		cmp	r3, #128
 1749 002e 0CBF     		ite	eq
 1750 0030 0123     		moveq	r3, #1
 1751 0032 0023     		movne	r3, #0
 1752 0034 DBB2     		uxtb	r3, r3
 1753              		.loc 1 1500 14 discriminator 2
 1754 0036 FB66     		str	r3, [r7, #108]
1501:Drivers/STM32F4xx_HAL_Driver/Src/stm32f4xx_hal_uart.c ****   if ((huart->gState == HAL_UART_STATE_BUSY_TX) && dmarequest)
 1755              		.loc 1 1501 13 discriminator 2
 1756 0038 7B68     		ldr	r3, [r7, #4]
 1757 003a 93F83D30 		ldrb	r3, [r3, #61]
 1758 003e DBB2     		uxtb	r3, r3
 1759              		.loc 1 1501 6 discriminator 2
 1760 0040 212B     		cmp	r3, #33
 1761 0042 1CD1     		bne	.L84
 1762              		.loc 1 1501 49 discriminator 1
 1763 0044 FB6E     		ldr	r3, [r7, #108]
 1764 0046 002B     		cmp	r3, #0
 1765 0048 19D0     		beq	.L84
 1766              	.L87:
 1767              	.LBB325:
1502:Drivers/STM32F4xx_HAL_Driver/Src/stm32f4xx_hal_uart.c ****   {
1503:Drivers/STM32F4xx_HAL_Driver/Src/stm32f4xx_hal_uart.c ****     /* Disable the UART DMA Tx request */
1504:Drivers/STM32F4xx_HAL_Driver/Src/stm32f4xx_hal_uart.c ****     ATOMIC_CLEAR_BIT(huart->Instance->CR3, USART_CR3_DMAT);
 1768              		.loc 1 1504 5 discriminator 1
 1769 004a 7B68     		ldr	r3, [r7, #4]
 1770 004c 1B68     		ldr	r3, [r3]
 1771 004e 1433     		adds	r3, r3, #20
 1772 0050 FB64     		str	r3, [r7, #76]
 1773              	.LBB326:
 1774              	.LBB327:
1072:Drivers/CMSIS/Include/cmsis_gcc.h ****    return(result);
 1775              		.loc 2 1072 4 discriminator 1
 1776 0052 FB6C     		ldr	r3, [r7, #76]
 1777              		.syntax unified
 1778              	@ 1072 "Drivers/CMSIS/Include/cmsis_gcc.h" 1
 1779 0054 53E8003F 		ldrex r3, [r3]
 1780              	@ 0 "" 2
 1781              		.thumb
 1782              		.syntax unified
 1783 0058 BB64     		str	r3, [r7, #72]
ARM GAS  /tmp/ccIpdX1g.s 			page 78


1073:Drivers/CMSIS/Include/cmsis_gcc.h **** }
 1784              		.loc 2 1073 10 discriminator 1
 1785 005a BB6C     		ldr	r3, [r7, #72]
 1786              	.LBE327:
 1787              	.LBE326:
 1788              		.loc 1 1504 5 discriminator 1
 1789 005c 23F08003 		bic	r3, r3, #128
 1790 0060 BB66     		str	r3, [r7, #104]
 1791 0062 7B68     		ldr	r3, [r7, #4]
 1792 0064 1B68     		ldr	r3, [r3]
 1793 0066 1433     		adds	r3, r3, #20
 1794 0068 BA6E     		ldr	r2, [r7, #104]
 1795 006a BA65     		str	r2, [r7, #88]
 1796 006c 7B65     		str	r3, [r7, #84]
 1797              	.LBB328:
 1798              	.LBB329:
1123:Drivers/CMSIS/Include/cmsis_gcc.h ****    return(result);
 1799              		.loc 2 1123 4 discriminator 1
 1800 006e 796D     		ldr	r1, [r7, #84]
 1801 0070 BA6D     		ldr	r2, [r7, #88]
 1802              		.syntax unified
 1803              	@ 1123 "Drivers/CMSIS/Include/cmsis_gcc.h" 1
 1804 0072 41E80023 		strex r3, r2, [r1]
 1805              	@ 0 "" 2
 1806              		.thumb
 1807              		.syntax unified
 1808 0076 3B65     		str	r3, [r7, #80]
 1809              		.loc 2 1124 10 discriminator 1
 1810 0078 3B6D     		ldr	r3, [r7, #80]
 1811              	.LBE329:
 1812              	.LBE328:
 1813              		.loc 1 1504 5 discriminator 1
 1814 007a 002B     		cmp	r3, #0
 1815 007c E5D1     		bne	.L87
 1816              	.L84:
 1817              	.LBE325:
1505:Drivers/STM32F4xx_HAL_Driver/Src/stm32f4xx_hal_uart.c ****   }
1506:Drivers/STM32F4xx_HAL_Driver/Src/stm32f4xx_hal_uart.c **** 
1507:Drivers/STM32F4xx_HAL_Driver/Src/stm32f4xx_hal_uart.c ****   dmarequest = HAL_IS_BIT_SET(huart->Instance->CR3, USART_CR3_DMAR);
 1818              		.loc 1 1507 16
 1819 007e 7B68     		ldr	r3, [r7, #4]
 1820 0080 1B68     		ldr	r3, [r3]
 1821 0082 5B69     		ldr	r3, [r3, #20]
 1822 0084 03F04003 		and	r3, r3, #64
 1823 0088 402B     		cmp	r3, #64
 1824 008a 0CBF     		ite	eq
 1825 008c 0123     		moveq	r3, #1
 1826 008e 0023     		movne	r3, #0
 1827 0090 DBB2     		uxtb	r3, r3
 1828              		.loc 1 1507 14
 1829 0092 FB66     		str	r3, [r7, #108]
1508:Drivers/STM32F4xx_HAL_Driver/Src/stm32f4xx_hal_uart.c ****   if ((huart->RxState == HAL_UART_STATE_BUSY_RX) && dmarequest)
 1830              		.loc 1 1508 13
 1831 0094 7B68     		ldr	r3, [r7, #4]
 1832 0096 93F83E30 		ldrb	r3, [r3, #62]
 1833 009a DBB2     		uxtb	r3, r3
 1834              		.loc 1 1508 6
ARM GAS  /tmp/ccIpdX1g.s 			page 79


 1835 009c 222B     		cmp	r3, #34
 1836 009e 50D1     		bne	.L88
 1837              		.loc 1 1508 50 discriminator 1
 1838 00a0 FB6E     		ldr	r3, [r7, #108]
 1839 00a2 002B     		cmp	r3, #0
 1840 00a4 4DD0     		beq	.L88
 1841              	.L91:
 1842              	.LBB330:
1509:Drivers/STM32F4xx_HAL_Driver/Src/stm32f4xx_hal_uart.c ****   {
1510:Drivers/STM32F4xx_HAL_Driver/Src/stm32f4xx_hal_uart.c ****     /* Disable RXNE, PE and ERR (Frame error, noise error, overrun error) interrupts */
1511:Drivers/STM32F4xx_HAL_Driver/Src/stm32f4xx_hal_uart.c ****     ATOMIC_CLEAR_BIT(huart->Instance->CR1, USART_CR1_PEIE);
 1843              		.loc 1 1511 5 discriminator 1
 1844 00a6 7B68     		ldr	r3, [r7, #4]
 1845 00a8 1B68     		ldr	r3, [r3]
 1846 00aa 0C33     		adds	r3, r3, #12
 1847 00ac BB63     		str	r3, [r7, #56]
 1848              	.LBB331:
 1849              	.LBB332:
1072:Drivers/CMSIS/Include/cmsis_gcc.h ****    return(result);
 1850              		.loc 2 1072 4 discriminator 1
 1851 00ae BB6B     		ldr	r3, [r7, #56]
 1852              		.syntax unified
 1853              	@ 1072 "Drivers/CMSIS/Include/cmsis_gcc.h" 1
 1854 00b0 53E8003F 		ldrex r3, [r3]
 1855              	@ 0 "" 2
 1856              		.thumb
 1857              		.syntax unified
 1858 00b4 7B63     		str	r3, [r7, #52]
1073:Drivers/CMSIS/Include/cmsis_gcc.h **** }
 1859              		.loc 2 1073 10 discriminator 1
 1860 00b6 7B6B     		ldr	r3, [r7, #52]
 1861              	.LBE332:
 1862              	.LBE331:
 1863              		.loc 1 1511 5 discriminator 1
 1864 00b8 23F48073 		bic	r3, r3, #256
 1865 00bc 7B66     		str	r3, [r7, #100]
 1866 00be 7B68     		ldr	r3, [r7, #4]
 1867 00c0 1B68     		ldr	r3, [r3]
 1868 00c2 0C33     		adds	r3, r3, #12
 1869 00c4 7A6E     		ldr	r2, [r7, #100]
 1870 00c6 7A64     		str	r2, [r7, #68]
 1871 00c8 3B64     		str	r3, [r7, #64]
 1872              	.LBB333:
 1873              	.LBB334:
1123:Drivers/CMSIS/Include/cmsis_gcc.h ****    return(result);
 1874              		.loc 2 1123 4 discriminator 1
 1875 00ca 396C     		ldr	r1, [r7, #64]
 1876 00cc 7A6C     		ldr	r2, [r7, #68]
 1877              		.syntax unified
 1878              	@ 1123 "Drivers/CMSIS/Include/cmsis_gcc.h" 1
 1879 00ce 41E80023 		strex r3, r2, [r1]
 1880              	@ 0 "" 2
 1881              		.thumb
 1882              		.syntax unified
 1883 00d2 FB63     		str	r3, [r7, #60]
 1884              		.loc 2 1124 10 discriminator 1
 1885 00d4 FB6B     		ldr	r3, [r7, #60]
ARM GAS  /tmp/ccIpdX1g.s 			page 80


 1886              	.LBE334:
 1887              	.LBE333:
 1888              		.loc 1 1511 5 discriminator 1
 1889 00d6 002B     		cmp	r3, #0
 1890 00d8 E5D1     		bne	.L91
 1891              	.L94:
 1892              	.LBE330:
 1893              	.LBB335:
1512:Drivers/STM32F4xx_HAL_Driver/Src/stm32f4xx_hal_uart.c ****     ATOMIC_CLEAR_BIT(huart->Instance->CR3, USART_CR3_EIE);
 1894              		.loc 1 1512 5 discriminator 1
 1895 00da 7B68     		ldr	r3, [r7, #4]
 1896 00dc 1B68     		ldr	r3, [r3]
 1897 00de 1433     		adds	r3, r3, #20
 1898 00e0 7B62     		str	r3, [r7, #36]
 1899              	.LBB336:
 1900              	.LBB337:
1072:Drivers/CMSIS/Include/cmsis_gcc.h ****    return(result);
 1901              		.loc 2 1072 4 discriminator 1
 1902 00e2 7B6A     		ldr	r3, [r7, #36]
 1903              		.syntax unified
 1904              	@ 1072 "Drivers/CMSIS/Include/cmsis_gcc.h" 1
 1905 00e4 53E8003F 		ldrex r3, [r3]
 1906              	@ 0 "" 2
 1907              		.thumb
 1908              		.syntax unified
 1909 00e8 3B62     		str	r3, [r7, #32]
1073:Drivers/CMSIS/Include/cmsis_gcc.h **** }
 1910              		.loc 2 1073 10 discriminator 1
 1911 00ea 3B6A     		ldr	r3, [r7, #32]
 1912              	.LBE337:
 1913              	.LBE336:
 1914              		.loc 1 1512 5 discriminator 1
 1915 00ec 23F00103 		bic	r3, r3, #1
 1916 00f0 3B66     		str	r3, [r7, #96]
 1917 00f2 7B68     		ldr	r3, [r7, #4]
 1918 00f4 1B68     		ldr	r3, [r3]
 1919 00f6 1433     		adds	r3, r3, #20
 1920 00f8 3A6E     		ldr	r2, [r7, #96]
 1921 00fa 3A63     		str	r2, [r7, #48]
 1922 00fc FB62     		str	r3, [r7, #44]
 1923              	.LBB338:
 1924              	.LBB339:
1123:Drivers/CMSIS/Include/cmsis_gcc.h ****    return(result);
 1925              		.loc 2 1123 4 discriminator 1
 1926 00fe F96A     		ldr	r1, [r7, #44]
 1927 0100 3A6B     		ldr	r2, [r7, #48]
 1928              		.syntax unified
 1929              	@ 1123 "Drivers/CMSIS/Include/cmsis_gcc.h" 1
 1930 0102 41E80023 		strex r3, r2, [r1]
 1931              	@ 0 "" 2
 1932              		.thumb
 1933              		.syntax unified
 1934 0106 BB62     		str	r3, [r7, #40]
 1935              		.loc 2 1124 10 discriminator 1
 1936 0108 BB6A     		ldr	r3, [r7, #40]
 1937              	.LBE339:
 1938              	.LBE338:
ARM GAS  /tmp/ccIpdX1g.s 			page 81


 1939              		.loc 1 1512 5 discriminator 1
 1940 010a 002B     		cmp	r3, #0
 1941 010c E5D1     		bne	.L94
 1942              	.L97:
 1943              	.LBE335:
 1944              	.LBB340:
1513:Drivers/STM32F4xx_HAL_Driver/Src/stm32f4xx_hal_uart.c **** 
1514:Drivers/STM32F4xx_HAL_Driver/Src/stm32f4xx_hal_uart.c ****     /* Disable the UART DMA Rx request */
1515:Drivers/STM32F4xx_HAL_Driver/Src/stm32f4xx_hal_uart.c ****     ATOMIC_CLEAR_BIT(huart->Instance->CR3, USART_CR3_DMAR);
 1945              		.loc 1 1515 5 discriminator 1
 1946 010e 7B68     		ldr	r3, [r7, #4]
 1947 0110 1B68     		ldr	r3, [r3]
 1948 0112 1433     		adds	r3, r3, #20
 1949 0114 3B61     		str	r3, [r7, #16]
 1950              	.LBB341:
 1951              	.LBB342:
1072:Drivers/CMSIS/Include/cmsis_gcc.h ****    return(result);
 1952              		.loc 2 1072 4 discriminator 1
 1953 0116 3B69     		ldr	r3, [r7, #16]
 1954              		.syntax unified
 1955              	@ 1072 "Drivers/CMSIS/Include/cmsis_gcc.h" 1
 1956 0118 53E8003F 		ldrex r3, [r3]
 1957              	@ 0 "" 2
 1958              		.thumb
 1959              		.syntax unified
 1960 011c FB60     		str	r3, [r7, #12]
1073:Drivers/CMSIS/Include/cmsis_gcc.h **** }
 1961              		.loc 2 1073 10 discriminator 1
 1962 011e FB68     		ldr	r3, [r7, #12]
 1963              	.LBE342:
 1964              	.LBE341:
 1965              		.loc 1 1515 5 discriminator 1
 1966 0120 23F04003 		bic	r3, r3, #64
 1967 0124 FB65     		str	r3, [r7, #92]
 1968 0126 7B68     		ldr	r3, [r7, #4]
 1969 0128 1B68     		ldr	r3, [r3]
 1970 012a 1433     		adds	r3, r3, #20
 1971 012c FA6D     		ldr	r2, [r7, #92]
 1972 012e FA61     		str	r2, [r7, #28]
 1973 0130 BB61     		str	r3, [r7, #24]
 1974              	.LBB343:
 1975              	.LBB344:
1123:Drivers/CMSIS/Include/cmsis_gcc.h ****    return(result);
 1976              		.loc 2 1123 4 discriminator 1
 1977 0132 B969     		ldr	r1, [r7, #24]
 1978 0134 FA69     		ldr	r2, [r7, #28]
 1979              		.syntax unified
 1980              	@ 1123 "Drivers/CMSIS/Include/cmsis_gcc.h" 1
 1981 0136 41E80023 		strex r3, r2, [r1]
 1982              	@ 0 "" 2
 1983              		.thumb
 1984              		.syntax unified
 1985 013a 7B61     		str	r3, [r7, #20]
 1986              		.loc 2 1124 10 discriminator 1
 1987 013c 7B69     		ldr	r3, [r7, #20]
 1988              	.LBE344:
 1989              	.LBE343:
ARM GAS  /tmp/ccIpdX1g.s 			page 82


 1990              		.loc 1 1515 5 discriminator 1
 1991 013e 002B     		cmp	r3, #0
 1992 0140 E5D1     		bne	.L97
 1993              	.L88:
 1994              	.LBE340:
1516:Drivers/STM32F4xx_HAL_Driver/Src/stm32f4xx_hal_uart.c ****   }
1517:Drivers/STM32F4xx_HAL_Driver/Src/stm32f4xx_hal_uart.c **** 
1518:Drivers/STM32F4xx_HAL_Driver/Src/stm32f4xx_hal_uart.c ****   /* Process Unlocked */
1519:Drivers/STM32F4xx_HAL_Driver/Src/stm32f4xx_hal_uart.c ****   __HAL_UNLOCK(huart);
 1995              		.loc 1 1519 3
 1996 0142 7B68     		ldr	r3, [r7, #4]
 1997 0144 0022     		movs	r2, #0
 1998 0146 83F83C20 		strb	r2, [r3, #60]
1520:Drivers/STM32F4xx_HAL_Driver/Src/stm32f4xx_hal_uart.c **** 
1521:Drivers/STM32F4xx_HAL_Driver/Src/stm32f4xx_hal_uart.c ****   return HAL_OK;
 1999              		.loc 1 1521 10
 2000 014a 0023     		movs	r3, #0
 2001              	.L83:
1522:Drivers/STM32F4xx_HAL_Driver/Src/stm32f4xx_hal_uart.c **** }
 2002              		.loc 1 1522 1
 2003 014c 1846     		mov	r0, r3
 2004 014e 7437     		adds	r7, r7, #116
 2005              	.LCFI71:
 2006              		.cfi_def_cfa_offset 4
 2007 0150 BD46     		mov	sp, r7
 2008              	.LCFI72:
 2009              		.cfi_def_cfa_register 13
 2010              		@ sp needed
 2011 0152 5DF8047B 		ldr	r7, [sp], #4
 2012              	.LCFI73:
 2013              		.cfi_restore 7
 2014              		.cfi_def_cfa_offset 0
 2015 0156 7047     		bx	lr
 2016              		.cfi_endproc
 2017              	.LFE229:
 2019              		.section	.text.HAL_UART_DMAResume,"ax",%progbits
 2020              		.align	1
 2021              		.global	HAL_UART_DMAResume
 2022              		.syntax unified
 2023              		.thumb
 2024              		.thumb_func
 2026              	HAL_UART_DMAResume:
 2027              	.LFB230:
1523:Drivers/STM32F4xx_HAL_Driver/Src/stm32f4xx_hal_uart.c **** 
1524:Drivers/STM32F4xx_HAL_Driver/Src/stm32f4xx_hal_uart.c **** /**
1525:Drivers/STM32F4xx_HAL_Driver/Src/stm32f4xx_hal_uart.c ****   * @brief Resumes the DMA Transfer.
1526:Drivers/STM32F4xx_HAL_Driver/Src/stm32f4xx_hal_uart.c ****   * @param  huart  Pointer to a UART_HandleTypeDef structure that contains
1527:Drivers/STM32F4xx_HAL_Driver/Src/stm32f4xx_hal_uart.c ****   *                the configuration information for the specified UART module.
1528:Drivers/STM32F4xx_HAL_Driver/Src/stm32f4xx_hal_uart.c ****   * @retval HAL status
1529:Drivers/STM32F4xx_HAL_Driver/Src/stm32f4xx_hal_uart.c ****   */
1530:Drivers/STM32F4xx_HAL_Driver/Src/stm32f4xx_hal_uart.c **** HAL_StatusTypeDef HAL_UART_DMAResume(UART_HandleTypeDef *huart)
1531:Drivers/STM32F4xx_HAL_Driver/Src/stm32f4xx_hal_uart.c **** {
 2028              		.loc 1 1531 1
 2029              		.cfi_startproc
 2030              		@ args = 0, pretend = 0, frame = 112
 2031              		@ frame_needed = 1, uses_anonymous_args = 0
 2032              		@ link register save eliminated.
ARM GAS  /tmp/ccIpdX1g.s 			page 83


 2033 0000 80B4     		push	{r7}
 2034              	.LCFI74:
 2035              		.cfi_def_cfa_offset 4
 2036              		.cfi_offset 7, -4
 2037 0002 9DB0     		sub	sp, sp, #116
 2038              	.LCFI75:
 2039              		.cfi_def_cfa_offset 120
 2040 0004 00AF     		add	r7, sp, #0
 2041              	.LCFI76:
 2042              		.cfi_def_cfa_register 7
 2043 0006 7860     		str	r0, [r7, #4]
1532:Drivers/STM32F4xx_HAL_Driver/Src/stm32f4xx_hal_uart.c ****   /* Process Locked */
1533:Drivers/STM32F4xx_HAL_Driver/Src/stm32f4xx_hal_uart.c ****   __HAL_LOCK(huart);
 2044              		.loc 1 1533 3
 2045 0008 7B68     		ldr	r3, [r7, #4]
 2046 000a 93F83C30 		ldrb	r3, [r3, #60]	@ zero_extendqisi2
 2047 000e 012B     		cmp	r3, #1
 2048 0010 01D1     		bne	.L99
 2049              		.loc 1 1533 3 is_stmt 0 discriminator 1
 2050 0012 0223     		movs	r3, #2
 2051 0014 8BE0     		b	.L100
 2052              	.L99:
 2053              		.loc 1 1533 3 discriminator 2
 2054 0016 7B68     		ldr	r3, [r7, #4]
 2055 0018 0122     		movs	r2, #1
 2056 001a 83F83C20 		strb	r2, [r3, #60]
1534:Drivers/STM32F4xx_HAL_Driver/Src/stm32f4xx_hal_uart.c **** 
1535:Drivers/STM32F4xx_HAL_Driver/Src/stm32f4xx_hal_uart.c ****   if (huart->gState == HAL_UART_STATE_BUSY_TX)
 2057              		.loc 1 1535 12 is_stmt 1 discriminator 2
 2058 001e 7B68     		ldr	r3, [r7, #4]
 2059 0020 93F83D30 		ldrb	r3, [r3, #61]
 2060 0024 DBB2     		uxtb	r3, r3
 2061              		.loc 1 1535 6 discriminator 2
 2062 0026 212B     		cmp	r3, #33
 2063 0028 19D1     		bne	.L101
 2064              	.L104:
 2065              	.LBB345:
1536:Drivers/STM32F4xx_HAL_Driver/Src/stm32f4xx_hal_uart.c ****   {
1537:Drivers/STM32F4xx_HAL_Driver/Src/stm32f4xx_hal_uart.c ****     /* Enable the UART DMA Tx request */
1538:Drivers/STM32F4xx_HAL_Driver/Src/stm32f4xx_hal_uart.c ****     ATOMIC_SET_BIT(huart->Instance->CR3, USART_CR3_DMAT);
 2066              		.loc 1 1538 5 discriminator 1
 2067 002a 7B68     		ldr	r3, [r7, #4]
 2068 002c 1B68     		ldr	r3, [r3]
 2069 002e 1433     		adds	r3, r3, #20
 2070 0030 3B65     		str	r3, [r7, #80]
 2071              	.LBB346:
 2072              	.LBB347:
1072:Drivers/CMSIS/Include/cmsis_gcc.h ****    return(result);
 2073              		.loc 2 1072 4 discriminator 1
 2074 0032 3B6D     		ldr	r3, [r7, #80]
 2075              		.syntax unified
 2076              	@ 1072 "Drivers/CMSIS/Include/cmsis_gcc.h" 1
 2077 0034 53E8003F 		ldrex r3, [r3]
 2078              	@ 0 "" 2
 2079              		.thumb
 2080              		.syntax unified
 2081 0038 FB64     		str	r3, [r7, #76]
ARM GAS  /tmp/ccIpdX1g.s 			page 84


1073:Drivers/CMSIS/Include/cmsis_gcc.h **** }
 2082              		.loc 2 1073 10 discriminator 1
 2083 003a FB6C     		ldr	r3, [r7, #76]
 2084              	.LBE347:
 2085              	.LBE346:
 2086              		.loc 1 1538 5 discriminator 1
 2087 003c 43F08003 		orr	r3, r3, #128
 2088 0040 FB66     		str	r3, [r7, #108]
 2089 0042 7B68     		ldr	r3, [r7, #4]
 2090 0044 1B68     		ldr	r3, [r3]
 2091 0046 1433     		adds	r3, r3, #20
 2092 0048 FA6E     		ldr	r2, [r7, #108]
 2093 004a FA65     		str	r2, [r7, #92]
 2094 004c BB65     		str	r3, [r7, #88]
 2095              	.LBB348:
 2096              	.LBB349:
1123:Drivers/CMSIS/Include/cmsis_gcc.h ****    return(result);
 2097              		.loc 2 1123 4 discriminator 1
 2098 004e B96D     		ldr	r1, [r7, #88]
 2099 0050 FA6D     		ldr	r2, [r7, #92]
 2100              		.syntax unified
 2101              	@ 1123 "Drivers/CMSIS/Include/cmsis_gcc.h" 1
 2102 0052 41E80023 		strex r3, r2, [r1]
 2103              	@ 0 "" 2
 2104              		.thumb
 2105              		.syntax unified
 2106 0056 7B65     		str	r3, [r7, #84]
 2107              		.loc 2 1124 10 discriminator 1
 2108 0058 7B6D     		ldr	r3, [r7, #84]
 2109              	.LBE349:
 2110              	.LBE348:
 2111              		.loc 1 1538 5 discriminator 1
 2112 005a 002B     		cmp	r3, #0
 2113 005c E5D1     		bne	.L104
 2114              	.L101:
 2115              	.LBE345:
1539:Drivers/STM32F4xx_HAL_Driver/Src/stm32f4xx_hal_uart.c ****   }
1540:Drivers/STM32F4xx_HAL_Driver/Src/stm32f4xx_hal_uart.c **** 
1541:Drivers/STM32F4xx_HAL_Driver/Src/stm32f4xx_hal_uart.c ****   if (huart->RxState == HAL_UART_STATE_BUSY_RX)
 2116              		.loc 1 1541 12
 2117 005e 7B68     		ldr	r3, [r7, #4]
 2118 0060 93F83E30 		ldrb	r3, [r3, #62]
 2119 0064 DBB2     		uxtb	r3, r3
 2120              		.loc 1 1541 6
 2121 0066 222B     		cmp	r3, #34
 2122 0068 5CD1     		bne	.L105
 2123              	.LBB350:
1542:Drivers/STM32F4xx_HAL_Driver/Src/stm32f4xx_hal_uart.c ****   {
1543:Drivers/STM32F4xx_HAL_Driver/Src/stm32f4xx_hal_uart.c ****     /* Clear the Overrun flag before resuming the Rx transfer*/
1544:Drivers/STM32F4xx_HAL_Driver/Src/stm32f4xx_hal_uart.c ****     __HAL_UART_CLEAR_OREFLAG(huart);
 2124              		.loc 1 1544 5
 2125 006a 0023     		movs	r3, #0
 2126 006c FB60     		str	r3, [r7, #12]
 2127 006e 7B68     		ldr	r3, [r7, #4]
 2128 0070 1B68     		ldr	r3, [r3]
 2129 0072 1B68     		ldr	r3, [r3]
 2130 0074 FB60     		str	r3, [r7, #12]
ARM GAS  /tmp/ccIpdX1g.s 			page 85


 2131 0076 7B68     		ldr	r3, [r7, #4]
 2132 0078 1B68     		ldr	r3, [r3]
 2133 007a 5B68     		ldr	r3, [r3, #4]
 2134 007c FB60     		str	r3, [r7, #12]
 2135 007e FB68     		ldr	r3, [r7, #12]
 2136              	.LBE350:
1545:Drivers/STM32F4xx_HAL_Driver/Src/stm32f4xx_hal_uart.c **** 
1546:Drivers/STM32F4xx_HAL_Driver/Src/stm32f4xx_hal_uart.c ****     /* Re-enable PE and ERR (Frame error, noise error, overrun error) interrupts */
1547:Drivers/STM32F4xx_HAL_Driver/Src/stm32f4xx_hal_uart.c ****     if (huart->Init.Parity != UART_PARITY_NONE)
 2137              		.loc 1 1547 20
 2138 0080 7B68     		ldr	r3, [r7, #4]
 2139 0082 1B69     		ldr	r3, [r3, #16]
 2140              		.loc 1 1547 8
 2141 0084 002B     		cmp	r3, #0
 2142 0086 19D0     		beq	.L112
 2143              	.L109:
 2144              	.LBB351:
1548:Drivers/STM32F4xx_HAL_Driver/Src/stm32f4xx_hal_uart.c ****     {
1549:Drivers/STM32F4xx_HAL_Driver/Src/stm32f4xx_hal_uart.c ****       ATOMIC_SET_BIT(huart->Instance->CR1, USART_CR1_PEIE);
 2145              		.loc 1 1549 7 discriminator 1
 2146 0088 7B68     		ldr	r3, [r7, #4]
 2147 008a 1B68     		ldr	r3, [r3]
 2148 008c 0C33     		adds	r3, r3, #12
 2149 008e FB63     		str	r3, [r7, #60]
 2150              	.LBB352:
 2151              	.LBB353:
1072:Drivers/CMSIS/Include/cmsis_gcc.h ****    return(result);
 2152              		.loc 2 1072 4 discriminator 1
 2153 0090 FB6B     		ldr	r3, [r7, #60]
 2154              		.syntax unified
 2155              	@ 1072 "Drivers/CMSIS/Include/cmsis_gcc.h" 1
 2156 0092 53E8003F 		ldrex r3, [r3]
 2157              	@ 0 "" 2
 2158              		.thumb
 2159              		.syntax unified
 2160 0096 BB63     		str	r3, [r7, #56]
1073:Drivers/CMSIS/Include/cmsis_gcc.h **** }
 2161              		.loc 2 1073 10 discriminator 1
 2162 0098 BB6B     		ldr	r3, [r7, #56]
 2163              	.LBE353:
 2164              	.LBE352:
 2165              		.loc 1 1549 7 discriminator 1
 2166 009a 43F48073 		orr	r3, r3, #256
 2167 009e BB66     		str	r3, [r7, #104]
 2168 00a0 7B68     		ldr	r3, [r7, #4]
 2169 00a2 1B68     		ldr	r3, [r3]
 2170 00a4 0C33     		adds	r3, r3, #12
 2171 00a6 BA6E     		ldr	r2, [r7, #104]
 2172 00a8 BA64     		str	r2, [r7, #72]
 2173 00aa 7B64     		str	r3, [r7, #68]
 2174              	.LBB354:
 2175              	.LBB355:
1123:Drivers/CMSIS/Include/cmsis_gcc.h ****    return(result);
 2176              		.loc 2 1123 4 discriminator 1
 2177 00ac 796C     		ldr	r1, [r7, #68]
 2178 00ae BA6C     		ldr	r2, [r7, #72]
 2179              		.syntax unified
ARM GAS  /tmp/ccIpdX1g.s 			page 86


 2180              	@ 1123 "Drivers/CMSIS/Include/cmsis_gcc.h" 1
 2181 00b0 41E80023 		strex r3, r2, [r1]
 2182              	@ 0 "" 2
 2183              		.thumb
 2184              		.syntax unified
 2185 00b4 3B64     		str	r3, [r7, #64]
 2186              		.loc 2 1124 10 discriminator 1
 2187 00b6 3B6C     		ldr	r3, [r7, #64]
 2188              	.LBE355:
 2189              	.LBE354:
 2190              		.loc 1 1549 7 discriminator 1
 2191 00b8 002B     		cmp	r3, #0
 2192 00ba E5D1     		bne	.L109
 2193              	.L112:
 2194              	.LBE351:
 2195              	.LBB356:
1550:Drivers/STM32F4xx_HAL_Driver/Src/stm32f4xx_hal_uart.c ****     }
1551:Drivers/STM32F4xx_HAL_Driver/Src/stm32f4xx_hal_uart.c ****     ATOMIC_SET_BIT(huart->Instance->CR3, USART_CR3_EIE);
 2196              		.loc 1 1551 5 discriminator 1
 2197 00bc 7B68     		ldr	r3, [r7, #4]
 2198 00be 1B68     		ldr	r3, [r3]
 2199 00c0 1433     		adds	r3, r3, #20
 2200 00c2 BB62     		str	r3, [r7, #40]
 2201              	.LBB357:
 2202              	.LBB358:
1072:Drivers/CMSIS/Include/cmsis_gcc.h ****    return(result);
 2203              		.loc 2 1072 4 discriminator 1
 2204 00c4 BB6A     		ldr	r3, [r7, #40]
 2205              		.syntax unified
 2206              	@ 1072 "Drivers/CMSIS/Include/cmsis_gcc.h" 1
 2207 00c6 53E8003F 		ldrex r3, [r3]
 2208              	@ 0 "" 2
 2209              		.thumb
 2210              		.syntax unified
 2211 00ca 7B62     		str	r3, [r7, #36]
1073:Drivers/CMSIS/Include/cmsis_gcc.h **** }
 2212              		.loc 2 1073 10 discriminator 1
 2213 00cc 7B6A     		ldr	r3, [r7, #36]
 2214              	.LBE358:
 2215              	.LBE357:
 2216              		.loc 1 1551 5 discriminator 1
 2217 00ce 43F00103 		orr	r3, r3, #1
 2218 00d2 7B66     		str	r3, [r7, #100]
 2219 00d4 7B68     		ldr	r3, [r7, #4]
 2220 00d6 1B68     		ldr	r3, [r3]
 2221 00d8 1433     		adds	r3, r3, #20
 2222 00da 7A6E     		ldr	r2, [r7, #100]
 2223 00dc 7A63     		str	r2, [r7, #52]
 2224 00de 3B63     		str	r3, [r7, #48]
 2225              	.LBB359:
 2226              	.LBB360:
1123:Drivers/CMSIS/Include/cmsis_gcc.h ****    return(result);
 2227              		.loc 2 1123 4 discriminator 1
 2228 00e0 396B     		ldr	r1, [r7, #48]
 2229 00e2 7A6B     		ldr	r2, [r7, #52]
 2230              		.syntax unified
 2231              	@ 1123 "Drivers/CMSIS/Include/cmsis_gcc.h" 1
ARM GAS  /tmp/ccIpdX1g.s 			page 87


 2232 00e4 41E80023 		strex r3, r2, [r1]
 2233              	@ 0 "" 2
 2234              		.thumb
 2235              		.syntax unified
 2236 00e8 FB62     		str	r3, [r7, #44]
 2237              		.loc 2 1124 10 discriminator 1
 2238 00ea FB6A     		ldr	r3, [r7, #44]
 2239              	.LBE360:
 2240              	.LBE359:
 2241              		.loc 1 1551 5 discriminator 1
 2242 00ec 002B     		cmp	r3, #0
 2243 00ee E5D1     		bne	.L112
 2244              	.L115:
 2245              	.LBE356:
 2246              	.LBB361:
1552:Drivers/STM32F4xx_HAL_Driver/Src/stm32f4xx_hal_uart.c **** 
1553:Drivers/STM32F4xx_HAL_Driver/Src/stm32f4xx_hal_uart.c ****     /* Enable the UART DMA Rx request */
1554:Drivers/STM32F4xx_HAL_Driver/Src/stm32f4xx_hal_uart.c ****     ATOMIC_SET_BIT(huart->Instance->CR3, USART_CR3_DMAR);
 2247              		.loc 1 1554 5 discriminator 1
 2248 00f0 7B68     		ldr	r3, [r7, #4]
 2249 00f2 1B68     		ldr	r3, [r3]
 2250 00f4 1433     		adds	r3, r3, #20
 2251 00f6 7B61     		str	r3, [r7, #20]
 2252              	.LBB362:
 2253              	.LBB363:
1072:Drivers/CMSIS/Include/cmsis_gcc.h ****    return(result);
 2254              		.loc 2 1072 4 discriminator 1
 2255 00f8 7B69     		ldr	r3, [r7, #20]
 2256              		.syntax unified
 2257              	@ 1072 "Drivers/CMSIS/Include/cmsis_gcc.h" 1
 2258 00fa 53E8003F 		ldrex r3, [r3]
 2259              	@ 0 "" 2
 2260              		.thumb
 2261              		.syntax unified
 2262 00fe 3B61     		str	r3, [r7, #16]
1073:Drivers/CMSIS/Include/cmsis_gcc.h **** }
 2263              		.loc 2 1073 10 discriminator 1
 2264 0100 3B69     		ldr	r3, [r7, #16]
 2265              	.LBE363:
 2266              	.LBE362:
 2267              		.loc 1 1554 5 discriminator 1
 2268 0102 43F04003 		orr	r3, r3, #64
 2269 0106 3B66     		str	r3, [r7, #96]
 2270 0108 7B68     		ldr	r3, [r7, #4]
 2271 010a 1B68     		ldr	r3, [r3]
 2272 010c 1433     		adds	r3, r3, #20
 2273 010e 3A6E     		ldr	r2, [r7, #96]
 2274 0110 3A62     		str	r2, [r7, #32]
 2275 0112 FB61     		str	r3, [r7, #28]
 2276              	.LBB364:
 2277              	.LBB365:
1123:Drivers/CMSIS/Include/cmsis_gcc.h ****    return(result);
 2278              		.loc 2 1123 4 discriminator 1
 2279 0114 F969     		ldr	r1, [r7, #28]
 2280 0116 3A6A     		ldr	r2, [r7, #32]
 2281              		.syntax unified
 2282              	@ 1123 "Drivers/CMSIS/Include/cmsis_gcc.h" 1
ARM GAS  /tmp/ccIpdX1g.s 			page 88


 2283 0118 41E80023 		strex r3, r2, [r1]
 2284              	@ 0 "" 2
 2285              		.thumb
 2286              		.syntax unified
 2287 011c BB61     		str	r3, [r7, #24]
 2288              		.loc 2 1124 10 discriminator 1
 2289 011e BB69     		ldr	r3, [r7, #24]
 2290              	.LBE365:
 2291              	.LBE364:
 2292              		.loc 1 1554 5 discriminator 1
 2293 0120 002B     		cmp	r3, #0
 2294 0122 E5D1     		bne	.L115
 2295              	.L105:
 2296              	.LBE361:
1555:Drivers/STM32F4xx_HAL_Driver/Src/stm32f4xx_hal_uart.c ****   }
1556:Drivers/STM32F4xx_HAL_Driver/Src/stm32f4xx_hal_uart.c **** 
1557:Drivers/STM32F4xx_HAL_Driver/Src/stm32f4xx_hal_uart.c ****   /* Process Unlocked */
1558:Drivers/STM32F4xx_HAL_Driver/Src/stm32f4xx_hal_uart.c ****   __HAL_UNLOCK(huart);
 2297              		.loc 1 1558 3
 2298 0124 7B68     		ldr	r3, [r7, #4]
 2299 0126 0022     		movs	r2, #0
 2300 0128 83F83C20 		strb	r2, [r3, #60]
1559:Drivers/STM32F4xx_HAL_Driver/Src/stm32f4xx_hal_uart.c **** 
1560:Drivers/STM32F4xx_HAL_Driver/Src/stm32f4xx_hal_uart.c ****   return HAL_OK;
 2301              		.loc 1 1560 10
 2302 012c 0023     		movs	r3, #0
 2303              	.L100:
1561:Drivers/STM32F4xx_HAL_Driver/Src/stm32f4xx_hal_uart.c **** }
 2304              		.loc 1 1561 1
 2305 012e 1846     		mov	r0, r3
 2306 0130 7437     		adds	r7, r7, #116
 2307              	.LCFI77:
 2308              		.cfi_def_cfa_offset 4
 2309 0132 BD46     		mov	sp, r7
 2310              	.LCFI78:
 2311              		.cfi_def_cfa_register 13
 2312              		@ sp needed
 2313 0134 5DF8047B 		ldr	r7, [sp], #4
 2314              	.LCFI79:
 2315              		.cfi_restore 7
 2316              		.cfi_def_cfa_offset 0
 2317 0138 7047     		bx	lr
 2318              		.cfi_endproc
 2319              	.LFE230:
 2321              		.section	.text.HAL_UART_DMAStop,"ax",%progbits
 2322              		.align	1
 2323              		.global	HAL_UART_DMAStop
 2324              		.syntax unified
 2325              		.thumb
 2326              		.thumb_func
 2328              	HAL_UART_DMAStop:
 2329              	.LFB231:
1562:Drivers/STM32F4xx_HAL_Driver/Src/stm32f4xx_hal_uart.c **** 
1563:Drivers/STM32F4xx_HAL_Driver/Src/stm32f4xx_hal_uart.c **** /**
1564:Drivers/STM32F4xx_HAL_Driver/Src/stm32f4xx_hal_uart.c ****   * @brief Stops the DMA Transfer.
1565:Drivers/STM32F4xx_HAL_Driver/Src/stm32f4xx_hal_uart.c ****   * @param  huart  Pointer to a UART_HandleTypeDef structure that contains
1566:Drivers/STM32F4xx_HAL_Driver/Src/stm32f4xx_hal_uart.c ****   *                the configuration information for the specified UART module.
ARM GAS  /tmp/ccIpdX1g.s 			page 89


1567:Drivers/STM32F4xx_HAL_Driver/Src/stm32f4xx_hal_uart.c ****   * @retval HAL status
1568:Drivers/STM32F4xx_HAL_Driver/Src/stm32f4xx_hal_uart.c ****   */
1569:Drivers/STM32F4xx_HAL_Driver/Src/stm32f4xx_hal_uart.c **** HAL_StatusTypeDef HAL_UART_DMAStop(UART_HandleTypeDef *huart)
1570:Drivers/STM32F4xx_HAL_Driver/Src/stm32f4xx_hal_uart.c **** {
 2330              		.loc 1 1570 1
 2331              		.cfi_startproc
 2332              		@ args = 0, pretend = 0, frame = 64
 2333              		@ frame_needed = 1, uses_anonymous_args = 0
 2334 0000 80B5     		push	{r7, lr}
 2335              	.LCFI80:
 2336              		.cfi_def_cfa_offset 8
 2337              		.cfi_offset 7, -8
 2338              		.cfi_offset 14, -4
 2339 0002 90B0     		sub	sp, sp, #64
 2340              	.LCFI81:
 2341              		.cfi_def_cfa_offset 72
 2342 0004 00AF     		add	r7, sp, #0
 2343              	.LCFI82:
 2344              		.cfi_def_cfa_register 7
 2345 0006 7860     		str	r0, [r7, #4]
1571:Drivers/STM32F4xx_HAL_Driver/Src/stm32f4xx_hal_uart.c ****   uint32_t dmarequest = 0x00U;
 2346              		.loc 1 1571 12
 2347 0008 0023     		movs	r3, #0
 2348 000a FB63     		str	r3, [r7, #60]
1572:Drivers/STM32F4xx_HAL_Driver/Src/stm32f4xx_hal_uart.c ****   /* The Lock is not implemented on this API to allow the user application
1573:Drivers/STM32F4xx_HAL_Driver/Src/stm32f4xx_hal_uart.c ****      to call the HAL UART API under callbacks HAL_UART_TxCpltCallback() / HAL_UART_RxCpltCallback()
1574:Drivers/STM32F4xx_HAL_Driver/Src/stm32f4xx_hal_uart.c ****      when calling HAL_DMA_Abort() API the DMA TX/RX Transfer complete interrupt is generated
1575:Drivers/STM32F4xx_HAL_Driver/Src/stm32f4xx_hal_uart.c ****      and the correspond call back is executed HAL_UART_TxCpltCallback() / HAL_UART_RxCpltCallback()
1576:Drivers/STM32F4xx_HAL_Driver/Src/stm32f4xx_hal_uart.c ****      */
1577:Drivers/STM32F4xx_HAL_Driver/Src/stm32f4xx_hal_uart.c **** 
1578:Drivers/STM32F4xx_HAL_Driver/Src/stm32f4xx_hal_uart.c ****   /* Stop UART DMA Tx request if ongoing */
1579:Drivers/STM32F4xx_HAL_Driver/Src/stm32f4xx_hal_uart.c ****   dmarequest = HAL_IS_BIT_SET(huart->Instance->CR3, USART_CR3_DMAT);
 2349              		.loc 1 1579 16
 2350 000c 7B68     		ldr	r3, [r7, #4]
 2351 000e 1B68     		ldr	r3, [r3]
 2352 0010 5B69     		ldr	r3, [r3, #20]
 2353 0012 03F08003 		and	r3, r3, #128
 2354 0016 802B     		cmp	r3, #128
 2355 0018 0CBF     		ite	eq
 2356 001a 0123     		moveq	r3, #1
 2357 001c 0023     		movne	r3, #0
 2358 001e DBB2     		uxtb	r3, r3
 2359              		.loc 1 1579 14
 2360 0020 FB63     		str	r3, [r7, #60]
1580:Drivers/STM32F4xx_HAL_Driver/Src/stm32f4xx_hal_uart.c ****   if ((huart->gState == HAL_UART_STATE_BUSY_TX) && dmarequest)
 2361              		.loc 1 1580 13
 2362 0022 7B68     		ldr	r3, [r7, #4]
 2363 0024 93F83D30 		ldrb	r3, [r3, #61]
 2364 0028 DBB2     		uxtb	r3, r3
 2365              		.loc 1 1580 6
 2366 002a 212B     		cmp	r3, #33
 2367 002c 28D1     		bne	.L117
 2368              		.loc 1 1580 49 discriminator 1
 2369 002e FB6B     		ldr	r3, [r7, #60]
 2370 0030 002B     		cmp	r3, #0
 2371 0032 25D0     		beq	.L117
 2372              	.L120:
ARM GAS  /tmp/ccIpdX1g.s 			page 90


 2373              	.LBB366:
1581:Drivers/STM32F4xx_HAL_Driver/Src/stm32f4xx_hal_uart.c ****   {
1582:Drivers/STM32F4xx_HAL_Driver/Src/stm32f4xx_hal_uart.c ****     ATOMIC_CLEAR_BIT(huart->Instance->CR3, USART_CR3_DMAT);
 2374              		.loc 1 1582 5 discriminator 1
 2375 0034 7B68     		ldr	r3, [r7, #4]
 2376 0036 1B68     		ldr	r3, [r3]
 2377 0038 1433     		adds	r3, r3, #20
 2378 003a 7B62     		str	r3, [r7, #36]
 2379              	.LBB367:
 2380              	.LBB368:
1072:Drivers/CMSIS/Include/cmsis_gcc.h ****    return(result);
 2381              		.loc 2 1072 4 discriminator 1
 2382 003c 7B6A     		ldr	r3, [r7, #36]
 2383              		.syntax unified
 2384              	@ 1072 "Drivers/CMSIS/Include/cmsis_gcc.h" 1
 2385 003e 53E8003F 		ldrex r3, [r3]
 2386              	@ 0 "" 2
 2387              		.thumb
 2388              		.syntax unified
 2389 0042 3B62     		str	r3, [r7, #32]
1073:Drivers/CMSIS/Include/cmsis_gcc.h **** }
 2390              		.loc 2 1073 10 discriminator 1
 2391 0044 3B6A     		ldr	r3, [r7, #32]
 2392              	.LBE368:
 2393              	.LBE367:
 2394              		.loc 1 1582 5 discriminator 1
 2395 0046 23F08003 		bic	r3, r3, #128
 2396 004a BB63     		str	r3, [r7, #56]
 2397 004c 7B68     		ldr	r3, [r7, #4]
 2398 004e 1B68     		ldr	r3, [r3]
 2399 0050 1433     		adds	r3, r3, #20
 2400 0052 BA6B     		ldr	r2, [r7, #56]
 2401 0054 3A63     		str	r2, [r7, #48]
 2402 0056 FB62     		str	r3, [r7, #44]
 2403              	.LBB369:
 2404              	.LBB370:
1123:Drivers/CMSIS/Include/cmsis_gcc.h ****    return(result);
 2405              		.loc 2 1123 4 discriminator 1
 2406 0058 F96A     		ldr	r1, [r7, #44]
 2407 005a 3A6B     		ldr	r2, [r7, #48]
 2408              		.syntax unified
 2409              	@ 1123 "Drivers/CMSIS/Include/cmsis_gcc.h" 1
 2410 005c 41E80023 		strex r3, r2, [r1]
 2411              	@ 0 "" 2
 2412              		.thumb
 2413              		.syntax unified
 2414 0060 BB62     		str	r3, [r7, #40]
 2415              		.loc 2 1124 10 discriminator 1
 2416 0062 BB6A     		ldr	r3, [r7, #40]
 2417              	.LBE370:
 2418              	.LBE369:
 2419              		.loc 1 1582 5 discriminator 1
 2420 0064 002B     		cmp	r3, #0
 2421 0066 E5D1     		bne	.L120
 2422              	.LBE366:
1583:Drivers/STM32F4xx_HAL_Driver/Src/stm32f4xx_hal_uart.c **** 
1584:Drivers/STM32F4xx_HAL_Driver/Src/stm32f4xx_hal_uart.c ****     /* Abort the UART DMA Tx stream */
ARM GAS  /tmp/ccIpdX1g.s 			page 91


1585:Drivers/STM32F4xx_HAL_Driver/Src/stm32f4xx_hal_uart.c ****     if (huart->hdmatx != NULL)
 2423              		.loc 1 1585 14
 2424 0068 7B68     		ldr	r3, [r7, #4]
 2425 006a 5B6B     		ldr	r3, [r3, #52]
 2426              		.loc 1 1585 8
 2427 006c 002B     		cmp	r3, #0
 2428 006e 04D0     		beq	.L121
1586:Drivers/STM32F4xx_HAL_Driver/Src/stm32f4xx_hal_uart.c ****     {
1587:Drivers/STM32F4xx_HAL_Driver/Src/stm32f4xx_hal_uart.c ****       HAL_DMA_Abort(huart->hdmatx);
 2429              		.loc 1 1587 7
 2430 0070 7B68     		ldr	r3, [r7, #4]
 2431 0072 5B6B     		ldr	r3, [r3, #52]
 2432 0074 1846     		mov	r0, r3
 2433 0076 FFF7FEFF 		bl	HAL_DMA_Abort
 2434              	.L121:
1588:Drivers/STM32F4xx_HAL_Driver/Src/stm32f4xx_hal_uart.c ****     }
1589:Drivers/STM32F4xx_HAL_Driver/Src/stm32f4xx_hal_uart.c ****     UART_EndTxTransfer(huart);
 2435              		.loc 1 1589 5
 2436 007a 7868     		ldr	r0, [r7, #4]
 2437 007c FFF7FEFF 		bl	UART_EndTxTransfer
 2438              	.L117:
1590:Drivers/STM32F4xx_HAL_Driver/Src/stm32f4xx_hal_uart.c ****   }
1591:Drivers/STM32F4xx_HAL_Driver/Src/stm32f4xx_hal_uart.c **** 
1592:Drivers/STM32F4xx_HAL_Driver/Src/stm32f4xx_hal_uart.c ****   /* Stop UART DMA Rx request if ongoing */
1593:Drivers/STM32F4xx_HAL_Driver/Src/stm32f4xx_hal_uart.c ****   dmarequest = HAL_IS_BIT_SET(huart->Instance->CR3, USART_CR3_DMAR);
 2439              		.loc 1 1593 16
 2440 0080 7B68     		ldr	r3, [r7, #4]
 2441 0082 1B68     		ldr	r3, [r3]
 2442 0084 5B69     		ldr	r3, [r3, #20]
 2443 0086 03F04003 		and	r3, r3, #64
 2444 008a 402B     		cmp	r3, #64
 2445 008c 0CBF     		ite	eq
 2446 008e 0123     		moveq	r3, #1
 2447 0090 0023     		movne	r3, #0
 2448 0092 DBB2     		uxtb	r3, r3
 2449              		.loc 1 1593 14
 2450 0094 FB63     		str	r3, [r7, #60]
1594:Drivers/STM32F4xx_HAL_Driver/Src/stm32f4xx_hal_uart.c ****   if ((huart->RxState == HAL_UART_STATE_BUSY_RX) && dmarequest)
 2451              		.loc 1 1594 13
 2452 0096 7B68     		ldr	r3, [r7, #4]
 2453 0098 93F83E30 		ldrb	r3, [r3, #62]
 2454 009c DBB2     		uxtb	r3, r3
 2455              		.loc 1 1594 6
 2456 009e 222B     		cmp	r3, #34
 2457 00a0 28D1     		bne	.L122
 2458              		.loc 1 1594 50 discriminator 1
 2459 00a2 FB6B     		ldr	r3, [r7, #60]
 2460 00a4 002B     		cmp	r3, #0
 2461 00a6 25D0     		beq	.L122
 2462              	.L125:
 2463              	.LBB371:
1595:Drivers/STM32F4xx_HAL_Driver/Src/stm32f4xx_hal_uart.c ****   {
1596:Drivers/STM32F4xx_HAL_Driver/Src/stm32f4xx_hal_uart.c ****     ATOMIC_CLEAR_BIT(huart->Instance->CR3, USART_CR3_DMAR);
 2464              		.loc 1 1596 5 discriminator 1
 2465 00a8 7B68     		ldr	r3, [r7, #4]
 2466 00aa 1B68     		ldr	r3, [r3]
 2467 00ac 1433     		adds	r3, r3, #20
ARM GAS  /tmp/ccIpdX1g.s 			page 92


 2468 00ae 3B61     		str	r3, [r7, #16]
 2469              	.LBB372:
 2470              	.LBB373:
1072:Drivers/CMSIS/Include/cmsis_gcc.h ****    return(result);
 2471              		.loc 2 1072 4 discriminator 1
 2472 00b0 3B69     		ldr	r3, [r7, #16]
 2473              		.syntax unified
 2474              	@ 1072 "Drivers/CMSIS/Include/cmsis_gcc.h" 1
 2475 00b2 53E8003F 		ldrex r3, [r3]
 2476              	@ 0 "" 2
 2477              		.thumb
 2478              		.syntax unified
 2479 00b6 FB60     		str	r3, [r7, #12]
1073:Drivers/CMSIS/Include/cmsis_gcc.h **** }
 2480              		.loc 2 1073 10 discriminator 1
 2481 00b8 FB68     		ldr	r3, [r7, #12]
 2482              	.LBE373:
 2483              	.LBE372:
 2484              		.loc 1 1596 5 discriminator 1
 2485 00ba 23F04003 		bic	r3, r3, #64
 2486 00be 7B63     		str	r3, [r7, #52]
 2487 00c0 7B68     		ldr	r3, [r7, #4]
 2488 00c2 1B68     		ldr	r3, [r3]
 2489 00c4 1433     		adds	r3, r3, #20
 2490 00c6 7A6B     		ldr	r2, [r7, #52]
 2491 00c8 FA61     		str	r2, [r7, #28]
 2492 00ca BB61     		str	r3, [r7, #24]
 2493              	.LBB374:
 2494              	.LBB375:
1123:Drivers/CMSIS/Include/cmsis_gcc.h ****    return(result);
 2495              		.loc 2 1123 4 discriminator 1
 2496 00cc B969     		ldr	r1, [r7, #24]
 2497 00ce FA69     		ldr	r2, [r7, #28]
 2498              		.syntax unified
 2499              	@ 1123 "Drivers/CMSIS/Include/cmsis_gcc.h" 1
 2500 00d0 41E80023 		strex r3, r2, [r1]
 2501              	@ 0 "" 2
 2502              		.thumb
 2503              		.syntax unified
 2504 00d4 7B61     		str	r3, [r7, #20]
 2505              		.loc 2 1124 10 discriminator 1
 2506 00d6 7B69     		ldr	r3, [r7, #20]
 2507              	.LBE375:
 2508              	.LBE374:
 2509              		.loc 1 1596 5 discriminator 1
 2510 00d8 002B     		cmp	r3, #0
 2511 00da E5D1     		bne	.L125
 2512              	.LBE371:
1597:Drivers/STM32F4xx_HAL_Driver/Src/stm32f4xx_hal_uart.c **** 
1598:Drivers/STM32F4xx_HAL_Driver/Src/stm32f4xx_hal_uart.c ****     /* Abort the UART DMA Rx stream */
1599:Drivers/STM32F4xx_HAL_Driver/Src/stm32f4xx_hal_uart.c ****     if (huart->hdmarx != NULL)
 2513              		.loc 1 1599 14
 2514 00dc 7B68     		ldr	r3, [r7, #4]
 2515 00de 9B6B     		ldr	r3, [r3, #56]
 2516              		.loc 1 1599 8
 2517 00e0 002B     		cmp	r3, #0
 2518 00e2 04D0     		beq	.L126
ARM GAS  /tmp/ccIpdX1g.s 			page 93


1600:Drivers/STM32F4xx_HAL_Driver/Src/stm32f4xx_hal_uart.c ****     {
1601:Drivers/STM32F4xx_HAL_Driver/Src/stm32f4xx_hal_uart.c ****       HAL_DMA_Abort(huart->hdmarx);
 2519              		.loc 1 1601 7
 2520 00e4 7B68     		ldr	r3, [r7, #4]
 2521 00e6 9B6B     		ldr	r3, [r3, #56]
 2522 00e8 1846     		mov	r0, r3
 2523 00ea FFF7FEFF 		bl	HAL_DMA_Abort
 2524              	.L126:
1602:Drivers/STM32F4xx_HAL_Driver/Src/stm32f4xx_hal_uart.c ****     }
1603:Drivers/STM32F4xx_HAL_Driver/Src/stm32f4xx_hal_uart.c ****     UART_EndRxTransfer(huart);
 2525              		.loc 1 1603 5
 2526 00ee 7868     		ldr	r0, [r7, #4]
 2527 00f0 FFF7FEFF 		bl	UART_EndRxTransfer
 2528              	.L122:
1604:Drivers/STM32F4xx_HAL_Driver/Src/stm32f4xx_hal_uart.c ****   }
1605:Drivers/STM32F4xx_HAL_Driver/Src/stm32f4xx_hal_uart.c **** 
1606:Drivers/STM32F4xx_HAL_Driver/Src/stm32f4xx_hal_uart.c ****   return HAL_OK;
 2529              		.loc 1 1606 10
 2530 00f4 0023     		movs	r3, #0
1607:Drivers/STM32F4xx_HAL_Driver/Src/stm32f4xx_hal_uart.c **** }
 2531              		.loc 1 1607 1
 2532 00f6 1846     		mov	r0, r3
 2533 00f8 4037     		adds	r7, r7, #64
 2534              	.LCFI83:
 2535              		.cfi_def_cfa_offset 8
 2536 00fa BD46     		mov	sp, r7
 2537              	.LCFI84:
 2538              		.cfi_def_cfa_register 13
 2539              		@ sp needed
 2540 00fc 80BD     		pop	{r7, pc}
 2541              		.cfi_endproc
 2542              	.LFE231:
 2544              		.section	.text.HAL_UARTEx_ReceiveToIdle,"ax",%progbits
 2545              		.align	1
 2546              		.global	HAL_UARTEx_ReceiveToIdle
 2547              		.syntax unified
 2548              		.thumb
 2549              		.thumb_func
 2551              	HAL_UARTEx_ReceiveToIdle:
 2552              	.LFB232:
1608:Drivers/STM32F4xx_HAL_Driver/Src/stm32f4xx_hal_uart.c **** 
1609:Drivers/STM32F4xx_HAL_Driver/Src/stm32f4xx_hal_uart.c **** /**
1610:Drivers/STM32F4xx_HAL_Driver/Src/stm32f4xx_hal_uart.c ****   * @brief Receive an amount of data in blocking mode till either the expected number of data is re
1611:Drivers/STM32F4xx_HAL_Driver/Src/stm32f4xx_hal_uart.c ****   * @note   HAL_OK is returned if reception is completed (expected number of data has been received
1612:Drivers/STM32F4xx_HAL_Driver/Src/stm32f4xx_hal_uart.c ****   *         or if reception is stopped after IDLE event (less than the expected number of data has 
1613:Drivers/STM32F4xx_HAL_Driver/Src/stm32f4xx_hal_uart.c ****   *         In this case, RxLen output parameter indicates number of data available in reception bu
1614:Drivers/STM32F4xx_HAL_Driver/Src/stm32f4xx_hal_uart.c ****   * @note   When UART parity is not enabled (PCE = 0), and Word Length is configured to 9 bits (M =
1615:Drivers/STM32F4xx_HAL_Driver/Src/stm32f4xx_hal_uart.c ****   *         the received data is handled as a set of uint16_t. In this case, Size must indicate the
1616:Drivers/STM32F4xx_HAL_Driver/Src/stm32f4xx_hal_uart.c ****   *         of uint16_t available through pData.
1617:Drivers/STM32F4xx_HAL_Driver/Src/stm32f4xx_hal_uart.c ****   * @param huart   UART handle.
1618:Drivers/STM32F4xx_HAL_Driver/Src/stm32f4xx_hal_uart.c ****   * @param pData   Pointer to data buffer (uint8_t or uint16_t data elements).
1619:Drivers/STM32F4xx_HAL_Driver/Src/stm32f4xx_hal_uart.c ****   * @param Size    Amount of data elements (uint8_t or uint16_t) to be received.
1620:Drivers/STM32F4xx_HAL_Driver/Src/stm32f4xx_hal_uart.c ****   * @param RxLen   Number of data elements finally received (could be lower than Size, in case rece
1621:Drivers/STM32F4xx_HAL_Driver/Src/stm32f4xx_hal_uart.c ****   * @param Timeout Timeout duration expressed in ms (covers the whole reception sequence).
1622:Drivers/STM32F4xx_HAL_Driver/Src/stm32f4xx_hal_uart.c ****   * @retval HAL status
1623:Drivers/STM32F4xx_HAL_Driver/Src/stm32f4xx_hal_uart.c ****   */
1624:Drivers/STM32F4xx_HAL_Driver/Src/stm32f4xx_hal_uart.c **** HAL_StatusTypeDef HAL_UARTEx_ReceiveToIdle(UART_HandleTypeDef *huart, uint8_t *pData, uint16_t Size
ARM GAS  /tmp/ccIpdX1g.s 			page 94


1625:Drivers/STM32F4xx_HAL_Driver/Src/stm32f4xx_hal_uart.c ****                                            uint32_t Timeout)
1626:Drivers/STM32F4xx_HAL_Driver/Src/stm32f4xx_hal_uart.c **** {
 2553              		.loc 1 1626 1
 2554              		.cfi_startproc
 2555              		@ args = 4, pretend = 0, frame = 32
 2556              		@ frame_needed = 1, uses_anonymous_args = 0
 2557 0000 80B5     		push	{r7, lr}
 2558              	.LCFI85:
 2559              		.cfi_def_cfa_offset 8
 2560              		.cfi_offset 7, -8
 2561              		.cfi_offset 14, -4
 2562 0002 88B0     		sub	sp, sp, #32
 2563              	.LCFI86:
 2564              		.cfi_def_cfa_offset 40
 2565 0004 00AF     		add	r7, sp, #0
 2566              	.LCFI87:
 2567              		.cfi_def_cfa_register 7
 2568 0006 F860     		str	r0, [r7, #12]
 2569 0008 B960     		str	r1, [r7, #8]
 2570 000a 3B60     		str	r3, [r7]
 2571 000c 1346     		mov	r3, r2	@ movhi
 2572 000e FB80     		strh	r3, [r7, #6]	@ movhi
1627:Drivers/STM32F4xx_HAL_Driver/Src/stm32f4xx_hal_uart.c ****   uint8_t  *pdata8bits;
1628:Drivers/STM32F4xx_HAL_Driver/Src/stm32f4xx_hal_uart.c ****   uint16_t *pdata16bits;
1629:Drivers/STM32F4xx_HAL_Driver/Src/stm32f4xx_hal_uart.c ****   uint32_t tickstart;
1630:Drivers/STM32F4xx_HAL_Driver/Src/stm32f4xx_hal_uart.c **** 
1631:Drivers/STM32F4xx_HAL_Driver/Src/stm32f4xx_hal_uart.c ****   /* Check that a Rx process is not already ongoing */
1632:Drivers/STM32F4xx_HAL_Driver/Src/stm32f4xx_hal_uart.c ****   if (huart->RxState == HAL_UART_STATE_READY)
 2573              		.loc 1 1632 12
 2574 0010 FB68     		ldr	r3, [r7, #12]
 2575 0012 93F83E30 		ldrb	r3, [r3, #62]
 2576 0016 DBB2     		uxtb	r3, r3
 2577              		.loc 1 1632 6
 2578 0018 202B     		cmp	r3, #32
 2579 001a 40F0C980 		bne	.L129
1633:Drivers/STM32F4xx_HAL_Driver/Src/stm32f4xx_hal_uart.c ****   {
1634:Drivers/STM32F4xx_HAL_Driver/Src/stm32f4xx_hal_uart.c ****     if ((pData == NULL) || (Size == 0U))
 2580              		.loc 1 1634 8
 2581 001e BB68     		ldr	r3, [r7, #8]
 2582 0020 002B     		cmp	r3, #0
 2583 0022 02D0     		beq	.L130
 2584              		.loc 1 1634 25 discriminator 1
 2585 0024 FB88     		ldrh	r3, [r7, #6]
 2586 0026 002B     		cmp	r3, #0
 2587 0028 01D1     		bne	.L131
 2588              	.L130:
1635:Drivers/STM32F4xx_HAL_Driver/Src/stm32f4xx_hal_uart.c ****     {
1636:Drivers/STM32F4xx_HAL_Driver/Src/stm32f4xx_hal_uart.c ****       return  HAL_ERROR;
 2589              		.loc 1 1636 15
 2590 002a 0123     		movs	r3, #1
 2591 002c C1E0     		b	.L132
 2592              	.L131:
1637:Drivers/STM32F4xx_HAL_Driver/Src/stm32f4xx_hal_uart.c ****     }
1638:Drivers/STM32F4xx_HAL_Driver/Src/stm32f4xx_hal_uart.c **** 
1639:Drivers/STM32F4xx_HAL_Driver/Src/stm32f4xx_hal_uart.c ****     __HAL_LOCK(huart);
 2593              		.loc 1 1639 5
 2594 002e FB68     		ldr	r3, [r7, #12]
ARM GAS  /tmp/ccIpdX1g.s 			page 95


 2595 0030 93F83C30 		ldrb	r3, [r3, #60]	@ zero_extendqisi2
 2596 0034 012B     		cmp	r3, #1
 2597 0036 01D1     		bne	.L133
 2598              		.loc 1 1639 5 is_stmt 0 discriminator 1
 2599 0038 0223     		movs	r3, #2
 2600 003a BAE0     		b	.L132
 2601              	.L133:
 2602              		.loc 1 1639 5 discriminator 2
 2603 003c FB68     		ldr	r3, [r7, #12]
 2604 003e 0122     		movs	r2, #1
 2605 0040 83F83C20 		strb	r2, [r3, #60]
1640:Drivers/STM32F4xx_HAL_Driver/Src/stm32f4xx_hal_uart.c **** 
1641:Drivers/STM32F4xx_HAL_Driver/Src/stm32f4xx_hal_uart.c ****     huart->ErrorCode = HAL_UART_ERROR_NONE;
 2606              		.loc 1 1641 22 is_stmt 1 discriminator 2
 2607 0044 FB68     		ldr	r3, [r7, #12]
 2608 0046 0022     		movs	r2, #0
 2609 0048 1A64     		str	r2, [r3, #64]
1642:Drivers/STM32F4xx_HAL_Driver/Src/stm32f4xx_hal_uart.c ****     huart->RxState = HAL_UART_STATE_BUSY_RX;
 2610              		.loc 1 1642 20 discriminator 2
 2611 004a FB68     		ldr	r3, [r7, #12]
 2612 004c 2222     		movs	r2, #34
 2613 004e 83F83E20 		strb	r2, [r3, #62]
1643:Drivers/STM32F4xx_HAL_Driver/Src/stm32f4xx_hal_uart.c ****     huart->ReceptionType = HAL_UART_RECEPTION_TOIDLE;
 2614              		.loc 1 1643 26 discriminator 2
 2615 0052 FB68     		ldr	r3, [r7, #12]
 2616 0054 0122     		movs	r2, #1
 2617 0056 1A63     		str	r2, [r3, #48]
1644:Drivers/STM32F4xx_HAL_Driver/Src/stm32f4xx_hal_uart.c **** 
1645:Drivers/STM32F4xx_HAL_Driver/Src/stm32f4xx_hal_uart.c ****     /* Init tickstart for timeout management */
1646:Drivers/STM32F4xx_HAL_Driver/Src/stm32f4xx_hal_uart.c ****     tickstart = HAL_GetTick();
 2618              		.loc 1 1646 17 discriminator 2
 2619 0058 FFF7FEFF 		bl	HAL_GetTick
 2620 005c 7861     		str	r0, [r7, #20]
1647:Drivers/STM32F4xx_HAL_Driver/Src/stm32f4xx_hal_uart.c **** 
1648:Drivers/STM32F4xx_HAL_Driver/Src/stm32f4xx_hal_uart.c ****     huart->RxXferSize  = Size;
 2621              		.loc 1 1648 24 discriminator 2
 2622 005e FB68     		ldr	r3, [r7, #12]
 2623 0060 FA88     		ldrh	r2, [r7, #6]	@ movhi
 2624 0062 9A85     		strh	r2, [r3, #44]	@ movhi
1649:Drivers/STM32F4xx_HAL_Driver/Src/stm32f4xx_hal_uart.c ****     huart->RxXferCount = Size;
 2625              		.loc 1 1649 24 discriminator 2
 2626 0064 FB68     		ldr	r3, [r7, #12]
 2627 0066 FA88     		ldrh	r2, [r7, #6]	@ movhi
 2628 0068 DA85     		strh	r2, [r3, #46]	@ movhi
1650:Drivers/STM32F4xx_HAL_Driver/Src/stm32f4xx_hal_uart.c **** 
1651:Drivers/STM32F4xx_HAL_Driver/Src/stm32f4xx_hal_uart.c ****     /* In case of 9bits/No Parity transfer, pRxData needs to be handled as a uint16_t pointer */
1652:Drivers/STM32F4xx_HAL_Driver/Src/stm32f4xx_hal_uart.c ****     if ((huart->Init.WordLength == UART_WORDLENGTH_9B) && (huart->Init.Parity == UART_PARITY_NONE))
 2629              		.loc 1 1652 21 discriminator 2
 2630 006a FB68     		ldr	r3, [r7, #12]
 2631 006c 9B68     		ldr	r3, [r3, #8]
 2632              		.loc 1 1652 8 discriminator 2
 2633 006e B3F5805F 		cmp	r3, #4096
 2634 0072 08D1     		bne	.L134
 2635              		.loc 1 1652 71 discriminator 1
 2636 0074 FB68     		ldr	r3, [r7, #12]
 2637 0076 1B69     		ldr	r3, [r3, #16]
 2638              		.loc 1 1652 56 discriminator 1
ARM GAS  /tmp/ccIpdX1g.s 			page 96


 2639 0078 002B     		cmp	r3, #0
 2640 007a 04D1     		bne	.L134
1653:Drivers/STM32F4xx_HAL_Driver/Src/stm32f4xx_hal_uart.c ****     {
1654:Drivers/STM32F4xx_HAL_Driver/Src/stm32f4xx_hal_uart.c ****       pdata8bits  = NULL;
 2641              		.loc 1 1654 19
 2642 007c 0023     		movs	r3, #0
 2643 007e FB61     		str	r3, [r7, #28]
1655:Drivers/STM32F4xx_HAL_Driver/Src/stm32f4xx_hal_uart.c ****       pdata16bits = (uint16_t *) pData;
 2644              		.loc 1 1655 19
 2645 0080 BB68     		ldr	r3, [r7, #8]
 2646 0082 BB61     		str	r3, [r7, #24]
 2647 0084 03E0     		b	.L135
 2648              	.L134:
1656:Drivers/STM32F4xx_HAL_Driver/Src/stm32f4xx_hal_uart.c ****     }
1657:Drivers/STM32F4xx_HAL_Driver/Src/stm32f4xx_hal_uart.c ****     else
1658:Drivers/STM32F4xx_HAL_Driver/Src/stm32f4xx_hal_uart.c ****     {
1659:Drivers/STM32F4xx_HAL_Driver/Src/stm32f4xx_hal_uart.c ****       pdata8bits  = pData;
 2649              		.loc 1 1659 19
 2650 0086 BB68     		ldr	r3, [r7, #8]
 2651 0088 FB61     		str	r3, [r7, #28]
1660:Drivers/STM32F4xx_HAL_Driver/Src/stm32f4xx_hal_uart.c ****       pdata16bits = NULL;
 2652              		.loc 1 1660 19
 2653 008a 0023     		movs	r3, #0
 2654 008c BB61     		str	r3, [r7, #24]
 2655              	.L135:
1661:Drivers/STM32F4xx_HAL_Driver/Src/stm32f4xx_hal_uart.c ****     }
1662:Drivers/STM32F4xx_HAL_Driver/Src/stm32f4xx_hal_uart.c **** 
1663:Drivers/STM32F4xx_HAL_Driver/Src/stm32f4xx_hal_uart.c ****     __HAL_UNLOCK(huart);
 2656              		.loc 1 1663 5
 2657 008e FB68     		ldr	r3, [r7, #12]
 2658 0090 0022     		movs	r2, #0
 2659 0092 83F83C20 		strb	r2, [r3, #60]
1664:Drivers/STM32F4xx_HAL_Driver/Src/stm32f4xx_hal_uart.c **** 
1665:Drivers/STM32F4xx_HAL_Driver/Src/stm32f4xx_hal_uart.c ****     /* Initialize output number of received elements */
1666:Drivers/STM32F4xx_HAL_Driver/Src/stm32f4xx_hal_uart.c ****     *RxLen = 0U;
 2660              		.loc 1 1666 12
 2661 0096 3B68     		ldr	r3, [r7]
 2662 0098 0022     		movs	r2, #0
 2663 009a 1A80     		strh	r2, [r3]	@ movhi
1667:Drivers/STM32F4xx_HAL_Driver/Src/stm32f4xx_hal_uart.c **** 
1668:Drivers/STM32F4xx_HAL_Driver/Src/stm32f4xx_hal_uart.c ****     /* as long as data have to be received */
1669:Drivers/STM32F4xx_HAL_Driver/Src/stm32f4xx_hal_uart.c ****     while (huart->RxXferCount > 0U)
 2664              		.loc 1 1669 11
 2665 009c 74E0     		b	.L136
 2666              	.L146:
1670:Drivers/STM32F4xx_HAL_Driver/Src/stm32f4xx_hal_uart.c ****     {
1671:Drivers/STM32F4xx_HAL_Driver/Src/stm32f4xx_hal_uart.c ****       /* Check if IDLE flag is set */
1672:Drivers/STM32F4xx_HAL_Driver/Src/stm32f4xx_hal_uart.c ****       if (__HAL_UART_GET_FLAG(huart, UART_FLAG_IDLE))
 2667              		.loc 1 1672 11
 2668 009e FB68     		ldr	r3, [r7, #12]
 2669 00a0 1B68     		ldr	r3, [r3]
 2670 00a2 1B68     		ldr	r3, [r3]
 2671 00a4 03F01003 		and	r3, r3, #16
 2672              		.loc 1 1672 10
 2673 00a8 102B     		cmp	r3, #16
 2674 00aa 14D1     		bne	.L137
 2675              	.LBB376:
ARM GAS  /tmp/ccIpdX1g.s 			page 97


1673:Drivers/STM32F4xx_HAL_Driver/Src/stm32f4xx_hal_uart.c ****       {
1674:Drivers/STM32F4xx_HAL_Driver/Src/stm32f4xx_hal_uart.c ****         /* Clear IDLE flag in ISR */
1675:Drivers/STM32F4xx_HAL_Driver/Src/stm32f4xx_hal_uart.c ****         __HAL_UART_CLEAR_IDLEFLAG(huart);
 2676              		.loc 1 1675 9
 2677 00ac 0023     		movs	r3, #0
 2678 00ae 3B61     		str	r3, [r7, #16]
 2679 00b0 FB68     		ldr	r3, [r7, #12]
 2680 00b2 1B68     		ldr	r3, [r3]
 2681 00b4 1B68     		ldr	r3, [r3]
 2682 00b6 3B61     		str	r3, [r7, #16]
 2683 00b8 FB68     		ldr	r3, [r7, #12]
 2684 00ba 1B68     		ldr	r3, [r3]
 2685 00bc 5B68     		ldr	r3, [r3, #4]
 2686 00be 3B61     		str	r3, [r7, #16]
 2687 00c0 3B69     		ldr	r3, [r7, #16]
 2688              	.LBE376:
1676:Drivers/STM32F4xx_HAL_Driver/Src/stm32f4xx_hal_uart.c **** 
1677:Drivers/STM32F4xx_HAL_Driver/Src/stm32f4xx_hal_uart.c ****         /* If Set, but no data ever received, clear flag without exiting loop */
1678:Drivers/STM32F4xx_HAL_Driver/Src/stm32f4xx_hal_uart.c ****         /* If Set, and data has already been received, this means Idle Event is valid : End recepti
1679:Drivers/STM32F4xx_HAL_Driver/Src/stm32f4xx_hal_uart.c ****         if (*RxLen > 0U)
 2689              		.loc 1 1679 13
 2690 00c2 3B68     		ldr	r3, [r7]
 2691 00c4 1B88     		ldrh	r3, [r3]
 2692              		.loc 1 1679 12
 2693 00c6 002B     		cmp	r3, #0
 2694 00c8 05D0     		beq	.L137
1680:Drivers/STM32F4xx_HAL_Driver/Src/stm32f4xx_hal_uart.c ****         {
1681:Drivers/STM32F4xx_HAL_Driver/Src/stm32f4xx_hal_uart.c ****           huart->RxState = HAL_UART_STATE_READY;
 2695              		.loc 1 1681 26
 2696 00ca FB68     		ldr	r3, [r7, #12]
 2697 00cc 2022     		movs	r2, #32
 2698 00ce 83F83E20 		strb	r2, [r3, #62]
1682:Drivers/STM32F4xx_HAL_Driver/Src/stm32f4xx_hal_uart.c **** 
1683:Drivers/STM32F4xx_HAL_Driver/Src/stm32f4xx_hal_uart.c ****           return HAL_OK;
 2699              		.loc 1 1683 18
 2700 00d2 0023     		movs	r3, #0
 2701 00d4 6DE0     		b	.L132
 2702              	.L137:
1684:Drivers/STM32F4xx_HAL_Driver/Src/stm32f4xx_hal_uart.c ****         }
1685:Drivers/STM32F4xx_HAL_Driver/Src/stm32f4xx_hal_uart.c ****       }
1686:Drivers/STM32F4xx_HAL_Driver/Src/stm32f4xx_hal_uart.c **** 
1687:Drivers/STM32F4xx_HAL_Driver/Src/stm32f4xx_hal_uart.c ****       /* Check if RXNE flag is set */
1688:Drivers/STM32F4xx_HAL_Driver/Src/stm32f4xx_hal_uart.c ****       if (__HAL_UART_GET_FLAG(huart, UART_FLAG_RXNE))
 2703              		.loc 1 1688 11
 2704 00d6 FB68     		ldr	r3, [r7, #12]
 2705 00d8 1B68     		ldr	r3, [r3]
 2706 00da 1B68     		ldr	r3, [r3]
 2707 00dc 03F02003 		and	r3, r3, #32
 2708              		.loc 1 1688 10
 2709 00e0 202B     		cmp	r3, #32
 2710 00e2 3CD1     		bne	.L138
1689:Drivers/STM32F4xx_HAL_Driver/Src/stm32f4xx_hal_uart.c ****       {
1690:Drivers/STM32F4xx_HAL_Driver/Src/stm32f4xx_hal_uart.c ****         if (pdata8bits == NULL)
 2711              		.loc 1 1690 12
 2712 00e4 FB69     		ldr	r3, [r7, #28]
 2713 00e6 002B     		cmp	r3, #0
 2714 00e8 0CD1     		bne	.L139
ARM GAS  /tmp/ccIpdX1g.s 			page 98


1691:Drivers/STM32F4xx_HAL_Driver/Src/stm32f4xx_hal_uart.c ****         {
1692:Drivers/STM32F4xx_HAL_Driver/Src/stm32f4xx_hal_uart.c ****           *pdata16bits = (uint16_t)(huart->Instance->DR & (uint16_t)0x01FF);
 2715              		.loc 1 1692 42
 2716 00ea FB68     		ldr	r3, [r7, #12]
 2717 00ec 1B68     		ldr	r3, [r3]
 2718              		.loc 1 1692 52
 2719 00ee 5B68     		ldr	r3, [r3, #4]
 2720              		.loc 1 1692 26
 2721 00f0 9BB2     		uxth	r3, r3
 2722 00f2 C3F30803 		ubfx	r3, r3, #0, #9
 2723 00f6 9AB2     		uxth	r2, r3
 2724              		.loc 1 1692 24
 2725 00f8 BB69     		ldr	r3, [r7, #24]
 2726 00fa 1A80     		strh	r2, [r3]	@ movhi
1693:Drivers/STM32F4xx_HAL_Driver/Src/stm32f4xx_hal_uart.c ****           pdata16bits++;
 2727              		.loc 1 1693 22
 2728 00fc BB69     		ldr	r3, [r7, #24]
 2729 00fe 0233     		adds	r3, r3, #2
 2730 0100 BB61     		str	r3, [r7, #24]
 2731 0102 1FE0     		b	.L140
 2732              	.L139:
1694:Drivers/STM32F4xx_HAL_Driver/Src/stm32f4xx_hal_uart.c ****         }
1695:Drivers/STM32F4xx_HAL_Driver/Src/stm32f4xx_hal_uart.c ****         else
1696:Drivers/STM32F4xx_HAL_Driver/Src/stm32f4xx_hal_uart.c ****         {
1697:Drivers/STM32F4xx_HAL_Driver/Src/stm32f4xx_hal_uart.c ****           if ((huart->Init.WordLength == UART_WORDLENGTH_9B) || ((huart->Init.WordLength == UART_WO
 2733              		.loc 1 1697 27
 2734 0104 FB68     		ldr	r3, [r7, #12]
 2735 0106 9B68     		ldr	r3, [r3, #8]
 2736              		.loc 1 1697 14
 2737 0108 B3F5805F 		cmp	r3, #4096
 2738 010c 07D0     		beq	.L141
 2739              		.loc 1 1697 78 discriminator 1
 2740 010e FB68     		ldr	r3, [r7, #12]
 2741 0110 9B68     		ldr	r3, [r3, #8]
 2742              		.loc 1 1697 62 discriminator 1
 2743 0112 002B     		cmp	r3, #0
 2744 0114 0AD1     		bne	.L142
 2745              		.loc 1 1697 128 discriminator 2
 2746 0116 FB68     		ldr	r3, [r7, #12]
 2747 0118 1B69     		ldr	r3, [r3, #16]
 2748              		.loc 1 1697 113 discriminator 2
 2749 011a 002B     		cmp	r3, #0
 2750 011c 06D1     		bne	.L142
 2751              	.L141:
1698:Drivers/STM32F4xx_HAL_Driver/Src/stm32f4xx_hal_uart.c ****           {
1699:Drivers/STM32F4xx_HAL_Driver/Src/stm32f4xx_hal_uart.c ****             *pdata8bits = (uint8_t)(huart->Instance->DR & (uint8_t)0x00FF);
 2752              		.loc 1 1699 42
 2753 011e FB68     		ldr	r3, [r7, #12]
 2754 0120 1B68     		ldr	r3, [r3]
 2755              		.loc 1 1699 52
 2756 0122 5B68     		ldr	r3, [r3, #4]
 2757              		.loc 1 1699 27
 2758 0124 DAB2     		uxtb	r2, r3
 2759              		.loc 1 1699 25
 2760 0126 FB69     		ldr	r3, [r7, #28]
 2761 0128 1A70     		strb	r2, [r3]
 2762 012a 08E0     		b	.L143
ARM GAS  /tmp/ccIpdX1g.s 			page 99


 2763              	.L142:
1700:Drivers/STM32F4xx_HAL_Driver/Src/stm32f4xx_hal_uart.c ****           }
1701:Drivers/STM32F4xx_HAL_Driver/Src/stm32f4xx_hal_uart.c ****           else
1702:Drivers/STM32F4xx_HAL_Driver/Src/stm32f4xx_hal_uart.c ****           {
1703:Drivers/STM32F4xx_HAL_Driver/Src/stm32f4xx_hal_uart.c ****             *pdata8bits = (uint8_t)(huart->Instance->DR & (uint8_t)0x007F);
 2764              		.loc 1 1703 42
 2765 012c FB68     		ldr	r3, [r7, #12]
 2766 012e 1B68     		ldr	r3, [r3]
 2767              		.loc 1 1703 52
 2768 0130 5B68     		ldr	r3, [r3, #4]
 2769              		.loc 1 1703 27
 2770 0132 DBB2     		uxtb	r3, r3
 2771 0134 03F07F03 		and	r3, r3, #127
 2772 0138 DAB2     		uxtb	r2, r3
 2773              		.loc 1 1703 25
 2774 013a FB69     		ldr	r3, [r7, #28]
 2775 013c 1A70     		strb	r2, [r3]
 2776              	.L143:
1704:Drivers/STM32F4xx_HAL_Driver/Src/stm32f4xx_hal_uart.c ****           }
1705:Drivers/STM32F4xx_HAL_Driver/Src/stm32f4xx_hal_uart.c **** 
1706:Drivers/STM32F4xx_HAL_Driver/Src/stm32f4xx_hal_uart.c ****           pdata8bits++;
 2777              		.loc 1 1706 21
 2778 013e FB69     		ldr	r3, [r7, #28]
 2779 0140 0133     		adds	r3, r3, #1
 2780 0142 FB61     		str	r3, [r7, #28]
 2781              	.L140:
1707:Drivers/STM32F4xx_HAL_Driver/Src/stm32f4xx_hal_uart.c ****         }
1708:Drivers/STM32F4xx_HAL_Driver/Src/stm32f4xx_hal_uart.c ****         /* Increment number of received elements */
1709:Drivers/STM32F4xx_HAL_Driver/Src/stm32f4xx_hal_uart.c ****         *RxLen += 1U;
 2782              		.loc 1 1709 9
 2783 0144 3B68     		ldr	r3, [r7]
 2784 0146 1B88     		ldrh	r3, [r3]
 2785              		.loc 1 1709 16
 2786 0148 0133     		adds	r3, r3, #1
 2787 014a 9AB2     		uxth	r2, r3
 2788 014c 3B68     		ldr	r3, [r7]
 2789 014e 1A80     		strh	r2, [r3]	@ movhi
1710:Drivers/STM32F4xx_HAL_Driver/Src/stm32f4xx_hal_uart.c ****         huart->RxXferCount--;
 2790              		.loc 1 1710 14
 2791 0150 FB68     		ldr	r3, [r7, #12]
 2792 0152 DB8D     		ldrh	r3, [r3, #46]	@ movhi
 2793 0154 9BB2     		uxth	r3, r3
 2794              		.loc 1 1710 27
 2795 0156 013B     		subs	r3, r3, #1
 2796 0158 9AB2     		uxth	r2, r3
 2797 015a FB68     		ldr	r3, [r7, #12]
 2798 015c DA85     		strh	r2, [r3, #46]	@ movhi
 2799              	.L138:
1711:Drivers/STM32F4xx_HAL_Driver/Src/stm32f4xx_hal_uart.c ****       }
1712:Drivers/STM32F4xx_HAL_Driver/Src/stm32f4xx_hal_uart.c **** 
1713:Drivers/STM32F4xx_HAL_Driver/Src/stm32f4xx_hal_uart.c ****       /* Check for the Timeout */
1714:Drivers/STM32F4xx_HAL_Driver/Src/stm32f4xx_hal_uart.c ****       if (Timeout != HAL_MAX_DELAY)
 2800              		.loc 1 1714 10
 2801 015e BB6A     		ldr	r3, [r7, #40]
 2802 0160 B3F1FF3F 		cmp	r3, #-1
 2803 0164 10D0     		beq	.L136
1715:Drivers/STM32F4xx_HAL_Driver/Src/stm32f4xx_hal_uart.c ****       {
ARM GAS  /tmp/ccIpdX1g.s 			page 100


1716:Drivers/STM32F4xx_HAL_Driver/Src/stm32f4xx_hal_uart.c ****         if (((HAL_GetTick() - tickstart) > Timeout) || (Timeout == 0U))
 2804              		.loc 1 1716 15
 2805 0166 FFF7FEFF 		bl	HAL_GetTick
 2806 016a 0246     		mov	r2, r0
 2807              		.loc 1 1716 29
 2808 016c 7B69     		ldr	r3, [r7, #20]
 2809 016e D31A     		subs	r3, r2, r3
 2810              		.loc 1 1716 12
 2811 0170 BA6A     		ldr	r2, [r7, #40]
 2812 0172 9A42     		cmp	r2, r3
 2813 0174 02D3     		bcc	.L145
 2814              		.loc 1 1716 53 discriminator 1
 2815 0176 BB6A     		ldr	r3, [r7, #40]
 2816 0178 002B     		cmp	r3, #0
 2817 017a 05D1     		bne	.L136
 2818              	.L145:
1717:Drivers/STM32F4xx_HAL_Driver/Src/stm32f4xx_hal_uart.c ****         {
1718:Drivers/STM32F4xx_HAL_Driver/Src/stm32f4xx_hal_uart.c ****           huart->RxState = HAL_UART_STATE_READY;
 2819              		.loc 1 1718 26
 2820 017c FB68     		ldr	r3, [r7, #12]
 2821 017e 2022     		movs	r2, #32
 2822 0180 83F83E20 		strb	r2, [r3, #62]
1719:Drivers/STM32F4xx_HAL_Driver/Src/stm32f4xx_hal_uart.c **** 
1720:Drivers/STM32F4xx_HAL_Driver/Src/stm32f4xx_hal_uart.c ****           return HAL_TIMEOUT;
 2823              		.loc 1 1720 18
 2824 0184 0323     		movs	r3, #3
 2825 0186 14E0     		b	.L132
 2826              	.L136:
1669:Drivers/STM32F4xx_HAL_Driver/Src/stm32f4xx_hal_uart.c ****     {
 2827              		.loc 1 1669 17
 2828 0188 FB68     		ldr	r3, [r7, #12]
 2829 018a DB8D     		ldrh	r3, [r3, #46]	@ movhi
 2830 018c 9BB2     		uxth	r3, r3
1669:Drivers/STM32F4xx_HAL_Driver/Src/stm32f4xx_hal_uart.c ****     {
 2831              		.loc 1 1669 31
 2832 018e 002B     		cmp	r3, #0
 2833 0190 85D1     		bne	.L146
1721:Drivers/STM32F4xx_HAL_Driver/Src/stm32f4xx_hal_uart.c ****         }
1722:Drivers/STM32F4xx_HAL_Driver/Src/stm32f4xx_hal_uart.c ****       }
1723:Drivers/STM32F4xx_HAL_Driver/Src/stm32f4xx_hal_uart.c ****     }
1724:Drivers/STM32F4xx_HAL_Driver/Src/stm32f4xx_hal_uart.c **** 
1725:Drivers/STM32F4xx_HAL_Driver/Src/stm32f4xx_hal_uart.c ****     /* Set number of received elements in output parameter : RxLen */
1726:Drivers/STM32F4xx_HAL_Driver/Src/stm32f4xx_hal_uart.c ****     *RxLen = huart->RxXferSize - huart->RxXferCount;
 2834              		.loc 1 1726 19
 2835 0192 FB68     		ldr	r3, [r7, #12]
 2836 0194 9A8D     		ldrh	r2, [r3, #44]
 2837              		.loc 1 1726 39
 2838 0196 FB68     		ldr	r3, [r7, #12]
 2839 0198 DB8D     		ldrh	r3, [r3, #46]	@ movhi
 2840 019a 9BB2     		uxth	r3, r3
 2841              		.loc 1 1726 32
 2842 019c D31A     		subs	r3, r2, r3
 2843 019e 9AB2     		uxth	r2, r3
 2844              		.loc 1 1726 12
 2845 01a0 3B68     		ldr	r3, [r7]
 2846 01a2 1A80     		strh	r2, [r3]	@ movhi
1727:Drivers/STM32F4xx_HAL_Driver/Src/stm32f4xx_hal_uart.c ****     /* At end of Rx process, restore huart->RxState to Ready */
ARM GAS  /tmp/ccIpdX1g.s 			page 101


1728:Drivers/STM32F4xx_HAL_Driver/Src/stm32f4xx_hal_uart.c ****     huart->RxState = HAL_UART_STATE_READY;
 2847              		.loc 1 1728 20
 2848 01a4 FB68     		ldr	r3, [r7, #12]
 2849 01a6 2022     		movs	r2, #32
 2850 01a8 83F83E20 		strb	r2, [r3, #62]
1729:Drivers/STM32F4xx_HAL_Driver/Src/stm32f4xx_hal_uart.c **** 
1730:Drivers/STM32F4xx_HAL_Driver/Src/stm32f4xx_hal_uart.c ****     return HAL_OK;
 2851              		.loc 1 1730 12
 2852 01ac 0023     		movs	r3, #0
 2853 01ae 00E0     		b	.L132
 2854              	.L129:
1731:Drivers/STM32F4xx_HAL_Driver/Src/stm32f4xx_hal_uart.c ****   }
1732:Drivers/STM32F4xx_HAL_Driver/Src/stm32f4xx_hal_uart.c ****   else
1733:Drivers/STM32F4xx_HAL_Driver/Src/stm32f4xx_hal_uart.c ****   {
1734:Drivers/STM32F4xx_HAL_Driver/Src/stm32f4xx_hal_uart.c ****     return HAL_BUSY;
 2855              		.loc 1 1734 12
 2856 01b0 0223     		movs	r3, #2
 2857              	.L132:
1735:Drivers/STM32F4xx_HAL_Driver/Src/stm32f4xx_hal_uart.c ****   }
1736:Drivers/STM32F4xx_HAL_Driver/Src/stm32f4xx_hal_uart.c **** }
 2858              		.loc 1 1736 1
 2859 01b2 1846     		mov	r0, r3
 2860 01b4 2037     		adds	r7, r7, #32
 2861              	.LCFI88:
 2862              		.cfi_def_cfa_offset 8
 2863 01b6 BD46     		mov	sp, r7
 2864              	.LCFI89:
 2865              		.cfi_def_cfa_register 13
 2866              		@ sp needed
 2867 01b8 80BD     		pop	{r7, pc}
 2868              		.cfi_endproc
 2869              	.LFE232:
 2871              		.section	.text.HAL_UARTEx_ReceiveToIdle_IT,"ax",%progbits
 2872              		.align	1
 2873              		.global	HAL_UARTEx_ReceiveToIdle_IT
 2874              		.syntax unified
 2875              		.thumb
 2876              		.thumb_func
 2878              	HAL_UARTEx_ReceiveToIdle_IT:
 2879              	.LFB233:
1737:Drivers/STM32F4xx_HAL_Driver/Src/stm32f4xx_hal_uart.c **** 
1738:Drivers/STM32F4xx_HAL_Driver/Src/stm32f4xx_hal_uart.c **** /**
1739:Drivers/STM32F4xx_HAL_Driver/Src/stm32f4xx_hal_uart.c ****   * @brief Receive an amount of data in interrupt mode till either the expected number of data is r
1740:Drivers/STM32F4xx_HAL_Driver/Src/stm32f4xx_hal_uart.c ****   * @note   Reception is initiated by this function call. Further progress of reception is achieved
1741:Drivers/STM32F4xx_HAL_Driver/Src/stm32f4xx_hal_uart.c ****   *         to UART interrupts raised by RXNE and IDLE events. Callback is called at end of recepti
1742:Drivers/STM32F4xx_HAL_Driver/Src/stm32f4xx_hal_uart.c ****   *         number of received data elements.
1743:Drivers/STM32F4xx_HAL_Driver/Src/stm32f4xx_hal_uart.c ****   * @note   When UART parity is not enabled (PCE = 0), and Word Length is configured to 9 bits (M =
1744:Drivers/STM32F4xx_HAL_Driver/Src/stm32f4xx_hal_uart.c ****   *         the received data is handled as a set of uint16_t. In this case, Size must indicate the
1745:Drivers/STM32F4xx_HAL_Driver/Src/stm32f4xx_hal_uart.c ****   *         of uint16_t available through pData.
1746:Drivers/STM32F4xx_HAL_Driver/Src/stm32f4xx_hal_uart.c ****   * @param huart UART handle.
1747:Drivers/STM32F4xx_HAL_Driver/Src/stm32f4xx_hal_uart.c ****   * @param pData Pointer to data buffer (uint8_t or uint16_t data elements).
1748:Drivers/STM32F4xx_HAL_Driver/Src/stm32f4xx_hal_uart.c ****   * @param Size  Amount of data elements (uint8_t or uint16_t) to be received.
1749:Drivers/STM32F4xx_HAL_Driver/Src/stm32f4xx_hal_uart.c ****   * @retval HAL status
1750:Drivers/STM32F4xx_HAL_Driver/Src/stm32f4xx_hal_uart.c ****   */
1751:Drivers/STM32F4xx_HAL_Driver/Src/stm32f4xx_hal_uart.c **** HAL_StatusTypeDef HAL_UARTEx_ReceiveToIdle_IT(UART_HandleTypeDef *huart, uint8_t *pData, uint16_t S
1752:Drivers/STM32F4xx_HAL_Driver/Src/stm32f4xx_hal_uart.c **** {
 2880              		.loc 1 1752 1
ARM GAS  /tmp/ccIpdX1g.s 			page 102


 2881              		.cfi_startproc
 2882              		@ args = 0, pretend = 0, frame = 48
 2883              		@ frame_needed = 1, uses_anonymous_args = 0
 2884 0000 80B5     		push	{r7, lr}
 2885              	.LCFI90:
 2886              		.cfi_def_cfa_offset 8
 2887              		.cfi_offset 7, -8
 2888              		.cfi_offset 14, -4
 2889 0002 8CB0     		sub	sp, sp, #48
 2890              	.LCFI91:
 2891              		.cfi_def_cfa_offset 56
 2892 0004 00AF     		add	r7, sp, #0
 2893              	.LCFI92:
 2894              		.cfi_def_cfa_register 7
 2895 0006 F860     		str	r0, [r7, #12]
 2896 0008 B960     		str	r1, [r7, #8]
 2897 000a 1346     		mov	r3, r2
 2898 000c FB80     		strh	r3, [r7, #6]	@ movhi
1753:Drivers/STM32F4xx_HAL_Driver/Src/stm32f4xx_hal_uart.c ****   HAL_StatusTypeDef status;
1754:Drivers/STM32F4xx_HAL_Driver/Src/stm32f4xx_hal_uart.c **** 
1755:Drivers/STM32F4xx_HAL_Driver/Src/stm32f4xx_hal_uart.c ****   /* Check that a Rx process is not already ongoing */
1756:Drivers/STM32F4xx_HAL_Driver/Src/stm32f4xx_hal_uart.c ****   if (huart->RxState == HAL_UART_STATE_READY)
 2899              		.loc 1 1756 12
 2900 000e FB68     		ldr	r3, [r7, #12]
 2901 0010 93F83E30 		ldrb	r3, [r3, #62]
 2902 0014 DBB2     		uxtb	r3, r3
 2903              		.loc 1 1756 6
 2904 0016 202B     		cmp	r3, #32
 2905 0018 52D1     		bne	.L148
1757:Drivers/STM32F4xx_HAL_Driver/Src/stm32f4xx_hal_uart.c ****   {
1758:Drivers/STM32F4xx_HAL_Driver/Src/stm32f4xx_hal_uart.c ****     if ((pData == NULL) || (Size == 0U))
 2906              		.loc 1 1758 8
 2907 001a BB68     		ldr	r3, [r7, #8]
 2908 001c 002B     		cmp	r3, #0
 2909 001e 02D0     		beq	.L149
 2910              		.loc 1 1758 25 discriminator 1
 2911 0020 FB88     		ldrh	r3, [r7, #6]
 2912 0022 002B     		cmp	r3, #0
 2913 0024 01D1     		bne	.L150
 2914              	.L149:
1759:Drivers/STM32F4xx_HAL_Driver/Src/stm32f4xx_hal_uart.c ****     {
1760:Drivers/STM32F4xx_HAL_Driver/Src/stm32f4xx_hal_uart.c ****       return HAL_ERROR;
 2915              		.loc 1 1760 14
 2916 0026 0123     		movs	r3, #1
 2917 0028 4BE0     		b	.L151
 2918              	.L150:
1761:Drivers/STM32F4xx_HAL_Driver/Src/stm32f4xx_hal_uart.c ****     }
1762:Drivers/STM32F4xx_HAL_Driver/Src/stm32f4xx_hal_uart.c **** 
1763:Drivers/STM32F4xx_HAL_Driver/Src/stm32f4xx_hal_uart.c ****     __HAL_LOCK(huart);
 2919              		.loc 1 1763 5
 2920 002a FB68     		ldr	r3, [r7, #12]
 2921 002c 93F83C30 		ldrb	r3, [r3, #60]	@ zero_extendqisi2
 2922 0030 012B     		cmp	r3, #1
 2923 0032 01D1     		bne	.L152
 2924              		.loc 1 1763 5 is_stmt 0 discriminator 1
 2925 0034 0223     		movs	r3, #2
 2926 0036 44E0     		b	.L151
ARM GAS  /tmp/ccIpdX1g.s 			page 103


 2927              	.L152:
 2928              		.loc 1 1763 5 discriminator 2
 2929 0038 FB68     		ldr	r3, [r7, #12]
 2930 003a 0122     		movs	r2, #1
 2931 003c 83F83C20 		strb	r2, [r3, #60]
1764:Drivers/STM32F4xx_HAL_Driver/Src/stm32f4xx_hal_uart.c **** 
1765:Drivers/STM32F4xx_HAL_Driver/Src/stm32f4xx_hal_uart.c ****     /* Set Reception type to reception till IDLE Event*/
1766:Drivers/STM32F4xx_HAL_Driver/Src/stm32f4xx_hal_uart.c ****     huart->ReceptionType = HAL_UART_RECEPTION_TOIDLE;
 2932              		.loc 1 1766 26 is_stmt 1 discriminator 2
 2933 0040 FB68     		ldr	r3, [r7, #12]
 2934 0042 0122     		movs	r2, #1
 2935 0044 1A63     		str	r2, [r3, #48]
1767:Drivers/STM32F4xx_HAL_Driver/Src/stm32f4xx_hal_uart.c **** 
1768:Drivers/STM32F4xx_HAL_Driver/Src/stm32f4xx_hal_uart.c ****     status =  UART_Start_Receive_IT(huart, pData, Size);
 2936              		.loc 1 1768 15 discriminator 2
 2937 0046 FB88     		ldrh	r3, [r7, #6]
 2938 0048 1A46     		mov	r2, r3
 2939 004a B968     		ldr	r1, [r7, #8]
 2940 004c F868     		ldr	r0, [r7, #12]
 2941 004e FFF7FEFF 		bl	UART_Start_Receive_IT
 2942 0052 0346     		mov	r3, r0
 2943 0054 87F82F30 		strb	r3, [r7, #47]
1769:Drivers/STM32F4xx_HAL_Driver/Src/stm32f4xx_hal_uart.c **** 
1770:Drivers/STM32F4xx_HAL_Driver/Src/stm32f4xx_hal_uart.c ****     /* Check Rx process has been successfully started */
1771:Drivers/STM32F4xx_HAL_Driver/Src/stm32f4xx_hal_uart.c ****     if (status == HAL_OK)
 2944              		.loc 1 1771 8 discriminator 2
 2945 0058 97F82F30 		ldrb	r3, [r7, #47]	@ zero_extendqisi2
 2946 005c 002B     		cmp	r3, #0
 2947 005e 2CD1     		bne	.L153
1772:Drivers/STM32F4xx_HAL_Driver/Src/stm32f4xx_hal_uart.c ****     {
1773:Drivers/STM32F4xx_HAL_Driver/Src/stm32f4xx_hal_uart.c ****       if (huart->ReceptionType == HAL_UART_RECEPTION_TOIDLE)
 2948              		.loc 1 1773 16
 2949 0060 FB68     		ldr	r3, [r7, #12]
 2950 0062 1B6B     		ldr	r3, [r3, #48]
 2951              		.loc 1 1773 10
 2952 0064 012B     		cmp	r3, #1
 2953 0066 25D1     		bne	.L154
 2954              	.LBB377:
1774:Drivers/STM32F4xx_HAL_Driver/Src/stm32f4xx_hal_uart.c ****       {
1775:Drivers/STM32F4xx_HAL_Driver/Src/stm32f4xx_hal_uart.c ****         __HAL_UART_CLEAR_IDLEFLAG(huart);
 2955              		.loc 1 1775 9
 2956 0068 0023     		movs	r3, #0
 2957 006a 3B61     		str	r3, [r7, #16]
 2958 006c FB68     		ldr	r3, [r7, #12]
 2959 006e 1B68     		ldr	r3, [r3]
 2960 0070 1B68     		ldr	r3, [r3]
 2961 0072 3B61     		str	r3, [r7, #16]
 2962 0074 FB68     		ldr	r3, [r7, #12]
 2963 0076 1B68     		ldr	r3, [r3]
 2964 0078 5B68     		ldr	r3, [r3, #4]
 2965 007a 3B61     		str	r3, [r7, #16]
 2966 007c 3B69     		ldr	r3, [r7, #16]
 2967              	.L157:
 2968              	.LBE377:
 2969              	.LBB378:
1776:Drivers/STM32F4xx_HAL_Driver/Src/stm32f4xx_hal_uart.c ****         ATOMIC_SET_BIT(huart->Instance->CR1, USART_CR1_IDLEIE);
 2970              		.loc 1 1776 9 discriminator 1
ARM GAS  /tmp/ccIpdX1g.s 			page 104


 2971 007e FB68     		ldr	r3, [r7, #12]
 2972 0080 1B68     		ldr	r3, [r3]
 2973 0082 0C33     		adds	r3, r3, #12
 2974 0084 BB61     		str	r3, [r7, #24]
 2975              	.LBB379:
 2976              	.LBB380:
1072:Drivers/CMSIS/Include/cmsis_gcc.h ****    return(result);
 2977              		.loc 2 1072 4 discriminator 1
 2978 0086 BB69     		ldr	r3, [r7, #24]
 2979              		.syntax unified
 2980              	@ 1072 "Drivers/CMSIS/Include/cmsis_gcc.h" 1
 2981 0088 53E8003F 		ldrex r3, [r3]
 2982              	@ 0 "" 2
 2983              		.thumb
 2984              		.syntax unified
 2985 008c 7B61     		str	r3, [r7, #20]
1073:Drivers/CMSIS/Include/cmsis_gcc.h **** }
 2986              		.loc 2 1073 10 discriminator 1
 2987 008e 7B69     		ldr	r3, [r7, #20]
 2988              	.LBE380:
 2989              	.LBE379:
 2990              		.loc 1 1776 9 discriminator 1
 2991 0090 43F01003 		orr	r3, r3, #16
 2992 0094 BB62     		str	r3, [r7, #40]
 2993 0096 FB68     		ldr	r3, [r7, #12]
 2994 0098 1B68     		ldr	r3, [r3]
 2995 009a 0C33     		adds	r3, r3, #12
 2996 009c BA6A     		ldr	r2, [r7, #40]
 2997 009e 7A62     		str	r2, [r7, #36]
 2998 00a0 3B62     		str	r3, [r7, #32]
 2999              	.LBB381:
 3000              	.LBB382:
1123:Drivers/CMSIS/Include/cmsis_gcc.h ****    return(result);
 3001              		.loc 2 1123 4 discriminator 1
 3002 00a2 396A     		ldr	r1, [r7, #32]
 3003 00a4 7A6A     		ldr	r2, [r7, #36]
 3004              		.syntax unified
 3005              	@ 1123 "Drivers/CMSIS/Include/cmsis_gcc.h" 1
 3006 00a6 41E80023 		strex r3, r2, [r1]
 3007              	@ 0 "" 2
 3008              		.thumb
 3009              		.syntax unified
 3010 00aa FB61     		str	r3, [r7, #28]
 3011              		.loc 2 1124 10 discriminator 1
 3012 00ac FB69     		ldr	r3, [r7, #28]
 3013              	.LBE382:
 3014              	.LBE381:
 3015              		.loc 1 1776 9 discriminator 1
 3016 00ae 002B     		cmp	r3, #0
 3017 00b0 E5D1     		bne	.L157
 3018 00b2 02E0     		b	.L153
 3019              	.L154:
 3020              	.LBE378:
1777:Drivers/STM32F4xx_HAL_Driver/Src/stm32f4xx_hal_uart.c ****       }
1778:Drivers/STM32F4xx_HAL_Driver/Src/stm32f4xx_hal_uart.c ****       else
1779:Drivers/STM32F4xx_HAL_Driver/Src/stm32f4xx_hal_uart.c ****       {
1780:Drivers/STM32F4xx_HAL_Driver/Src/stm32f4xx_hal_uart.c ****         /* In case of errors already pending when reception is started,
ARM GAS  /tmp/ccIpdX1g.s 			page 105


1781:Drivers/STM32F4xx_HAL_Driver/Src/stm32f4xx_hal_uart.c ****            Interrupts may have already been raised and lead to reception abortion.
1782:Drivers/STM32F4xx_HAL_Driver/Src/stm32f4xx_hal_uart.c ****            (Overrun error for instance).
1783:Drivers/STM32F4xx_HAL_Driver/Src/stm32f4xx_hal_uart.c ****            In such case Reception Type has been reset to HAL_UART_RECEPTION_STANDARD. */
1784:Drivers/STM32F4xx_HAL_Driver/Src/stm32f4xx_hal_uart.c ****         status = HAL_ERROR;
 3021              		.loc 1 1784 16
 3022 00b4 0123     		movs	r3, #1
 3023 00b6 87F82F30 		strb	r3, [r7, #47]
 3024              	.L153:
1785:Drivers/STM32F4xx_HAL_Driver/Src/stm32f4xx_hal_uart.c ****       }
1786:Drivers/STM32F4xx_HAL_Driver/Src/stm32f4xx_hal_uart.c ****     }
1787:Drivers/STM32F4xx_HAL_Driver/Src/stm32f4xx_hal_uart.c **** 
1788:Drivers/STM32F4xx_HAL_Driver/Src/stm32f4xx_hal_uart.c ****     return status;
 3025              		.loc 1 1788 12
 3026 00ba 97F82F30 		ldrb	r3, [r7, #47]	@ zero_extendqisi2
 3027 00be 00E0     		b	.L151
 3028              	.L148:
1789:Drivers/STM32F4xx_HAL_Driver/Src/stm32f4xx_hal_uart.c ****   }
1790:Drivers/STM32F4xx_HAL_Driver/Src/stm32f4xx_hal_uart.c ****   else
1791:Drivers/STM32F4xx_HAL_Driver/Src/stm32f4xx_hal_uart.c ****   {
1792:Drivers/STM32F4xx_HAL_Driver/Src/stm32f4xx_hal_uart.c ****     return HAL_BUSY;
 3029              		.loc 1 1792 12
 3030 00c0 0223     		movs	r3, #2
 3031              	.L151:
1793:Drivers/STM32F4xx_HAL_Driver/Src/stm32f4xx_hal_uart.c ****   }
1794:Drivers/STM32F4xx_HAL_Driver/Src/stm32f4xx_hal_uart.c **** }
 3032              		.loc 1 1794 1
 3033 00c2 1846     		mov	r0, r3
 3034 00c4 3037     		adds	r7, r7, #48
 3035              	.LCFI93:
 3036              		.cfi_def_cfa_offset 8
 3037 00c6 BD46     		mov	sp, r7
 3038              	.LCFI94:
 3039              		.cfi_def_cfa_register 13
 3040              		@ sp needed
 3041 00c8 80BD     		pop	{r7, pc}
 3042              		.cfi_endproc
 3043              	.LFE233:
 3045              		.section	.text.HAL_UARTEx_ReceiveToIdle_DMA,"ax",%progbits
 3046              		.align	1
 3047              		.global	HAL_UARTEx_ReceiveToIdle_DMA
 3048              		.syntax unified
 3049              		.thumb
 3050              		.thumb_func
 3052              	HAL_UARTEx_ReceiveToIdle_DMA:
 3053              	.LFB234:
1795:Drivers/STM32F4xx_HAL_Driver/Src/stm32f4xx_hal_uart.c **** 
1796:Drivers/STM32F4xx_HAL_Driver/Src/stm32f4xx_hal_uart.c **** /**
1797:Drivers/STM32F4xx_HAL_Driver/Src/stm32f4xx_hal_uart.c ****   * @brief Receive an amount of data in DMA mode till either the expected number of data is receive
1798:Drivers/STM32F4xx_HAL_Driver/Src/stm32f4xx_hal_uart.c ****   * @note   Reception is initiated by this function call. Further progress of reception is achieved
1799:Drivers/STM32F4xx_HAL_Driver/Src/stm32f4xx_hal_uart.c ****   *         to DMA services, transferring automatically received data elements in user reception bu
1800:Drivers/STM32F4xx_HAL_Driver/Src/stm32f4xx_hal_uart.c ****   *         calling registered callbacks at half/end of reception. UART IDLE events are also used t
1801:Drivers/STM32F4xx_HAL_Driver/Src/stm32f4xx_hal_uart.c ****   *         reception phase as ended. In all cases, callback execution will indicate number of rece
1802:Drivers/STM32F4xx_HAL_Driver/Src/stm32f4xx_hal_uart.c ****   * @note   When the UART parity is enabled (PCE = 1), the received data contain
1803:Drivers/STM32F4xx_HAL_Driver/Src/stm32f4xx_hal_uart.c ****   *         the parity bit (MSB position).
1804:Drivers/STM32F4xx_HAL_Driver/Src/stm32f4xx_hal_uart.c ****   * @note   When UART parity is not enabled (PCE = 0), and Word Length is configured to 9 bits (M =
1805:Drivers/STM32F4xx_HAL_Driver/Src/stm32f4xx_hal_uart.c ****   *         the received data is handled as a set of uint16_t. In this case, Size must indicate the
1806:Drivers/STM32F4xx_HAL_Driver/Src/stm32f4xx_hal_uart.c ****   *         of uint16_t available through pData.
ARM GAS  /tmp/ccIpdX1g.s 			page 106


1807:Drivers/STM32F4xx_HAL_Driver/Src/stm32f4xx_hal_uart.c ****   * @param huart UART handle.
1808:Drivers/STM32F4xx_HAL_Driver/Src/stm32f4xx_hal_uart.c ****   * @param pData Pointer to data buffer (uint8_t or uint16_t data elements).
1809:Drivers/STM32F4xx_HAL_Driver/Src/stm32f4xx_hal_uart.c ****   * @param Size  Amount of data elements (uint8_t or uint16_t) to be received.
1810:Drivers/STM32F4xx_HAL_Driver/Src/stm32f4xx_hal_uart.c ****   * @retval HAL status
1811:Drivers/STM32F4xx_HAL_Driver/Src/stm32f4xx_hal_uart.c ****   */
1812:Drivers/STM32F4xx_HAL_Driver/Src/stm32f4xx_hal_uart.c **** HAL_StatusTypeDef HAL_UARTEx_ReceiveToIdle_DMA(UART_HandleTypeDef *huart, uint8_t *pData, uint16_t 
1813:Drivers/STM32F4xx_HAL_Driver/Src/stm32f4xx_hal_uart.c **** {
 3054              		.loc 1 1813 1
 3055              		.cfi_startproc
 3056              		@ args = 0, pretend = 0, frame = 48
 3057              		@ frame_needed = 1, uses_anonymous_args = 0
 3058 0000 80B5     		push	{r7, lr}
 3059              	.LCFI95:
 3060              		.cfi_def_cfa_offset 8
 3061              		.cfi_offset 7, -8
 3062              		.cfi_offset 14, -4
 3063 0002 8CB0     		sub	sp, sp, #48
 3064              	.LCFI96:
 3065              		.cfi_def_cfa_offset 56
 3066 0004 00AF     		add	r7, sp, #0
 3067              	.LCFI97:
 3068              		.cfi_def_cfa_register 7
 3069 0006 F860     		str	r0, [r7, #12]
 3070 0008 B960     		str	r1, [r7, #8]
 3071 000a 1346     		mov	r3, r2
 3072 000c FB80     		strh	r3, [r7, #6]	@ movhi
1814:Drivers/STM32F4xx_HAL_Driver/Src/stm32f4xx_hal_uart.c ****   HAL_StatusTypeDef status;
1815:Drivers/STM32F4xx_HAL_Driver/Src/stm32f4xx_hal_uart.c **** 
1816:Drivers/STM32F4xx_HAL_Driver/Src/stm32f4xx_hal_uart.c ****   /* Check that a Rx process is not already ongoing */
1817:Drivers/STM32F4xx_HAL_Driver/Src/stm32f4xx_hal_uart.c ****   if (huart->RxState == HAL_UART_STATE_READY)
 3073              		.loc 1 1817 12
 3074 000e FB68     		ldr	r3, [r7, #12]
 3075 0010 93F83E30 		ldrb	r3, [r3, #62]
 3076 0014 DBB2     		uxtb	r3, r3
 3077              		.loc 1 1817 6
 3078 0016 202B     		cmp	r3, #32
 3079 0018 52D1     		bne	.L159
1818:Drivers/STM32F4xx_HAL_Driver/Src/stm32f4xx_hal_uart.c ****   {
1819:Drivers/STM32F4xx_HAL_Driver/Src/stm32f4xx_hal_uart.c ****     if ((pData == NULL) || (Size == 0U))
 3080              		.loc 1 1819 8
 3081 001a BB68     		ldr	r3, [r7, #8]
 3082 001c 002B     		cmp	r3, #0
 3083 001e 02D0     		beq	.L160
 3084              		.loc 1 1819 25 discriminator 1
 3085 0020 FB88     		ldrh	r3, [r7, #6]
 3086 0022 002B     		cmp	r3, #0
 3087 0024 01D1     		bne	.L161
 3088              	.L160:
1820:Drivers/STM32F4xx_HAL_Driver/Src/stm32f4xx_hal_uart.c ****     {
1821:Drivers/STM32F4xx_HAL_Driver/Src/stm32f4xx_hal_uart.c ****       return HAL_ERROR;
 3089              		.loc 1 1821 14
 3090 0026 0123     		movs	r3, #1
 3091 0028 4BE0     		b	.L162
 3092              	.L161:
1822:Drivers/STM32F4xx_HAL_Driver/Src/stm32f4xx_hal_uart.c ****     }
1823:Drivers/STM32F4xx_HAL_Driver/Src/stm32f4xx_hal_uart.c **** 
1824:Drivers/STM32F4xx_HAL_Driver/Src/stm32f4xx_hal_uart.c ****     __HAL_LOCK(huart);
ARM GAS  /tmp/ccIpdX1g.s 			page 107


 3093              		.loc 1 1824 5
 3094 002a FB68     		ldr	r3, [r7, #12]
 3095 002c 93F83C30 		ldrb	r3, [r3, #60]	@ zero_extendqisi2
 3096 0030 012B     		cmp	r3, #1
 3097 0032 01D1     		bne	.L163
 3098              		.loc 1 1824 5 is_stmt 0 discriminator 1
 3099 0034 0223     		movs	r3, #2
 3100 0036 44E0     		b	.L162
 3101              	.L163:
 3102              		.loc 1 1824 5 discriminator 2
 3103 0038 FB68     		ldr	r3, [r7, #12]
 3104 003a 0122     		movs	r2, #1
 3105 003c 83F83C20 		strb	r2, [r3, #60]
1825:Drivers/STM32F4xx_HAL_Driver/Src/stm32f4xx_hal_uart.c **** 
1826:Drivers/STM32F4xx_HAL_Driver/Src/stm32f4xx_hal_uart.c ****     /* Set Reception type to reception till IDLE Event*/
1827:Drivers/STM32F4xx_HAL_Driver/Src/stm32f4xx_hal_uart.c ****     huart->ReceptionType = HAL_UART_RECEPTION_TOIDLE;
 3106              		.loc 1 1827 26 is_stmt 1 discriminator 2
 3107 0040 FB68     		ldr	r3, [r7, #12]
 3108 0042 0122     		movs	r2, #1
 3109 0044 1A63     		str	r2, [r3, #48]
1828:Drivers/STM32F4xx_HAL_Driver/Src/stm32f4xx_hal_uart.c **** 
1829:Drivers/STM32F4xx_HAL_Driver/Src/stm32f4xx_hal_uart.c ****     status =  UART_Start_Receive_DMA(huart, pData, Size);
 3110              		.loc 1 1829 15 discriminator 2
 3111 0046 FB88     		ldrh	r3, [r7, #6]
 3112 0048 1A46     		mov	r2, r3
 3113 004a B968     		ldr	r1, [r7, #8]
 3114 004c F868     		ldr	r0, [r7, #12]
 3115 004e FFF7FEFF 		bl	UART_Start_Receive_DMA
 3116 0052 0346     		mov	r3, r0
 3117 0054 87F82F30 		strb	r3, [r7, #47]
1830:Drivers/STM32F4xx_HAL_Driver/Src/stm32f4xx_hal_uart.c **** 
1831:Drivers/STM32F4xx_HAL_Driver/Src/stm32f4xx_hal_uart.c ****     /* Check Rx process has been successfully started */
1832:Drivers/STM32F4xx_HAL_Driver/Src/stm32f4xx_hal_uart.c ****     if (status == HAL_OK)
 3118              		.loc 1 1832 8 discriminator 2
 3119 0058 97F82F30 		ldrb	r3, [r7, #47]	@ zero_extendqisi2
 3120 005c 002B     		cmp	r3, #0
 3121 005e 2CD1     		bne	.L164
1833:Drivers/STM32F4xx_HAL_Driver/Src/stm32f4xx_hal_uart.c ****     {
1834:Drivers/STM32F4xx_HAL_Driver/Src/stm32f4xx_hal_uart.c ****       if (huart->ReceptionType == HAL_UART_RECEPTION_TOIDLE)
 3122              		.loc 1 1834 16
 3123 0060 FB68     		ldr	r3, [r7, #12]
 3124 0062 1B6B     		ldr	r3, [r3, #48]
 3125              		.loc 1 1834 10
 3126 0064 012B     		cmp	r3, #1
 3127 0066 25D1     		bne	.L165
 3128              	.LBB383:
1835:Drivers/STM32F4xx_HAL_Driver/Src/stm32f4xx_hal_uart.c ****       {
1836:Drivers/STM32F4xx_HAL_Driver/Src/stm32f4xx_hal_uart.c ****         __HAL_UART_CLEAR_IDLEFLAG(huart);
 3129              		.loc 1 1836 9
 3130 0068 0023     		movs	r3, #0
 3131 006a 3B61     		str	r3, [r7, #16]
 3132 006c FB68     		ldr	r3, [r7, #12]
 3133 006e 1B68     		ldr	r3, [r3]
 3134 0070 1B68     		ldr	r3, [r3]
 3135 0072 3B61     		str	r3, [r7, #16]
 3136 0074 FB68     		ldr	r3, [r7, #12]
 3137 0076 1B68     		ldr	r3, [r3]
ARM GAS  /tmp/ccIpdX1g.s 			page 108


 3138 0078 5B68     		ldr	r3, [r3, #4]
 3139 007a 3B61     		str	r3, [r7, #16]
 3140 007c 3B69     		ldr	r3, [r7, #16]
 3141              	.L168:
 3142              	.LBE383:
 3143              	.LBB384:
1837:Drivers/STM32F4xx_HAL_Driver/Src/stm32f4xx_hal_uart.c ****         ATOMIC_SET_BIT(huart->Instance->CR1, USART_CR1_IDLEIE);
 3144              		.loc 1 1837 9 discriminator 1
 3145 007e FB68     		ldr	r3, [r7, #12]
 3146 0080 1B68     		ldr	r3, [r3]
 3147 0082 0C33     		adds	r3, r3, #12
 3148 0084 BB61     		str	r3, [r7, #24]
 3149              	.LBB385:
 3150              	.LBB386:
1072:Drivers/CMSIS/Include/cmsis_gcc.h ****    return(result);
 3151              		.loc 2 1072 4 discriminator 1
 3152 0086 BB69     		ldr	r3, [r7, #24]
 3153              		.syntax unified
 3154              	@ 1072 "Drivers/CMSIS/Include/cmsis_gcc.h" 1
 3155 0088 53E8003F 		ldrex r3, [r3]
 3156              	@ 0 "" 2
 3157              		.thumb
 3158              		.syntax unified
 3159 008c 7B61     		str	r3, [r7, #20]
1073:Drivers/CMSIS/Include/cmsis_gcc.h **** }
 3160              		.loc 2 1073 10 discriminator 1
 3161 008e 7B69     		ldr	r3, [r7, #20]
 3162              	.LBE386:
 3163              	.LBE385:
 3164              		.loc 1 1837 9 discriminator 1
 3165 0090 43F01003 		orr	r3, r3, #16
 3166 0094 BB62     		str	r3, [r7, #40]
 3167 0096 FB68     		ldr	r3, [r7, #12]
 3168 0098 1B68     		ldr	r3, [r3]
 3169 009a 0C33     		adds	r3, r3, #12
 3170 009c BA6A     		ldr	r2, [r7, #40]
 3171 009e 7A62     		str	r2, [r7, #36]
 3172 00a0 3B62     		str	r3, [r7, #32]
 3173              	.LBB387:
 3174              	.LBB388:
1123:Drivers/CMSIS/Include/cmsis_gcc.h ****    return(result);
 3175              		.loc 2 1123 4 discriminator 1
 3176 00a2 396A     		ldr	r1, [r7, #32]
 3177 00a4 7A6A     		ldr	r2, [r7, #36]
 3178              		.syntax unified
 3179              	@ 1123 "Drivers/CMSIS/Include/cmsis_gcc.h" 1
 3180 00a6 41E80023 		strex r3, r2, [r1]
 3181              	@ 0 "" 2
 3182              		.thumb
 3183              		.syntax unified
 3184 00aa FB61     		str	r3, [r7, #28]
 3185              		.loc 2 1124 10 discriminator 1
 3186 00ac FB69     		ldr	r3, [r7, #28]
 3187              	.LBE388:
 3188              	.LBE387:
 3189              		.loc 1 1837 9 discriminator 1
 3190 00ae 002B     		cmp	r3, #0
ARM GAS  /tmp/ccIpdX1g.s 			page 109


 3191 00b0 E5D1     		bne	.L168
 3192 00b2 02E0     		b	.L164
 3193              	.L165:
 3194              	.LBE384:
1838:Drivers/STM32F4xx_HAL_Driver/Src/stm32f4xx_hal_uart.c ****       }
1839:Drivers/STM32F4xx_HAL_Driver/Src/stm32f4xx_hal_uart.c ****       else
1840:Drivers/STM32F4xx_HAL_Driver/Src/stm32f4xx_hal_uart.c ****       {
1841:Drivers/STM32F4xx_HAL_Driver/Src/stm32f4xx_hal_uart.c ****         /* In case of errors already pending when reception is started,
1842:Drivers/STM32F4xx_HAL_Driver/Src/stm32f4xx_hal_uart.c ****            Interrupts may have already been raised and lead to reception abortion.
1843:Drivers/STM32F4xx_HAL_Driver/Src/stm32f4xx_hal_uart.c ****            (Overrun error for instance).
1844:Drivers/STM32F4xx_HAL_Driver/Src/stm32f4xx_hal_uart.c ****            In such case Reception Type has been reset to HAL_UART_RECEPTION_STANDARD. */
1845:Drivers/STM32F4xx_HAL_Driver/Src/stm32f4xx_hal_uart.c ****         status = HAL_ERROR;
 3195              		.loc 1 1845 16
 3196 00b4 0123     		movs	r3, #1
 3197 00b6 87F82F30 		strb	r3, [r7, #47]
 3198              	.L164:
1846:Drivers/STM32F4xx_HAL_Driver/Src/stm32f4xx_hal_uart.c ****       }
1847:Drivers/STM32F4xx_HAL_Driver/Src/stm32f4xx_hal_uart.c ****     }
1848:Drivers/STM32F4xx_HAL_Driver/Src/stm32f4xx_hal_uart.c **** 
1849:Drivers/STM32F4xx_HAL_Driver/Src/stm32f4xx_hal_uart.c ****     return status;
 3199              		.loc 1 1849 12
 3200 00ba 97F82F30 		ldrb	r3, [r7, #47]	@ zero_extendqisi2
 3201 00be 00E0     		b	.L162
 3202              	.L159:
1850:Drivers/STM32F4xx_HAL_Driver/Src/stm32f4xx_hal_uart.c ****   }
1851:Drivers/STM32F4xx_HAL_Driver/Src/stm32f4xx_hal_uart.c ****   else
1852:Drivers/STM32F4xx_HAL_Driver/Src/stm32f4xx_hal_uart.c ****   {
1853:Drivers/STM32F4xx_HAL_Driver/Src/stm32f4xx_hal_uart.c ****     return HAL_BUSY;
 3203              		.loc 1 1853 12
 3204 00c0 0223     		movs	r3, #2
 3205              	.L162:
1854:Drivers/STM32F4xx_HAL_Driver/Src/stm32f4xx_hal_uart.c ****   }
1855:Drivers/STM32F4xx_HAL_Driver/Src/stm32f4xx_hal_uart.c **** }
 3206              		.loc 1 1855 1
 3207 00c2 1846     		mov	r0, r3
 3208 00c4 3037     		adds	r7, r7, #48
 3209              	.LCFI98:
 3210              		.cfi_def_cfa_offset 8
 3211 00c6 BD46     		mov	sp, r7
 3212              	.LCFI99:
 3213              		.cfi_def_cfa_register 13
 3214              		@ sp needed
 3215 00c8 80BD     		pop	{r7, pc}
 3216              		.cfi_endproc
 3217              	.LFE234:
 3219              		.section	.text.HAL_UART_Abort,"ax",%progbits
 3220              		.align	1
 3221              		.global	HAL_UART_Abort
 3222              		.syntax unified
 3223              		.thumb
 3224              		.thumb_func
 3226              	HAL_UART_Abort:
 3227              	.LFB235:
1856:Drivers/STM32F4xx_HAL_Driver/Src/stm32f4xx_hal_uart.c **** 
1857:Drivers/STM32F4xx_HAL_Driver/Src/stm32f4xx_hal_uart.c **** /**
1858:Drivers/STM32F4xx_HAL_Driver/Src/stm32f4xx_hal_uart.c ****   * @brief  Abort ongoing transfers (blocking mode).
1859:Drivers/STM32F4xx_HAL_Driver/Src/stm32f4xx_hal_uart.c ****   * @param  huart UART handle.
ARM GAS  /tmp/ccIpdX1g.s 			page 110


1860:Drivers/STM32F4xx_HAL_Driver/Src/stm32f4xx_hal_uart.c ****   * @note   This procedure could be used for aborting any ongoing transfer started in Interrupt or 
1861:Drivers/STM32F4xx_HAL_Driver/Src/stm32f4xx_hal_uart.c ****   *         This procedure performs following operations :
1862:Drivers/STM32F4xx_HAL_Driver/Src/stm32f4xx_hal_uart.c ****   *           - Disable UART Interrupts (Tx and Rx)
1863:Drivers/STM32F4xx_HAL_Driver/Src/stm32f4xx_hal_uart.c ****   *           - Disable the DMA transfer in the peripheral register (if enabled)
1864:Drivers/STM32F4xx_HAL_Driver/Src/stm32f4xx_hal_uart.c ****   *           - Abort DMA transfer by calling HAL_DMA_Abort (in case of transfer in DMA mode)
1865:Drivers/STM32F4xx_HAL_Driver/Src/stm32f4xx_hal_uart.c ****   *           - Set handle State to READY
1866:Drivers/STM32F4xx_HAL_Driver/Src/stm32f4xx_hal_uart.c ****   * @note   This procedure is executed in blocking mode : when exiting function, Abort is considere
1867:Drivers/STM32F4xx_HAL_Driver/Src/stm32f4xx_hal_uart.c ****   * @retval HAL status
1868:Drivers/STM32F4xx_HAL_Driver/Src/stm32f4xx_hal_uart.c ****   */
1869:Drivers/STM32F4xx_HAL_Driver/Src/stm32f4xx_hal_uart.c **** HAL_StatusTypeDef HAL_UART_Abort(UART_HandleTypeDef *huart)
1870:Drivers/STM32F4xx_HAL_Driver/Src/stm32f4xx_hal_uart.c **** {
 3228              		.loc 1 1870 1
 3229              		.cfi_startproc
 3230              		@ args = 0, pretend = 0, frame = 128
 3231              		@ frame_needed = 1, uses_anonymous_args = 0
 3232 0000 80B5     		push	{r7, lr}
 3233              	.LCFI100:
 3234              		.cfi_def_cfa_offset 8
 3235              		.cfi_offset 7, -8
 3236              		.cfi_offset 14, -4
 3237 0002 A0B0     		sub	sp, sp, #128
 3238              	.LCFI101:
 3239              		.cfi_def_cfa_offset 136
 3240 0004 00AF     		add	r7, sp, #0
 3241              	.LCFI102:
 3242              		.cfi_def_cfa_register 7
 3243 0006 7860     		str	r0, [r7, #4]
 3244              	.L172:
 3245              	.LBB389:
1871:Drivers/STM32F4xx_HAL_Driver/Src/stm32f4xx_hal_uart.c ****   /* Disable TXEIE, TCIE, RXNE, PE and ERR (Frame error, noise error, overrun error) interrupts */
1872:Drivers/STM32F4xx_HAL_Driver/Src/stm32f4xx_hal_uart.c ****   ATOMIC_CLEAR_BIT(huart->Instance->CR1, (USART_CR1_RXNEIE | USART_CR1_PEIE | USART_CR1_TXEIE | USA
 3246              		.loc 1 1872 3 discriminator 1
 3247 0008 7B68     		ldr	r3, [r7, #4]
 3248 000a 1B68     		ldr	r3, [r3]
 3249 000c 0C33     		adds	r3, r3, #12
 3250 000e FB65     		str	r3, [r7, #92]
 3251              	.LBB390:
 3252              	.LBB391:
1072:Drivers/CMSIS/Include/cmsis_gcc.h ****    return(result);
 3253              		.loc 2 1072 4 discriminator 1
 3254 0010 FB6D     		ldr	r3, [r7, #92]
 3255              		.syntax unified
 3256              	@ 1072 "Drivers/CMSIS/Include/cmsis_gcc.h" 1
 3257 0012 53E8003F 		ldrex r3, [r3]
 3258              	@ 0 "" 2
 3259              		.thumb
 3260              		.syntax unified
 3261 0016 BB65     		str	r3, [r7, #88]
1073:Drivers/CMSIS/Include/cmsis_gcc.h **** }
 3262              		.loc 2 1073 10 discriminator 1
 3263 0018 BB6D     		ldr	r3, [r7, #88]
 3264              	.LBE391:
 3265              	.LBE390:
 3266              		.loc 1 1872 3 discriminator 1
 3267 001a 23F4F073 		bic	r3, r3, #480
 3268 001e FB67     		str	r3, [r7, #124]
 3269 0020 7B68     		ldr	r3, [r7, #4]
ARM GAS  /tmp/ccIpdX1g.s 			page 111


 3270 0022 1B68     		ldr	r3, [r3]
 3271 0024 0C33     		adds	r3, r3, #12
 3272 0026 FA6F     		ldr	r2, [r7, #124]
 3273 0028 BA66     		str	r2, [r7, #104]
 3274 002a 7B66     		str	r3, [r7, #100]
 3275              	.LBB392:
 3276              	.LBB393:
1123:Drivers/CMSIS/Include/cmsis_gcc.h ****    return(result);
 3277              		.loc 2 1123 4 discriminator 1
 3278 002c 796E     		ldr	r1, [r7, #100]
 3279 002e BA6E     		ldr	r2, [r7, #104]
 3280              		.syntax unified
 3281              	@ 1123 "Drivers/CMSIS/Include/cmsis_gcc.h" 1
 3282 0030 41E80023 		strex r3, r2, [r1]
 3283              	@ 0 "" 2
 3284              		.thumb
 3285              		.syntax unified
 3286 0034 3B66     		str	r3, [r7, #96]
 3287              		.loc 2 1124 10 discriminator 1
 3288 0036 3B6E     		ldr	r3, [r7, #96]
 3289              	.LBE393:
 3290              	.LBE392:
 3291              		.loc 1 1872 3 discriminator 1
 3292 0038 002B     		cmp	r3, #0
 3293 003a E5D1     		bne	.L172
 3294              	.L175:
 3295              	.LBE389:
 3296              	.LBB394:
1873:Drivers/STM32F4xx_HAL_Driver/Src/stm32f4xx_hal_uart.c ****   ATOMIC_CLEAR_BIT(huart->Instance->CR3, USART_CR3_EIE);
 3297              		.loc 1 1873 3 discriminator 1
 3298 003c 7B68     		ldr	r3, [r7, #4]
 3299 003e 1B68     		ldr	r3, [r3]
 3300 0040 1433     		adds	r3, r3, #20
 3301 0042 BB64     		str	r3, [r7, #72]
 3302              	.LBB395:
 3303              	.LBB396:
1072:Drivers/CMSIS/Include/cmsis_gcc.h ****    return(result);
 3304              		.loc 2 1072 4 discriminator 1
 3305 0044 BB6C     		ldr	r3, [r7, #72]
 3306              		.syntax unified
 3307              	@ 1072 "Drivers/CMSIS/Include/cmsis_gcc.h" 1
 3308 0046 53E8003F 		ldrex r3, [r3]
 3309              	@ 0 "" 2
 3310              		.thumb
 3311              		.syntax unified
 3312 004a 7B64     		str	r3, [r7, #68]
1073:Drivers/CMSIS/Include/cmsis_gcc.h **** }
 3313              		.loc 2 1073 10 discriminator 1
 3314 004c 7B6C     		ldr	r3, [r7, #68]
 3315              	.LBE396:
 3316              	.LBE395:
 3317              		.loc 1 1873 3 discriminator 1
 3318 004e 23F00103 		bic	r3, r3, #1
 3319 0052 BB67     		str	r3, [r7, #120]
 3320 0054 7B68     		ldr	r3, [r7, #4]
 3321 0056 1B68     		ldr	r3, [r3]
 3322 0058 1433     		adds	r3, r3, #20
ARM GAS  /tmp/ccIpdX1g.s 			page 112


 3323 005a BA6F     		ldr	r2, [r7, #120]
 3324 005c 7A65     		str	r2, [r7, #84]
 3325 005e 3B65     		str	r3, [r7, #80]
 3326              	.LBB397:
 3327              	.LBB398:
1123:Drivers/CMSIS/Include/cmsis_gcc.h ****    return(result);
 3328              		.loc 2 1123 4 discriminator 1
 3329 0060 396D     		ldr	r1, [r7, #80]
 3330 0062 7A6D     		ldr	r2, [r7, #84]
 3331              		.syntax unified
 3332              	@ 1123 "Drivers/CMSIS/Include/cmsis_gcc.h" 1
 3333 0064 41E80023 		strex r3, r2, [r1]
 3334              	@ 0 "" 2
 3335              		.thumb
 3336              		.syntax unified
 3337 0068 FB64     		str	r3, [r7, #76]
 3338              		.loc 2 1124 10 discriminator 1
 3339 006a FB6C     		ldr	r3, [r7, #76]
 3340              	.LBE398:
 3341              	.LBE397:
 3342              		.loc 1 1873 3 discriminator 1
 3343 006c 002B     		cmp	r3, #0
 3344 006e E5D1     		bne	.L175
 3345              	.LBE394:
1874:Drivers/STM32F4xx_HAL_Driver/Src/stm32f4xx_hal_uart.c **** 
1875:Drivers/STM32F4xx_HAL_Driver/Src/stm32f4xx_hal_uart.c ****   /* If Reception till IDLE event was ongoing, disable IDLEIE interrupt */
1876:Drivers/STM32F4xx_HAL_Driver/Src/stm32f4xx_hal_uart.c ****   if (huart->ReceptionType == HAL_UART_RECEPTION_TOIDLE)
 3346              		.loc 1 1876 12
 3347 0070 7B68     		ldr	r3, [r7, #4]
 3348 0072 1B6B     		ldr	r3, [r3, #48]
 3349              		.loc 1 1876 6
 3350 0074 012B     		cmp	r3, #1
 3351 0076 19D1     		bne	.L176
 3352              	.L179:
 3353              	.LBB399:
1877:Drivers/STM32F4xx_HAL_Driver/Src/stm32f4xx_hal_uart.c ****   {
1878:Drivers/STM32F4xx_HAL_Driver/Src/stm32f4xx_hal_uart.c ****     ATOMIC_CLEAR_BIT(huart->Instance->CR1, (USART_CR1_IDLEIE));
 3354              		.loc 1 1878 5 discriminator 1
 3355 0078 7B68     		ldr	r3, [r7, #4]
 3356 007a 1B68     		ldr	r3, [r3]
 3357 007c 0C33     		adds	r3, r3, #12
 3358 007e 7B63     		str	r3, [r7, #52]
 3359              	.LBB400:
 3360              	.LBB401:
1072:Drivers/CMSIS/Include/cmsis_gcc.h ****    return(result);
 3361              		.loc 2 1072 4 discriminator 1
 3362 0080 7B6B     		ldr	r3, [r7, #52]
 3363              		.syntax unified
 3364              	@ 1072 "Drivers/CMSIS/Include/cmsis_gcc.h" 1
 3365 0082 53E8003F 		ldrex r3, [r3]
 3366              	@ 0 "" 2
 3367              		.thumb
 3368              		.syntax unified
 3369 0086 3B63     		str	r3, [r7, #48]
1073:Drivers/CMSIS/Include/cmsis_gcc.h **** }
 3370              		.loc 2 1073 10 discriminator 1
 3371 0088 3B6B     		ldr	r3, [r7, #48]
ARM GAS  /tmp/ccIpdX1g.s 			page 113


 3372              	.LBE401:
 3373              	.LBE400:
 3374              		.loc 1 1878 5 discriminator 1
 3375 008a 23F01003 		bic	r3, r3, #16
 3376 008e 7B67     		str	r3, [r7, #116]
 3377 0090 7B68     		ldr	r3, [r7, #4]
 3378 0092 1B68     		ldr	r3, [r3]
 3379 0094 0C33     		adds	r3, r3, #12
 3380 0096 7A6F     		ldr	r2, [r7, #116]
 3381 0098 3A64     		str	r2, [r7, #64]
 3382 009a FB63     		str	r3, [r7, #60]
 3383              	.LBB402:
 3384              	.LBB403:
1123:Drivers/CMSIS/Include/cmsis_gcc.h ****    return(result);
 3385              		.loc 2 1123 4 discriminator 1
 3386 009c F96B     		ldr	r1, [r7, #60]
 3387 009e 3A6C     		ldr	r2, [r7, #64]
 3388              		.syntax unified
 3389              	@ 1123 "Drivers/CMSIS/Include/cmsis_gcc.h" 1
 3390 00a0 41E80023 		strex r3, r2, [r1]
 3391              	@ 0 "" 2
 3392              		.thumb
 3393              		.syntax unified
 3394 00a4 BB63     		str	r3, [r7, #56]
 3395              		.loc 2 1124 10 discriminator 1
 3396 00a6 BB6B     		ldr	r3, [r7, #56]
 3397              	.LBE403:
 3398              	.LBE402:
 3399              		.loc 1 1878 5 discriminator 1
 3400 00a8 002B     		cmp	r3, #0
 3401 00aa E5D1     		bne	.L179
 3402              	.L176:
 3403              	.LBE399:
1879:Drivers/STM32F4xx_HAL_Driver/Src/stm32f4xx_hal_uart.c ****   }
1880:Drivers/STM32F4xx_HAL_Driver/Src/stm32f4xx_hal_uart.c **** 
1881:Drivers/STM32F4xx_HAL_Driver/Src/stm32f4xx_hal_uart.c ****   /* Disable the UART DMA Tx request if enabled */
1882:Drivers/STM32F4xx_HAL_Driver/Src/stm32f4xx_hal_uart.c ****   if (HAL_IS_BIT_SET(huart->Instance->CR3, USART_CR3_DMAT))
 3404              		.loc 1 1882 7
 3405 00ac 7B68     		ldr	r3, [r7, #4]
 3406 00ae 1B68     		ldr	r3, [r3]
 3407 00b0 5B69     		ldr	r3, [r3, #20]
 3408 00b2 03F08003 		and	r3, r3, #128
 3409              		.loc 1 1882 6
 3410 00b6 802B     		cmp	r3, #128
 3411 00b8 36D1     		bne	.L180
 3412              	.L183:
 3413              	.LBB404:
1883:Drivers/STM32F4xx_HAL_Driver/Src/stm32f4xx_hal_uart.c ****   {
1884:Drivers/STM32F4xx_HAL_Driver/Src/stm32f4xx_hal_uart.c ****     ATOMIC_CLEAR_BIT(huart->Instance->CR3, USART_CR3_DMAT);
 3414              		.loc 1 1884 5 discriminator 1
 3415 00ba 7B68     		ldr	r3, [r7, #4]
 3416 00bc 1B68     		ldr	r3, [r3]
 3417 00be 1433     		adds	r3, r3, #20
 3418 00c0 3B62     		str	r3, [r7, #32]
 3419              	.LBB405:
 3420              	.LBB406:
1072:Drivers/CMSIS/Include/cmsis_gcc.h ****    return(result);
ARM GAS  /tmp/ccIpdX1g.s 			page 114


 3421              		.loc 2 1072 4 discriminator 1
 3422 00c2 3B6A     		ldr	r3, [r7, #32]
 3423              		.syntax unified
 3424              	@ 1072 "Drivers/CMSIS/Include/cmsis_gcc.h" 1
 3425 00c4 53E8003F 		ldrex r3, [r3]
 3426              	@ 0 "" 2
 3427              		.thumb
 3428              		.syntax unified
 3429 00c8 FB61     		str	r3, [r7, #28]
1073:Drivers/CMSIS/Include/cmsis_gcc.h **** }
 3430              		.loc 2 1073 10 discriminator 1
 3431 00ca FB69     		ldr	r3, [r7, #28]
 3432              	.LBE406:
 3433              	.LBE405:
 3434              		.loc 1 1884 5 discriminator 1
 3435 00cc 23F08003 		bic	r3, r3, #128
 3436 00d0 3B67     		str	r3, [r7, #112]
 3437 00d2 7B68     		ldr	r3, [r7, #4]
 3438 00d4 1B68     		ldr	r3, [r3]
 3439 00d6 1433     		adds	r3, r3, #20
 3440 00d8 3A6F     		ldr	r2, [r7, #112]
 3441 00da FA62     		str	r2, [r7, #44]
 3442 00dc BB62     		str	r3, [r7, #40]
 3443              	.LBB407:
 3444              	.LBB408:
1123:Drivers/CMSIS/Include/cmsis_gcc.h ****    return(result);
 3445              		.loc 2 1123 4 discriminator 1
 3446 00de B96A     		ldr	r1, [r7, #40]
 3447 00e0 FA6A     		ldr	r2, [r7, #44]
 3448              		.syntax unified
 3449              	@ 1123 "Drivers/CMSIS/Include/cmsis_gcc.h" 1
 3450 00e2 41E80023 		strex r3, r2, [r1]
 3451              	@ 0 "" 2
 3452              		.thumb
 3453              		.syntax unified
 3454 00e6 7B62     		str	r3, [r7, #36]
 3455              		.loc 2 1124 10 discriminator 1
 3456 00e8 7B6A     		ldr	r3, [r7, #36]
 3457              	.LBE408:
 3458              	.LBE407:
 3459              		.loc 1 1884 5 discriminator 1
 3460 00ea 002B     		cmp	r3, #0
 3461 00ec E5D1     		bne	.L183
 3462              	.LBE404:
1885:Drivers/STM32F4xx_HAL_Driver/Src/stm32f4xx_hal_uart.c **** 
1886:Drivers/STM32F4xx_HAL_Driver/Src/stm32f4xx_hal_uart.c ****     /* Abort the UART DMA Tx stream: use blocking DMA Abort API (no callback) */
1887:Drivers/STM32F4xx_HAL_Driver/Src/stm32f4xx_hal_uart.c ****     if (huart->hdmatx != NULL)
 3463              		.loc 1 1887 14
 3464 00ee 7B68     		ldr	r3, [r7, #4]
 3465 00f0 5B6B     		ldr	r3, [r3, #52]
 3466              		.loc 1 1887 8
 3467 00f2 002B     		cmp	r3, #0
 3468 00f4 18D0     		beq	.L180
1888:Drivers/STM32F4xx_HAL_Driver/Src/stm32f4xx_hal_uart.c ****     {
1889:Drivers/STM32F4xx_HAL_Driver/Src/stm32f4xx_hal_uart.c ****       /* Set the UART DMA Abort callback to Null.
1890:Drivers/STM32F4xx_HAL_Driver/Src/stm32f4xx_hal_uart.c ****          No call back execution at end of DMA abort procedure */
1891:Drivers/STM32F4xx_HAL_Driver/Src/stm32f4xx_hal_uart.c ****       huart->hdmatx->XferAbortCallback = NULL;
ARM GAS  /tmp/ccIpdX1g.s 			page 115


 3469              		.loc 1 1891 12
 3470 00f6 7B68     		ldr	r3, [r7, #4]
 3471 00f8 5B6B     		ldr	r3, [r3, #52]
 3472              		.loc 1 1891 40
 3473 00fa 0022     		movs	r2, #0
 3474 00fc 1A65     		str	r2, [r3, #80]
1892:Drivers/STM32F4xx_HAL_Driver/Src/stm32f4xx_hal_uart.c **** 
1893:Drivers/STM32F4xx_HAL_Driver/Src/stm32f4xx_hal_uart.c ****       if (HAL_DMA_Abort(huart->hdmatx) != HAL_OK)
 3475              		.loc 1 1893 11
 3476 00fe 7B68     		ldr	r3, [r7, #4]
 3477 0100 5B6B     		ldr	r3, [r3, #52]
 3478 0102 1846     		mov	r0, r3
 3479 0104 FFF7FEFF 		bl	HAL_DMA_Abort
 3480 0108 0346     		mov	r3, r0
 3481              		.loc 1 1893 10
 3482 010a 002B     		cmp	r3, #0
 3483 010c 0CD0     		beq	.L180
1894:Drivers/STM32F4xx_HAL_Driver/Src/stm32f4xx_hal_uart.c ****       {
1895:Drivers/STM32F4xx_HAL_Driver/Src/stm32f4xx_hal_uart.c ****         if (HAL_DMA_GetError(huart->hdmatx) == HAL_DMA_ERROR_TIMEOUT)
 3484              		.loc 1 1895 13
 3485 010e 7B68     		ldr	r3, [r7, #4]
 3486 0110 5B6B     		ldr	r3, [r3, #52]
 3487 0112 1846     		mov	r0, r3
 3488 0114 FFF7FEFF 		bl	HAL_DMA_GetError
 3489 0118 0346     		mov	r3, r0
 3490              		.loc 1 1895 12
 3491 011a 202B     		cmp	r3, #32
 3492 011c 04D1     		bne	.L180
1896:Drivers/STM32F4xx_HAL_Driver/Src/stm32f4xx_hal_uart.c ****         {
1897:Drivers/STM32F4xx_HAL_Driver/Src/stm32f4xx_hal_uart.c ****           /* Set error code to DMA */
1898:Drivers/STM32F4xx_HAL_Driver/Src/stm32f4xx_hal_uart.c ****           huart->ErrorCode = HAL_UART_ERROR_DMA;
 3493              		.loc 1 1898 28
 3494 011e 7B68     		ldr	r3, [r7, #4]
 3495 0120 1022     		movs	r2, #16
 3496 0122 1A64     		str	r2, [r3, #64]
1899:Drivers/STM32F4xx_HAL_Driver/Src/stm32f4xx_hal_uart.c **** 
1900:Drivers/STM32F4xx_HAL_Driver/Src/stm32f4xx_hal_uart.c ****           return HAL_TIMEOUT;
 3497              		.loc 1 1900 18
 3498 0124 0323     		movs	r3, #3
 3499 0126 52E0     		b	.L184
 3500              	.L180:
1901:Drivers/STM32F4xx_HAL_Driver/Src/stm32f4xx_hal_uart.c ****         }
1902:Drivers/STM32F4xx_HAL_Driver/Src/stm32f4xx_hal_uart.c ****       }
1903:Drivers/STM32F4xx_HAL_Driver/Src/stm32f4xx_hal_uart.c ****     }
1904:Drivers/STM32F4xx_HAL_Driver/Src/stm32f4xx_hal_uart.c ****   }
1905:Drivers/STM32F4xx_HAL_Driver/Src/stm32f4xx_hal_uart.c **** 
1906:Drivers/STM32F4xx_HAL_Driver/Src/stm32f4xx_hal_uart.c ****   /* Disable the UART DMA Rx request if enabled */
1907:Drivers/STM32F4xx_HAL_Driver/Src/stm32f4xx_hal_uart.c ****   if (HAL_IS_BIT_SET(huart->Instance->CR3, USART_CR3_DMAR))
 3501              		.loc 1 1907 7
 3502 0128 7B68     		ldr	r3, [r7, #4]
 3503 012a 1B68     		ldr	r3, [r3]
 3504 012c 5B69     		ldr	r3, [r3, #20]
 3505 012e 03F04003 		and	r3, r3, #64
 3506              		.loc 1 1907 6
 3507 0132 402B     		cmp	r3, #64
 3508 0134 36D1     		bne	.L185
 3509              	.L188:
ARM GAS  /tmp/ccIpdX1g.s 			page 116


 3510              	.LBB409:
1908:Drivers/STM32F4xx_HAL_Driver/Src/stm32f4xx_hal_uart.c ****   {
1909:Drivers/STM32F4xx_HAL_Driver/Src/stm32f4xx_hal_uart.c ****     ATOMIC_CLEAR_BIT(huart->Instance->CR3, USART_CR3_DMAR);
 3511              		.loc 1 1909 5 discriminator 1
 3512 0136 7B68     		ldr	r3, [r7, #4]
 3513 0138 1B68     		ldr	r3, [r3]
 3514 013a 1433     		adds	r3, r3, #20
 3515 013c FB60     		str	r3, [r7, #12]
 3516              	.LBB410:
 3517              	.LBB411:
1072:Drivers/CMSIS/Include/cmsis_gcc.h ****    return(result);
 3518              		.loc 2 1072 4 discriminator 1
 3519 013e FB68     		ldr	r3, [r7, #12]
 3520              		.syntax unified
 3521              	@ 1072 "Drivers/CMSIS/Include/cmsis_gcc.h" 1
 3522 0140 53E8003F 		ldrex r3, [r3]
 3523              	@ 0 "" 2
 3524              		.thumb
 3525              		.syntax unified
 3526 0144 BB60     		str	r3, [r7, #8]
1073:Drivers/CMSIS/Include/cmsis_gcc.h **** }
 3527              		.loc 2 1073 10 discriminator 1
 3528 0146 BB68     		ldr	r3, [r7, #8]
 3529              	.LBE411:
 3530              	.LBE410:
 3531              		.loc 1 1909 5 discriminator 1
 3532 0148 23F04003 		bic	r3, r3, #64
 3533 014c FB66     		str	r3, [r7, #108]
 3534 014e 7B68     		ldr	r3, [r7, #4]
 3535 0150 1B68     		ldr	r3, [r3]
 3536 0152 1433     		adds	r3, r3, #20
 3537 0154 FA6E     		ldr	r2, [r7, #108]
 3538 0156 BA61     		str	r2, [r7, #24]
 3539 0158 7B61     		str	r3, [r7, #20]
 3540              	.LBB412:
 3541              	.LBB413:
1123:Drivers/CMSIS/Include/cmsis_gcc.h ****    return(result);
 3542              		.loc 2 1123 4 discriminator 1
 3543 015a 7969     		ldr	r1, [r7, #20]
 3544 015c BA69     		ldr	r2, [r7, #24]
 3545              		.syntax unified
 3546              	@ 1123 "Drivers/CMSIS/Include/cmsis_gcc.h" 1
 3547 015e 41E80023 		strex r3, r2, [r1]
 3548              	@ 0 "" 2
 3549              		.thumb
 3550              		.syntax unified
 3551 0162 3B61     		str	r3, [r7, #16]
 3552              		.loc 2 1124 10 discriminator 1
 3553 0164 3B69     		ldr	r3, [r7, #16]
 3554              	.LBE413:
 3555              	.LBE412:
 3556              		.loc 1 1909 5 discriminator 1
 3557 0166 002B     		cmp	r3, #0
 3558 0168 E5D1     		bne	.L188
 3559              	.LBE409:
1910:Drivers/STM32F4xx_HAL_Driver/Src/stm32f4xx_hal_uart.c **** 
1911:Drivers/STM32F4xx_HAL_Driver/Src/stm32f4xx_hal_uart.c ****     /* Abort the UART DMA Rx stream: use blocking DMA Abort API (no callback) */
ARM GAS  /tmp/ccIpdX1g.s 			page 117


1912:Drivers/STM32F4xx_HAL_Driver/Src/stm32f4xx_hal_uart.c ****     if (huart->hdmarx != NULL)
 3560              		.loc 1 1912 14
 3561 016a 7B68     		ldr	r3, [r7, #4]
 3562 016c 9B6B     		ldr	r3, [r3, #56]
 3563              		.loc 1 1912 8
 3564 016e 002B     		cmp	r3, #0
 3565 0170 18D0     		beq	.L185
1913:Drivers/STM32F4xx_HAL_Driver/Src/stm32f4xx_hal_uart.c ****     {
1914:Drivers/STM32F4xx_HAL_Driver/Src/stm32f4xx_hal_uart.c ****       /* Set the UART DMA Abort callback to Null.
1915:Drivers/STM32F4xx_HAL_Driver/Src/stm32f4xx_hal_uart.c ****          No call back execution at end of DMA abort procedure */
1916:Drivers/STM32F4xx_HAL_Driver/Src/stm32f4xx_hal_uart.c ****       huart->hdmarx->XferAbortCallback = NULL;
 3566              		.loc 1 1916 12
 3567 0172 7B68     		ldr	r3, [r7, #4]
 3568 0174 9B6B     		ldr	r3, [r3, #56]
 3569              		.loc 1 1916 40
 3570 0176 0022     		movs	r2, #0
 3571 0178 1A65     		str	r2, [r3, #80]
1917:Drivers/STM32F4xx_HAL_Driver/Src/stm32f4xx_hal_uart.c **** 
1918:Drivers/STM32F4xx_HAL_Driver/Src/stm32f4xx_hal_uart.c ****       if (HAL_DMA_Abort(huart->hdmarx) != HAL_OK)
 3572              		.loc 1 1918 11
 3573 017a 7B68     		ldr	r3, [r7, #4]
 3574 017c 9B6B     		ldr	r3, [r3, #56]
 3575 017e 1846     		mov	r0, r3
 3576 0180 FFF7FEFF 		bl	HAL_DMA_Abort
 3577 0184 0346     		mov	r3, r0
 3578              		.loc 1 1918 10
 3579 0186 002B     		cmp	r3, #0
 3580 0188 0CD0     		beq	.L185
1919:Drivers/STM32F4xx_HAL_Driver/Src/stm32f4xx_hal_uart.c ****       {
1920:Drivers/STM32F4xx_HAL_Driver/Src/stm32f4xx_hal_uart.c ****         if (HAL_DMA_GetError(huart->hdmarx) == HAL_DMA_ERROR_TIMEOUT)
 3581              		.loc 1 1920 13
 3582 018a 7B68     		ldr	r3, [r7, #4]
 3583 018c 9B6B     		ldr	r3, [r3, #56]
 3584 018e 1846     		mov	r0, r3
 3585 0190 FFF7FEFF 		bl	HAL_DMA_GetError
 3586 0194 0346     		mov	r3, r0
 3587              		.loc 1 1920 12
 3588 0196 202B     		cmp	r3, #32
 3589 0198 04D1     		bne	.L185
1921:Drivers/STM32F4xx_HAL_Driver/Src/stm32f4xx_hal_uart.c ****         {
1922:Drivers/STM32F4xx_HAL_Driver/Src/stm32f4xx_hal_uart.c ****           /* Set error code to DMA */
1923:Drivers/STM32F4xx_HAL_Driver/Src/stm32f4xx_hal_uart.c ****           huart->ErrorCode = HAL_UART_ERROR_DMA;
 3590              		.loc 1 1923 28
 3591 019a 7B68     		ldr	r3, [r7, #4]
 3592 019c 1022     		movs	r2, #16
 3593 019e 1A64     		str	r2, [r3, #64]
1924:Drivers/STM32F4xx_HAL_Driver/Src/stm32f4xx_hal_uart.c **** 
1925:Drivers/STM32F4xx_HAL_Driver/Src/stm32f4xx_hal_uart.c ****           return HAL_TIMEOUT;
 3594              		.loc 1 1925 18
 3595 01a0 0323     		movs	r3, #3
 3596 01a2 14E0     		b	.L184
 3597              	.L185:
1926:Drivers/STM32F4xx_HAL_Driver/Src/stm32f4xx_hal_uart.c ****         }
1927:Drivers/STM32F4xx_HAL_Driver/Src/stm32f4xx_hal_uart.c ****       }
1928:Drivers/STM32F4xx_HAL_Driver/Src/stm32f4xx_hal_uart.c ****     }
1929:Drivers/STM32F4xx_HAL_Driver/Src/stm32f4xx_hal_uart.c ****   }
1930:Drivers/STM32F4xx_HAL_Driver/Src/stm32f4xx_hal_uart.c **** 
ARM GAS  /tmp/ccIpdX1g.s 			page 118


1931:Drivers/STM32F4xx_HAL_Driver/Src/stm32f4xx_hal_uart.c ****   /* Reset Tx and Rx transfer counters */
1932:Drivers/STM32F4xx_HAL_Driver/Src/stm32f4xx_hal_uart.c ****   huart->TxXferCount = 0x00U;
 3598              		.loc 1 1932 22
 3599 01a4 7B68     		ldr	r3, [r7, #4]
 3600 01a6 0022     		movs	r2, #0
 3601 01a8 DA84     		strh	r2, [r3, #38]	@ movhi
1933:Drivers/STM32F4xx_HAL_Driver/Src/stm32f4xx_hal_uart.c ****   huart->RxXferCount = 0x00U;
 3602              		.loc 1 1933 22
 3603 01aa 7B68     		ldr	r3, [r7, #4]
 3604 01ac 0022     		movs	r2, #0
 3605 01ae DA85     		strh	r2, [r3, #46]	@ movhi
1934:Drivers/STM32F4xx_HAL_Driver/Src/stm32f4xx_hal_uart.c **** 
1935:Drivers/STM32F4xx_HAL_Driver/Src/stm32f4xx_hal_uart.c ****   /* Reset ErrorCode */
1936:Drivers/STM32F4xx_HAL_Driver/Src/stm32f4xx_hal_uart.c ****   huart->ErrorCode = HAL_UART_ERROR_NONE;
 3606              		.loc 1 1936 20
 3607 01b0 7B68     		ldr	r3, [r7, #4]
 3608 01b2 0022     		movs	r2, #0
 3609 01b4 1A64     		str	r2, [r3, #64]
1937:Drivers/STM32F4xx_HAL_Driver/Src/stm32f4xx_hal_uart.c **** 
1938:Drivers/STM32F4xx_HAL_Driver/Src/stm32f4xx_hal_uart.c ****   /* Restore huart->RxState and huart->gState to Ready */
1939:Drivers/STM32F4xx_HAL_Driver/Src/stm32f4xx_hal_uart.c ****   huart->RxState = HAL_UART_STATE_READY;
 3610              		.loc 1 1939 18
 3611 01b6 7B68     		ldr	r3, [r7, #4]
 3612 01b8 2022     		movs	r2, #32
 3613 01ba 83F83E20 		strb	r2, [r3, #62]
1940:Drivers/STM32F4xx_HAL_Driver/Src/stm32f4xx_hal_uart.c ****   huart->gState = HAL_UART_STATE_READY;
 3614              		.loc 1 1940 17
 3615 01be 7B68     		ldr	r3, [r7, #4]
 3616 01c0 2022     		movs	r2, #32
 3617 01c2 83F83D20 		strb	r2, [r3, #61]
1941:Drivers/STM32F4xx_HAL_Driver/Src/stm32f4xx_hal_uart.c ****   huart->ReceptionType = HAL_UART_RECEPTION_STANDARD;
 3618              		.loc 1 1941 24
 3619 01c6 7B68     		ldr	r3, [r7, #4]
 3620 01c8 0022     		movs	r2, #0
 3621 01ca 1A63     		str	r2, [r3, #48]
1942:Drivers/STM32F4xx_HAL_Driver/Src/stm32f4xx_hal_uart.c **** 
1943:Drivers/STM32F4xx_HAL_Driver/Src/stm32f4xx_hal_uart.c ****   return HAL_OK;
 3622              		.loc 1 1943 10
 3623 01cc 0023     		movs	r3, #0
 3624              	.L184:
1944:Drivers/STM32F4xx_HAL_Driver/Src/stm32f4xx_hal_uart.c **** }
 3625              		.loc 1 1944 1
 3626 01ce 1846     		mov	r0, r3
 3627 01d0 8037     		adds	r7, r7, #128
 3628              	.LCFI103:
 3629              		.cfi_def_cfa_offset 8
 3630 01d2 BD46     		mov	sp, r7
 3631              	.LCFI104:
 3632              		.cfi_def_cfa_register 13
 3633              		@ sp needed
 3634 01d4 80BD     		pop	{r7, pc}
 3635              		.cfi_endproc
 3636              	.LFE235:
 3638              		.section	.text.HAL_UART_AbortTransmit,"ax",%progbits
 3639              		.align	1
 3640              		.global	HAL_UART_AbortTransmit
 3641              		.syntax unified
ARM GAS  /tmp/ccIpdX1g.s 			page 119


 3642              		.thumb
 3643              		.thumb_func
 3645              	HAL_UART_AbortTransmit:
 3646              	.LFB236:
1945:Drivers/STM32F4xx_HAL_Driver/Src/stm32f4xx_hal_uart.c **** 
1946:Drivers/STM32F4xx_HAL_Driver/Src/stm32f4xx_hal_uart.c **** /**
1947:Drivers/STM32F4xx_HAL_Driver/Src/stm32f4xx_hal_uart.c ****   * @brief  Abort ongoing Transmit transfer (blocking mode).
1948:Drivers/STM32F4xx_HAL_Driver/Src/stm32f4xx_hal_uart.c ****   * @param  huart UART handle.
1949:Drivers/STM32F4xx_HAL_Driver/Src/stm32f4xx_hal_uart.c ****   * @note   This procedure could be used for aborting any ongoing Tx transfer started in Interrupt 
1950:Drivers/STM32F4xx_HAL_Driver/Src/stm32f4xx_hal_uart.c ****   *         This procedure performs following operations :
1951:Drivers/STM32F4xx_HAL_Driver/Src/stm32f4xx_hal_uart.c ****   *           - Disable UART Interrupts (Tx)
1952:Drivers/STM32F4xx_HAL_Driver/Src/stm32f4xx_hal_uart.c ****   *           - Disable the DMA transfer in the peripheral register (if enabled)
1953:Drivers/STM32F4xx_HAL_Driver/Src/stm32f4xx_hal_uart.c ****   *           - Abort DMA transfer by calling HAL_DMA_Abort (in case of transfer in DMA mode)
1954:Drivers/STM32F4xx_HAL_Driver/Src/stm32f4xx_hal_uart.c ****   *           - Set handle State to READY
1955:Drivers/STM32F4xx_HAL_Driver/Src/stm32f4xx_hal_uart.c ****   * @note   This procedure is executed in blocking mode : when exiting function, Abort is considere
1956:Drivers/STM32F4xx_HAL_Driver/Src/stm32f4xx_hal_uart.c ****   * @retval HAL status
1957:Drivers/STM32F4xx_HAL_Driver/Src/stm32f4xx_hal_uart.c ****   */
1958:Drivers/STM32F4xx_HAL_Driver/Src/stm32f4xx_hal_uart.c **** HAL_StatusTypeDef HAL_UART_AbortTransmit(UART_HandleTypeDef *huart)
1959:Drivers/STM32F4xx_HAL_Driver/Src/stm32f4xx_hal_uart.c **** {
 3647              		.loc 1 1959 1
 3648              		.cfi_startproc
 3649              		@ args = 0, pretend = 0, frame = 56
 3650              		@ frame_needed = 1, uses_anonymous_args = 0
 3651 0000 80B5     		push	{r7, lr}
 3652              	.LCFI105:
 3653              		.cfi_def_cfa_offset 8
 3654              		.cfi_offset 7, -8
 3655              		.cfi_offset 14, -4
 3656 0002 8EB0     		sub	sp, sp, #56
 3657              	.LCFI106:
 3658              		.cfi_def_cfa_offset 64
 3659 0004 00AF     		add	r7, sp, #0
 3660              	.LCFI107:
 3661              		.cfi_def_cfa_register 7
 3662 0006 7860     		str	r0, [r7, #4]
 3663              	.L192:
 3664              	.LBB414:
1960:Drivers/STM32F4xx_HAL_Driver/Src/stm32f4xx_hal_uart.c ****   /* Disable TXEIE and TCIE interrupts */
1961:Drivers/STM32F4xx_HAL_Driver/Src/stm32f4xx_hal_uart.c ****   ATOMIC_CLEAR_BIT(huart->Instance->CR1, (USART_CR1_TXEIE | USART_CR1_TCIE));
 3665              		.loc 1 1961 3 discriminator 1
 3666 0008 7B68     		ldr	r3, [r7, #4]
 3667 000a 1B68     		ldr	r3, [r3]
 3668 000c 0C33     		adds	r3, r3, #12
 3669 000e 3B62     		str	r3, [r7, #32]
 3670              	.LBB415:
 3671              	.LBB416:
1072:Drivers/CMSIS/Include/cmsis_gcc.h ****    return(result);
 3672              		.loc 2 1072 4 discriminator 1
 3673 0010 3B6A     		ldr	r3, [r7, #32]
 3674              		.syntax unified
 3675              	@ 1072 "Drivers/CMSIS/Include/cmsis_gcc.h" 1
 3676 0012 53E8003F 		ldrex r3, [r3]
 3677              	@ 0 "" 2
 3678              		.thumb
 3679              		.syntax unified
 3680 0016 FB61     		str	r3, [r7, #28]
1073:Drivers/CMSIS/Include/cmsis_gcc.h **** }
ARM GAS  /tmp/ccIpdX1g.s 			page 120


 3681              		.loc 2 1073 10 discriminator 1
 3682 0018 FB69     		ldr	r3, [r7, #28]
 3683              	.LBE416:
 3684              	.LBE415:
 3685              		.loc 1 1961 3 discriminator 1
 3686 001a 23F0C003 		bic	r3, r3, #192
 3687 001e 7B63     		str	r3, [r7, #52]
 3688 0020 7B68     		ldr	r3, [r7, #4]
 3689 0022 1B68     		ldr	r3, [r3]
 3690 0024 0C33     		adds	r3, r3, #12
 3691 0026 7A6B     		ldr	r2, [r7, #52]
 3692 0028 FA62     		str	r2, [r7, #44]
 3693 002a BB62     		str	r3, [r7, #40]
 3694              	.LBB417:
 3695              	.LBB418:
1123:Drivers/CMSIS/Include/cmsis_gcc.h ****    return(result);
 3696              		.loc 2 1123 4 discriminator 1
 3697 002c B96A     		ldr	r1, [r7, #40]
 3698 002e FA6A     		ldr	r2, [r7, #44]
 3699              		.syntax unified
 3700              	@ 1123 "Drivers/CMSIS/Include/cmsis_gcc.h" 1
 3701 0030 41E80023 		strex r3, r2, [r1]
 3702              	@ 0 "" 2
 3703              		.thumb
 3704              		.syntax unified
 3705 0034 7B62     		str	r3, [r7, #36]
 3706              		.loc 2 1124 10 discriminator 1
 3707 0036 7B6A     		ldr	r3, [r7, #36]
 3708              	.LBE418:
 3709              	.LBE417:
 3710              		.loc 1 1961 3 discriminator 1
 3711 0038 002B     		cmp	r3, #0
 3712 003a E5D1     		bne	.L192
 3713              	.LBE414:
1962:Drivers/STM32F4xx_HAL_Driver/Src/stm32f4xx_hal_uart.c **** 
1963:Drivers/STM32F4xx_HAL_Driver/Src/stm32f4xx_hal_uart.c ****   /* Disable the UART DMA Tx request if enabled */
1964:Drivers/STM32F4xx_HAL_Driver/Src/stm32f4xx_hal_uart.c ****   if (HAL_IS_BIT_SET(huart->Instance->CR3, USART_CR3_DMAT))
 3714              		.loc 1 1964 7
 3715 003c 7B68     		ldr	r3, [r7, #4]
 3716 003e 1B68     		ldr	r3, [r3]
 3717 0040 5B69     		ldr	r3, [r3, #20]
 3718 0042 03F08003 		and	r3, r3, #128
 3719              		.loc 1 1964 6
 3720 0046 802B     		cmp	r3, #128
 3721 0048 36D1     		bne	.L193
 3722              	.L196:
 3723              	.LBB419:
1965:Drivers/STM32F4xx_HAL_Driver/Src/stm32f4xx_hal_uart.c ****   {
1966:Drivers/STM32F4xx_HAL_Driver/Src/stm32f4xx_hal_uart.c ****     ATOMIC_CLEAR_BIT(huart->Instance->CR3, USART_CR3_DMAT);
 3724              		.loc 1 1966 5 discriminator 1
 3725 004a 7B68     		ldr	r3, [r7, #4]
 3726 004c 1B68     		ldr	r3, [r3]
 3727 004e 1433     		adds	r3, r3, #20
 3728 0050 FB60     		str	r3, [r7, #12]
 3729              	.LBB420:
 3730              	.LBB421:
1072:Drivers/CMSIS/Include/cmsis_gcc.h ****    return(result);
ARM GAS  /tmp/ccIpdX1g.s 			page 121


 3731              		.loc 2 1072 4 discriminator 1
 3732 0052 FB68     		ldr	r3, [r7, #12]
 3733              		.syntax unified
 3734              	@ 1072 "Drivers/CMSIS/Include/cmsis_gcc.h" 1
 3735 0054 53E8003F 		ldrex r3, [r3]
 3736              	@ 0 "" 2
 3737              		.thumb
 3738              		.syntax unified
 3739 0058 BB60     		str	r3, [r7, #8]
1073:Drivers/CMSIS/Include/cmsis_gcc.h **** }
 3740              		.loc 2 1073 10 discriminator 1
 3741 005a BB68     		ldr	r3, [r7, #8]
 3742              	.LBE421:
 3743              	.LBE420:
 3744              		.loc 1 1966 5 discriminator 1
 3745 005c 23F08003 		bic	r3, r3, #128
 3746 0060 3B63     		str	r3, [r7, #48]
 3747 0062 7B68     		ldr	r3, [r7, #4]
 3748 0064 1B68     		ldr	r3, [r3]
 3749 0066 1433     		adds	r3, r3, #20
 3750 0068 3A6B     		ldr	r2, [r7, #48]
 3751 006a BA61     		str	r2, [r7, #24]
 3752 006c 7B61     		str	r3, [r7, #20]
 3753              	.LBB422:
 3754              	.LBB423:
1123:Drivers/CMSIS/Include/cmsis_gcc.h ****    return(result);
 3755              		.loc 2 1123 4 discriminator 1
 3756 006e 7969     		ldr	r1, [r7, #20]
 3757 0070 BA69     		ldr	r2, [r7, #24]
 3758              		.syntax unified
 3759              	@ 1123 "Drivers/CMSIS/Include/cmsis_gcc.h" 1
 3760 0072 41E80023 		strex r3, r2, [r1]
 3761              	@ 0 "" 2
 3762              		.thumb
 3763              		.syntax unified
 3764 0076 3B61     		str	r3, [r7, #16]
 3765              		.loc 2 1124 10 discriminator 1
 3766 0078 3B69     		ldr	r3, [r7, #16]
 3767              	.LBE423:
 3768              	.LBE422:
 3769              		.loc 1 1966 5 discriminator 1
 3770 007a 002B     		cmp	r3, #0
 3771 007c E5D1     		bne	.L196
 3772              	.LBE419:
1967:Drivers/STM32F4xx_HAL_Driver/Src/stm32f4xx_hal_uart.c **** 
1968:Drivers/STM32F4xx_HAL_Driver/Src/stm32f4xx_hal_uart.c ****     /* Abort the UART DMA Tx stream : use blocking DMA Abort API (no callback) */
1969:Drivers/STM32F4xx_HAL_Driver/Src/stm32f4xx_hal_uart.c ****     if (huart->hdmatx != NULL)
 3773              		.loc 1 1969 14
 3774 007e 7B68     		ldr	r3, [r7, #4]
 3775 0080 5B6B     		ldr	r3, [r3, #52]
 3776              		.loc 1 1969 8
 3777 0082 002B     		cmp	r3, #0
 3778 0084 18D0     		beq	.L193
1970:Drivers/STM32F4xx_HAL_Driver/Src/stm32f4xx_hal_uart.c ****     {
1971:Drivers/STM32F4xx_HAL_Driver/Src/stm32f4xx_hal_uart.c ****       /* Set the UART DMA Abort callback to Null.
1972:Drivers/STM32F4xx_HAL_Driver/Src/stm32f4xx_hal_uart.c ****          No call back execution at end of DMA abort procedure */
1973:Drivers/STM32F4xx_HAL_Driver/Src/stm32f4xx_hal_uart.c ****       huart->hdmatx->XferAbortCallback = NULL;
ARM GAS  /tmp/ccIpdX1g.s 			page 122


 3779              		.loc 1 1973 12
 3780 0086 7B68     		ldr	r3, [r7, #4]
 3781 0088 5B6B     		ldr	r3, [r3, #52]
 3782              		.loc 1 1973 40
 3783 008a 0022     		movs	r2, #0
 3784 008c 1A65     		str	r2, [r3, #80]
1974:Drivers/STM32F4xx_HAL_Driver/Src/stm32f4xx_hal_uart.c **** 
1975:Drivers/STM32F4xx_HAL_Driver/Src/stm32f4xx_hal_uart.c ****       if (HAL_DMA_Abort(huart->hdmatx) != HAL_OK)
 3785              		.loc 1 1975 11
 3786 008e 7B68     		ldr	r3, [r7, #4]
 3787 0090 5B6B     		ldr	r3, [r3, #52]
 3788 0092 1846     		mov	r0, r3
 3789 0094 FFF7FEFF 		bl	HAL_DMA_Abort
 3790 0098 0346     		mov	r3, r0
 3791              		.loc 1 1975 10
 3792 009a 002B     		cmp	r3, #0
 3793 009c 0CD0     		beq	.L193
1976:Drivers/STM32F4xx_HAL_Driver/Src/stm32f4xx_hal_uart.c ****       {
1977:Drivers/STM32F4xx_HAL_Driver/Src/stm32f4xx_hal_uart.c ****         if (HAL_DMA_GetError(huart->hdmatx) == HAL_DMA_ERROR_TIMEOUT)
 3794              		.loc 1 1977 13
 3795 009e 7B68     		ldr	r3, [r7, #4]
 3796 00a0 5B6B     		ldr	r3, [r3, #52]
 3797 00a2 1846     		mov	r0, r3
 3798 00a4 FFF7FEFF 		bl	HAL_DMA_GetError
 3799 00a8 0346     		mov	r3, r0
 3800              		.loc 1 1977 12
 3801 00aa 202B     		cmp	r3, #32
 3802 00ac 04D1     		bne	.L193
1978:Drivers/STM32F4xx_HAL_Driver/Src/stm32f4xx_hal_uart.c ****         {
1979:Drivers/STM32F4xx_HAL_Driver/Src/stm32f4xx_hal_uart.c ****           /* Set error code to DMA */
1980:Drivers/STM32F4xx_HAL_Driver/Src/stm32f4xx_hal_uart.c ****           huart->ErrorCode = HAL_UART_ERROR_DMA;
 3803              		.loc 1 1980 28
 3804 00ae 7B68     		ldr	r3, [r7, #4]
 3805 00b0 1022     		movs	r2, #16
 3806 00b2 1A64     		str	r2, [r3, #64]
1981:Drivers/STM32F4xx_HAL_Driver/Src/stm32f4xx_hal_uart.c **** 
1982:Drivers/STM32F4xx_HAL_Driver/Src/stm32f4xx_hal_uart.c ****           return HAL_TIMEOUT;
 3807              		.loc 1 1982 18
 3808 00b4 0323     		movs	r3, #3
 3809 00b6 07E0     		b	.L197
 3810              	.L193:
1983:Drivers/STM32F4xx_HAL_Driver/Src/stm32f4xx_hal_uart.c ****         }
1984:Drivers/STM32F4xx_HAL_Driver/Src/stm32f4xx_hal_uart.c ****       }
1985:Drivers/STM32F4xx_HAL_Driver/Src/stm32f4xx_hal_uart.c ****     }
1986:Drivers/STM32F4xx_HAL_Driver/Src/stm32f4xx_hal_uart.c ****   }
1987:Drivers/STM32F4xx_HAL_Driver/Src/stm32f4xx_hal_uart.c **** 
1988:Drivers/STM32F4xx_HAL_Driver/Src/stm32f4xx_hal_uart.c ****   /* Reset Tx transfer counter */
1989:Drivers/STM32F4xx_HAL_Driver/Src/stm32f4xx_hal_uart.c ****   huart->TxXferCount = 0x00U;
 3811              		.loc 1 1989 22
 3812 00b8 7B68     		ldr	r3, [r7, #4]
 3813 00ba 0022     		movs	r2, #0
 3814 00bc DA84     		strh	r2, [r3, #38]	@ movhi
1990:Drivers/STM32F4xx_HAL_Driver/Src/stm32f4xx_hal_uart.c **** 
1991:Drivers/STM32F4xx_HAL_Driver/Src/stm32f4xx_hal_uart.c ****   /* Restore huart->gState to Ready */
1992:Drivers/STM32F4xx_HAL_Driver/Src/stm32f4xx_hal_uart.c ****   huart->gState = HAL_UART_STATE_READY;
 3815              		.loc 1 1992 17
 3816 00be 7B68     		ldr	r3, [r7, #4]
ARM GAS  /tmp/ccIpdX1g.s 			page 123


 3817 00c0 2022     		movs	r2, #32
 3818 00c2 83F83D20 		strb	r2, [r3, #61]
1993:Drivers/STM32F4xx_HAL_Driver/Src/stm32f4xx_hal_uart.c **** 
1994:Drivers/STM32F4xx_HAL_Driver/Src/stm32f4xx_hal_uart.c ****   return HAL_OK;
 3819              		.loc 1 1994 10
 3820 00c6 0023     		movs	r3, #0
 3821              	.L197:
1995:Drivers/STM32F4xx_HAL_Driver/Src/stm32f4xx_hal_uart.c **** }
 3822              		.loc 1 1995 1
 3823 00c8 1846     		mov	r0, r3
 3824 00ca 3837     		adds	r7, r7, #56
 3825              	.LCFI108:
 3826              		.cfi_def_cfa_offset 8
 3827 00cc BD46     		mov	sp, r7
 3828              	.LCFI109:
 3829              		.cfi_def_cfa_register 13
 3830              		@ sp needed
 3831 00ce 80BD     		pop	{r7, pc}
 3832              		.cfi_endproc
 3833              	.LFE236:
 3835              		.section	.text.HAL_UART_AbortReceive,"ax",%progbits
 3836              		.align	1
 3837              		.global	HAL_UART_AbortReceive
 3838              		.syntax unified
 3839              		.thumb
 3840              		.thumb_func
 3842              	HAL_UART_AbortReceive:
 3843              	.LFB237:
1996:Drivers/STM32F4xx_HAL_Driver/Src/stm32f4xx_hal_uart.c **** 
1997:Drivers/STM32F4xx_HAL_Driver/Src/stm32f4xx_hal_uart.c **** /**
1998:Drivers/STM32F4xx_HAL_Driver/Src/stm32f4xx_hal_uart.c ****   * @brief  Abort ongoing Receive transfer (blocking mode).
1999:Drivers/STM32F4xx_HAL_Driver/Src/stm32f4xx_hal_uart.c ****   * @param  huart UART handle.
2000:Drivers/STM32F4xx_HAL_Driver/Src/stm32f4xx_hal_uart.c ****   * @note   This procedure could be used for aborting any ongoing Rx transfer started in Interrupt 
2001:Drivers/STM32F4xx_HAL_Driver/Src/stm32f4xx_hal_uart.c ****   *         This procedure performs following operations :
2002:Drivers/STM32F4xx_HAL_Driver/Src/stm32f4xx_hal_uart.c ****   *           - Disable UART Interrupts (Rx)
2003:Drivers/STM32F4xx_HAL_Driver/Src/stm32f4xx_hal_uart.c ****   *           - Disable the DMA transfer in the peripheral register (if enabled)
2004:Drivers/STM32F4xx_HAL_Driver/Src/stm32f4xx_hal_uart.c ****   *           - Abort DMA transfer by calling HAL_DMA_Abort (in case of transfer in DMA mode)
2005:Drivers/STM32F4xx_HAL_Driver/Src/stm32f4xx_hal_uart.c ****   *           - Set handle State to READY
2006:Drivers/STM32F4xx_HAL_Driver/Src/stm32f4xx_hal_uart.c ****   * @note   This procedure is executed in blocking mode : when exiting function, Abort is considere
2007:Drivers/STM32F4xx_HAL_Driver/Src/stm32f4xx_hal_uart.c ****   * @retval HAL status
2008:Drivers/STM32F4xx_HAL_Driver/Src/stm32f4xx_hal_uart.c ****   */
2009:Drivers/STM32F4xx_HAL_Driver/Src/stm32f4xx_hal_uart.c **** HAL_StatusTypeDef HAL_UART_AbortReceive(UART_HandleTypeDef *huart)
2010:Drivers/STM32F4xx_HAL_Driver/Src/stm32f4xx_hal_uart.c **** {
 3844              		.loc 1 2010 1
 3845              		.cfi_startproc
 3846              		@ args = 0, pretend = 0, frame = 104
 3847              		@ frame_needed = 1, uses_anonymous_args = 0
 3848 0000 80B5     		push	{r7, lr}
 3849              	.LCFI110:
 3850              		.cfi_def_cfa_offset 8
 3851              		.cfi_offset 7, -8
 3852              		.cfi_offset 14, -4
 3853 0002 9AB0     		sub	sp, sp, #104
 3854              	.LCFI111:
 3855              		.cfi_def_cfa_offset 112
 3856 0004 00AF     		add	r7, sp, #0
 3857              	.LCFI112:
ARM GAS  /tmp/ccIpdX1g.s 			page 124


 3858              		.cfi_def_cfa_register 7
 3859 0006 7860     		str	r0, [r7, #4]
 3860              	.L201:
 3861              	.LBB424:
2011:Drivers/STM32F4xx_HAL_Driver/Src/stm32f4xx_hal_uart.c ****   /* Disable RXNE, PE and ERR (Frame error, noise error, overrun error) interrupts */
2012:Drivers/STM32F4xx_HAL_Driver/Src/stm32f4xx_hal_uart.c ****   ATOMIC_CLEAR_BIT(huart->Instance->CR1, (USART_CR1_RXNEIE | USART_CR1_PEIE));
 3862              		.loc 1 2012 3 discriminator 1
 3863 0008 7B68     		ldr	r3, [r7, #4]
 3864 000a 1B68     		ldr	r3, [r3]
 3865 000c 0C33     		adds	r3, r3, #12
 3866 000e BB64     		str	r3, [r7, #72]
 3867              	.LBB425:
 3868              	.LBB426:
1072:Drivers/CMSIS/Include/cmsis_gcc.h ****    return(result);
 3869              		.loc 2 1072 4 discriminator 1
 3870 0010 BB6C     		ldr	r3, [r7, #72]
 3871              		.syntax unified
 3872              	@ 1072 "Drivers/CMSIS/Include/cmsis_gcc.h" 1
 3873 0012 53E8003F 		ldrex r3, [r3]
 3874              	@ 0 "" 2
 3875              		.thumb
 3876              		.syntax unified
 3877 0016 7B64     		str	r3, [r7, #68]
1073:Drivers/CMSIS/Include/cmsis_gcc.h **** }
 3878              		.loc 2 1073 10 discriminator 1
 3879 0018 7B6C     		ldr	r3, [r7, #68]
 3880              	.LBE426:
 3881              	.LBE425:
 3882              		.loc 1 2012 3 discriminator 1
 3883 001a 23F49073 		bic	r3, r3, #288
 3884 001e 7B66     		str	r3, [r7, #100]
 3885 0020 7B68     		ldr	r3, [r7, #4]
 3886 0022 1B68     		ldr	r3, [r3]
 3887 0024 0C33     		adds	r3, r3, #12
 3888 0026 7A6E     		ldr	r2, [r7, #100]
 3889 0028 7A65     		str	r2, [r7, #84]
 3890 002a 3B65     		str	r3, [r7, #80]
 3891              	.LBB427:
 3892              	.LBB428:
1123:Drivers/CMSIS/Include/cmsis_gcc.h ****    return(result);
 3893              		.loc 2 1123 4 discriminator 1
 3894 002c 396D     		ldr	r1, [r7, #80]
 3895 002e 7A6D     		ldr	r2, [r7, #84]
 3896              		.syntax unified
 3897              	@ 1123 "Drivers/CMSIS/Include/cmsis_gcc.h" 1
 3898 0030 41E80023 		strex r3, r2, [r1]
 3899              	@ 0 "" 2
 3900              		.thumb
 3901              		.syntax unified
 3902 0034 FB64     		str	r3, [r7, #76]
 3903              		.loc 2 1124 10 discriminator 1
 3904 0036 FB6C     		ldr	r3, [r7, #76]
 3905              	.LBE428:
 3906              	.LBE427:
 3907              		.loc 1 2012 3 discriminator 1
 3908 0038 002B     		cmp	r3, #0
 3909 003a E5D1     		bne	.L201
ARM GAS  /tmp/ccIpdX1g.s 			page 125


 3910              	.L204:
 3911              	.LBE424:
 3912              	.LBB429:
2013:Drivers/STM32F4xx_HAL_Driver/Src/stm32f4xx_hal_uart.c ****   ATOMIC_CLEAR_BIT(huart->Instance->CR3, USART_CR3_EIE);
 3913              		.loc 1 2013 3 discriminator 1
 3914 003c 7B68     		ldr	r3, [r7, #4]
 3915 003e 1B68     		ldr	r3, [r3]
 3916 0040 1433     		adds	r3, r3, #20
 3917 0042 7B63     		str	r3, [r7, #52]
 3918              	.LBB430:
 3919              	.LBB431:
1072:Drivers/CMSIS/Include/cmsis_gcc.h ****    return(result);
 3920              		.loc 2 1072 4 discriminator 1
 3921 0044 7B6B     		ldr	r3, [r7, #52]
 3922              		.syntax unified
 3923              	@ 1072 "Drivers/CMSIS/Include/cmsis_gcc.h" 1
 3924 0046 53E8003F 		ldrex r3, [r3]
 3925              	@ 0 "" 2
 3926              		.thumb
 3927              		.syntax unified
 3928 004a 3B63     		str	r3, [r7, #48]
1073:Drivers/CMSIS/Include/cmsis_gcc.h **** }
 3929              		.loc 2 1073 10 discriminator 1
 3930 004c 3B6B     		ldr	r3, [r7, #48]
 3931              	.LBE431:
 3932              	.LBE430:
 3933              		.loc 1 2013 3 discriminator 1
 3934 004e 23F00103 		bic	r3, r3, #1
 3935 0052 3B66     		str	r3, [r7, #96]
 3936 0054 7B68     		ldr	r3, [r7, #4]
 3937 0056 1B68     		ldr	r3, [r3]
 3938 0058 1433     		adds	r3, r3, #20
 3939 005a 3A6E     		ldr	r2, [r7, #96]
 3940 005c 3A64     		str	r2, [r7, #64]
 3941 005e FB63     		str	r3, [r7, #60]
 3942              	.LBB432:
 3943              	.LBB433:
1123:Drivers/CMSIS/Include/cmsis_gcc.h ****    return(result);
 3944              		.loc 2 1123 4 discriminator 1
 3945 0060 F96B     		ldr	r1, [r7, #60]
 3946 0062 3A6C     		ldr	r2, [r7, #64]
 3947              		.syntax unified
 3948              	@ 1123 "Drivers/CMSIS/Include/cmsis_gcc.h" 1
 3949 0064 41E80023 		strex r3, r2, [r1]
 3950              	@ 0 "" 2
 3951              		.thumb
 3952              		.syntax unified
 3953 0068 BB63     		str	r3, [r7, #56]
 3954              		.loc 2 1124 10 discriminator 1
 3955 006a BB6B     		ldr	r3, [r7, #56]
 3956              	.LBE433:
 3957              	.LBE432:
 3958              		.loc 1 2013 3 discriminator 1
 3959 006c 002B     		cmp	r3, #0
 3960 006e E5D1     		bne	.L204
 3961              	.LBE429:
2014:Drivers/STM32F4xx_HAL_Driver/Src/stm32f4xx_hal_uart.c **** 
ARM GAS  /tmp/ccIpdX1g.s 			page 126


2015:Drivers/STM32F4xx_HAL_Driver/Src/stm32f4xx_hal_uart.c ****   /* If Reception till IDLE event was ongoing, disable IDLEIE interrupt */
2016:Drivers/STM32F4xx_HAL_Driver/Src/stm32f4xx_hal_uart.c ****   if (huart->ReceptionType == HAL_UART_RECEPTION_TOIDLE)
 3962              		.loc 1 2016 12
 3963 0070 7B68     		ldr	r3, [r7, #4]
 3964 0072 1B6B     		ldr	r3, [r3, #48]
 3965              		.loc 1 2016 6
 3966 0074 012B     		cmp	r3, #1
 3967 0076 19D1     		bne	.L205
 3968              	.L208:
 3969              	.LBB434:
2017:Drivers/STM32F4xx_HAL_Driver/Src/stm32f4xx_hal_uart.c ****   {
2018:Drivers/STM32F4xx_HAL_Driver/Src/stm32f4xx_hal_uart.c ****     ATOMIC_CLEAR_BIT(huart->Instance->CR1, (USART_CR1_IDLEIE));
 3970              		.loc 1 2018 5 discriminator 1
 3971 0078 7B68     		ldr	r3, [r7, #4]
 3972 007a 1B68     		ldr	r3, [r3]
 3973 007c 0C33     		adds	r3, r3, #12
 3974 007e 3B62     		str	r3, [r7, #32]
 3975              	.LBB435:
 3976              	.LBB436:
1072:Drivers/CMSIS/Include/cmsis_gcc.h ****    return(result);
 3977              		.loc 2 1072 4 discriminator 1
 3978 0080 3B6A     		ldr	r3, [r7, #32]
 3979              		.syntax unified
 3980              	@ 1072 "Drivers/CMSIS/Include/cmsis_gcc.h" 1
 3981 0082 53E8003F 		ldrex r3, [r3]
 3982              	@ 0 "" 2
 3983              		.thumb
 3984              		.syntax unified
 3985 0086 FB61     		str	r3, [r7, #28]
1073:Drivers/CMSIS/Include/cmsis_gcc.h **** }
 3986              		.loc 2 1073 10 discriminator 1
 3987 0088 FB69     		ldr	r3, [r7, #28]
 3988              	.LBE436:
 3989              	.LBE435:
 3990              		.loc 1 2018 5 discriminator 1
 3991 008a 23F01003 		bic	r3, r3, #16
 3992 008e FB65     		str	r3, [r7, #92]
 3993 0090 7B68     		ldr	r3, [r7, #4]
 3994 0092 1B68     		ldr	r3, [r3]
 3995 0094 0C33     		adds	r3, r3, #12
 3996 0096 FA6D     		ldr	r2, [r7, #92]
 3997 0098 FA62     		str	r2, [r7, #44]
 3998 009a BB62     		str	r3, [r7, #40]
 3999              	.LBB437:
 4000              	.LBB438:
1123:Drivers/CMSIS/Include/cmsis_gcc.h ****    return(result);
 4001              		.loc 2 1123 4 discriminator 1
 4002 009c B96A     		ldr	r1, [r7, #40]
 4003 009e FA6A     		ldr	r2, [r7, #44]
 4004              		.syntax unified
 4005              	@ 1123 "Drivers/CMSIS/Include/cmsis_gcc.h" 1
 4006 00a0 41E80023 		strex r3, r2, [r1]
 4007              	@ 0 "" 2
 4008              		.thumb
 4009              		.syntax unified
 4010 00a4 7B62     		str	r3, [r7, #36]
 4011              		.loc 2 1124 10 discriminator 1
ARM GAS  /tmp/ccIpdX1g.s 			page 127


 4012 00a6 7B6A     		ldr	r3, [r7, #36]
 4013              	.LBE438:
 4014              	.LBE437:
 4015              		.loc 1 2018 5 discriminator 1
 4016 00a8 002B     		cmp	r3, #0
 4017 00aa E5D1     		bne	.L208
 4018              	.L205:
 4019              	.LBE434:
2019:Drivers/STM32F4xx_HAL_Driver/Src/stm32f4xx_hal_uart.c ****   }
2020:Drivers/STM32F4xx_HAL_Driver/Src/stm32f4xx_hal_uart.c **** 
2021:Drivers/STM32F4xx_HAL_Driver/Src/stm32f4xx_hal_uart.c ****   /* Disable the UART DMA Rx request if enabled */
2022:Drivers/STM32F4xx_HAL_Driver/Src/stm32f4xx_hal_uart.c ****   if (HAL_IS_BIT_SET(huart->Instance->CR3, USART_CR3_DMAR))
 4020              		.loc 1 2022 7
 4021 00ac 7B68     		ldr	r3, [r7, #4]
 4022 00ae 1B68     		ldr	r3, [r3]
 4023 00b0 5B69     		ldr	r3, [r3, #20]
 4024 00b2 03F04003 		and	r3, r3, #64
 4025              		.loc 1 2022 6
 4026 00b6 402B     		cmp	r3, #64
 4027 00b8 36D1     		bne	.L209
 4028              	.L212:
 4029              	.LBB439:
2023:Drivers/STM32F4xx_HAL_Driver/Src/stm32f4xx_hal_uart.c ****   {
2024:Drivers/STM32F4xx_HAL_Driver/Src/stm32f4xx_hal_uart.c ****     ATOMIC_CLEAR_BIT(huart->Instance->CR3, USART_CR3_DMAR);
 4030              		.loc 1 2024 5 discriminator 1
 4031 00ba 7B68     		ldr	r3, [r7, #4]
 4032 00bc 1B68     		ldr	r3, [r3]
 4033 00be 1433     		adds	r3, r3, #20
 4034 00c0 FB60     		str	r3, [r7, #12]
 4035              	.LBB440:
 4036              	.LBB441:
1072:Drivers/CMSIS/Include/cmsis_gcc.h ****    return(result);
 4037              		.loc 2 1072 4 discriminator 1
 4038 00c2 FB68     		ldr	r3, [r7, #12]
 4039              		.syntax unified
 4040              	@ 1072 "Drivers/CMSIS/Include/cmsis_gcc.h" 1
 4041 00c4 53E8003F 		ldrex r3, [r3]
 4042              	@ 0 "" 2
 4043              		.thumb
 4044              		.syntax unified
 4045 00c8 BB60     		str	r3, [r7, #8]
1073:Drivers/CMSIS/Include/cmsis_gcc.h **** }
 4046              		.loc 2 1073 10 discriminator 1
 4047 00ca BB68     		ldr	r3, [r7, #8]
 4048              	.LBE441:
 4049              	.LBE440:
 4050              		.loc 1 2024 5 discriminator 1
 4051 00cc 23F04003 		bic	r3, r3, #64
 4052 00d0 BB65     		str	r3, [r7, #88]
 4053 00d2 7B68     		ldr	r3, [r7, #4]
 4054 00d4 1B68     		ldr	r3, [r3]
 4055 00d6 1433     		adds	r3, r3, #20
 4056 00d8 BA6D     		ldr	r2, [r7, #88]
 4057 00da BA61     		str	r2, [r7, #24]
 4058 00dc 7B61     		str	r3, [r7, #20]
 4059              	.LBB442:
 4060              	.LBB443:
ARM GAS  /tmp/ccIpdX1g.s 			page 128


1123:Drivers/CMSIS/Include/cmsis_gcc.h ****    return(result);
 4061              		.loc 2 1123 4 discriminator 1
 4062 00de 7969     		ldr	r1, [r7, #20]
 4063 00e0 BA69     		ldr	r2, [r7, #24]
 4064              		.syntax unified
 4065              	@ 1123 "Drivers/CMSIS/Include/cmsis_gcc.h" 1
 4066 00e2 41E80023 		strex r3, r2, [r1]
 4067              	@ 0 "" 2
 4068              		.thumb
 4069              		.syntax unified
 4070 00e6 3B61     		str	r3, [r7, #16]
 4071              		.loc 2 1124 10 discriminator 1
 4072 00e8 3B69     		ldr	r3, [r7, #16]
 4073              	.LBE443:
 4074              	.LBE442:
 4075              		.loc 1 2024 5 discriminator 1
 4076 00ea 002B     		cmp	r3, #0
 4077 00ec E5D1     		bne	.L212
 4078              	.LBE439:
2025:Drivers/STM32F4xx_HAL_Driver/Src/stm32f4xx_hal_uart.c **** 
2026:Drivers/STM32F4xx_HAL_Driver/Src/stm32f4xx_hal_uart.c ****     /* Abort the UART DMA Rx stream : use blocking DMA Abort API (no callback) */
2027:Drivers/STM32F4xx_HAL_Driver/Src/stm32f4xx_hal_uart.c ****     if (huart->hdmarx != NULL)
 4079              		.loc 1 2027 14
 4080 00ee 7B68     		ldr	r3, [r7, #4]
 4081 00f0 9B6B     		ldr	r3, [r3, #56]
 4082              		.loc 1 2027 8
 4083 00f2 002B     		cmp	r3, #0
 4084 00f4 18D0     		beq	.L209
2028:Drivers/STM32F4xx_HAL_Driver/Src/stm32f4xx_hal_uart.c ****     {
2029:Drivers/STM32F4xx_HAL_Driver/Src/stm32f4xx_hal_uart.c ****       /* Set the UART DMA Abort callback to Null.
2030:Drivers/STM32F4xx_HAL_Driver/Src/stm32f4xx_hal_uart.c ****          No call back execution at end of DMA abort procedure */
2031:Drivers/STM32F4xx_HAL_Driver/Src/stm32f4xx_hal_uart.c ****       huart->hdmarx->XferAbortCallback = NULL;
 4085              		.loc 1 2031 12
 4086 00f6 7B68     		ldr	r3, [r7, #4]
 4087 00f8 9B6B     		ldr	r3, [r3, #56]
 4088              		.loc 1 2031 40
 4089 00fa 0022     		movs	r2, #0
 4090 00fc 1A65     		str	r2, [r3, #80]
2032:Drivers/STM32F4xx_HAL_Driver/Src/stm32f4xx_hal_uart.c **** 
2033:Drivers/STM32F4xx_HAL_Driver/Src/stm32f4xx_hal_uart.c ****       if (HAL_DMA_Abort(huart->hdmarx) != HAL_OK)
 4091              		.loc 1 2033 11
 4092 00fe 7B68     		ldr	r3, [r7, #4]
 4093 0100 9B6B     		ldr	r3, [r3, #56]
 4094 0102 1846     		mov	r0, r3
 4095 0104 FFF7FEFF 		bl	HAL_DMA_Abort
 4096 0108 0346     		mov	r3, r0
 4097              		.loc 1 2033 10
 4098 010a 002B     		cmp	r3, #0
 4099 010c 0CD0     		beq	.L209
2034:Drivers/STM32F4xx_HAL_Driver/Src/stm32f4xx_hal_uart.c ****       {
2035:Drivers/STM32F4xx_HAL_Driver/Src/stm32f4xx_hal_uart.c ****         if (HAL_DMA_GetError(huart->hdmarx) == HAL_DMA_ERROR_TIMEOUT)
 4100              		.loc 1 2035 13
 4101 010e 7B68     		ldr	r3, [r7, #4]
 4102 0110 9B6B     		ldr	r3, [r3, #56]
 4103 0112 1846     		mov	r0, r3
 4104 0114 FFF7FEFF 		bl	HAL_DMA_GetError
 4105 0118 0346     		mov	r3, r0
ARM GAS  /tmp/ccIpdX1g.s 			page 129


 4106              		.loc 1 2035 12
 4107 011a 202B     		cmp	r3, #32
 4108 011c 04D1     		bne	.L209
2036:Drivers/STM32F4xx_HAL_Driver/Src/stm32f4xx_hal_uart.c ****         {
2037:Drivers/STM32F4xx_HAL_Driver/Src/stm32f4xx_hal_uart.c ****           /* Set error code to DMA */
2038:Drivers/STM32F4xx_HAL_Driver/Src/stm32f4xx_hal_uart.c ****           huart->ErrorCode = HAL_UART_ERROR_DMA;
 4109              		.loc 1 2038 28
 4110 011e 7B68     		ldr	r3, [r7, #4]
 4111 0120 1022     		movs	r2, #16
 4112 0122 1A64     		str	r2, [r3, #64]
2039:Drivers/STM32F4xx_HAL_Driver/Src/stm32f4xx_hal_uart.c **** 
2040:Drivers/STM32F4xx_HAL_Driver/Src/stm32f4xx_hal_uart.c ****           return HAL_TIMEOUT;
 4113              		.loc 1 2040 18
 4114 0124 0323     		movs	r3, #3
 4115 0126 0AE0     		b	.L213
 4116              	.L209:
2041:Drivers/STM32F4xx_HAL_Driver/Src/stm32f4xx_hal_uart.c ****         }
2042:Drivers/STM32F4xx_HAL_Driver/Src/stm32f4xx_hal_uart.c ****       }
2043:Drivers/STM32F4xx_HAL_Driver/Src/stm32f4xx_hal_uart.c ****     }
2044:Drivers/STM32F4xx_HAL_Driver/Src/stm32f4xx_hal_uart.c ****   }
2045:Drivers/STM32F4xx_HAL_Driver/Src/stm32f4xx_hal_uart.c **** 
2046:Drivers/STM32F4xx_HAL_Driver/Src/stm32f4xx_hal_uart.c ****   /* Reset Rx transfer counter */
2047:Drivers/STM32F4xx_HAL_Driver/Src/stm32f4xx_hal_uart.c ****   huart->RxXferCount = 0x00U;
 4117              		.loc 1 2047 22
 4118 0128 7B68     		ldr	r3, [r7, #4]
 4119 012a 0022     		movs	r2, #0
 4120 012c DA85     		strh	r2, [r3, #46]	@ movhi
2048:Drivers/STM32F4xx_HAL_Driver/Src/stm32f4xx_hal_uart.c **** 
2049:Drivers/STM32F4xx_HAL_Driver/Src/stm32f4xx_hal_uart.c ****   /* Restore huart->RxState to Ready */
2050:Drivers/STM32F4xx_HAL_Driver/Src/stm32f4xx_hal_uart.c ****   huart->RxState = HAL_UART_STATE_READY;
 4121              		.loc 1 2050 18
 4122 012e 7B68     		ldr	r3, [r7, #4]
 4123 0130 2022     		movs	r2, #32
 4124 0132 83F83E20 		strb	r2, [r3, #62]
2051:Drivers/STM32F4xx_HAL_Driver/Src/stm32f4xx_hal_uart.c ****   huart->ReceptionType = HAL_UART_RECEPTION_STANDARD;
 4125              		.loc 1 2051 24
 4126 0136 7B68     		ldr	r3, [r7, #4]
 4127 0138 0022     		movs	r2, #0
 4128 013a 1A63     		str	r2, [r3, #48]
2052:Drivers/STM32F4xx_HAL_Driver/Src/stm32f4xx_hal_uart.c **** 
2053:Drivers/STM32F4xx_HAL_Driver/Src/stm32f4xx_hal_uart.c ****   return HAL_OK;
 4129              		.loc 1 2053 10
 4130 013c 0023     		movs	r3, #0
 4131              	.L213:
2054:Drivers/STM32F4xx_HAL_Driver/Src/stm32f4xx_hal_uart.c **** }
 4132              		.loc 1 2054 1
 4133 013e 1846     		mov	r0, r3
 4134 0140 6837     		adds	r7, r7, #104
 4135              	.LCFI113:
 4136              		.cfi_def_cfa_offset 8
 4137 0142 BD46     		mov	sp, r7
 4138              	.LCFI114:
 4139              		.cfi_def_cfa_register 13
 4140              		@ sp needed
 4141 0144 80BD     		pop	{r7, pc}
 4142              		.cfi_endproc
 4143              	.LFE237:
ARM GAS  /tmp/ccIpdX1g.s 			page 130


 4145              		.section	.text.HAL_UART_Abort_IT,"ax",%progbits
 4146              		.align	1
 4147              		.global	HAL_UART_Abort_IT
 4148              		.syntax unified
 4149              		.thumb
 4150              		.thumb_func
 4152              	HAL_UART_Abort_IT:
 4153              	.LFB238:
2055:Drivers/STM32F4xx_HAL_Driver/Src/stm32f4xx_hal_uart.c **** 
2056:Drivers/STM32F4xx_HAL_Driver/Src/stm32f4xx_hal_uart.c **** /**
2057:Drivers/STM32F4xx_HAL_Driver/Src/stm32f4xx_hal_uart.c ****   * @brief  Abort ongoing transfers (Interrupt mode).
2058:Drivers/STM32F4xx_HAL_Driver/Src/stm32f4xx_hal_uart.c ****   * @param  huart UART handle.
2059:Drivers/STM32F4xx_HAL_Driver/Src/stm32f4xx_hal_uart.c ****   * @note   This procedure could be used for aborting any ongoing transfer started in Interrupt or 
2060:Drivers/STM32F4xx_HAL_Driver/Src/stm32f4xx_hal_uart.c ****   *         This procedure performs following operations :
2061:Drivers/STM32F4xx_HAL_Driver/Src/stm32f4xx_hal_uart.c ****   *           - Disable UART Interrupts (Tx and Rx)
2062:Drivers/STM32F4xx_HAL_Driver/Src/stm32f4xx_hal_uart.c ****   *           - Disable the DMA transfer in the peripheral register (if enabled)
2063:Drivers/STM32F4xx_HAL_Driver/Src/stm32f4xx_hal_uart.c ****   *           - Abort DMA transfer by calling HAL_DMA_Abort_IT (in case of transfer in DMA mode)
2064:Drivers/STM32F4xx_HAL_Driver/Src/stm32f4xx_hal_uart.c ****   *           - Set handle State to READY
2065:Drivers/STM32F4xx_HAL_Driver/Src/stm32f4xx_hal_uart.c ****   *           - At abort completion, call user abort complete callback
2066:Drivers/STM32F4xx_HAL_Driver/Src/stm32f4xx_hal_uart.c ****   * @note   This procedure is executed in Interrupt mode, meaning that abort procedure could be
2067:Drivers/STM32F4xx_HAL_Driver/Src/stm32f4xx_hal_uart.c ****   *         considered as completed only when user abort complete callback is executed (not when ex
2068:Drivers/STM32F4xx_HAL_Driver/Src/stm32f4xx_hal_uart.c ****   * @retval HAL status
2069:Drivers/STM32F4xx_HAL_Driver/Src/stm32f4xx_hal_uart.c ****   */
2070:Drivers/STM32F4xx_HAL_Driver/Src/stm32f4xx_hal_uart.c **** HAL_StatusTypeDef HAL_UART_Abort_IT(UART_HandleTypeDef *huart)
2071:Drivers/STM32F4xx_HAL_Driver/Src/stm32f4xx_hal_uart.c **** {
 4154              		.loc 1 2071 1
 4155              		.cfi_startproc
 4156              		@ args = 0, pretend = 0, frame = 136
 4157              		@ frame_needed = 1, uses_anonymous_args = 0
 4158 0000 80B5     		push	{r7, lr}
 4159              	.LCFI115:
 4160              		.cfi_def_cfa_offset 8
 4161              		.cfi_offset 7, -8
 4162              		.cfi_offset 14, -4
 4163 0002 A2B0     		sub	sp, sp, #136
 4164              	.LCFI116:
 4165              		.cfi_def_cfa_offset 144
 4166 0004 00AF     		add	r7, sp, #0
 4167              	.LCFI117:
 4168              		.cfi_def_cfa_register 7
 4169 0006 7860     		str	r0, [r7, #4]
2072:Drivers/STM32F4xx_HAL_Driver/Src/stm32f4xx_hal_uart.c ****   uint32_t AbortCplt = 0x01U;
 4170              		.loc 1 2072 12
 4171 0008 0123     		movs	r3, #1
 4172 000a C7F88430 		str	r3, [r7, #132]
 4173              	.L217:
 4174              	.LBB444:
2073:Drivers/STM32F4xx_HAL_Driver/Src/stm32f4xx_hal_uart.c **** 
2074:Drivers/STM32F4xx_HAL_Driver/Src/stm32f4xx_hal_uart.c ****   /* Disable TXEIE, TCIE, RXNE, PE and ERR (Frame error, noise error, overrun error) interrupts */
2075:Drivers/STM32F4xx_HAL_Driver/Src/stm32f4xx_hal_uart.c ****   ATOMIC_CLEAR_BIT(huart->Instance->CR1, (USART_CR1_RXNEIE | USART_CR1_PEIE | USART_CR1_TXEIE | USA
 4175              		.loc 1 2075 3 discriminator 1
 4176 000e 7B68     		ldr	r3, [r7, #4]
 4177 0010 1B68     		ldr	r3, [r3]
 4178 0012 0C33     		adds	r3, r3, #12
 4179 0014 3B66     		str	r3, [r7, #96]
 4180              	.LBB445:
 4181              	.LBB446:
ARM GAS  /tmp/ccIpdX1g.s 			page 131


1072:Drivers/CMSIS/Include/cmsis_gcc.h ****    return(result);
 4182              		.loc 2 1072 4 discriminator 1
 4183 0016 3B6E     		ldr	r3, [r7, #96]
 4184              		.syntax unified
 4185              	@ 1072 "Drivers/CMSIS/Include/cmsis_gcc.h" 1
 4186 0018 53E8003F 		ldrex r3, [r3]
 4187              	@ 0 "" 2
 4188              		.thumb
 4189              		.syntax unified
 4190 001c FB65     		str	r3, [r7, #92]
1073:Drivers/CMSIS/Include/cmsis_gcc.h **** }
 4191              		.loc 2 1073 10 discriminator 1
 4192 001e FB6D     		ldr	r3, [r7, #92]
 4193              	.LBE446:
 4194              	.LBE445:
 4195              		.loc 1 2075 3 discriminator 1
 4196 0020 23F4F073 		bic	r3, r3, #480
 4197 0024 C7F88030 		str	r3, [r7, #128]
 4198 0028 7B68     		ldr	r3, [r7, #4]
 4199 002a 1B68     		ldr	r3, [r3]
 4200 002c 0C33     		adds	r3, r3, #12
 4201 002e D7F88020 		ldr	r2, [r7, #128]
 4202 0032 FA66     		str	r2, [r7, #108]
 4203 0034 BB66     		str	r3, [r7, #104]
 4204              	.LBB447:
 4205              	.LBB448:
1123:Drivers/CMSIS/Include/cmsis_gcc.h ****    return(result);
 4206              		.loc 2 1123 4 discriminator 1
 4207 0036 B96E     		ldr	r1, [r7, #104]
 4208 0038 FA6E     		ldr	r2, [r7, #108]
 4209              		.syntax unified
 4210              	@ 1123 "Drivers/CMSIS/Include/cmsis_gcc.h" 1
 4211 003a 41E80023 		strex r3, r2, [r1]
 4212              	@ 0 "" 2
 4213              		.thumb
 4214              		.syntax unified
 4215 003e 7B66     		str	r3, [r7, #100]
 4216              		.loc 2 1124 10 discriminator 1
 4217 0040 7B6E     		ldr	r3, [r7, #100]
 4218              	.LBE448:
 4219              	.LBE447:
 4220              		.loc 1 2075 3 discriminator 1
 4221 0042 002B     		cmp	r3, #0
 4222 0044 E3D1     		bne	.L217
 4223              	.L220:
 4224              	.LBE444:
 4225              	.LBB449:
2076:Drivers/STM32F4xx_HAL_Driver/Src/stm32f4xx_hal_uart.c ****   ATOMIC_CLEAR_BIT(huart->Instance->CR3, USART_CR3_EIE);
 4226              		.loc 1 2076 3 discriminator 1
 4227 0046 7B68     		ldr	r3, [r7, #4]
 4228 0048 1B68     		ldr	r3, [r3]
 4229 004a 1433     		adds	r3, r3, #20
 4230 004c FB64     		str	r3, [r7, #76]
 4231              	.LBB450:
 4232              	.LBB451:
1072:Drivers/CMSIS/Include/cmsis_gcc.h ****    return(result);
 4233              		.loc 2 1072 4 discriminator 1
ARM GAS  /tmp/ccIpdX1g.s 			page 132


 4234 004e FB6C     		ldr	r3, [r7, #76]
 4235              		.syntax unified
 4236              	@ 1072 "Drivers/CMSIS/Include/cmsis_gcc.h" 1
 4237 0050 53E8003F 		ldrex r3, [r3]
 4238              	@ 0 "" 2
 4239              		.thumb
 4240              		.syntax unified
 4241 0054 BB64     		str	r3, [r7, #72]
1073:Drivers/CMSIS/Include/cmsis_gcc.h **** }
 4242              		.loc 2 1073 10 discriminator 1
 4243 0056 BB6C     		ldr	r3, [r7, #72]
 4244              	.LBE451:
 4245              	.LBE450:
 4246              		.loc 1 2076 3 discriminator 1
 4247 0058 23F00103 		bic	r3, r3, #1
 4248 005c FB67     		str	r3, [r7, #124]
 4249 005e 7B68     		ldr	r3, [r7, #4]
 4250 0060 1B68     		ldr	r3, [r3]
 4251 0062 1433     		adds	r3, r3, #20
 4252 0064 FA6F     		ldr	r2, [r7, #124]
 4253 0066 BA65     		str	r2, [r7, #88]
 4254 0068 7B65     		str	r3, [r7, #84]
 4255              	.LBB452:
 4256              	.LBB453:
1123:Drivers/CMSIS/Include/cmsis_gcc.h ****    return(result);
 4257              		.loc 2 1123 4 discriminator 1
 4258 006a 796D     		ldr	r1, [r7, #84]
 4259 006c BA6D     		ldr	r2, [r7, #88]
 4260              		.syntax unified
 4261              	@ 1123 "Drivers/CMSIS/Include/cmsis_gcc.h" 1
 4262 006e 41E80023 		strex r3, r2, [r1]
 4263              	@ 0 "" 2
 4264              		.thumb
 4265              		.syntax unified
 4266 0072 3B65     		str	r3, [r7, #80]
 4267              		.loc 2 1124 10 discriminator 1
 4268 0074 3B6D     		ldr	r3, [r7, #80]
 4269              	.LBE453:
 4270              	.LBE452:
 4271              		.loc 1 2076 3 discriminator 1
 4272 0076 002B     		cmp	r3, #0
 4273 0078 E5D1     		bne	.L220
 4274              	.LBE449:
2077:Drivers/STM32F4xx_HAL_Driver/Src/stm32f4xx_hal_uart.c **** 
2078:Drivers/STM32F4xx_HAL_Driver/Src/stm32f4xx_hal_uart.c ****   /* If Reception till IDLE event was ongoing, disable IDLEIE interrupt */
2079:Drivers/STM32F4xx_HAL_Driver/Src/stm32f4xx_hal_uart.c ****   if (huart->ReceptionType == HAL_UART_RECEPTION_TOIDLE)
 4275              		.loc 1 2079 12
 4276 007a 7B68     		ldr	r3, [r7, #4]
 4277 007c 1B6B     		ldr	r3, [r3, #48]
 4278              		.loc 1 2079 6
 4279 007e 012B     		cmp	r3, #1
 4280 0080 19D1     		bne	.L221
 4281              	.L224:
 4282              	.LBB454:
2080:Drivers/STM32F4xx_HAL_Driver/Src/stm32f4xx_hal_uart.c ****   {
2081:Drivers/STM32F4xx_HAL_Driver/Src/stm32f4xx_hal_uart.c ****     ATOMIC_CLEAR_BIT(huart->Instance->CR1, (USART_CR1_IDLEIE));
 4283              		.loc 1 2081 5 discriminator 1
ARM GAS  /tmp/ccIpdX1g.s 			page 133


 4284 0082 7B68     		ldr	r3, [r7, #4]
 4285 0084 1B68     		ldr	r3, [r3]
 4286 0086 0C33     		adds	r3, r3, #12
 4287 0088 BB63     		str	r3, [r7, #56]
 4288              	.LBB455:
 4289              	.LBB456:
1072:Drivers/CMSIS/Include/cmsis_gcc.h ****    return(result);
 4290              		.loc 2 1072 4 discriminator 1
 4291 008a BB6B     		ldr	r3, [r7, #56]
 4292              		.syntax unified
 4293              	@ 1072 "Drivers/CMSIS/Include/cmsis_gcc.h" 1
 4294 008c 53E8003F 		ldrex r3, [r3]
 4295              	@ 0 "" 2
 4296              		.thumb
 4297              		.syntax unified
 4298 0090 7B63     		str	r3, [r7, #52]
1073:Drivers/CMSIS/Include/cmsis_gcc.h **** }
 4299              		.loc 2 1073 10 discriminator 1
 4300 0092 7B6B     		ldr	r3, [r7, #52]
 4301              	.LBE456:
 4302              	.LBE455:
 4303              		.loc 1 2081 5 discriminator 1
 4304 0094 23F01003 		bic	r3, r3, #16
 4305 0098 BB67     		str	r3, [r7, #120]
 4306 009a 7B68     		ldr	r3, [r7, #4]
 4307 009c 1B68     		ldr	r3, [r3]
 4308 009e 0C33     		adds	r3, r3, #12
 4309 00a0 BA6F     		ldr	r2, [r7, #120]
 4310 00a2 7A64     		str	r2, [r7, #68]
 4311 00a4 3B64     		str	r3, [r7, #64]
 4312              	.LBB457:
 4313              	.LBB458:
1123:Drivers/CMSIS/Include/cmsis_gcc.h ****    return(result);
 4314              		.loc 2 1123 4 discriminator 1
 4315 00a6 396C     		ldr	r1, [r7, #64]
 4316 00a8 7A6C     		ldr	r2, [r7, #68]
 4317              		.syntax unified
 4318              	@ 1123 "Drivers/CMSIS/Include/cmsis_gcc.h" 1
 4319 00aa 41E80023 		strex r3, r2, [r1]
 4320              	@ 0 "" 2
 4321              		.thumb
 4322              		.syntax unified
 4323 00ae FB63     		str	r3, [r7, #60]
 4324              		.loc 2 1124 10 discriminator 1
 4325 00b0 FB6B     		ldr	r3, [r7, #60]
 4326              	.LBE458:
 4327              	.LBE457:
 4328              		.loc 1 2081 5 discriminator 1
 4329 00b2 002B     		cmp	r3, #0
 4330 00b4 E5D1     		bne	.L224
 4331              	.L221:
 4332              	.LBE454:
2082:Drivers/STM32F4xx_HAL_Driver/Src/stm32f4xx_hal_uart.c ****   }
2083:Drivers/STM32F4xx_HAL_Driver/Src/stm32f4xx_hal_uart.c **** 
2084:Drivers/STM32F4xx_HAL_Driver/Src/stm32f4xx_hal_uart.c ****   /* If DMA Tx and/or DMA Rx Handles are associated to UART Handle, DMA Abort complete callbacks sh
2085:Drivers/STM32F4xx_HAL_Driver/Src/stm32f4xx_hal_uart.c ****      before any call to DMA Abort functions */
2086:Drivers/STM32F4xx_HAL_Driver/Src/stm32f4xx_hal_uart.c ****   /* DMA Tx Handle is valid */
ARM GAS  /tmp/ccIpdX1g.s 			page 134


2087:Drivers/STM32F4xx_HAL_Driver/Src/stm32f4xx_hal_uart.c ****   if (huart->hdmatx != NULL)
 4333              		.loc 1 2087 12
 4334 00b6 7B68     		ldr	r3, [r7, #4]
 4335 00b8 5B6B     		ldr	r3, [r3, #52]
 4336              		.loc 1 2087 6
 4337 00ba 002B     		cmp	r3, #0
 4338 00bc 0FD0     		beq	.L225
2088:Drivers/STM32F4xx_HAL_Driver/Src/stm32f4xx_hal_uart.c ****   {
2089:Drivers/STM32F4xx_HAL_Driver/Src/stm32f4xx_hal_uart.c ****     /* Set DMA Abort Complete callback if UART DMA Tx request if enabled.
2090:Drivers/STM32F4xx_HAL_Driver/Src/stm32f4xx_hal_uart.c ****        Otherwise, set it to NULL */
2091:Drivers/STM32F4xx_HAL_Driver/Src/stm32f4xx_hal_uart.c ****     if (HAL_IS_BIT_SET(huart->Instance->CR3, USART_CR3_DMAT))
 4339              		.loc 1 2091 9
 4340 00be 7B68     		ldr	r3, [r7, #4]
 4341 00c0 1B68     		ldr	r3, [r3]
 4342 00c2 5B69     		ldr	r3, [r3, #20]
 4343 00c4 03F08003 		and	r3, r3, #128
 4344              		.loc 1 2091 8
 4345 00c8 802B     		cmp	r3, #128
 4346 00ca 04D1     		bne	.L226
2092:Drivers/STM32F4xx_HAL_Driver/Src/stm32f4xx_hal_uart.c ****     {
2093:Drivers/STM32F4xx_HAL_Driver/Src/stm32f4xx_hal_uart.c ****       huart->hdmatx->XferAbortCallback = UART_DMATxAbortCallback;
 4347              		.loc 1 2093 12
 4348 00cc 7B68     		ldr	r3, [r7, #4]
 4349 00ce 5B6B     		ldr	r3, [r3, #52]
 4350              		.loc 1 2093 40
 4351 00d0 534A     		ldr	r2, .L241
 4352 00d2 1A65     		str	r2, [r3, #80]
 4353 00d4 03E0     		b	.L225
 4354              	.L226:
2094:Drivers/STM32F4xx_HAL_Driver/Src/stm32f4xx_hal_uart.c ****     }
2095:Drivers/STM32F4xx_HAL_Driver/Src/stm32f4xx_hal_uart.c ****     else
2096:Drivers/STM32F4xx_HAL_Driver/Src/stm32f4xx_hal_uart.c ****     {
2097:Drivers/STM32F4xx_HAL_Driver/Src/stm32f4xx_hal_uart.c ****       huart->hdmatx->XferAbortCallback = NULL;
 4355              		.loc 1 2097 12
 4356 00d6 7B68     		ldr	r3, [r7, #4]
 4357 00d8 5B6B     		ldr	r3, [r3, #52]
 4358              		.loc 1 2097 40
 4359 00da 0022     		movs	r2, #0
 4360 00dc 1A65     		str	r2, [r3, #80]
 4361              	.L225:
2098:Drivers/STM32F4xx_HAL_Driver/Src/stm32f4xx_hal_uart.c ****     }
2099:Drivers/STM32F4xx_HAL_Driver/Src/stm32f4xx_hal_uart.c ****   }
2100:Drivers/STM32F4xx_HAL_Driver/Src/stm32f4xx_hal_uart.c ****   /* DMA Rx Handle is valid */
2101:Drivers/STM32F4xx_HAL_Driver/Src/stm32f4xx_hal_uart.c ****   if (huart->hdmarx != NULL)
 4362              		.loc 1 2101 12
 4363 00de 7B68     		ldr	r3, [r7, #4]
 4364 00e0 9B6B     		ldr	r3, [r3, #56]
 4365              		.loc 1 2101 6
 4366 00e2 002B     		cmp	r3, #0
 4367 00e4 0FD0     		beq	.L227
2102:Drivers/STM32F4xx_HAL_Driver/Src/stm32f4xx_hal_uart.c ****   {
2103:Drivers/STM32F4xx_HAL_Driver/Src/stm32f4xx_hal_uart.c ****     /* Set DMA Abort Complete callback if UART DMA Rx request if enabled.
2104:Drivers/STM32F4xx_HAL_Driver/Src/stm32f4xx_hal_uart.c ****        Otherwise, set it to NULL */
2105:Drivers/STM32F4xx_HAL_Driver/Src/stm32f4xx_hal_uart.c ****     if (HAL_IS_BIT_SET(huart->Instance->CR3, USART_CR3_DMAR))
 4368              		.loc 1 2105 9
 4369 00e6 7B68     		ldr	r3, [r7, #4]
 4370 00e8 1B68     		ldr	r3, [r3]
ARM GAS  /tmp/ccIpdX1g.s 			page 135


 4371 00ea 5B69     		ldr	r3, [r3, #20]
 4372 00ec 03F04003 		and	r3, r3, #64
 4373              		.loc 1 2105 8
 4374 00f0 402B     		cmp	r3, #64
 4375 00f2 04D1     		bne	.L228
2106:Drivers/STM32F4xx_HAL_Driver/Src/stm32f4xx_hal_uart.c ****     {
2107:Drivers/STM32F4xx_HAL_Driver/Src/stm32f4xx_hal_uart.c ****       huart->hdmarx->XferAbortCallback = UART_DMARxAbortCallback;
 4376              		.loc 1 2107 12
 4377 00f4 7B68     		ldr	r3, [r7, #4]
 4378 00f6 9B6B     		ldr	r3, [r3, #56]
 4379              		.loc 1 2107 40
 4380 00f8 4A4A     		ldr	r2, .L241+4
 4381 00fa 1A65     		str	r2, [r3, #80]
 4382 00fc 03E0     		b	.L227
 4383              	.L228:
2108:Drivers/STM32F4xx_HAL_Driver/Src/stm32f4xx_hal_uart.c ****     }
2109:Drivers/STM32F4xx_HAL_Driver/Src/stm32f4xx_hal_uart.c ****     else
2110:Drivers/STM32F4xx_HAL_Driver/Src/stm32f4xx_hal_uart.c ****     {
2111:Drivers/STM32F4xx_HAL_Driver/Src/stm32f4xx_hal_uart.c ****       huart->hdmarx->XferAbortCallback = NULL;
 4384              		.loc 1 2111 12
 4385 00fe 7B68     		ldr	r3, [r7, #4]
 4386 0100 9B6B     		ldr	r3, [r3, #56]
 4387              		.loc 1 2111 40
 4388 0102 0022     		movs	r2, #0
 4389 0104 1A65     		str	r2, [r3, #80]
 4390              	.L227:
2112:Drivers/STM32F4xx_HAL_Driver/Src/stm32f4xx_hal_uart.c ****     }
2113:Drivers/STM32F4xx_HAL_Driver/Src/stm32f4xx_hal_uart.c ****   }
2114:Drivers/STM32F4xx_HAL_Driver/Src/stm32f4xx_hal_uart.c **** 
2115:Drivers/STM32F4xx_HAL_Driver/Src/stm32f4xx_hal_uart.c ****   /* Disable the UART DMA Tx request if enabled */
2116:Drivers/STM32F4xx_HAL_Driver/Src/stm32f4xx_hal_uart.c ****   if (HAL_IS_BIT_SET(huart->Instance->CR3, USART_CR3_DMAT))
 4391              		.loc 1 2116 7
 4392 0106 7B68     		ldr	r3, [r7, #4]
 4393 0108 1B68     		ldr	r3, [r3]
 4394 010a 5B69     		ldr	r3, [r3, #20]
 4395 010c 03F08003 		and	r3, r3, #128
 4396              		.loc 1 2116 6
 4397 0110 802B     		cmp	r3, #128
 4398 0112 2DD1     		bne	.L229
 4399              	.L232:
 4400              	.LBB459:
2117:Drivers/STM32F4xx_HAL_Driver/Src/stm32f4xx_hal_uart.c ****   {
2118:Drivers/STM32F4xx_HAL_Driver/Src/stm32f4xx_hal_uart.c ****     /* Disable DMA Tx at UART level */
2119:Drivers/STM32F4xx_HAL_Driver/Src/stm32f4xx_hal_uart.c ****     ATOMIC_CLEAR_BIT(huart->Instance->CR3, USART_CR3_DMAT);
 4401              		.loc 1 2119 5 discriminator 1
 4402 0114 7B68     		ldr	r3, [r7, #4]
 4403 0116 1B68     		ldr	r3, [r3]
 4404 0118 1433     		adds	r3, r3, #20
 4405 011a 7B62     		str	r3, [r7, #36]
 4406              	.LBB460:
 4407              	.LBB461:
1072:Drivers/CMSIS/Include/cmsis_gcc.h ****    return(result);
 4408              		.loc 2 1072 4 discriminator 1
 4409 011c 7B6A     		ldr	r3, [r7, #36]
 4410              		.syntax unified
 4411              	@ 1072 "Drivers/CMSIS/Include/cmsis_gcc.h" 1
 4412 011e 53E8003F 		ldrex r3, [r3]
ARM GAS  /tmp/ccIpdX1g.s 			page 136


 4413              	@ 0 "" 2
 4414              		.thumb
 4415              		.syntax unified
 4416 0122 3B62     		str	r3, [r7, #32]
1073:Drivers/CMSIS/Include/cmsis_gcc.h **** }
 4417              		.loc 2 1073 10 discriminator 1
 4418 0124 3B6A     		ldr	r3, [r7, #32]
 4419              	.LBE461:
 4420              	.LBE460:
 4421              		.loc 1 2119 5 discriminator 1
 4422 0126 23F08003 		bic	r3, r3, #128
 4423 012a 7B67     		str	r3, [r7, #116]
 4424 012c 7B68     		ldr	r3, [r7, #4]
 4425 012e 1B68     		ldr	r3, [r3]
 4426 0130 1433     		adds	r3, r3, #20
 4427 0132 7A6F     		ldr	r2, [r7, #116]
 4428 0134 3A63     		str	r2, [r7, #48]
 4429 0136 FB62     		str	r3, [r7, #44]
 4430              	.LBB462:
 4431              	.LBB463:
1123:Drivers/CMSIS/Include/cmsis_gcc.h ****    return(result);
 4432              		.loc 2 1123 4 discriminator 1
 4433 0138 F96A     		ldr	r1, [r7, #44]
 4434 013a 3A6B     		ldr	r2, [r7, #48]
 4435              		.syntax unified
 4436              	@ 1123 "Drivers/CMSIS/Include/cmsis_gcc.h" 1
 4437 013c 41E80023 		strex r3, r2, [r1]
 4438              	@ 0 "" 2
 4439              		.thumb
 4440              		.syntax unified
 4441 0140 BB62     		str	r3, [r7, #40]
 4442              		.loc 2 1124 10 discriminator 1
 4443 0142 BB6A     		ldr	r3, [r7, #40]
 4444              	.LBE463:
 4445              	.LBE462:
 4446              		.loc 1 2119 5 discriminator 1
 4447 0144 002B     		cmp	r3, #0
 4448 0146 E5D1     		bne	.L232
 4449              	.LBE459:
2120:Drivers/STM32F4xx_HAL_Driver/Src/stm32f4xx_hal_uart.c **** 
2121:Drivers/STM32F4xx_HAL_Driver/Src/stm32f4xx_hal_uart.c ****     /* Abort the UART DMA Tx stream : use non blocking DMA Abort API (callback) */
2122:Drivers/STM32F4xx_HAL_Driver/Src/stm32f4xx_hal_uart.c ****     if (huart->hdmatx != NULL)
 4450              		.loc 1 2122 14
 4451 0148 7B68     		ldr	r3, [r7, #4]
 4452 014a 5B6B     		ldr	r3, [r3, #52]
 4453              		.loc 1 2122 8
 4454 014c 002B     		cmp	r3, #0
 4455 014e 0FD0     		beq	.L229
2123:Drivers/STM32F4xx_HAL_Driver/Src/stm32f4xx_hal_uart.c ****     {
2124:Drivers/STM32F4xx_HAL_Driver/Src/stm32f4xx_hal_uart.c ****       /* UART Tx DMA Abort callback has already been initialised :
2125:Drivers/STM32F4xx_HAL_Driver/Src/stm32f4xx_hal_uart.c ****          will lead to call HAL_UART_AbortCpltCallback() at end of DMA abort procedure */
2126:Drivers/STM32F4xx_HAL_Driver/Src/stm32f4xx_hal_uart.c **** 
2127:Drivers/STM32F4xx_HAL_Driver/Src/stm32f4xx_hal_uart.c ****       /* Abort DMA TX */
2128:Drivers/STM32F4xx_HAL_Driver/Src/stm32f4xx_hal_uart.c ****       if (HAL_DMA_Abort_IT(huart->hdmatx) != HAL_OK)
 4456              		.loc 1 2128 11
 4457 0150 7B68     		ldr	r3, [r7, #4]
 4458 0152 5B6B     		ldr	r3, [r3, #52]
ARM GAS  /tmp/ccIpdX1g.s 			page 137


 4459 0154 1846     		mov	r0, r3
 4460 0156 FFF7FEFF 		bl	HAL_DMA_Abort_IT
 4461 015a 0346     		mov	r3, r0
 4462              		.loc 1 2128 10
 4463 015c 002B     		cmp	r3, #0
 4464 015e 04D0     		beq	.L233
2129:Drivers/STM32F4xx_HAL_Driver/Src/stm32f4xx_hal_uart.c ****       {
2130:Drivers/STM32F4xx_HAL_Driver/Src/stm32f4xx_hal_uart.c ****         huart->hdmatx->XferAbortCallback = NULL;
 4465              		.loc 1 2130 14
 4466 0160 7B68     		ldr	r3, [r7, #4]
 4467 0162 5B6B     		ldr	r3, [r3, #52]
 4468              		.loc 1 2130 42
 4469 0164 0022     		movs	r2, #0
 4470 0166 1A65     		str	r2, [r3, #80]
 4471 0168 02E0     		b	.L229
 4472              	.L233:
2131:Drivers/STM32F4xx_HAL_Driver/Src/stm32f4xx_hal_uart.c ****       }
2132:Drivers/STM32F4xx_HAL_Driver/Src/stm32f4xx_hal_uart.c ****       else
2133:Drivers/STM32F4xx_HAL_Driver/Src/stm32f4xx_hal_uart.c ****       {
2134:Drivers/STM32F4xx_HAL_Driver/Src/stm32f4xx_hal_uart.c ****         AbortCplt = 0x00U;
 4473              		.loc 1 2134 19
 4474 016a 0023     		movs	r3, #0
 4475 016c C7F88430 		str	r3, [r7, #132]
 4476              	.L229:
2135:Drivers/STM32F4xx_HAL_Driver/Src/stm32f4xx_hal_uart.c ****       }
2136:Drivers/STM32F4xx_HAL_Driver/Src/stm32f4xx_hal_uart.c ****     }
2137:Drivers/STM32F4xx_HAL_Driver/Src/stm32f4xx_hal_uart.c ****   }
2138:Drivers/STM32F4xx_HAL_Driver/Src/stm32f4xx_hal_uart.c **** 
2139:Drivers/STM32F4xx_HAL_Driver/Src/stm32f4xx_hal_uart.c ****   /* Disable the UART DMA Rx request if enabled */
2140:Drivers/STM32F4xx_HAL_Driver/Src/stm32f4xx_hal_uart.c ****   if (HAL_IS_BIT_SET(huart->Instance->CR3, USART_CR3_DMAR))
 4477              		.loc 1 2140 7
 4478 0170 7B68     		ldr	r3, [r7, #4]
 4479 0172 1B68     		ldr	r3, [r3]
 4480 0174 5B69     		ldr	r3, [r3, #20]
 4481 0176 03F04003 		and	r3, r3, #64
 4482              		.loc 1 2140 6
 4483 017a 402B     		cmp	r3, #64
 4484 017c 30D1     		bne	.L234
 4485              	.L237:
 4486              	.LBB464:
2141:Drivers/STM32F4xx_HAL_Driver/Src/stm32f4xx_hal_uart.c ****   {
2142:Drivers/STM32F4xx_HAL_Driver/Src/stm32f4xx_hal_uart.c ****     ATOMIC_CLEAR_BIT(huart->Instance->CR3, USART_CR3_DMAR);
 4487              		.loc 1 2142 5 discriminator 1
 4488 017e 7B68     		ldr	r3, [r7, #4]
 4489 0180 1B68     		ldr	r3, [r3]
 4490 0182 1433     		adds	r3, r3, #20
 4491 0184 3B61     		str	r3, [r7, #16]
 4492              	.LBB465:
 4493              	.LBB466:
1072:Drivers/CMSIS/Include/cmsis_gcc.h ****    return(result);
 4494              		.loc 2 1072 4 discriminator 1
 4495 0186 3B69     		ldr	r3, [r7, #16]
 4496              		.syntax unified
 4497              	@ 1072 "Drivers/CMSIS/Include/cmsis_gcc.h" 1
 4498 0188 53E8003F 		ldrex r3, [r3]
 4499              	@ 0 "" 2
 4500              		.thumb
ARM GAS  /tmp/ccIpdX1g.s 			page 138


 4501              		.syntax unified
 4502 018c FB60     		str	r3, [r7, #12]
1073:Drivers/CMSIS/Include/cmsis_gcc.h **** }
 4503              		.loc 2 1073 10 discriminator 1
 4504 018e FB68     		ldr	r3, [r7, #12]
 4505              	.LBE466:
 4506              	.LBE465:
 4507              		.loc 1 2142 5 discriminator 1
 4508 0190 23F04003 		bic	r3, r3, #64
 4509 0194 3B67     		str	r3, [r7, #112]
 4510 0196 7B68     		ldr	r3, [r7, #4]
 4511 0198 1B68     		ldr	r3, [r3]
 4512 019a 1433     		adds	r3, r3, #20
 4513 019c 3A6F     		ldr	r2, [r7, #112]
 4514 019e FA61     		str	r2, [r7, #28]
 4515 01a0 BB61     		str	r3, [r7, #24]
 4516              	.LBB467:
 4517              	.LBB468:
1123:Drivers/CMSIS/Include/cmsis_gcc.h ****    return(result);
 4518              		.loc 2 1123 4 discriminator 1
 4519 01a2 B969     		ldr	r1, [r7, #24]
 4520 01a4 FA69     		ldr	r2, [r7, #28]
 4521              		.syntax unified
 4522              	@ 1123 "Drivers/CMSIS/Include/cmsis_gcc.h" 1
 4523 01a6 41E80023 		strex r3, r2, [r1]
 4524              	@ 0 "" 2
 4525              		.thumb
 4526              		.syntax unified
 4527 01aa 7B61     		str	r3, [r7, #20]
 4528              		.loc 2 1124 10 discriminator 1
 4529 01ac 7B69     		ldr	r3, [r7, #20]
 4530              	.LBE468:
 4531              	.LBE467:
 4532              		.loc 1 2142 5 discriminator 1
 4533 01ae 002B     		cmp	r3, #0
 4534 01b0 E5D1     		bne	.L237
 4535              	.LBE464:
2143:Drivers/STM32F4xx_HAL_Driver/Src/stm32f4xx_hal_uart.c **** 
2144:Drivers/STM32F4xx_HAL_Driver/Src/stm32f4xx_hal_uart.c ****     /* Abort the UART DMA Rx stream : use non blocking DMA Abort API (callback) */
2145:Drivers/STM32F4xx_HAL_Driver/Src/stm32f4xx_hal_uart.c ****     if (huart->hdmarx != NULL)
 4536              		.loc 1 2145 14
 4537 01b2 7B68     		ldr	r3, [r7, #4]
 4538 01b4 9B6B     		ldr	r3, [r3, #56]
 4539              		.loc 1 2145 8
 4540 01b6 002B     		cmp	r3, #0
 4541 01b8 12D0     		beq	.L234
2146:Drivers/STM32F4xx_HAL_Driver/Src/stm32f4xx_hal_uart.c ****     {
2147:Drivers/STM32F4xx_HAL_Driver/Src/stm32f4xx_hal_uart.c ****       /* UART Rx DMA Abort callback has already been initialised :
2148:Drivers/STM32F4xx_HAL_Driver/Src/stm32f4xx_hal_uart.c ****          will lead to call HAL_UART_AbortCpltCallback() at end of DMA abort procedure */
2149:Drivers/STM32F4xx_HAL_Driver/Src/stm32f4xx_hal_uart.c **** 
2150:Drivers/STM32F4xx_HAL_Driver/Src/stm32f4xx_hal_uart.c ****       /* Abort DMA RX */
2151:Drivers/STM32F4xx_HAL_Driver/Src/stm32f4xx_hal_uart.c ****       if (HAL_DMA_Abort_IT(huart->hdmarx) != HAL_OK)
 4542              		.loc 1 2151 11
 4543 01ba 7B68     		ldr	r3, [r7, #4]
 4544 01bc 9B6B     		ldr	r3, [r3, #56]
 4545 01be 1846     		mov	r0, r3
 4546 01c0 FFF7FEFF 		bl	HAL_DMA_Abort_IT
ARM GAS  /tmp/ccIpdX1g.s 			page 139


 4547 01c4 0346     		mov	r3, r0
 4548              		.loc 1 2151 10
 4549 01c6 002B     		cmp	r3, #0
 4550 01c8 07D0     		beq	.L238
2152:Drivers/STM32F4xx_HAL_Driver/Src/stm32f4xx_hal_uart.c ****       {
2153:Drivers/STM32F4xx_HAL_Driver/Src/stm32f4xx_hal_uart.c ****         huart->hdmarx->XferAbortCallback = NULL;
 4551              		.loc 1 2153 14
 4552 01ca 7B68     		ldr	r3, [r7, #4]
 4553 01cc 9B6B     		ldr	r3, [r3, #56]
 4554              		.loc 1 2153 42
 4555 01ce 0022     		movs	r2, #0
 4556 01d0 1A65     		str	r2, [r3, #80]
2154:Drivers/STM32F4xx_HAL_Driver/Src/stm32f4xx_hal_uart.c ****         AbortCplt = 0x01U;
 4557              		.loc 1 2154 19
 4558 01d2 0123     		movs	r3, #1
 4559 01d4 C7F88430 		str	r3, [r7, #132]
 4560 01d8 02E0     		b	.L234
 4561              	.L238:
2155:Drivers/STM32F4xx_HAL_Driver/Src/stm32f4xx_hal_uart.c ****       }
2156:Drivers/STM32F4xx_HAL_Driver/Src/stm32f4xx_hal_uart.c ****       else
2157:Drivers/STM32F4xx_HAL_Driver/Src/stm32f4xx_hal_uart.c ****       {
2158:Drivers/STM32F4xx_HAL_Driver/Src/stm32f4xx_hal_uart.c ****         AbortCplt = 0x00U;
 4562              		.loc 1 2158 19
 4563 01da 0023     		movs	r3, #0
 4564 01dc C7F88430 		str	r3, [r7, #132]
 4565              	.L234:
2159:Drivers/STM32F4xx_HAL_Driver/Src/stm32f4xx_hal_uart.c ****       }
2160:Drivers/STM32F4xx_HAL_Driver/Src/stm32f4xx_hal_uart.c ****     }
2161:Drivers/STM32F4xx_HAL_Driver/Src/stm32f4xx_hal_uart.c ****   }
2162:Drivers/STM32F4xx_HAL_Driver/Src/stm32f4xx_hal_uart.c **** 
2163:Drivers/STM32F4xx_HAL_Driver/Src/stm32f4xx_hal_uart.c ****   /* if no DMA abort complete callback execution is required => call user Abort Complete callback *
2164:Drivers/STM32F4xx_HAL_Driver/Src/stm32f4xx_hal_uart.c ****   if (AbortCplt == 0x01U)
 4566              		.loc 1 2164 6
 4567 01e0 D7F88430 		ldr	r3, [r7, #132]
 4568 01e4 012B     		cmp	r3, #1
 4569 01e6 16D1     		bne	.L239
2165:Drivers/STM32F4xx_HAL_Driver/Src/stm32f4xx_hal_uart.c ****   {
2166:Drivers/STM32F4xx_HAL_Driver/Src/stm32f4xx_hal_uart.c ****     /* Reset Tx and Rx transfer counters */
2167:Drivers/STM32F4xx_HAL_Driver/Src/stm32f4xx_hal_uart.c ****     huart->TxXferCount = 0x00U;
 4570              		.loc 1 2167 24
 4571 01e8 7B68     		ldr	r3, [r7, #4]
 4572 01ea 0022     		movs	r2, #0
 4573 01ec DA84     		strh	r2, [r3, #38]	@ movhi
2168:Drivers/STM32F4xx_HAL_Driver/Src/stm32f4xx_hal_uart.c ****     huart->RxXferCount = 0x00U;
 4574              		.loc 1 2168 24
 4575 01ee 7B68     		ldr	r3, [r7, #4]
 4576 01f0 0022     		movs	r2, #0
 4577 01f2 DA85     		strh	r2, [r3, #46]	@ movhi
2169:Drivers/STM32F4xx_HAL_Driver/Src/stm32f4xx_hal_uart.c **** 
2170:Drivers/STM32F4xx_HAL_Driver/Src/stm32f4xx_hal_uart.c ****     /* Reset ErrorCode */
2171:Drivers/STM32F4xx_HAL_Driver/Src/stm32f4xx_hal_uart.c ****     huart->ErrorCode = HAL_UART_ERROR_NONE;
 4578              		.loc 1 2171 22
 4579 01f4 7B68     		ldr	r3, [r7, #4]
 4580 01f6 0022     		movs	r2, #0
 4581 01f8 1A64     		str	r2, [r3, #64]
2172:Drivers/STM32F4xx_HAL_Driver/Src/stm32f4xx_hal_uart.c **** 
2173:Drivers/STM32F4xx_HAL_Driver/Src/stm32f4xx_hal_uart.c ****     /* Restore huart->gState and huart->RxState to Ready */
ARM GAS  /tmp/ccIpdX1g.s 			page 140


2174:Drivers/STM32F4xx_HAL_Driver/Src/stm32f4xx_hal_uart.c ****     huart->gState  = HAL_UART_STATE_READY;
 4582              		.loc 1 2174 20
 4583 01fa 7B68     		ldr	r3, [r7, #4]
 4584 01fc 2022     		movs	r2, #32
 4585 01fe 83F83D20 		strb	r2, [r3, #61]
2175:Drivers/STM32F4xx_HAL_Driver/Src/stm32f4xx_hal_uart.c ****     huart->RxState = HAL_UART_STATE_READY;
 4586              		.loc 1 2175 20
 4587 0202 7B68     		ldr	r3, [r7, #4]
 4588 0204 2022     		movs	r2, #32
 4589 0206 83F83E20 		strb	r2, [r3, #62]
2176:Drivers/STM32F4xx_HAL_Driver/Src/stm32f4xx_hal_uart.c ****     huart->ReceptionType = HAL_UART_RECEPTION_STANDARD;
 4590              		.loc 1 2176 26
 4591 020a 7B68     		ldr	r3, [r7, #4]
 4592 020c 0022     		movs	r2, #0
 4593 020e 1A63     		str	r2, [r3, #48]
2177:Drivers/STM32F4xx_HAL_Driver/Src/stm32f4xx_hal_uart.c **** 
2178:Drivers/STM32F4xx_HAL_Driver/Src/stm32f4xx_hal_uart.c ****     /* As no DMA to be aborted, call directly user Abort complete callback */
2179:Drivers/STM32F4xx_HAL_Driver/Src/stm32f4xx_hal_uart.c **** #if (USE_HAL_UART_REGISTER_CALLBACKS == 1)
2180:Drivers/STM32F4xx_HAL_Driver/Src/stm32f4xx_hal_uart.c ****     /* Call registered Abort complete callback */
2181:Drivers/STM32F4xx_HAL_Driver/Src/stm32f4xx_hal_uart.c ****     huart->AbortCpltCallback(huart);
2182:Drivers/STM32F4xx_HAL_Driver/Src/stm32f4xx_hal_uart.c **** #else
2183:Drivers/STM32F4xx_HAL_Driver/Src/stm32f4xx_hal_uart.c ****     /* Call legacy weak Abort complete callback */
2184:Drivers/STM32F4xx_HAL_Driver/Src/stm32f4xx_hal_uart.c ****     HAL_UART_AbortCpltCallback(huart);
 4594              		.loc 1 2184 5
 4595 0210 7868     		ldr	r0, [r7, #4]
 4596 0212 FFF7FEFF 		bl	HAL_UART_AbortCpltCallback
 4597              	.L239:
2185:Drivers/STM32F4xx_HAL_Driver/Src/stm32f4xx_hal_uart.c **** #endif /* USE_HAL_UART_REGISTER_CALLBACKS */
2186:Drivers/STM32F4xx_HAL_Driver/Src/stm32f4xx_hal_uart.c ****   }
2187:Drivers/STM32F4xx_HAL_Driver/Src/stm32f4xx_hal_uart.c **** 
2188:Drivers/STM32F4xx_HAL_Driver/Src/stm32f4xx_hal_uart.c ****   return HAL_OK;
 4598              		.loc 1 2188 10
 4599 0216 0023     		movs	r3, #0
2189:Drivers/STM32F4xx_HAL_Driver/Src/stm32f4xx_hal_uart.c **** }
 4600              		.loc 1 2189 1
 4601 0218 1846     		mov	r0, r3
 4602 021a 8837     		adds	r7, r7, #136
 4603              	.LCFI118:
 4604              		.cfi_def_cfa_offset 8
 4605 021c BD46     		mov	sp, r7
 4606              	.LCFI119:
 4607              		.cfi_def_cfa_register 13
 4608              		@ sp needed
 4609 021e 80BD     		pop	{r7, pc}
 4610              	.L242:
 4611              		.align	2
 4612              	.L241:
 4613 0220 00000000 		.word	UART_DMATxAbortCallback
 4614 0224 00000000 		.word	UART_DMARxAbortCallback
 4615              		.cfi_endproc
 4616              	.LFE238:
 4618              		.section	.text.HAL_UART_AbortTransmit_IT,"ax",%progbits
 4619              		.align	1
 4620              		.global	HAL_UART_AbortTransmit_IT
 4621              		.syntax unified
 4622              		.thumb
 4623              		.thumb_func
ARM GAS  /tmp/ccIpdX1g.s 			page 141


 4625              	HAL_UART_AbortTransmit_IT:
 4626              	.LFB239:
2190:Drivers/STM32F4xx_HAL_Driver/Src/stm32f4xx_hal_uart.c **** 
2191:Drivers/STM32F4xx_HAL_Driver/Src/stm32f4xx_hal_uart.c **** /**
2192:Drivers/STM32F4xx_HAL_Driver/Src/stm32f4xx_hal_uart.c ****   * @brief  Abort ongoing Transmit transfer (Interrupt mode).
2193:Drivers/STM32F4xx_HAL_Driver/Src/stm32f4xx_hal_uart.c ****   * @param  huart UART handle.
2194:Drivers/STM32F4xx_HAL_Driver/Src/stm32f4xx_hal_uart.c ****   * @note   This procedure could be used for aborting any ongoing Tx transfer started in Interrupt 
2195:Drivers/STM32F4xx_HAL_Driver/Src/stm32f4xx_hal_uart.c ****   *         This procedure performs following operations :
2196:Drivers/STM32F4xx_HAL_Driver/Src/stm32f4xx_hal_uart.c ****   *           - Disable UART Interrupts (Tx)
2197:Drivers/STM32F4xx_HAL_Driver/Src/stm32f4xx_hal_uart.c ****   *           - Disable the DMA transfer in the peripheral register (if enabled)
2198:Drivers/STM32F4xx_HAL_Driver/Src/stm32f4xx_hal_uart.c ****   *           - Abort DMA transfer by calling HAL_DMA_Abort_IT (in case of transfer in DMA mode)
2199:Drivers/STM32F4xx_HAL_Driver/Src/stm32f4xx_hal_uart.c ****   *           - Set handle State to READY
2200:Drivers/STM32F4xx_HAL_Driver/Src/stm32f4xx_hal_uart.c ****   *           - At abort completion, call user abort complete callback
2201:Drivers/STM32F4xx_HAL_Driver/Src/stm32f4xx_hal_uart.c ****   * @note   This procedure is executed in Interrupt mode, meaning that abort procedure could be
2202:Drivers/STM32F4xx_HAL_Driver/Src/stm32f4xx_hal_uart.c ****   *         considered as completed only when user abort complete callback is executed (not when ex
2203:Drivers/STM32F4xx_HAL_Driver/Src/stm32f4xx_hal_uart.c ****   * @retval HAL status
2204:Drivers/STM32F4xx_HAL_Driver/Src/stm32f4xx_hal_uart.c ****   */
2205:Drivers/STM32F4xx_HAL_Driver/Src/stm32f4xx_hal_uart.c **** HAL_StatusTypeDef HAL_UART_AbortTransmit_IT(UART_HandleTypeDef *huart)
2206:Drivers/STM32F4xx_HAL_Driver/Src/stm32f4xx_hal_uart.c **** {
 4627              		.loc 1 2206 1
 4628              		.cfi_startproc
 4629              		@ args = 0, pretend = 0, frame = 56
 4630              		@ frame_needed = 1, uses_anonymous_args = 0
 4631 0000 80B5     		push	{r7, lr}
 4632              	.LCFI120:
 4633              		.cfi_def_cfa_offset 8
 4634              		.cfi_offset 7, -8
 4635              		.cfi_offset 14, -4
 4636 0002 8EB0     		sub	sp, sp, #56
 4637              	.LCFI121:
 4638              		.cfi_def_cfa_offset 64
 4639 0004 00AF     		add	r7, sp, #0
 4640              	.LCFI122:
 4641              		.cfi_def_cfa_register 7
 4642 0006 7860     		str	r0, [r7, #4]
 4643              	.L246:
 4644              	.LBB469:
2207:Drivers/STM32F4xx_HAL_Driver/Src/stm32f4xx_hal_uart.c ****   /* Disable TXEIE and TCIE interrupts */
2208:Drivers/STM32F4xx_HAL_Driver/Src/stm32f4xx_hal_uart.c ****   ATOMIC_CLEAR_BIT(huart->Instance->CR1, (USART_CR1_TXEIE | USART_CR1_TCIE));
 4645              		.loc 1 2208 3 discriminator 1
 4646 0008 7B68     		ldr	r3, [r7, #4]
 4647 000a 1B68     		ldr	r3, [r3]
 4648 000c 0C33     		adds	r3, r3, #12
 4649 000e 3B62     		str	r3, [r7, #32]
 4650              	.LBB470:
 4651              	.LBB471:
1072:Drivers/CMSIS/Include/cmsis_gcc.h ****    return(result);
 4652              		.loc 2 1072 4 discriminator 1
 4653 0010 3B6A     		ldr	r3, [r7, #32]
 4654              		.syntax unified
 4655              	@ 1072 "Drivers/CMSIS/Include/cmsis_gcc.h" 1
 4656 0012 53E8003F 		ldrex r3, [r3]
 4657              	@ 0 "" 2
 4658              		.thumb
 4659              		.syntax unified
 4660 0016 FB61     		str	r3, [r7, #28]
1073:Drivers/CMSIS/Include/cmsis_gcc.h **** }
ARM GAS  /tmp/ccIpdX1g.s 			page 142


 4661              		.loc 2 1073 10 discriminator 1
 4662 0018 FB69     		ldr	r3, [r7, #28]
 4663              	.LBE471:
 4664              	.LBE470:
 4665              		.loc 1 2208 3 discriminator 1
 4666 001a 23F0C003 		bic	r3, r3, #192
 4667 001e 7B63     		str	r3, [r7, #52]
 4668 0020 7B68     		ldr	r3, [r7, #4]
 4669 0022 1B68     		ldr	r3, [r3]
 4670 0024 0C33     		adds	r3, r3, #12
 4671 0026 7A6B     		ldr	r2, [r7, #52]
 4672 0028 FA62     		str	r2, [r7, #44]
 4673 002a BB62     		str	r3, [r7, #40]
 4674              	.LBB472:
 4675              	.LBB473:
1123:Drivers/CMSIS/Include/cmsis_gcc.h ****    return(result);
 4676              		.loc 2 1123 4 discriminator 1
 4677 002c B96A     		ldr	r1, [r7, #40]
 4678 002e FA6A     		ldr	r2, [r7, #44]
 4679              		.syntax unified
 4680              	@ 1123 "Drivers/CMSIS/Include/cmsis_gcc.h" 1
 4681 0030 41E80023 		strex r3, r2, [r1]
 4682              	@ 0 "" 2
 4683              		.thumb
 4684              		.syntax unified
 4685 0034 7B62     		str	r3, [r7, #36]
 4686              		.loc 2 1124 10 discriminator 1
 4687 0036 7B6A     		ldr	r3, [r7, #36]
 4688              	.LBE473:
 4689              	.LBE472:
 4690              		.loc 1 2208 3 discriminator 1
 4691 0038 002B     		cmp	r3, #0
 4692 003a E5D1     		bne	.L246
 4693              	.LBE469:
2209:Drivers/STM32F4xx_HAL_Driver/Src/stm32f4xx_hal_uart.c **** 
2210:Drivers/STM32F4xx_HAL_Driver/Src/stm32f4xx_hal_uart.c ****   /* Disable the UART DMA Tx request if enabled */
2211:Drivers/STM32F4xx_HAL_Driver/Src/stm32f4xx_hal_uart.c ****   if (HAL_IS_BIT_SET(huart->Instance->CR3, USART_CR3_DMAT))
 4694              		.loc 1 2211 7
 4695 003c 7B68     		ldr	r3, [r7, #4]
 4696 003e 1B68     		ldr	r3, [r3]
 4697 0040 5B69     		ldr	r3, [r3, #20]
 4698 0042 03F08003 		and	r3, r3, #128
 4699              		.loc 1 2211 6
 4700 0046 802B     		cmp	r3, #128
 4701 0048 3CD1     		bne	.L247
 4702              	.L250:
 4703              	.LBB474:
2212:Drivers/STM32F4xx_HAL_Driver/Src/stm32f4xx_hal_uart.c ****   {
2213:Drivers/STM32F4xx_HAL_Driver/Src/stm32f4xx_hal_uart.c ****     ATOMIC_CLEAR_BIT(huart->Instance->CR3, USART_CR3_DMAT);
 4704              		.loc 1 2213 5 discriminator 1
 4705 004a 7B68     		ldr	r3, [r7, #4]
 4706 004c 1B68     		ldr	r3, [r3]
 4707 004e 1433     		adds	r3, r3, #20
 4708 0050 FB60     		str	r3, [r7, #12]
 4709              	.LBB475:
 4710              	.LBB476:
1072:Drivers/CMSIS/Include/cmsis_gcc.h ****    return(result);
ARM GAS  /tmp/ccIpdX1g.s 			page 143


 4711              		.loc 2 1072 4 discriminator 1
 4712 0052 FB68     		ldr	r3, [r7, #12]
 4713              		.syntax unified
 4714              	@ 1072 "Drivers/CMSIS/Include/cmsis_gcc.h" 1
 4715 0054 53E8003F 		ldrex r3, [r3]
 4716              	@ 0 "" 2
 4717              		.thumb
 4718              		.syntax unified
 4719 0058 BB60     		str	r3, [r7, #8]
1073:Drivers/CMSIS/Include/cmsis_gcc.h **** }
 4720              		.loc 2 1073 10 discriminator 1
 4721 005a BB68     		ldr	r3, [r7, #8]
 4722              	.LBE476:
 4723              	.LBE475:
 4724              		.loc 1 2213 5 discriminator 1
 4725 005c 23F08003 		bic	r3, r3, #128
 4726 0060 3B63     		str	r3, [r7, #48]
 4727 0062 7B68     		ldr	r3, [r7, #4]
 4728 0064 1B68     		ldr	r3, [r3]
 4729 0066 1433     		adds	r3, r3, #20
 4730 0068 3A6B     		ldr	r2, [r7, #48]
 4731 006a BA61     		str	r2, [r7, #24]
 4732 006c 7B61     		str	r3, [r7, #20]
 4733              	.LBB477:
 4734              	.LBB478:
1123:Drivers/CMSIS/Include/cmsis_gcc.h ****    return(result);
 4735              		.loc 2 1123 4 discriminator 1
 4736 006e 7969     		ldr	r1, [r7, #20]
 4737 0070 BA69     		ldr	r2, [r7, #24]
 4738              		.syntax unified
 4739              	@ 1123 "Drivers/CMSIS/Include/cmsis_gcc.h" 1
 4740 0072 41E80023 		strex r3, r2, [r1]
 4741              	@ 0 "" 2
 4742              		.thumb
 4743              		.syntax unified
 4744 0076 3B61     		str	r3, [r7, #16]
 4745              		.loc 2 1124 10 discriminator 1
 4746 0078 3B69     		ldr	r3, [r7, #16]
 4747              	.LBE478:
 4748              	.LBE477:
 4749              		.loc 1 2213 5 discriminator 1
 4750 007a 002B     		cmp	r3, #0
 4751 007c E5D1     		bne	.L250
 4752              	.LBE474:
2214:Drivers/STM32F4xx_HAL_Driver/Src/stm32f4xx_hal_uart.c **** 
2215:Drivers/STM32F4xx_HAL_Driver/Src/stm32f4xx_hal_uart.c ****     /* Abort the UART DMA Tx stream : use blocking DMA Abort API (no callback) */
2216:Drivers/STM32F4xx_HAL_Driver/Src/stm32f4xx_hal_uart.c ****     if (huart->hdmatx != NULL)
 4753              		.loc 1 2216 14
 4754 007e 7B68     		ldr	r3, [r7, #4]
 4755 0080 5B6B     		ldr	r3, [r3, #52]
 4756              		.loc 1 2216 8
 4757 0082 002B     		cmp	r3, #0
 4758 0084 13D0     		beq	.L251
2217:Drivers/STM32F4xx_HAL_Driver/Src/stm32f4xx_hal_uart.c ****     {
2218:Drivers/STM32F4xx_HAL_Driver/Src/stm32f4xx_hal_uart.c ****       /* Set the UART DMA Abort callback :
2219:Drivers/STM32F4xx_HAL_Driver/Src/stm32f4xx_hal_uart.c ****          will lead to call HAL_UART_AbortCpltCallback() at end of DMA abort procedure */
2220:Drivers/STM32F4xx_HAL_Driver/Src/stm32f4xx_hal_uart.c ****       huart->hdmatx->XferAbortCallback = UART_DMATxOnlyAbortCallback;
ARM GAS  /tmp/ccIpdX1g.s 			page 144


 4759              		.loc 1 2220 12
 4760 0086 7B68     		ldr	r3, [r7, #4]
 4761 0088 5B6B     		ldr	r3, [r3, #52]
 4762              		.loc 1 2220 40
 4763 008a 164A     		ldr	r2, .L254
 4764 008c 1A65     		str	r2, [r3, #80]
2221:Drivers/STM32F4xx_HAL_Driver/Src/stm32f4xx_hal_uart.c **** 
2222:Drivers/STM32F4xx_HAL_Driver/Src/stm32f4xx_hal_uart.c ****       /* Abort DMA TX */
2223:Drivers/STM32F4xx_HAL_Driver/Src/stm32f4xx_hal_uart.c ****       if (HAL_DMA_Abort_IT(huart->hdmatx) != HAL_OK)
 4765              		.loc 1 2223 11
 4766 008e 7B68     		ldr	r3, [r7, #4]
 4767 0090 5B6B     		ldr	r3, [r3, #52]
 4768 0092 1846     		mov	r0, r3
 4769 0094 FFF7FEFF 		bl	HAL_DMA_Abort_IT
 4770 0098 0346     		mov	r3, r0
 4771              		.loc 1 2223 10
 4772 009a 002B     		cmp	r3, #0
 4773 009c 1CD0     		beq	.L252
2224:Drivers/STM32F4xx_HAL_Driver/Src/stm32f4xx_hal_uart.c ****       {
2225:Drivers/STM32F4xx_HAL_Driver/Src/stm32f4xx_hal_uart.c ****         /* Call Directly huart->hdmatx->XferAbortCallback function in case of error */
2226:Drivers/STM32F4xx_HAL_Driver/Src/stm32f4xx_hal_uart.c ****         huart->hdmatx->XferAbortCallback(huart->hdmatx);
 4774              		.loc 1 2226 14
 4775 009e 7B68     		ldr	r3, [r7, #4]
 4776 00a0 5B6B     		ldr	r3, [r3, #52]
 4777              		.loc 1 2226 22
 4778 00a2 1B6D     		ldr	r3, [r3, #80]
 4779              		.loc 1 2226 47
 4780 00a4 7A68     		ldr	r2, [r7, #4]
 4781 00a6 526B     		ldr	r2, [r2, #52]
 4782              		.loc 1 2226 9
 4783 00a8 1046     		mov	r0, r2
 4784 00aa 9847     		blx	r3
 4785              	.LVL0:
 4786 00ac 14E0     		b	.L252
 4787              	.L251:
2227:Drivers/STM32F4xx_HAL_Driver/Src/stm32f4xx_hal_uart.c ****       }
2228:Drivers/STM32F4xx_HAL_Driver/Src/stm32f4xx_hal_uart.c ****     }
2229:Drivers/STM32F4xx_HAL_Driver/Src/stm32f4xx_hal_uart.c ****     else
2230:Drivers/STM32F4xx_HAL_Driver/Src/stm32f4xx_hal_uart.c ****     {
2231:Drivers/STM32F4xx_HAL_Driver/Src/stm32f4xx_hal_uart.c ****       /* Reset Tx transfer counter */
2232:Drivers/STM32F4xx_HAL_Driver/Src/stm32f4xx_hal_uart.c ****       huart->TxXferCount = 0x00U;
 4788              		.loc 1 2232 26
 4789 00ae 7B68     		ldr	r3, [r7, #4]
 4790 00b0 0022     		movs	r2, #0
 4791 00b2 DA84     		strh	r2, [r3, #38]	@ movhi
2233:Drivers/STM32F4xx_HAL_Driver/Src/stm32f4xx_hal_uart.c **** 
2234:Drivers/STM32F4xx_HAL_Driver/Src/stm32f4xx_hal_uart.c ****       /* Restore huart->gState to Ready */
2235:Drivers/STM32F4xx_HAL_Driver/Src/stm32f4xx_hal_uart.c ****       huart->gState = HAL_UART_STATE_READY;
 4792              		.loc 1 2235 21
 4793 00b4 7B68     		ldr	r3, [r7, #4]
 4794 00b6 2022     		movs	r2, #32
 4795 00b8 83F83D20 		strb	r2, [r3, #61]
2236:Drivers/STM32F4xx_HAL_Driver/Src/stm32f4xx_hal_uart.c **** 
2237:Drivers/STM32F4xx_HAL_Driver/Src/stm32f4xx_hal_uart.c ****       /* As no DMA to be aborted, call directly user Abort complete callback */
2238:Drivers/STM32F4xx_HAL_Driver/Src/stm32f4xx_hal_uart.c **** #if (USE_HAL_UART_REGISTER_CALLBACKS == 1)
2239:Drivers/STM32F4xx_HAL_Driver/Src/stm32f4xx_hal_uart.c ****       /* Call registered Abort Transmit Complete Callback */
2240:Drivers/STM32F4xx_HAL_Driver/Src/stm32f4xx_hal_uart.c ****       huart->AbortTransmitCpltCallback(huart);
ARM GAS  /tmp/ccIpdX1g.s 			page 145


2241:Drivers/STM32F4xx_HAL_Driver/Src/stm32f4xx_hal_uart.c **** #else
2242:Drivers/STM32F4xx_HAL_Driver/Src/stm32f4xx_hal_uart.c ****       /* Call legacy weak Abort Transmit Complete Callback */
2243:Drivers/STM32F4xx_HAL_Driver/Src/stm32f4xx_hal_uart.c ****       HAL_UART_AbortTransmitCpltCallback(huart);
 4796              		.loc 1 2243 7
 4797 00bc 7868     		ldr	r0, [r7, #4]
 4798 00be FFF7FEFF 		bl	HAL_UART_AbortTransmitCpltCallback
 4799 00c2 09E0     		b	.L252
 4800              	.L247:
2244:Drivers/STM32F4xx_HAL_Driver/Src/stm32f4xx_hal_uart.c **** #endif /* USE_HAL_UART_REGISTER_CALLBACKS */
2245:Drivers/STM32F4xx_HAL_Driver/Src/stm32f4xx_hal_uart.c ****     }
2246:Drivers/STM32F4xx_HAL_Driver/Src/stm32f4xx_hal_uart.c ****   }
2247:Drivers/STM32F4xx_HAL_Driver/Src/stm32f4xx_hal_uart.c ****   else
2248:Drivers/STM32F4xx_HAL_Driver/Src/stm32f4xx_hal_uart.c ****   {
2249:Drivers/STM32F4xx_HAL_Driver/Src/stm32f4xx_hal_uart.c ****     /* Reset Tx transfer counter */
2250:Drivers/STM32F4xx_HAL_Driver/Src/stm32f4xx_hal_uart.c ****     huart->TxXferCount = 0x00U;
 4801              		.loc 1 2250 24
 4802 00c4 7B68     		ldr	r3, [r7, #4]
 4803 00c6 0022     		movs	r2, #0
 4804 00c8 DA84     		strh	r2, [r3, #38]	@ movhi
2251:Drivers/STM32F4xx_HAL_Driver/Src/stm32f4xx_hal_uart.c **** 
2252:Drivers/STM32F4xx_HAL_Driver/Src/stm32f4xx_hal_uart.c ****     /* Restore huart->gState to Ready */
2253:Drivers/STM32F4xx_HAL_Driver/Src/stm32f4xx_hal_uart.c ****     huart->gState = HAL_UART_STATE_READY;
 4805              		.loc 1 2253 19
 4806 00ca 7B68     		ldr	r3, [r7, #4]
 4807 00cc 2022     		movs	r2, #32
 4808 00ce 83F83D20 		strb	r2, [r3, #61]
2254:Drivers/STM32F4xx_HAL_Driver/Src/stm32f4xx_hal_uart.c **** 
2255:Drivers/STM32F4xx_HAL_Driver/Src/stm32f4xx_hal_uart.c ****     /* As no DMA to be aborted, call directly user Abort complete callback */
2256:Drivers/STM32F4xx_HAL_Driver/Src/stm32f4xx_hal_uart.c **** #if (USE_HAL_UART_REGISTER_CALLBACKS == 1)
2257:Drivers/STM32F4xx_HAL_Driver/Src/stm32f4xx_hal_uart.c ****     /* Call registered Abort Transmit Complete Callback */
2258:Drivers/STM32F4xx_HAL_Driver/Src/stm32f4xx_hal_uart.c ****     huart->AbortTransmitCpltCallback(huart);
2259:Drivers/STM32F4xx_HAL_Driver/Src/stm32f4xx_hal_uart.c **** #else
2260:Drivers/STM32F4xx_HAL_Driver/Src/stm32f4xx_hal_uart.c ****     /* Call legacy weak Abort Transmit Complete Callback */
2261:Drivers/STM32F4xx_HAL_Driver/Src/stm32f4xx_hal_uart.c ****     HAL_UART_AbortTransmitCpltCallback(huart);
 4809              		.loc 1 2261 5
 4810 00d2 7868     		ldr	r0, [r7, #4]
 4811 00d4 FFF7FEFF 		bl	HAL_UART_AbortTransmitCpltCallback
 4812              	.L252:
2262:Drivers/STM32F4xx_HAL_Driver/Src/stm32f4xx_hal_uart.c **** #endif /* USE_HAL_UART_REGISTER_CALLBACKS */
2263:Drivers/STM32F4xx_HAL_Driver/Src/stm32f4xx_hal_uart.c ****   }
2264:Drivers/STM32F4xx_HAL_Driver/Src/stm32f4xx_hal_uart.c **** 
2265:Drivers/STM32F4xx_HAL_Driver/Src/stm32f4xx_hal_uart.c ****   return HAL_OK;
 4813              		.loc 1 2265 10
 4814 00d8 0023     		movs	r3, #0
2266:Drivers/STM32F4xx_HAL_Driver/Src/stm32f4xx_hal_uart.c **** }
 4815              		.loc 1 2266 1
 4816 00da 1846     		mov	r0, r3
 4817 00dc 3837     		adds	r7, r7, #56
 4818              	.LCFI123:
 4819              		.cfi_def_cfa_offset 8
 4820 00de BD46     		mov	sp, r7
 4821              	.LCFI124:
 4822              		.cfi_def_cfa_register 13
 4823              		@ sp needed
 4824 00e0 80BD     		pop	{r7, pc}
 4825              	.L255:
 4826 00e2 00BF     		.align	2
ARM GAS  /tmp/ccIpdX1g.s 			page 146


 4827              	.L254:
 4828 00e4 00000000 		.word	UART_DMATxOnlyAbortCallback
 4829              		.cfi_endproc
 4830              	.LFE239:
 4832              		.section	.text.HAL_UART_AbortReceive_IT,"ax",%progbits
 4833              		.align	1
 4834              		.global	HAL_UART_AbortReceive_IT
 4835              		.syntax unified
 4836              		.thumb
 4837              		.thumb_func
 4839              	HAL_UART_AbortReceive_IT:
 4840              	.LFB240:
2267:Drivers/STM32F4xx_HAL_Driver/Src/stm32f4xx_hal_uart.c **** 
2268:Drivers/STM32F4xx_HAL_Driver/Src/stm32f4xx_hal_uart.c **** /**
2269:Drivers/STM32F4xx_HAL_Driver/Src/stm32f4xx_hal_uart.c ****   * @brief  Abort ongoing Receive transfer (Interrupt mode).
2270:Drivers/STM32F4xx_HAL_Driver/Src/stm32f4xx_hal_uart.c ****   * @param  huart UART handle.
2271:Drivers/STM32F4xx_HAL_Driver/Src/stm32f4xx_hal_uart.c ****   * @note   This procedure could be used for aborting any ongoing Rx transfer started in Interrupt 
2272:Drivers/STM32F4xx_HAL_Driver/Src/stm32f4xx_hal_uart.c ****   *         This procedure performs following operations :
2273:Drivers/STM32F4xx_HAL_Driver/Src/stm32f4xx_hal_uart.c ****   *           - Disable UART Interrupts (Rx)
2274:Drivers/STM32F4xx_HAL_Driver/Src/stm32f4xx_hal_uart.c ****   *           - Disable the DMA transfer in the peripheral register (if enabled)
2275:Drivers/STM32F4xx_HAL_Driver/Src/stm32f4xx_hal_uart.c ****   *           - Abort DMA transfer by calling HAL_DMA_Abort_IT (in case of transfer in DMA mode)
2276:Drivers/STM32F4xx_HAL_Driver/Src/stm32f4xx_hal_uart.c ****   *           - Set handle State to READY
2277:Drivers/STM32F4xx_HAL_Driver/Src/stm32f4xx_hal_uart.c ****   *           - At abort completion, call user abort complete callback
2278:Drivers/STM32F4xx_HAL_Driver/Src/stm32f4xx_hal_uart.c ****   * @note   This procedure is executed in Interrupt mode, meaning that abort procedure could be
2279:Drivers/STM32F4xx_HAL_Driver/Src/stm32f4xx_hal_uart.c ****   *         considered as completed only when user abort complete callback is executed (not when ex
2280:Drivers/STM32F4xx_HAL_Driver/Src/stm32f4xx_hal_uart.c ****   * @retval HAL status
2281:Drivers/STM32F4xx_HAL_Driver/Src/stm32f4xx_hal_uart.c ****   */
2282:Drivers/STM32F4xx_HAL_Driver/Src/stm32f4xx_hal_uart.c **** HAL_StatusTypeDef HAL_UART_AbortReceive_IT(UART_HandleTypeDef *huart)
2283:Drivers/STM32F4xx_HAL_Driver/Src/stm32f4xx_hal_uart.c **** {
 4841              		.loc 1 2283 1
 4842              		.cfi_startproc
 4843              		@ args = 0, pretend = 0, frame = 104
 4844              		@ frame_needed = 1, uses_anonymous_args = 0
 4845 0000 80B5     		push	{r7, lr}
 4846              	.LCFI125:
 4847              		.cfi_def_cfa_offset 8
 4848              		.cfi_offset 7, -8
 4849              		.cfi_offset 14, -4
 4850 0002 9AB0     		sub	sp, sp, #104
 4851              	.LCFI126:
 4852              		.cfi_def_cfa_offset 112
 4853 0004 00AF     		add	r7, sp, #0
 4854              	.LCFI127:
 4855              		.cfi_def_cfa_register 7
 4856 0006 7860     		str	r0, [r7, #4]
 4857              	.L259:
 4858              	.LBB479:
2284:Drivers/STM32F4xx_HAL_Driver/Src/stm32f4xx_hal_uart.c ****   /* Disable RXNE, PE and ERR (Frame error, noise error, overrun error) interrupts */
2285:Drivers/STM32F4xx_HAL_Driver/Src/stm32f4xx_hal_uart.c ****   ATOMIC_CLEAR_BIT(huart->Instance->CR1, (USART_CR1_RXNEIE | USART_CR1_PEIE));
 4859              		.loc 1 2285 3 discriminator 1
 4860 0008 7B68     		ldr	r3, [r7, #4]
 4861 000a 1B68     		ldr	r3, [r3]
 4862 000c 0C33     		adds	r3, r3, #12
 4863 000e BB64     		str	r3, [r7, #72]
 4864              	.LBB480:
 4865              	.LBB481:
1072:Drivers/CMSIS/Include/cmsis_gcc.h ****    return(result);
ARM GAS  /tmp/ccIpdX1g.s 			page 147


 4866              		.loc 2 1072 4 discriminator 1
 4867 0010 BB6C     		ldr	r3, [r7, #72]
 4868              		.syntax unified
 4869              	@ 1072 "Drivers/CMSIS/Include/cmsis_gcc.h" 1
 4870 0012 53E8003F 		ldrex r3, [r3]
 4871              	@ 0 "" 2
 4872              		.thumb
 4873              		.syntax unified
 4874 0016 7B64     		str	r3, [r7, #68]
1073:Drivers/CMSIS/Include/cmsis_gcc.h **** }
 4875              		.loc 2 1073 10 discriminator 1
 4876 0018 7B6C     		ldr	r3, [r7, #68]
 4877              	.LBE481:
 4878              	.LBE480:
 4879              		.loc 1 2285 3 discriminator 1
 4880 001a 23F49073 		bic	r3, r3, #288
 4881 001e 7B66     		str	r3, [r7, #100]
 4882 0020 7B68     		ldr	r3, [r7, #4]
 4883 0022 1B68     		ldr	r3, [r3]
 4884 0024 0C33     		adds	r3, r3, #12
 4885 0026 7A6E     		ldr	r2, [r7, #100]
 4886 0028 7A65     		str	r2, [r7, #84]
 4887 002a 3B65     		str	r3, [r7, #80]
 4888              	.LBB482:
 4889              	.LBB483:
1123:Drivers/CMSIS/Include/cmsis_gcc.h ****    return(result);
 4890              		.loc 2 1123 4 discriminator 1
 4891 002c 396D     		ldr	r1, [r7, #80]
 4892 002e 7A6D     		ldr	r2, [r7, #84]
 4893              		.syntax unified
 4894              	@ 1123 "Drivers/CMSIS/Include/cmsis_gcc.h" 1
 4895 0030 41E80023 		strex r3, r2, [r1]
 4896              	@ 0 "" 2
 4897              		.thumb
 4898              		.syntax unified
 4899 0034 FB64     		str	r3, [r7, #76]
 4900              		.loc 2 1124 10 discriminator 1
 4901 0036 FB6C     		ldr	r3, [r7, #76]
 4902              	.LBE483:
 4903              	.LBE482:
 4904              		.loc 1 2285 3 discriminator 1
 4905 0038 002B     		cmp	r3, #0
 4906 003a E5D1     		bne	.L259
 4907              	.L262:
 4908              	.LBE479:
 4909              	.LBB484:
2286:Drivers/STM32F4xx_HAL_Driver/Src/stm32f4xx_hal_uart.c ****   ATOMIC_CLEAR_BIT(huart->Instance->CR3, USART_CR3_EIE);
 4910              		.loc 1 2286 3 discriminator 1
 4911 003c 7B68     		ldr	r3, [r7, #4]
 4912 003e 1B68     		ldr	r3, [r3]
 4913 0040 1433     		adds	r3, r3, #20
 4914 0042 7B63     		str	r3, [r7, #52]
 4915              	.LBB485:
 4916              	.LBB486:
1072:Drivers/CMSIS/Include/cmsis_gcc.h ****    return(result);
 4917              		.loc 2 1072 4 discriminator 1
 4918 0044 7B6B     		ldr	r3, [r7, #52]
ARM GAS  /tmp/ccIpdX1g.s 			page 148


 4919              		.syntax unified
 4920              	@ 1072 "Drivers/CMSIS/Include/cmsis_gcc.h" 1
 4921 0046 53E8003F 		ldrex r3, [r3]
 4922              	@ 0 "" 2
 4923              		.thumb
 4924              		.syntax unified
 4925 004a 3B63     		str	r3, [r7, #48]
1073:Drivers/CMSIS/Include/cmsis_gcc.h **** }
 4926              		.loc 2 1073 10 discriminator 1
 4927 004c 3B6B     		ldr	r3, [r7, #48]
 4928              	.LBE486:
 4929              	.LBE485:
 4930              		.loc 1 2286 3 discriminator 1
 4931 004e 23F00103 		bic	r3, r3, #1
 4932 0052 3B66     		str	r3, [r7, #96]
 4933 0054 7B68     		ldr	r3, [r7, #4]
 4934 0056 1B68     		ldr	r3, [r3]
 4935 0058 1433     		adds	r3, r3, #20
 4936 005a 3A6E     		ldr	r2, [r7, #96]
 4937 005c 3A64     		str	r2, [r7, #64]
 4938 005e FB63     		str	r3, [r7, #60]
 4939              	.LBB487:
 4940              	.LBB488:
1123:Drivers/CMSIS/Include/cmsis_gcc.h ****    return(result);
 4941              		.loc 2 1123 4 discriminator 1
 4942 0060 F96B     		ldr	r1, [r7, #60]
 4943 0062 3A6C     		ldr	r2, [r7, #64]
 4944              		.syntax unified
 4945              	@ 1123 "Drivers/CMSIS/Include/cmsis_gcc.h" 1
 4946 0064 41E80023 		strex r3, r2, [r1]
 4947              	@ 0 "" 2
 4948              		.thumb
 4949              		.syntax unified
 4950 0068 BB63     		str	r3, [r7, #56]
 4951              		.loc 2 1124 10 discriminator 1
 4952 006a BB6B     		ldr	r3, [r7, #56]
 4953              	.LBE488:
 4954              	.LBE487:
 4955              		.loc 1 2286 3 discriminator 1
 4956 006c 002B     		cmp	r3, #0
 4957 006e E5D1     		bne	.L262
 4958              	.LBE484:
2287:Drivers/STM32F4xx_HAL_Driver/Src/stm32f4xx_hal_uart.c **** 
2288:Drivers/STM32F4xx_HAL_Driver/Src/stm32f4xx_hal_uart.c ****   /* If Reception till IDLE event was ongoing, disable IDLEIE interrupt */
2289:Drivers/STM32F4xx_HAL_Driver/Src/stm32f4xx_hal_uart.c ****   if (huart->ReceptionType == HAL_UART_RECEPTION_TOIDLE)
 4959              		.loc 1 2289 12
 4960 0070 7B68     		ldr	r3, [r7, #4]
 4961 0072 1B6B     		ldr	r3, [r3, #48]
 4962              		.loc 1 2289 6
 4963 0074 012B     		cmp	r3, #1
 4964 0076 19D1     		bne	.L263
 4965              	.L266:
 4966              	.LBB489:
2290:Drivers/STM32F4xx_HAL_Driver/Src/stm32f4xx_hal_uart.c ****   {
2291:Drivers/STM32F4xx_HAL_Driver/Src/stm32f4xx_hal_uart.c ****     ATOMIC_CLEAR_BIT(huart->Instance->CR1, (USART_CR1_IDLEIE));
 4967              		.loc 1 2291 5 discriminator 1
 4968 0078 7B68     		ldr	r3, [r7, #4]
ARM GAS  /tmp/ccIpdX1g.s 			page 149


 4969 007a 1B68     		ldr	r3, [r3]
 4970 007c 0C33     		adds	r3, r3, #12
 4971 007e 3B62     		str	r3, [r7, #32]
 4972              	.LBB490:
 4973              	.LBB491:
1072:Drivers/CMSIS/Include/cmsis_gcc.h ****    return(result);
 4974              		.loc 2 1072 4 discriminator 1
 4975 0080 3B6A     		ldr	r3, [r7, #32]
 4976              		.syntax unified
 4977              	@ 1072 "Drivers/CMSIS/Include/cmsis_gcc.h" 1
 4978 0082 53E8003F 		ldrex r3, [r3]
 4979              	@ 0 "" 2
 4980              		.thumb
 4981              		.syntax unified
 4982 0086 FB61     		str	r3, [r7, #28]
1073:Drivers/CMSIS/Include/cmsis_gcc.h **** }
 4983              		.loc 2 1073 10 discriminator 1
 4984 0088 FB69     		ldr	r3, [r7, #28]
 4985              	.LBE491:
 4986              	.LBE490:
 4987              		.loc 1 2291 5 discriminator 1
 4988 008a 23F01003 		bic	r3, r3, #16
 4989 008e FB65     		str	r3, [r7, #92]
 4990 0090 7B68     		ldr	r3, [r7, #4]
 4991 0092 1B68     		ldr	r3, [r3]
 4992 0094 0C33     		adds	r3, r3, #12
 4993 0096 FA6D     		ldr	r2, [r7, #92]
 4994 0098 FA62     		str	r2, [r7, #44]
 4995 009a BB62     		str	r3, [r7, #40]
 4996              	.LBB492:
 4997              	.LBB493:
1123:Drivers/CMSIS/Include/cmsis_gcc.h ****    return(result);
 4998              		.loc 2 1123 4 discriminator 1
 4999 009c B96A     		ldr	r1, [r7, #40]
 5000 009e FA6A     		ldr	r2, [r7, #44]
 5001              		.syntax unified
 5002              	@ 1123 "Drivers/CMSIS/Include/cmsis_gcc.h" 1
 5003 00a0 41E80023 		strex r3, r2, [r1]
 5004              	@ 0 "" 2
 5005              		.thumb
 5006              		.syntax unified
 5007 00a4 7B62     		str	r3, [r7, #36]
 5008              		.loc 2 1124 10 discriminator 1
 5009 00a6 7B6A     		ldr	r3, [r7, #36]
 5010              	.LBE493:
 5011              	.LBE492:
 5012              		.loc 1 2291 5 discriminator 1
 5013 00a8 002B     		cmp	r3, #0
 5014 00aa E5D1     		bne	.L266
 5015              	.L263:
 5016              	.LBE489:
2292:Drivers/STM32F4xx_HAL_Driver/Src/stm32f4xx_hal_uart.c ****   }
2293:Drivers/STM32F4xx_HAL_Driver/Src/stm32f4xx_hal_uart.c **** 
2294:Drivers/STM32F4xx_HAL_Driver/Src/stm32f4xx_hal_uart.c ****   /* Disable the UART DMA Rx request if enabled */
2295:Drivers/STM32F4xx_HAL_Driver/Src/stm32f4xx_hal_uart.c ****   if (HAL_IS_BIT_SET(huart->Instance->CR3, USART_CR3_DMAR))
 5017              		.loc 1 2295 7
 5018 00ac 7B68     		ldr	r3, [r7, #4]
ARM GAS  /tmp/ccIpdX1g.s 			page 150


 5019 00ae 1B68     		ldr	r3, [r3]
 5020 00b0 5B69     		ldr	r3, [r3, #20]
 5021 00b2 03F04003 		and	r3, r3, #64
 5022              		.loc 1 2295 6
 5023 00b6 402B     		cmp	r3, #64
 5024 00b8 3FD1     		bne	.L267
 5025              	.L270:
 5026              	.LBB494:
2296:Drivers/STM32F4xx_HAL_Driver/Src/stm32f4xx_hal_uart.c ****   {
2297:Drivers/STM32F4xx_HAL_Driver/Src/stm32f4xx_hal_uart.c ****     ATOMIC_CLEAR_BIT(huart->Instance->CR3, USART_CR3_DMAR);
 5027              		.loc 1 2297 5 discriminator 1
 5028 00ba 7B68     		ldr	r3, [r7, #4]
 5029 00bc 1B68     		ldr	r3, [r3]
 5030 00be 1433     		adds	r3, r3, #20
 5031 00c0 FB60     		str	r3, [r7, #12]
 5032              	.LBB495:
 5033              	.LBB496:
1072:Drivers/CMSIS/Include/cmsis_gcc.h ****    return(result);
 5034              		.loc 2 1072 4 discriminator 1
 5035 00c2 FB68     		ldr	r3, [r7, #12]
 5036              		.syntax unified
 5037              	@ 1072 "Drivers/CMSIS/Include/cmsis_gcc.h" 1
 5038 00c4 53E8003F 		ldrex r3, [r3]
 5039              	@ 0 "" 2
 5040              		.thumb
 5041              		.syntax unified
 5042 00c8 BB60     		str	r3, [r7, #8]
1073:Drivers/CMSIS/Include/cmsis_gcc.h **** }
 5043              		.loc 2 1073 10 discriminator 1
 5044 00ca BB68     		ldr	r3, [r7, #8]
 5045              	.LBE496:
 5046              	.LBE495:
 5047              		.loc 1 2297 5 discriminator 1
 5048 00cc 23F04003 		bic	r3, r3, #64
 5049 00d0 BB65     		str	r3, [r7, #88]
 5050 00d2 7B68     		ldr	r3, [r7, #4]
 5051 00d4 1B68     		ldr	r3, [r3]
 5052 00d6 1433     		adds	r3, r3, #20
 5053 00d8 BA6D     		ldr	r2, [r7, #88]
 5054 00da BA61     		str	r2, [r7, #24]
 5055 00dc 7B61     		str	r3, [r7, #20]
 5056              	.LBB497:
 5057              	.LBB498:
1123:Drivers/CMSIS/Include/cmsis_gcc.h ****    return(result);
 5058              		.loc 2 1123 4 discriminator 1
 5059 00de 7969     		ldr	r1, [r7, #20]
 5060 00e0 BA69     		ldr	r2, [r7, #24]
 5061              		.syntax unified
 5062              	@ 1123 "Drivers/CMSIS/Include/cmsis_gcc.h" 1
 5063 00e2 41E80023 		strex r3, r2, [r1]
 5064              	@ 0 "" 2
 5065              		.thumb
 5066              		.syntax unified
 5067 00e6 3B61     		str	r3, [r7, #16]
 5068              		.loc 2 1124 10 discriminator 1
 5069 00e8 3B69     		ldr	r3, [r7, #16]
 5070              	.LBE498:
ARM GAS  /tmp/ccIpdX1g.s 			page 151


 5071              	.LBE497:
 5072              		.loc 1 2297 5 discriminator 1
 5073 00ea 002B     		cmp	r3, #0
 5074 00ec E5D1     		bne	.L270
 5075              	.LBE494:
2298:Drivers/STM32F4xx_HAL_Driver/Src/stm32f4xx_hal_uart.c **** 
2299:Drivers/STM32F4xx_HAL_Driver/Src/stm32f4xx_hal_uart.c ****     /* Abort the UART DMA Rx stream : use blocking DMA Abort API (no callback) */
2300:Drivers/STM32F4xx_HAL_Driver/Src/stm32f4xx_hal_uart.c ****     if (huart->hdmarx != NULL)
 5076              		.loc 1 2300 14
 5077 00ee 7B68     		ldr	r3, [r7, #4]
 5078 00f0 9B6B     		ldr	r3, [r3, #56]
 5079              		.loc 1 2300 8
 5080 00f2 002B     		cmp	r3, #0
 5081 00f4 13D0     		beq	.L271
2301:Drivers/STM32F4xx_HAL_Driver/Src/stm32f4xx_hal_uart.c ****     {
2302:Drivers/STM32F4xx_HAL_Driver/Src/stm32f4xx_hal_uart.c ****       /* Set the UART DMA Abort callback :
2303:Drivers/STM32F4xx_HAL_Driver/Src/stm32f4xx_hal_uart.c ****          will lead to call HAL_UART_AbortCpltCallback() at end of DMA abort procedure */
2304:Drivers/STM32F4xx_HAL_Driver/Src/stm32f4xx_hal_uart.c ****       huart->hdmarx->XferAbortCallback = UART_DMARxOnlyAbortCallback;
 5082              		.loc 1 2304 12
 5083 00f6 7B68     		ldr	r3, [r7, #4]
 5084 00f8 9B6B     		ldr	r3, [r3, #56]
 5085              		.loc 1 2304 40
 5086 00fa 194A     		ldr	r2, .L274
 5087 00fc 1A65     		str	r2, [r3, #80]
2305:Drivers/STM32F4xx_HAL_Driver/Src/stm32f4xx_hal_uart.c **** 
2306:Drivers/STM32F4xx_HAL_Driver/Src/stm32f4xx_hal_uart.c ****       /* Abort DMA RX */
2307:Drivers/STM32F4xx_HAL_Driver/Src/stm32f4xx_hal_uart.c ****       if (HAL_DMA_Abort_IT(huart->hdmarx) != HAL_OK)
 5088              		.loc 1 2307 11
 5089 00fe 7B68     		ldr	r3, [r7, #4]
 5090 0100 9B6B     		ldr	r3, [r3, #56]
 5091 0102 1846     		mov	r0, r3
 5092 0104 FFF7FEFF 		bl	HAL_DMA_Abort_IT
 5093 0108 0346     		mov	r3, r0
 5094              		.loc 1 2307 10
 5095 010a 002B     		cmp	r3, #0
 5096 010c 22D0     		beq	.L272
2308:Drivers/STM32F4xx_HAL_Driver/Src/stm32f4xx_hal_uart.c ****       {
2309:Drivers/STM32F4xx_HAL_Driver/Src/stm32f4xx_hal_uart.c ****         /* Call Directly huart->hdmarx->XferAbortCallback function in case of error */
2310:Drivers/STM32F4xx_HAL_Driver/Src/stm32f4xx_hal_uart.c ****         huart->hdmarx->XferAbortCallback(huart->hdmarx);
 5097              		.loc 1 2310 14
 5098 010e 7B68     		ldr	r3, [r7, #4]
 5099 0110 9B6B     		ldr	r3, [r3, #56]
 5100              		.loc 1 2310 22
 5101 0112 1B6D     		ldr	r3, [r3, #80]
 5102              		.loc 1 2310 47
 5103 0114 7A68     		ldr	r2, [r7, #4]
 5104 0116 926B     		ldr	r2, [r2, #56]
 5105              		.loc 1 2310 9
 5106 0118 1046     		mov	r0, r2
 5107 011a 9847     		blx	r3
 5108              	.LVL1:
 5109 011c 1AE0     		b	.L272
 5110              	.L271:
2311:Drivers/STM32F4xx_HAL_Driver/Src/stm32f4xx_hal_uart.c ****       }
2312:Drivers/STM32F4xx_HAL_Driver/Src/stm32f4xx_hal_uart.c ****     }
2313:Drivers/STM32F4xx_HAL_Driver/Src/stm32f4xx_hal_uart.c ****     else
2314:Drivers/STM32F4xx_HAL_Driver/Src/stm32f4xx_hal_uart.c ****     {
ARM GAS  /tmp/ccIpdX1g.s 			page 152


2315:Drivers/STM32F4xx_HAL_Driver/Src/stm32f4xx_hal_uart.c ****       /* Reset Rx transfer counter */
2316:Drivers/STM32F4xx_HAL_Driver/Src/stm32f4xx_hal_uart.c ****       huart->RxXferCount = 0x00U;
 5111              		.loc 1 2316 26
 5112 011e 7B68     		ldr	r3, [r7, #4]
 5113 0120 0022     		movs	r2, #0
 5114 0122 DA85     		strh	r2, [r3, #46]	@ movhi
2317:Drivers/STM32F4xx_HAL_Driver/Src/stm32f4xx_hal_uart.c **** 
2318:Drivers/STM32F4xx_HAL_Driver/Src/stm32f4xx_hal_uart.c ****       /* Restore huart->RxState to Ready */
2319:Drivers/STM32F4xx_HAL_Driver/Src/stm32f4xx_hal_uart.c ****       huart->RxState = HAL_UART_STATE_READY;
 5115              		.loc 1 2319 22
 5116 0124 7B68     		ldr	r3, [r7, #4]
 5117 0126 2022     		movs	r2, #32
 5118 0128 83F83E20 		strb	r2, [r3, #62]
2320:Drivers/STM32F4xx_HAL_Driver/Src/stm32f4xx_hal_uart.c ****       huart->ReceptionType = HAL_UART_RECEPTION_STANDARD;
 5119              		.loc 1 2320 28
 5120 012c 7B68     		ldr	r3, [r7, #4]
 5121 012e 0022     		movs	r2, #0
 5122 0130 1A63     		str	r2, [r3, #48]
2321:Drivers/STM32F4xx_HAL_Driver/Src/stm32f4xx_hal_uart.c **** 
2322:Drivers/STM32F4xx_HAL_Driver/Src/stm32f4xx_hal_uart.c ****       /* As no DMA to be aborted, call directly user Abort complete callback */
2323:Drivers/STM32F4xx_HAL_Driver/Src/stm32f4xx_hal_uart.c **** #if (USE_HAL_UART_REGISTER_CALLBACKS == 1)
2324:Drivers/STM32F4xx_HAL_Driver/Src/stm32f4xx_hal_uart.c ****       /* Call registered Abort Receive Complete Callback */
2325:Drivers/STM32F4xx_HAL_Driver/Src/stm32f4xx_hal_uart.c ****       huart->AbortReceiveCpltCallback(huart);
2326:Drivers/STM32F4xx_HAL_Driver/Src/stm32f4xx_hal_uart.c **** #else
2327:Drivers/STM32F4xx_HAL_Driver/Src/stm32f4xx_hal_uart.c ****       /* Call legacy weak Abort Receive Complete Callback */
2328:Drivers/STM32F4xx_HAL_Driver/Src/stm32f4xx_hal_uart.c ****       HAL_UART_AbortReceiveCpltCallback(huart);
 5123              		.loc 1 2328 7
 5124 0132 7868     		ldr	r0, [r7, #4]
 5125 0134 FFF7FEFF 		bl	HAL_UART_AbortReceiveCpltCallback
 5126 0138 0CE0     		b	.L272
 5127              	.L267:
2329:Drivers/STM32F4xx_HAL_Driver/Src/stm32f4xx_hal_uart.c **** #endif /* USE_HAL_UART_REGISTER_CALLBACKS */
2330:Drivers/STM32F4xx_HAL_Driver/Src/stm32f4xx_hal_uart.c ****     }
2331:Drivers/STM32F4xx_HAL_Driver/Src/stm32f4xx_hal_uart.c ****   }
2332:Drivers/STM32F4xx_HAL_Driver/Src/stm32f4xx_hal_uart.c ****   else
2333:Drivers/STM32F4xx_HAL_Driver/Src/stm32f4xx_hal_uart.c ****   {
2334:Drivers/STM32F4xx_HAL_Driver/Src/stm32f4xx_hal_uart.c ****     /* Reset Rx transfer counter */
2335:Drivers/STM32F4xx_HAL_Driver/Src/stm32f4xx_hal_uart.c ****     huart->RxXferCount = 0x00U;
 5128              		.loc 1 2335 24
 5129 013a 7B68     		ldr	r3, [r7, #4]
 5130 013c 0022     		movs	r2, #0
 5131 013e DA85     		strh	r2, [r3, #46]	@ movhi
2336:Drivers/STM32F4xx_HAL_Driver/Src/stm32f4xx_hal_uart.c **** 
2337:Drivers/STM32F4xx_HAL_Driver/Src/stm32f4xx_hal_uart.c ****     /* Restore huart->RxState to Ready */
2338:Drivers/STM32F4xx_HAL_Driver/Src/stm32f4xx_hal_uart.c ****     huart->RxState = HAL_UART_STATE_READY;
 5132              		.loc 1 2338 20
 5133 0140 7B68     		ldr	r3, [r7, #4]
 5134 0142 2022     		movs	r2, #32
 5135 0144 83F83E20 		strb	r2, [r3, #62]
2339:Drivers/STM32F4xx_HAL_Driver/Src/stm32f4xx_hal_uart.c ****     huart->ReceptionType = HAL_UART_RECEPTION_STANDARD;
 5136              		.loc 1 2339 26
 5137 0148 7B68     		ldr	r3, [r7, #4]
 5138 014a 0022     		movs	r2, #0
 5139 014c 1A63     		str	r2, [r3, #48]
2340:Drivers/STM32F4xx_HAL_Driver/Src/stm32f4xx_hal_uart.c **** 
2341:Drivers/STM32F4xx_HAL_Driver/Src/stm32f4xx_hal_uart.c ****     /* As no DMA to be aborted, call directly user Abort complete callback */
2342:Drivers/STM32F4xx_HAL_Driver/Src/stm32f4xx_hal_uart.c **** #if (USE_HAL_UART_REGISTER_CALLBACKS == 1)
ARM GAS  /tmp/ccIpdX1g.s 			page 153


2343:Drivers/STM32F4xx_HAL_Driver/Src/stm32f4xx_hal_uart.c ****     /* Call registered Abort Receive Complete Callback */
2344:Drivers/STM32F4xx_HAL_Driver/Src/stm32f4xx_hal_uart.c ****     huart->AbortReceiveCpltCallback(huart);
2345:Drivers/STM32F4xx_HAL_Driver/Src/stm32f4xx_hal_uart.c **** #else
2346:Drivers/STM32F4xx_HAL_Driver/Src/stm32f4xx_hal_uart.c ****     /* Call legacy weak Abort Receive Complete Callback */
2347:Drivers/STM32F4xx_HAL_Driver/Src/stm32f4xx_hal_uart.c ****     HAL_UART_AbortReceiveCpltCallback(huart);
 5140              		.loc 1 2347 5
 5141 014e 7868     		ldr	r0, [r7, #4]
 5142 0150 FFF7FEFF 		bl	HAL_UART_AbortReceiveCpltCallback
 5143              	.L272:
2348:Drivers/STM32F4xx_HAL_Driver/Src/stm32f4xx_hal_uart.c **** #endif /* USE_HAL_UART_REGISTER_CALLBACKS */
2349:Drivers/STM32F4xx_HAL_Driver/Src/stm32f4xx_hal_uart.c ****   }
2350:Drivers/STM32F4xx_HAL_Driver/Src/stm32f4xx_hal_uart.c **** 
2351:Drivers/STM32F4xx_HAL_Driver/Src/stm32f4xx_hal_uart.c ****   return HAL_OK;
 5144              		.loc 1 2351 10
 5145 0154 0023     		movs	r3, #0
2352:Drivers/STM32F4xx_HAL_Driver/Src/stm32f4xx_hal_uart.c **** }
 5146              		.loc 1 2352 1
 5147 0156 1846     		mov	r0, r3
 5148 0158 6837     		adds	r7, r7, #104
 5149              	.LCFI128:
 5150              		.cfi_def_cfa_offset 8
 5151 015a BD46     		mov	sp, r7
 5152              	.LCFI129:
 5153              		.cfi_def_cfa_register 13
 5154              		@ sp needed
 5155 015c 80BD     		pop	{r7, pc}
 5156              	.L275:
 5157 015e 00BF     		.align	2
 5158              	.L274:
 5159 0160 00000000 		.word	UART_DMARxOnlyAbortCallback
 5160              		.cfi_endproc
 5161              	.LFE240:
 5163              		.section	.text.HAL_UART_IRQHandler,"ax",%progbits
 5164              		.align	1
 5165              		.global	HAL_UART_IRQHandler
 5166              		.syntax unified
 5167              		.thumb
 5168              		.thumb_func
 5170              	HAL_UART_IRQHandler:
 5171              	.LFB241:
2353:Drivers/STM32F4xx_HAL_Driver/Src/stm32f4xx_hal_uart.c **** 
2354:Drivers/STM32F4xx_HAL_Driver/Src/stm32f4xx_hal_uart.c **** /**
2355:Drivers/STM32F4xx_HAL_Driver/Src/stm32f4xx_hal_uart.c ****   * @brief  This function handles UART interrupt request.
2356:Drivers/STM32F4xx_HAL_Driver/Src/stm32f4xx_hal_uart.c ****   * @param  huart  Pointer to a UART_HandleTypeDef structure that contains
2357:Drivers/STM32F4xx_HAL_Driver/Src/stm32f4xx_hal_uart.c ****   *                the configuration information for the specified UART module.
2358:Drivers/STM32F4xx_HAL_Driver/Src/stm32f4xx_hal_uart.c ****   * @retval None
2359:Drivers/STM32F4xx_HAL_Driver/Src/stm32f4xx_hal_uart.c ****   */
2360:Drivers/STM32F4xx_HAL_Driver/Src/stm32f4xx_hal_uart.c **** void HAL_UART_IRQHandler(UART_HandleTypeDef *huart)
2361:Drivers/STM32F4xx_HAL_Driver/Src/stm32f4xx_hal_uart.c **** {
 5172              		.loc 1 2361 1
 5173              		.cfi_startproc
 5174              		@ args = 0, pretend = 0, frame = 232
 5175              		@ frame_needed = 1, uses_anonymous_args = 0
 5176 0000 80B5     		push	{r7, lr}
 5177              	.LCFI130:
 5178              		.cfi_def_cfa_offset 8
 5179              		.cfi_offset 7, -8
ARM GAS  /tmp/ccIpdX1g.s 			page 154


 5180              		.cfi_offset 14, -4
 5181 0002 BAB0     		sub	sp, sp, #232
 5182              	.LCFI131:
 5183              		.cfi_def_cfa_offset 240
 5184 0004 00AF     		add	r7, sp, #0
 5185              	.LCFI132:
 5186              		.cfi_def_cfa_register 7
 5187 0006 7860     		str	r0, [r7, #4]
2362:Drivers/STM32F4xx_HAL_Driver/Src/stm32f4xx_hal_uart.c ****   uint32_t isrflags   = READ_REG(huart->Instance->SR);
 5188              		.loc 1 2362 25
 5189 0008 7B68     		ldr	r3, [r7, #4]
 5190 000a 1B68     		ldr	r3, [r3]
 5191              		.loc 1 2362 12
 5192 000c 1B68     		ldr	r3, [r3]
 5193 000e C7F8E430 		str	r3, [r7, #228]
2363:Drivers/STM32F4xx_HAL_Driver/Src/stm32f4xx_hal_uart.c ****   uint32_t cr1its     = READ_REG(huart->Instance->CR1);
 5194              		.loc 1 2363 25
 5195 0012 7B68     		ldr	r3, [r7, #4]
 5196 0014 1B68     		ldr	r3, [r3]
 5197              		.loc 1 2363 12
 5198 0016 DB68     		ldr	r3, [r3, #12]
 5199 0018 C7F8E030 		str	r3, [r7, #224]
2364:Drivers/STM32F4xx_HAL_Driver/Src/stm32f4xx_hal_uart.c ****   uint32_t cr3its     = READ_REG(huart->Instance->CR3);
 5200              		.loc 1 2364 25
 5201 001c 7B68     		ldr	r3, [r7, #4]
 5202 001e 1B68     		ldr	r3, [r3]
 5203              		.loc 1 2364 12
 5204 0020 5B69     		ldr	r3, [r3, #20]
 5205 0022 C7F8DC30 		str	r3, [r7, #220]
2365:Drivers/STM32F4xx_HAL_Driver/Src/stm32f4xx_hal_uart.c ****   uint32_t errorflags = 0x00U;
 5206              		.loc 1 2365 12
 5207 0026 0023     		movs	r3, #0
 5208 0028 C7F8D830 		str	r3, [r7, #216]
2366:Drivers/STM32F4xx_HAL_Driver/Src/stm32f4xx_hal_uart.c ****   uint32_t dmarequest = 0x00U;
 5209              		.loc 1 2366 12
 5210 002c 0023     		movs	r3, #0
 5211 002e C7F8D430 		str	r3, [r7, #212]
2367:Drivers/STM32F4xx_HAL_Driver/Src/stm32f4xx_hal_uart.c **** 
2368:Drivers/STM32F4xx_HAL_Driver/Src/stm32f4xx_hal_uart.c ****   /* If no error occurs */
2369:Drivers/STM32F4xx_HAL_Driver/Src/stm32f4xx_hal_uart.c ****   errorflags = (isrflags & (uint32_t)(USART_SR_PE | USART_SR_FE | USART_SR_ORE | USART_SR_NE));
 5212              		.loc 1 2369 14
 5213 0032 D7F8E430 		ldr	r3, [r7, #228]
 5214 0036 03F00F03 		and	r3, r3, #15
 5215 003a C7F8D830 		str	r3, [r7, #216]
2370:Drivers/STM32F4xx_HAL_Driver/Src/stm32f4xx_hal_uart.c ****   if (errorflags == RESET)
 5216              		.loc 1 2370 6
 5217 003e D7F8D830 		ldr	r3, [r7, #216]
 5218 0042 002B     		cmp	r3, #0
 5219 0044 0FD1     		bne	.L277
2371:Drivers/STM32F4xx_HAL_Driver/Src/stm32f4xx_hal_uart.c ****   {
2372:Drivers/STM32F4xx_HAL_Driver/Src/stm32f4xx_hal_uart.c ****     /* UART in mode Receiver -------------------------------------------------*/
2373:Drivers/STM32F4xx_HAL_Driver/Src/stm32f4xx_hal_uart.c ****     if (((isrflags & USART_SR_RXNE) != RESET) && ((cr1its & USART_CR1_RXNEIE) != RESET))
 5220              		.loc 1 2373 20
 5221 0046 D7F8E430 		ldr	r3, [r7, #228]
 5222 004a 03F02003 		and	r3, r3, #32
 5223              		.loc 1 2373 8
 5224 004e 002B     		cmp	r3, #0
ARM GAS  /tmp/ccIpdX1g.s 			page 155


 5225 0050 09D0     		beq	.L277
 5226              		.loc 1 2373 59 discriminator 1
 5227 0052 D7F8E030 		ldr	r3, [r7, #224]
 5228 0056 03F02003 		and	r3, r3, #32
 5229              		.loc 1 2373 47 discriminator 1
 5230 005a 002B     		cmp	r3, #0
 5231 005c 03D0     		beq	.L277
2374:Drivers/STM32F4xx_HAL_Driver/Src/stm32f4xx_hal_uart.c ****     {
2375:Drivers/STM32F4xx_HAL_Driver/Src/stm32f4xx_hal_uart.c ****       UART_Receive_IT(huart);
 5232              		.loc 1 2375 7
 5233 005e 7868     		ldr	r0, [r7, #4]
 5234 0060 FFF7FEFF 		bl	UART_Receive_IT
2376:Drivers/STM32F4xx_HAL_Driver/Src/stm32f4xx_hal_uart.c ****       return;
 5235              		.loc 1 2376 7
 5236 0064 56E2     		b	.L276
 5237              	.L277:
2377:Drivers/STM32F4xx_HAL_Driver/Src/stm32f4xx_hal_uart.c ****     }
2378:Drivers/STM32F4xx_HAL_Driver/Src/stm32f4xx_hal_uart.c ****   }
2379:Drivers/STM32F4xx_HAL_Driver/Src/stm32f4xx_hal_uart.c **** 
2380:Drivers/STM32F4xx_HAL_Driver/Src/stm32f4xx_hal_uart.c ****   /* If some errors occur */
2381:Drivers/STM32F4xx_HAL_Driver/Src/stm32f4xx_hal_uart.c ****   if ((errorflags != RESET) && (((cr3its & USART_CR3_EIE) != RESET)
 5238              		.loc 1 2381 6
 5239 0066 D7F8D830 		ldr	r3, [r7, #216]
 5240 006a 002B     		cmp	r3, #0
 5241 006c 00F0DE80 		beq	.L279
 5242              		.loc 1 2381 42 discriminator 1
 5243 0070 D7F8DC30 		ldr	r3, [r7, #220]
 5244 0074 03F00103 		and	r3, r3, #1
 5245              		.loc 1 2381 29 discriminator 1
 5246 0078 002B     		cmp	r3, #0
 5247 007a 06D1     		bne	.L280
2382:Drivers/STM32F4xx_HAL_Driver/Src/stm32f4xx_hal_uart.c ****                                 || ((cr1its & (USART_CR1_RXNEIE | USART_CR1_PEIE)) != RESET)))
 5248              		.loc 1 2382 45
 5249 007c D7F8E030 		ldr	r3, [r7, #224]
 5250 0080 03F49073 		and	r3, r3, #288
 5251              		.loc 1 2382 33
 5252 0084 002B     		cmp	r3, #0
 5253 0086 00F0D180 		beq	.L279
 5254              	.L280:
2383:Drivers/STM32F4xx_HAL_Driver/Src/stm32f4xx_hal_uart.c ****   {
2384:Drivers/STM32F4xx_HAL_Driver/Src/stm32f4xx_hal_uart.c ****     /* UART parity error interrupt occurred ----------------------------------*/
2385:Drivers/STM32F4xx_HAL_Driver/Src/stm32f4xx_hal_uart.c ****     if (((isrflags & USART_SR_PE) != RESET) && ((cr1its & USART_CR1_PEIE) != RESET))
 5255              		.loc 1 2385 20
 5256 008a D7F8E430 		ldr	r3, [r7, #228]
 5257 008e 03F00103 		and	r3, r3, #1
 5258              		.loc 1 2385 8
 5259 0092 002B     		cmp	r3, #0
 5260 0094 0BD0     		beq	.L281
 5261              		.loc 1 2385 57 discriminator 1
 5262 0096 D7F8E030 		ldr	r3, [r7, #224]
 5263 009a 03F48073 		and	r3, r3, #256
 5264              		.loc 1 2385 45 discriminator 1
 5265 009e 002B     		cmp	r3, #0
 5266 00a0 05D0     		beq	.L281
2386:Drivers/STM32F4xx_HAL_Driver/Src/stm32f4xx_hal_uart.c ****     {
2387:Drivers/STM32F4xx_HAL_Driver/Src/stm32f4xx_hal_uart.c ****       huart->ErrorCode |= HAL_UART_ERROR_PE;
 5267              		.loc 1 2387 12
ARM GAS  /tmp/ccIpdX1g.s 			page 156


 5268 00a2 7B68     		ldr	r3, [r7, #4]
 5269 00a4 1B6C     		ldr	r3, [r3, #64]
 5270              		.loc 1 2387 24
 5271 00a6 43F00102 		orr	r2, r3, #1
 5272 00aa 7B68     		ldr	r3, [r7, #4]
 5273 00ac 1A64     		str	r2, [r3, #64]
 5274              	.L281:
2388:Drivers/STM32F4xx_HAL_Driver/Src/stm32f4xx_hal_uart.c ****     }
2389:Drivers/STM32F4xx_HAL_Driver/Src/stm32f4xx_hal_uart.c **** 
2390:Drivers/STM32F4xx_HAL_Driver/Src/stm32f4xx_hal_uart.c ****     /* UART noise error interrupt occurred -----------------------------------*/
2391:Drivers/STM32F4xx_HAL_Driver/Src/stm32f4xx_hal_uart.c ****     if (((isrflags & USART_SR_NE) != RESET) && ((cr3its & USART_CR3_EIE) != RESET))
 5275              		.loc 1 2391 20
 5276 00ae D7F8E430 		ldr	r3, [r7, #228]
 5277 00b2 03F00403 		and	r3, r3, #4
 5278              		.loc 1 2391 8
 5279 00b6 002B     		cmp	r3, #0
 5280 00b8 0BD0     		beq	.L282
 5281              		.loc 1 2391 57 discriminator 1
 5282 00ba D7F8DC30 		ldr	r3, [r7, #220]
 5283 00be 03F00103 		and	r3, r3, #1
 5284              		.loc 1 2391 45 discriminator 1
 5285 00c2 002B     		cmp	r3, #0
 5286 00c4 05D0     		beq	.L282
2392:Drivers/STM32F4xx_HAL_Driver/Src/stm32f4xx_hal_uart.c ****     {
2393:Drivers/STM32F4xx_HAL_Driver/Src/stm32f4xx_hal_uart.c ****       huart->ErrorCode |= HAL_UART_ERROR_NE;
 5287              		.loc 1 2393 12
 5288 00c6 7B68     		ldr	r3, [r7, #4]
 5289 00c8 1B6C     		ldr	r3, [r3, #64]
 5290              		.loc 1 2393 24
 5291 00ca 43F00202 		orr	r2, r3, #2
 5292 00ce 7B68     		ldr	r3, [r7, #4]
 5293 00d0 1A64     		str	r2, [r3, #64]
 5294              	.L282:
2394:Drivers/STM32F4xx_HAL_Driver/Src/stm32f4xx_hal_uart.c ****     }
2395:Drivers/STM32F4xx_HAL_Driver/Src/stm32f4xx_hal_uart.c **** 
2396:Drivers/STM32F4xx_HAL_Driver/Src/stm32f4xx_hal_uart.c ****     /* UART frame error interrupt occurred -----------------------------------*/
2397:Drivers/STM32F4xx_HAL_Driver/Src/stm32f4xx_hal_uart.c ****     if (((isrflags & USART_SR_FE) != RESET) && ((cr3its & USART_CR3_EIE) != RESET))
 5295              		.loc 1 2397 20
 5296 00d2 D7F8E430 		ldr	r3, [r7, #228]
 5297 00d6 03F00203 		and	r3, r3, #2
 5298              		.loc 1 2397 8
 5299 00da 002B     		cmp	r3, #0
 5300 00dc 0BD0     		beq	.L283
 5301              		.loc 1 2397 57 discriminator 1
 5302 00de D7F8DC30 		ldr	r3, [r7, #220]
 5303 00e2 03F00103 		and	r3, r3, #1
 5304              		.loc 1 2397 45 discriminator 1
 5305 00e6 002B     		cmp	r3, #0
 5306 00e8 05D0     		beq	.L283
2398:Drivers/STM32F4xx_HAL_Driver/Src/stm32f4xx_hal_uart.c ****     {
2399:Drivers/STM32F4xx_HAL_Driver/Src/stm32f4xx_hal_uart.c ****       huart->ErrorCode |= HAL_UART_ERROR_FE;
 5307              		.loc 1 2399 12
 5308 00ea 7B68     		ldr	r3, [r7, #4]
 5309 00ec 1B6C     		ldr	r3, [r3, #64]
 5310              		.loc 1 2399 24
 5311 00ee 43F00402 		orr	r2, r3, #4
 5312 00f2 7B68     		ldr	r3, [r7, #4]
ARM GAS  /tmp/ccIpdX1g.s 			page 157


 5313 00f4 1A64     		str	r2, [r3, #64]
 5314              	.L283:
2400:Drivers/STM32F4xx_HAL_Driver/Src/stm32f4xx_hal_uart.c ****     }
2401:Drivers/STM32F4xx_HAL_Driver/Src/stm32f4xx_hal_uart.c **** 
2402:Drivers/STM32F4xx_HAL_Driver/Src/stm32f4xx_hal_uart.c ****     /* UART Over-Run interrupt occurred --------------------------------------*/
2403:Drivers/STM32F4xx_HAL_Driver/Src/stm32f4xx_hal_uart.c ****     if (((isrflags & USART_SR_ORE) != RESET) && (((cr1its & USART_CR1_RXNEIE) != RESET)
 5315              		.loc 1 2403 20
 5316 00f6 D7F8E430 		ldr	r3, [r7, #228]
 5317 00fa 03F00803 		and	r3, r3, #8
 5318              		.loc 1 2403 8
 5319 00fe 002B     		cmp	r3, #0
 5320 0100 11D0     		beq	.L284
 5321              		.loc 1 2403 59 discriminator 1
 5322 0102 D7F8E030 		ldr	r3, [r7, #224]
 5323 0106 03F02003 		and	r3, r3, #32
 5324              		.loc 1 2403 46 discriminator 1
 5325 010a 002B     		cmp	r3, #0
 5326 010c 05D1     		bne	.L285
2404:Drivers/STM32F4xx_HAL_Driver/Src/stm32f4xx_hal_uart.c ****                                                  || ((cr3its & USART_CR3_EIE) != RESET)))
 5327              		.loc 1 2404 62
 5328 010e D7F8DC30 		ldr	r3, [r7, #220]
 5329 0112 03F00103 		and	r3, r3, #1
 5330              		.loc 1 2404 50
 5331 0116 002B     		cmp	r3, #0
 5332 0118 05D0     		beq	.L284
 5333              	.L285:
2405:Drivers/STM32F4xx_HAL_Driver/Src/stm32f4xx_hal_uart.c ****     {
2406:Drivers/STM32F4xx_HAL_Driver/Src/stm32f4xx_hal_uart.c ****       huart->ErrorCode |= HAL_UART_ERROR_ORE;
 5334              		.loc 1 2406 12
 5335 011a 7B68     		ldr	r3, [r7, #4]
 5336 011c 1B6C     		ldr	r3, [r3, #64]
 5337              		.loc 1 2406 24
 5338 011e 43F00802 		orr	r2, r3, #8
 5339 0122 7B68     		ldr	r3, [r7, #4]
 5340 0124 1A64     		str	r2, [r3, #64]
 5341              	.L284:
2407:Drivers/STM32F4xx_HAL_Driver/Src/stm32f4xx_hal_uart.c ****     }
2408:Drivers/STM32F4xx_HAL_Driver/Src/stm32f4xx_hal_uart.c **** 
2409:Drivers/STM32F4xx_HAL_Driver/Src/stm32f4xx_hal_uart.c ****     /* Call UART Error Call back function if need be --------------------------*/
2410:Drivers/STM32F4xx_HAL_Driver/Src/stm32f4xx_hal_uart.c ****     if (huart->ErrorCode != HAL_UART_ERROR_NONE)
 5342              		.loc 1 2410 14
 5343 0126 7B68     		ldr	r3, [r7, #4]
 5344 0128 1B6C     		ldr	r3, [r3, #64]
 5345              		.loc 1 2410 8
 5346 012a 002B     		cmp	r3, #0
 5347 012c 00F0ED81 		beq	.L323
2411:Drivers/STM32F4xx_HAL_Driver/Src/stm32f4xx_hal_uart.c ****     {
2412:Drivers/STM32F4xx_HAL_Driver/Src/stm32f4xx_hal_uart.c ****       /* UART in mode Receiver -----------------------------------------------*/
2413:Drivers/STM32F4xx_HAL_Driver/Src/stm32f4xx_hal_uart.c ****       if (((isrflags & USART_SR_RXNE) != RESET) && ((cr1its & USART_CR1_RXNEIE) != RESET))
 5348              		.loc 1 2413 22
 5349 0130 D7F8E430 		ldr	r3, [r7, #228]
 5350 0134 03F02003 		and	r3, r3, #32
 5351              		.loc 1 2413 10
 5352 0138 002B     		cmp	r3, #0
 5353 013a 08D0     		beq	.L287
 5354              		.loc 1 2413 61 discriminator 1
 5355 013c D7F8E030 		ldr	r3, [r7, #224]
ARM GAS  /tmp/ccIpdX1g.s 			page 158


 5356 0140 03F02003 		and	r3, r3, #32
 5357              		.loc 1 2413 49 discriminator 1
 5358 0144 002B     		cmp	r3, #0
 5359 0146 02D0     		beq	.L287
2414:Drivers/STM32F4xx_HAL_Driver/Src/stm32f4xx_hal_uart.c ****       {
2415:Drivers/STM32F4xx_HAL_Driver/Src/stm32f4xx_hal_uart.c ****         UART_Receive_IT(huart);
 5360              		.loc 1 2415 9
 5361 0148 7868     		ldr	r0, [r7, #4]
 5362 014a FFF7FEFF 		bl	UART_Receive_IT
 5363              	.L287:
2416:Drivers/STM32F4xx_HAL_Driver/Src/stm32f4xx_hal_uart.c ****       }
2417:Drivers/STM32F4xx_HAL_Driver/Src/stm32f4xx_hal_uart.c **** 
2418:Drivers/STM32F4xx_HAL_Driver/Src/stm32f4xx_hal_uart.c ****       /* If Overrun error occurs, or if any error occurs in DMA mode reception,
2419:Drivers/STM32F4xx_HAL_Driver/Src/stm32f4xx_hal_uart.c ****          consider error as blocking */
2420:Drivers/STM32F4xx_HAL_Driver/Src/stm32f4xx_hal_uart.c ****       dmarequest = HAL_IS_BIT_SET(huart->Instance->CR3, USART_CR3_DMAR);
 5364              		.loc 1 2420 20
 5365 014e 7B68     		ldr	r3, [r7, #4]
 5366 0150 1B68     		ldr	r3, [r3]
 5367 0152 5B69     		ldr	r3, [r3, #20]
 5368 0154 03F04003 		and	r3, r3, #64
 5369 0158 402B     		cmp	r3, #64
 5370 015a 0CBF     		ite	eq
 5371 015c 0123     		moveq	r3, #1
 5372 015e 0023     		movne	r3, #0
 5373 0160 DBB2     		uxtb	r3, r3
 5374              		.loc 1 2420 18
 5375 0162 C7F8D430 		str	r3, [r7, #212]
2421:Drivers/STM32F4xx_HAL_Driver/Src/stm32f4xx_hal_uart.c ****       if (((huart->ErrorCode & HAL_UART_ERROR_ORE) != RESET) || dmarequest)
 5376              		.loc 1 2421 18
 5377 0166 7B68     		ldr	r3, [r7, #4]
 5378 0168 1B6C     		ldr	r3, [r3, #64]
 5379              		.loc 1 2421 30
 5380 016a 03F00803 		and	r3, r3, #8
 5381              		.loc 1 2421 10
 5382 016e 002B     		cmp	r3, #0
 5383 0170 03D1     		bne	.L288
 5384              		.loc 1 2421 62 discriminator 1
 5385 0172 D7F8D430 		ldr	r3, [r7, #212]
 5386 0176 002B     		cmp	r3, #0
 5387 0178 4FD0     		beq	.L289
 5388              	.L288:
2422:Drivers/STM32F4xx_HAL_Driver/Src/stm32f4xx_hal_uart.c ****       {
2423:Drivers/STM32F4xx_HAL_Driver/Src/stm32f4xx_hal_uart.c ****         /* Blocking error : transfer is aborted
2424:Drivers/STM32F4xx_HAL_Driver/Src/stm32f4xx_hal_uart.c ****            Set the UART state ready to be able to start again the process,
2425:Drivers/STM32F4xx_HAL_Driver/Src/stm32f4xx_hal_uart.c ****            Disable Rx Interrupts, and disable Rx DMA request, if ongoing */
2426:Drivers/STM32F4xx_HAL_Driver/Src/stm32f4xx_hal_uart.c ****         UART_EndRxTransfer(huart);
 5389              		.loc 1 2426 9
 5390 017a 7868     		ldr	r0, [r7, #4]
 5391 017c FFF7FEFF 		bl	UART_EndRxTransfer
2427:Drivers/STM32F4xx_HAL_Driver/Src/stm32f4xx_hal_uart.c **** 
2428:Drivers/STM32F4xx_HAL_Driver/Src/stm32f4xx_hal_uart.c ****         /* Disable the UART DMA Rx request if enabled */
2429:Drivers/STM32F4xx_HAL_Driver/Src/stm32f4xx_hal_uart.c ****         if (HAL_IS_BIT_SET(huart->Instance->CR3, USART_CR3_DMAR))
 5392              		.loc 1 2429 13
 5393 0180 7B68     		ldr	r3, [r7, #4]
 5394 0182 1B68     		ldr	r3, [r3]
 5395 0184 5B69     		ldr	r3, [r3, #20]
 5396 0186 03F04003 		and	r3, r3, #64
ARM GAS  /tmp/ccIpdX1g.s 			page 159


 5397              		.loc 1 2429 12
 5398 018a 402B     		cmp	r3, #64
 5399 018c 41D1     		bne	.L290
 5400              	.L293:
 5401              	.LBB499:
2430:Drivers/STM32F4xx_HAL_Driver/Src/stm32f4xx_hal_uart.c ****         {
2431:Drivers/STM32F4xx_HAL_Driver/Src/stm32f4xx_hal_uart.c ****           ATOMIC_CLEAR_BIT(huart->Instance->CR3, USART_CR3_DMAR);
 5402              		.loc 1 2431 11 discriminator 1
 5403 018e 7B68     		ldr	r3, [r7, #4]
 5404 0190 1B68     		ldr	r3, [r3]
 5405 0192 1433     		adds	r3, r3, #20
 5406 0194 C7F89C30 		str	r3, [r7, #156]
 5407              	.LBB500:
 5408              	.LBB501:
1072:Drivers/CMSIS/Include/cmsis_gcc.h ****    return(result);
 5409              		.loc 2 1072 4 discriminator 1
 5410 0198 D7F89C30 		ldr	r3, [r7, #156]
 5411              		.syntax unified
 5412              	@ 1072 "Drivers/CMSIS/Include/cmsis_gcc.h" 1
 5413 019c 53E8003F 		ldrex r3, [r3]
 5414              	@ 0 "" 2
 5415              		.thumb
 5416              		.syntax unified
 5417 01a0 C7F89830 		str	r3, [r7, #152]
1073:Drivers/CMSIS/Include/cmsis_gcc.h **** }
 5418              		.loc 2 1073 10 discriminator 1
 5419 01a4 D7F89830 		ldr	r3, [r7, #152]
 5420              	.LBE501:
 5421              	.LBE500:
 5422              		.loc 1 2431 11 discriminator 1
 5423 01a8 23F04003 		bic	r3, r3, #64
 5424 01ac C7F8D030 		str	r3, [r7, #208]
 5425 01b0 7B68     		ldr	r3, [r7, #4]
 5426 01b2 1B68     		ldr	r3, [r3]
 5427 01b4 1433     		adds	r3, r3, #20
 5428 01b6 D7F8D020 		ldr	r2, [r7, #208]
 5429 01ba C7F8A820 		str	r2, [r7, #168]
 5430 01be C7F8A430 		str	r3, [r7, #164]
 5431              	.LBB502:
 5432              	.LBB503:
1123:Drivers/CMSIS/Include/cmsis_gcc.h ****    return(result);
 5433              		.loc 2 1123 4 discriminator 1
 5434 01c2 D7F8A410 		ldr	r1, [r7, #164]
 5435 01c6 D7F8A820 		ldr	r2, [r7, #168]
 5436              		.syntax unified
 5437              	@ 1123 "Drivers/CMSIS/Include/cmsis_gcc.h" 1
 5438 01ca 41E80023 		strex r3, r2, [r1]
 5439              	@ 0 "" 2
 5440              		.thumb
 5441              		.syntax unified
 5442 01ce C7F8A030 		str	r3, [r7, #160]
 5443              		.loc 2 1124 10 discriminator 1
 5444 01d2 D7F8A030 		ldr	r3, [r7, #160]
 5445              	.LBE503:
 5446              	.LBE502:
 5447              		.loc 1 2431 11 discriminator 1
 5448 01d6 002B     		cmp	r3, #0
ARM GAS  /tmp/ccIpdX1g.s 			page 160


 5449 01d8 D9D1     		bne	.L293
 5450              	.LBE499:
2432:Drivers/STM32F4xx_HAL_Driver/Src/stm32f4xx_hal_uart.c **** 
2433:Drivers/STM32F4xx_HAL_Driver/Src/stm32f4xx_hal_uart.c ****           /* Abort the UART DMA Rx stream */
2434:Drivers/STM32F4xx_HAL_Driver/Src/stm32f4xx_hal_uart.c ****           if (huart->hdmarx != NULL)
 5451              		.loc 1 2434 20
 5452 01da 7B68     		ldr	r3, [r7, #4]
 5453 01dc 9B6B     		ldr	r3, [r3, #56]
 5454              		.loc 1 2434 14
 5455 01de 002B     		cmp	r3, #0
 5456 01e0 13D0     		beq	.L294
2435:Drivers/STM32F4xx_HAL_Driver/Src/stm32f4xx_hal_uart.c ****           {
2436:Drivers/STM32F4xx_HAL_Driver/Src/stm32f4xx_hal_uart.c ****             /* Set the UART DMA Abort callback :
2437:Drivers/STM32F4xx_HAL_Driver/Src/stm32f4xx_hal_uart.c ****                will lead to call HAL_UART_ErrorCallback() at end of DMA abort procedure */
2438:Drivers/STM32F4xx_HAL_Driver/Src/stm32f4xx_hal_uart.c ****             huart->hdmarx->XferAbortCallback = UART_DMAAbortOnError;
 5457              		.loc 1 2438 18
 5458 01e2 7B68     		ldr	r3, [r7, #4]
 5459 01e4 9B6B     		ldr	r3, [r3, #56]
 5460              		.loc 1 2438 46
 5461 01e6 7D4A     		ldr	r2, .L327
 5462 01e8 1A65     		str	r2, [r3, #80]
2439:Drivers/STM32F4xx_HAL_Driver/Src/stm32f4xx_hal_uart.c ****             if (HAL_DMA_Abort_IT(huart->hdmarx) != HAL_OK)
 5463              		.loc 1 2439 17
 5464 01ea 7B68     		ldr	r3, [r7, #4]
 5465 01ec 9B6B     		ldr	r3, [r3, #56]
 5466 01ee 1846     		mov	r0, r3
 5467 01f0 FFF7FEFF 		bl	HAL_DMA_Abort_IT
 5468 01f4 0346     		mov	r3, r0
 5469              		.loc 1 2439 16
 5470 01f6 002B     		cmp	r3, #0
 5471 01f8 16D0     		beq	.L324
2440:Drivers/STM32F4xx_HAL_Driver/Src/stm32f4xx_hal_uart.c ****             {
2441:Drivers/STM32F4xx_HAL_Driver/Src/stm32f4xx_hal_uart.c ****               /* Call Directly XferAbortCallback function in case of error */
2442:Drivers/STM32F4xx_HAL_Driver/Src/stm32f4xx_hal_uart.c ****               huart->hdmarx->XferAbortCallback(huart->hdmarx);
 5472              		.loc 1 2442 20
 5473 01fa 7B68     		ldr	r3, [r7, #4]
 5474 01fc 9B6B     		ldr	r3, [r3, #56]
 5475              		.loc 1 2442 28
 5476 01fe 1B6D     		ldr	r3, [r3, #80]
 5477              		.loc 1 2442 53
 5478 0200 7A68     		ldr	r2, [r7, #4]
 5479 0202 926B     		ldr	r2, [r2, #56]
 5480              		.loc 1 2442 15
 5481 0204 1046     		mov	r0, r2
 5482 0206 9847     		blx	r3
 5483              	.LVL2:
2429:Drivers/STM32F4xx_HAL_Driver/Src/stm32f4xx_hal_uart.c ****         {
 5484              		.loc 1 2429 12
 5485 0208 0EE0     		b	.L324
 5486              	.L294:
2443:Drivers/STM32F4xx_HAL_Driver/Src/stm32f4xx_hal_uart.c ****             }
2444:Drivers/STM32F4xx_HAL_Driver/Src/stm32f4xx_hal_uart.c ****           }
2445:Drivers/STM32F4xx_HAL_Driver/Src/stm32f4xx_hal_uart.c ****           else
2446:Drivers/STM32F4xx_HAL_Driver/Src/stm32f4xx_hal_uart.c ****           {
2447:Drivers/STM32F4xx_HAL_Driver/Src/stm32f4xx_hal_uart.c ****             /* Call user error callback */
2448:Drivers/STM32F4xx_HAL_Driver/Src/stm32f4xx_hal_uart.c **** #if (USE_HAL_UART_REGISTER_CALLBACKS == 1)
2449:Drivers/STM32F4xx_HAL_Driver/Src/stm32f4xx_hal_uart.c ****             /*Call registered error callback*/
ARM GAS  /tmp/ccIpdX1g.s 			page 161


2450:Drivers/STM32F4xx_HAL_Driver/Src/stm32f4xx_hal_uart.c ****             huart->ErrorCallback(huart);
2451:Drivers/STM32F4xx_HAL_Driver/Src/stm32f4xx_hal_uart.c **** #else
2452:Drivers/STM32F4xx_HAL_Driver/Src/stm32f4xx_hal_uart.c ****             /*Call legacy weak error callback*/
2453:Drivers/STM32F4xx_HAL_Driver/Src/stm32f4xx_hal_uart.c ****             HAL_UART_ErrorCallback(huart);
 5487              		.loc 1 2453 13
 5488 020a 7868     		ldr	r0, [r7, #4]
 5489 020c FFF7FEFF 		bl	HAL_UART_ErrorCallback
2429:Drivers/STM32F4xx_HAL_Driver/Src/stm32f4xx_hal_uart.c ****         {
 5490              		.loc 1 2429 12
 5491 0210 0AE0     		b	.L324
 5492              	.L290:
2454:Drivers/STM32F4xx_HAL_Driver/Src/stm32f4xx_hal_uart.c **** #endif /* USE_HAL_UART_REGISTER_CALLBACKS */
2455:Drivers/STM32F4xx_HAL_Driver/Src/stm32f4xx_hal_uart.c ****           }
2456:Drivers/STM32F4xx_HAL_Driver/Src/stm32f4xx_hal_uart.c ****         }
2457:Drivers/STM32F4xx_HAL_Driver/Src/stm32f4xx_hal_uart.c ****         else
2458:Drivers/STM32F4xx_HAL_Driver/Src/stm32f4xx_hal_uart.c ****         {
2459:Drivers/STM32F4xx_HAL_Driver/Src/stm32f4xx_hal_uart.c ****           /* Call user error callback */
2460:Drivers/STM32F4xx_HAL_Driver/Src/stm32f4xx_hal_uart.c **** #if (USE_HAL_UART_REGISTER_CALLBACKS == 1)
2461:Drivers/STM32F4xx_HAL_Driver/Src/stm32f4xx_hal_uart.c ****           /*Call registered error callback*/
2462:Drivers/STM32F4xx_HAL_Driver/Src/stm32f4xx_hal_uart.c ****           huart->ErrorCallback(huart);
2463:Drivers/STM32F4xx_HAL_Driver/Src/stm32f4xx_hal_uart.c **** #else
2464:Drivers/STM32F4xx_HAL_Driver/Src/stm32f4xx_hal_uart.c ****           /*Call legacy weak error callback*/
2465:Drivers/STM32F4xx_HAL_Driver/Src/stm32f4xx_hal_uart.c ****           HAL_UART_ErrorCallback(huart);
 5493              		.loc 1 2465 11
 5494 0212 7868     		ldr	r0, [r7, #4]
 5495 0214 FFF7FEFF 		bl	HAL_UART_ErrorCallback
2429:Drivers/STM32F4xx_HAL_Driver/Src/stm32f4xx_hal_uart.c ****         {
 5496              		.loc 1 2429 12
 5497 0218 06E0     		b	.L324
 5498              	.L289:
2466:Drivers/STM32F4xx_HAL_Driver/Src/stm32f4xx_hal_uart.c **** #endif /* USE_HAL_UART_REGISTER_CALLBACKS */
2467:Drivers/STM32F4xx_HAL_Driver/Src/stm32f4xx_hal_uart.c ****         }
2468:Drivers/STM32F4xx_HAL_Driver/Src/stm32f4xx_hal_uart.c ****       }
2469:Drivers/STM32F4xx_HAL_Driver/Src/stm32f4xx_hal_uart.c ****       else
2470:Drivers/STM32F4xx_HAL_Driver/Src/stm32f4xx_hal_uart.c ****       {
2471:Drivers/STM32F4xx_HAL_Driver/Src/stm32f4xx_hal_uart.c ****         /* Non Blocking error : transfer could go on.
2472:Drivers/STM32F4xx_HAL_Driver/Src/stm32f4xx_hal_uart.c ****            Error is notified to user through user error callback */
2473:Drivers/STM32F4xx_HAL_Driver/Src/stm32f4xx_hal_uart.c **** #if (USE_HAL_UART_REGISTER_CALLBACKS == 1)
2474:Drivers/STM32F4xx_HAL_Driver/Src/stm32f4xx_hal_uart.c ****         /*Call registered error callback*/
2475:Drivers/STM32F4xx_HAL_Driver/Src/stm32f4xx_hal_uart.c ****         huart->ErrorCallback(huart);
2476:Drivers/STM32F4xx_HAL_Driver/Src/stm32f4xx_hal_uart.c **** #else
2477:Drivers/STM32F4xx_HAL_Driver/Src/stm32f4xx_hal_uart.c ****         /*Call legacy weak error callback*/
2478:Drivers/STM32F4xx_HAL_Driver/Src/stm32f4xx_hal_uart.c ****         HAL_UART_ErrorCallback(huart);
 5499              		.loc 1 2478 9
 5500 021a 7868     		ldr	r0, [r7, #4]
 5501 021c FFF7FEFF 		bl	HAL_UART_ErrorCallback
2479:Drivers/STM32F4xx_HAL_Driver/Src/stm32f4xx_hal_uart.c **** #endif /* USE_HAL_UART_REGISTER_CALLBACKS */
2480:Drivers/STM32F4xx_HAL_Driver/Src/stm32f4xx_hal_uart.c **** 
2481:Drivers/STM32F4xx_HAL_Driver/Src/stm32f4xx_hal_uart.c ****         huart->ErrorCode = HAL_UART_ERROR_NONE;
 5502              		.loc 1 2481 26
 5503 0220 7B68     		ldr	r3, [r7, #4]
 5504 0222 0022     		movs	r2, #0
 5505 0224 1A64     		str	r2, [r3, #64]
2482:Drivers/STM32F4xx_HAL_Driver/Src/stm32f4xx_hal_uart.c ****       }
2483:Drivers/STM32F4xx_HAL_Driver/Src/stm32f4xx_hal_uart.c ****     }
2484:Drivers/STM32F4xx_HAL_Driver/Src/stm32f4xx_hal_uart.c ****     return;
 5506              		.loc 1 2484 5
ARM GAS  /tmp/ccIpdX1g.s 			page 162


 5507 0226 70E1     		b	.L323
 5508              	.L324:
2429:Drivers/STM32F4xx_HAL_Driver/Src/stm32f4xx_hal_uart.c ****         {
 5509              		.loc 1 2429 12
 5510 0228 00BF     		nop
 5511              		.loc 1 2484 5
 5512 022a 6EE1     		b	.L323
 5513              	.L279:
2485:Drivers/STM32F4xx_HAL_Driver/Src/stm32f4xx_hal_uart.c ****   } /* End if some error occurs */
2486:Drivers/STM32F4xx_HAL_Driver/Src/stm32f4xx_hal_uart.c **** 
2487:Drivers/STM32F4xx_HAL_Driver/Src/stm32f4xx_hal_uart.c ****   /* Check current reception Mode :
2488:Drivers/STM32F4xx_HAL_Driver/Src/stm32f4xx_hal_uart.c ****      If Reception till IDLE event has been selected : */
2489:Drivers/STM32F4xx_HAL_Driver/Src/stm32f4xx_hal_uart.c ****   if ((huart->ReceptionType == HAL_UART_RECEPTION_TOIDLE)
 5514              		.loc 1 2489 13
 5515 022c 7B68     		ldr	r3, [r7, #4]
 5516 022e 1B6B     		ldr	r3, [r3, #48]
 5517              		.loc 1 2489 6
 5518 0230 012B     		cmp	r3, #1
 5519 0232 40F04A81 		bne	.L296
2490:Drivers/STM32F4xx_HAL_Driver/Src/stm32f4xx_hal_uart.c ****       && ((isrflags & USART_SR_IDLE) != 0U)
 5520              		.loc 1 2490 21
 5521 0236 D7F8E430 		ldr	r3, [r7, #228]
 5522 023a 03F01003 		and	r3, r3, #16
 5523              		.loc 1 2490 7
 5524 023e 002B     		cmp	r3, #0
 5525 0240 00F04381 		beq	.L296
2491:Drivers/STM32F4xx_HAL_Driver/Src/stm32f4xx_hal_uart.c ****       && ((cr1its & USART_SR_IDLE) != 0U))
 5526              		.loc 1 2491 19
 5527 0244 D7F8E030 		ldr	r3, [r7, #224]
 5528 0248 03F01003 		and	r3, r3, #16
 5529              		.loc 1 2491 7
 5530 024c 002B     		cmp	r3, #0
 5531 024e 00F03C81 		beq	.L296
 5532              	.LBB504:
2492:Drivers/STM32F4xx_HAL_Driver/Src/stm32f4xx_hal_uart.c ****   {
2493:Drivers/STM32F4xx_HAL_Driver/Src/stm32f4xx_hal_uart.c ****     __HAL_UART_CLEAR_IDLEFLAG(huart);
 5533              		.loc 1 2493 5
 5534 0252 0023     		movs	r3, #0
 5535 0254 BB60     		str	r3, [r7, #8]
 5536 0256 7B68     		ldr	r3, [r7, #4]
 5537 0258 1B68     		ldr	r3, [r3]
 5538 025a 1B68     		ldr	r3, [r3]
 5539 025c BB60     		str	r3, [r7, #8]
 5540 025e 7B68     		ldr	r3, [r7, #4]
 5541 0260 1B68     		ldr	r3, [r3]
 5542 0262 5B68     		ldr	r3, [r3, #4]
 5543 0264 BB60     		str	r3, [r7, #8]
 5544 0266 BB68     		ldr	r3, [r7, #8]
 5545              	.LBE504:
2494:Drivers/STM32F4xx_HAL_Driver/Src/stm32f4xx_hal_uart.c **** 
2495:Drivers/STM32F4xx_HAL_Driver/Src/stm32f4xx_hal_uart.c ****     /* Check if DMA mode is enabled in UART */
2496:Drivers/STM32F4xx_HAL_Driver/Src/stm32f4xx_hal_uart.c ****     if (HAL_IS_BIT_SET(huart->Instance->CR3, USART_CR3_DMAR))
 5546              		.loc 1 2496 9
 5547 0268 7B68     		ldr	r3, [r7, #4]
 5548 026a 1B68     		ldr	r3, [r3]
 5549 026c 5B69     		ldr	r3, [r3, #20]
 5550 026e 03F04003 		and	r3, r3, #64
ARM GAS  /tmp/ccIpdX1g.s 			page 163


 5551              		.loc 1 2496 8
 5552 0272 402B     		cmp	r3, #64
 5553 0274 40F0B480 		bne	.L297
 5554              	.LBB505:
2497:Drivers/STM32F4xx_HAL_Driver/Src/stm32f4xx_hal_uart.c ****     {
2498:Drivers/STM32F4xx_HAL_Driver/Src/stm32f4xx_hal_uart.c ****       /* DMA mode enabled */
2499:Drivers/STM32F4xx_HAL_Driver/Src/stm32f4xx_hal_uart.c ****       /* Check received length : If all expected data are received, do nothing,
2500:Drivers/STM32F4xx_HAL_Driver/Src/stm32f4xx_hal_uart.c ****          (DMA cplt callback will be called).
2501:Drivers/STM32F4xx_HAL_Driver/Src/stm32f4xx_hal_uart.c ****          Otherwise, if at least one data has already been received, IDLE event is to be notified to
2502:Drivers/STM32F4xx_HAL_Driver/Src/stm32f4xx_hal_uart.c ****       uint16_t nb_remaining_rx_data = (uint16_t) __HAL_DMA_GET_COUNTER(huart->hdmarx);
 5555              		.loc 1 2502 50
 5556 0278 7B68     		ldr	r3, [r7, #4]
 5557 027a 9B6B     		ldr	r3, [r3, #56]
 5558 027c 1B68     		ldr	r3, [r3]
 5559 027e 5B68     		ldr	r3, [r3, #4]
 5560              		.loc 1 2502 16
 5561 0280 A7F8BE30 		strh	r3, [r7, #190]	@ movhi
2503:Drivers/STM32F4xx_HAL_Driver/Src/stm32f4xx_hal_uart.c ****       if ((nb_remaining_rx_data > 0U)
 5562              		.loc 1 2503 10
 5563 0284 B7F8BE30 		ldrh	r3, [r7, #190]
 5564 0288 002B     		cmp	r3, #0
 5565 028a 00F04081 		beq	.L325
2504:Drivers/STM32F4xx_HAL_Driver/Src/stm32f4xx_hal_uart.c ****           && (nb_remaining_rx_data < huart->RxXferSize))
 5566              		.loc 1 2504 43
 5567 028e 7B68     		ldr	r3, [r7, #4]
 5568 0290 9B8D     		ldrh	r3, [r3, #44]
 5569              		.loc 1 2504 11
 5570 0292 B7F8BE20 		ldrh	r2, [r7, #190]
 5571 0296 9A42     		cmp	r2, r3
 5572 0298 80F03981 		bcs	.L325
2505:Drivers/STM32F4xx_HAL_Driver/Src/stm32f4xx_hal_uart.c ****       {
2506:Drivers/STM32F4xx_HAL_Driver/Src/stm32f4xx_hal_uart.c ****         /* Reception is not complete */
2507:Drivers/STM32F4xx_HAL_Driver/Src/stm32f4xx_hal_uart.c ****         huart->RxXferCount = nb_remaining_rx_data;
 5573              		.loc 1 2507 28
 5574 029c 7B68     		ldr	r3, [r7, #4]
 5575 029e B7F8BE20 		ldrh	r2, [r7, #190]	@ movhi
 5576 02a2 DA85     		strh	r2, [r3, #46]	@ movhi
2508:Drivers/STM32F4xx_HAL_Driver/Src/stm32f4xx_hal_uart.c **** 
2509:Drivers/STM32F4xx_HAL_Driver/Src/stm32f4xx_hal_uart.c ****         /* In Normal mode, end DMA xfer and HAL UART Rx process*/
2510:Drivers/STM32F4xx_HAL_Driver/Src/stm32f4xx_hal_uart.c ****         if (huart->hdmarx->Init.Mode != DMA_CIRCULAR)
 5577              		.loc 1 2510 18
 5578 02a4 7B68     		ldr	r3, [r7, #4]
 5579 02a6 9B6B     		ldr	r3, [r3, #56]
 5580              		.loc 1 2510 32
 5581 02a8 DB69     		ldr	r3, [r3, #28]
 5582              		.loc 1 2510 12
 5583 02aa B3F5807F 		cmp	r3, #256
 5584 02ae 00F08880 		beq	.L299
 5585              	.L302:
 5586              	.LBB506:
2511:Drivers/STM32F4xx_HAL_Driver/Src/stm32f4xx_hal_uart.c ****         {
2512:Drivers/STM32F4xx_HAL_Driver/Src/stm32f4xx_hal_uart.c ****           /* Disable PE and ERR (Frame error, noise error, overrun error) interrupts */
2513:Drivers/STM32F4xx_HAL_Driver/Src/stm32f4xx_hal_uart.c ****           ATOMIC_CLEAR_BIT(huart->Instance->CR1, USART_CR1_PEIE);
 5587              		.loc 1 2513 11 discriminator 1
 5588 02b2 7B68     		ldr	r3, [r7, #4]
 5589 02b4 1B68     		ldr	r3, [r3]
 5590 02b6 0C33     		adds	r3, r3, #12
ARM GAS  /tmp/ccIpdX1g.s 			page 164


 5591 02b8 C7F88830 		str	r3, [r7, #136]
 5592              	.LBB507:
 5593              	.LBB508:
1072:Drivers/CMSIS/Include/cmsis_gcc.h ****    return(result);
 5594              		.loc 2 1072 4 discriminator 1
 5595 02bc D7F88830 		ldr	r3, [r7, #136]
 5596              		.syntax unified
 5597              	@ 1072 "Drivers/CMSIS/Include/cmsis_gcc.h" 1
 5598 02c0 53E8003F 		ldrex r3, [r3]
 5599              	@ 0 "" 2
 5600              		.thumb
 5601              		.syntax unified
 5602 02c4 C7F88430 		str	r3, [r7, #132]
1073:Drivers/CMSIS/Include/cmsis_gcc.h **** }
 5603              		.loc 2 1073 10 discriminator 1
 5604 02c8 D7F88430 		ldr	r3, [r7, #132]
 5605              	.LBE508:
 5606              	.LBE507:
 5607              		.loc 1 2513 11 discriminator 1
 5608 02cc 23F48073 		bic	r3, r3, #256
 5609 02d0 C7F8B830 		str	r3, [r7, #184]
 5610 02d4 7B68     		ldr	r3, [r7, #4]
 5611 02d6 1B68     		ldr	r3, [r3]
 5612 02d8 0C33     		adds	r3, r3, #12
 5613 02da D7F8B820 		ldr	r2, [r7, #184]
 5614 02de C7F89420 		str	r2, [r7, #148]
 5615 02e2 C7F89030 		str	r3, [r7, #144]
 5616              	.LBB509:
 5617              	.LBB510:
1123:Drivers/CMSIS/Include/cmsis_gcc.h ****    return(result);
 5618              		.loc 2 1123 4 discriminator 1
 5619 02e6 D7F89010 		ldr	r1, [r7, #144]
 5620 02ea D7F89420 		ldr	r2, [r7, #148]
 5621              		.syntax unified
 5622              	@ 1123 "Drivers/CMSIS/Include/cmsis_gcc.h" 1
 5623 02ee 41E80023 		strex r3, r2, [r1]
 5624              	@ 0 "" 2
 5625              		.thumb
 5626              		.syntax unified
 5627 02f2 C7F88C30 		str	r3, [r7, #140]
 5628              		.loc 2 1124 10 discriminator 1
 5629 02f6 D7F88C30 		ldr	r3, [r7, #140]
 5630              	.LBE510:
 5631              	.LBE509:
 5632              		.loc 1 2513 11 discriminator 1
 5633 02fa 002B     		cmp	r3, #0
 5634 02fc D9D1     		bne	.L302
 5635              	.L305:
 5636              	.LBE506:
 5637              	.LBB511:
2514:Drivers/STM32F4xx_HAL_Driver/Src/stm32f4xx_hal_uart.c ****           ATOMIC_CLEAR_BIT(huart->Instance->CR3, USART_CR3_EIE);
 5638              		.loc 1 2514 11 discriminator 1
 5639 02fe 7B68     		ldr	r3, [r7, #4]
 5640 0300 1B68     		ldr	r3, [r3]
 5641 0302 1433     		adds	r3, r3, #20
 5642 0304 7B67     		str	r3, [r7, #116]
 5643              	.LBB512:
ARM GAS  /tmp/ccIpdX1g.s 			page 165


 5644              	.LBB513:
1072:Drivers/CMSIS/Include/cmsis_gcc.h ****    return(result);
 5645              		.loc 2 1072 4 discriminator 1
 5646 0306 7B6F     		ldr	r3, [r7, #116]
 5647              		.syntax unified
 5648              	@ 1072 "Drivers/CMSIS/Include/cmsis_gcc.h" 1
 5649 0308 53E8003F 		ldrex r3, [r3]
 5650              	@ 0 "" 2
 5651              		.thumb
 5652              		.syntax unified
 5653 030c 3B67     		str	r3, [r7, #112]
1073:Drivers/CMSIS/Include/cmsis_gcc.h **** }
 5654              		.loc 2 1073 10 discriminator 1
 5655 030e 3B6F     		ldr	r3, [r7, #112]
 5656              	.LBE513:
 5657              	.LBE512:
 5658              		.loc 1 2514 11 discriminator 1
 5659 0310 23F00103 		bic	r3, r3, #1
 5660 0314 C7F8B430 		str	r3, [r7, #180]
 5661 0318 7B68     		ldr	r3, [r7, #4]
 5662 031a 1B68     		ldr	r3, [r3]
 5663 031c 1433     		adds	r3, r3, #20
 5664 031e D7F8B420 		ldr	r2, [r7, #180]
 5665 0322 C7F88020 		str	r2, [r7, #128]
 5666 0326 FB67     		str	r3, [r7, #124]
 5667              	.LBB514:
 5668              	.LBB515:
1123:Drivers/CMSIS/Include/cmsis_gcc.h ****    return(result);
 5669              		.loc 2 1123 4 discriminator 1
 5670 0328 F96F     		ldr	r1, [r7, #124]
 5671 032a D7F88020 		ldr	r2, [r7, #128]
 5672              		.syntax unified
 5673              	@ 1123 "Drivers/CMSIS/Include/cmsis_gcc.h" 1
 5674 032e 41E80023 		strex r3, r2, [r1]
 5675              	@ 0 "" 2
 5676              		.thumb
 5677              		.syntax unified
 5678 0332 BB67     		str	r3, [r7, #120]
 5679              		.loc 2 1124 10 discriminator 1
 5680 0334 BB6F     		ldr	r3, [r7, #120]
 5681              	.LBE515:
 5682              	.LBE514:
 5683              		.loc 1 2514 11 discriminator 1
 5684 0336 002B     		cmp	r3, #0
 5685 0338 E1D1     		bne	.L305
 5686              	.L308:
 5687              	.LBE511:
 5688              	.LBB516:
2515:Drivers/STM32F4xx_HAL_Driver/Src/stm32f4xx_hal_uart.c **** 
2516:Drivers/STM32F4xx_HAL_Driver/Src/stm32f4xx_hal_uart.c ****           /* Disable the DMA transfer for the receiver request by resetting the DMAR bit
2517:Drivers/STM32F4xx_HAL_Driver/Src/stm32f4xx_hal_uart.c ****              in the UART CR3 register */
2518:Drivers/STM32F4xx_HAL_Driver/Src/stm32f4xx_hal_uart.c ****           ATOMIC_CLEAR_BIT(huart->Instance->CR3, USART_CR3_DMAR);
 5689              		.loc 1 2518 11 discriminator 1
 5690 033a 7B68     		ldr	r3, [r7, #4]
 5691 033c 1B68     		ldr	r3, [r3]
 5692 033e 1433     		adds	r3, r3, #20
 5693 0340 3B66     		str	r3, [r7, #96]
ARM GAS  /tmp/ccIpdX1g.s 			page 166


 5694              	.LBB517:
 5695              	.LBB518:
1072:Drivers/CMSIS/Include/cmsis_gcc.h ****    return(result);
 5696              		.loc 2 1072 4 discriminator 1
 5697 0342 3B6E     		ldr	r3, [r7, #96]
 5698              		.syntax unified
 5699              	@ 1072 "Drivers/CMSIS/Include/cmsis_gcc.h" 1
 5700 0344 53E8003F 		ldrex r3, [r3]
 5701              	@ 0 "" 2
 5702              		.thumb
 5703              		.syntax unified
 5704 0348 FB65     		str	r3, [r7, #92]
1073:Drivers/CMSIS/Include/cmsis_gcc.h **** }
 5705              		.loc 2 1073 10 discriminator 1
 5706 034a FB6D     		ldr	r3, [r7, #92]
 5707              	.LBE518:
 5708              	.LBE517:
 5709              		.loc 1 2518 11 discriminator 1
 5710 034c 23F04003 		bic	r3, r3, #64
 5711 0350 C7F8B030 		str	r3, [r7, #176]
 5712 0354 7B68     		ldr	r3, [r7, #4]
 5713 0356 1B68     		ldr	r3, [r3]
 5714 0358 1433     		adds	r3, r3, #20
 5715 035a D7F8B020 		ldr	r2, [r7, #176]
 5716 035e FA66     		str	r2, [r7, #108]
 5717 0360 BB66     		str	r3, [r7, #104]
 5718              	.LBB519:
 5719              	.LBB520:
1123:Drivers/CMSIS/Include/cmsis_gcc.h ****    return(result);
 5720              		.loc 2 1123 4 discriminator 1
 5721 0362 B96E     		ldr	r1, [r7, #104]
 5722 0364 FA6E     		ldr	r2, [r7, #108]
 5723              		.syntax unified
 5724              	@ 1123 "Drivers/CMSIS/Include/cmsis_gcc.h" 1
 5725 0366 41E80023 		strex r3, r2, [r1]
 5726              	@ 0 "" 2
 5727              		.thumb
 5728              		.syntax unified
 5729 036a 7B66     		str	r3, [r7, #100]
 5730              		.loc 2 1124 10 discriminator 1
 5731 036c 7B6E     		ldr	r3, [r7, #100]
 5732              	.LBE520:
 5733              	.LBE519:
 5734              		.loc 1 2518 11 discriminator 1
 5735 036e 002B     		cmp	r3, #0
 5736 0370 E3D1     		bne	.L308
 5737              	.LBE516:
2519:Drivers/STM32F4xx_HAL_Driver/Src/stm32f4xx_hal_uart.c **** 
2520:Drivers/STM32F4xx_HAL_Driver/Src/stm32f4xx_hal_uart.c ****           /* At end of Rx process, restore huart->RxState to Ready */
2521:Drivers/STM32F4xx_HAL_Driver/Src/stm32f4xx_hal_uart.c ****           huart->RxState = HAL_UART_STATE_READY;
 5738              		.loc 1 2521 26
 5739 0372 7B68     		ldr	r3, [r7, #4]
 5740 0374 2022     		movs	r2, #32
 5741 0376 83F83E20 		strb	r2, [r3, #62]
2522:Drivers/STM32F4xx_HAL_Driver/Src/stm32f4xx_hal_uart.c ****           huart->ReceptionType = HAL_UART_RECEPTION_STANDARD;
 5742              		.loc 1 2522 32
 5743 037a 7B68     		ldr	r3, [r7, #4]
ARM GAS  /tmp/ccIpdX1g.s 			page 167


 5744 037c 0022     		movs	r2, #0
 5745 037e 1A63     		str	r2, [r3, #48]
 5746              	.L311:
 5747              	.LBB521:
2523:Drivers/STM32F4xx_HAL_Driver/Src/stm32f4xx_hal_uart.c **** 
2524:Drivers/STM32F4xx_HAL_Driver/Src/stm32f4xx_hal_uart.c ****           ATOMIC_CLEAR_BIT(huart->Instance->CR1, USART_CR1_IDLEIE);
 5748              		.loc 1 2524 11 discriminator 1
 5749 0380 7B68     		ldr	r3, [r7, #4]
 5750 0382 1B68     		ldr	r3, [r3]
 5751 0384 0C33     		adds	r3, r3, #12
 5752 0386 FB64     		str	r3, [r7, #76]
 5753              	.LBB522:
 5754              	.LBB523:
1072:Drivers/CMSIS/Include/cmsis_gcc.h ****    return(result);
 5755              		.loc 2 1072 4 discriminator 1
 5756 0388 FB6C     		ldr	r3, [r7, #76]
 5757              		.syntax unified
 5758              	@ 1072 "Drivers/CMSIS/Include/cmsis_gcc.h" 1
 5759 038a 53E8003F 		ldrex r3, [r3]
 5760              	@ 0 "" 2
 5761              		.thumb
 5762              		.syntax unified
 5763 038e BB64     		str	r3, [r7, #72]
1073:Drivers/CMSIS/Include/cmsis_gcc.h **** }
 5764              		.loc 2 1073 10 discriminator 1
 5765 0390 BB6C     		ldr	r3, [r7, #72]
 5766              	.LBE523:
 5767              	.LBE522:
 5768              		.loc 1 2524 11 discriminator 1
 5769 0392 23F01003 		bic	r3, r3, #16
 5770 0396 C7F8AC30 		str	r3, [r7, #172]
 5771 039a 7B68     		ldr	r3, [r7, #4]
 5772 039c 1B68     		ldr	r3, [r3]
 5773 039e 0C33     		adds	r3, r3, #12
 5774 03a0 D7F8AC20 		ldr	r2, [r7, #172]
 5775 03a4 BA65     		str	r2, [r7, #88]
 5776 03a6 7B65     		str	r3, [r7, #84]
 5777              	.LBB524:
 5778              	.LBB525:
1123:Drivers/CMSIS/Include/cmsis_gcc.h ****    return(result);
 5779              		.loc 2 1123 4 discriminator 1
 5780 03a8 796D     		ldr	r1, [r7, #84]
 5781 03aa BA6D     		ldr	r2, [r7, #88]
 5782              		.syntax unified
 5783              	@ 1123 "Drivers/CMSIS/Include/cmsis_gcc.h" 1
 5784 03ac 41E80023 		strex r3, r2, [r1]
 5785              	@ 0 "" 2
 5786              		.thumb
 5787              		.syntax unified
 5788 03b0 3B65     		str	r3, [r7, #80]
 5789              		.loc 2 1124 10 discriminator 1
 5790 03b2 3B6D     		ldr	r3, [r7, #80]
 5791              	.LBE525:
 5792              	.LBE524:
 5793              		.loc 1 2524 11 discriminator 1
 5794 03b4 002B     		cmp	r3, #0
 5795 03b6 E3D1     		bne	.L311
ARM GAS  /tmp/ccIpdX1g.s 			page 168


 5796              	.LBE521:
2525:Drivers/STM32F4xx_HAL_Driver/Src/stm32f4xx_hal_uart.c **** 
2526:Drivers/STM32F4xx_HAL_Driver/Src/stm32f4xx_hal_uart.c ****           /* Last bytes received, so no need as the abort is immediate */
2527:Drivers/STM32F4xx_HAL_Driver/Src/stm32f4xx_hal_uart.c ****           (void)HAL_DMA_Abort(huart->hdmarx);
 5797              		.loc 1 2527 17
 5798 03b8 7B68     		ldr	r3, [r7, #4]
 5799 03ba 9B6B     		ldr	r3, [r3, #56]
 5800 03bc 1846     		mov	r0, r3
 5801 03be FFF7FEFF 		bl	HAL_DMA_Abort
 5802              	.L299:
2528:Drivers/STM32F4xx_HAL_Driver/Src/stm32f4xx_hal_uart.c ****         }
2529:Drivers/STM32F4xx_HAL_Driver/Src/stm32f4xx_hal_uart.c **** #if (USE_HAL_UART_REGISTER_CALLBACKS == 1)
2530:Drivers/STM32F4xx_HAL_Driver/Src/stm32f4xx_hal_uart.c ****         /*Call registered Rx Event callback*/
2531:Drivers/STM32F4xx_HAL_Driver/Src/stm32f4xx_hal_uart.c ****         huart->RxEventCallback(huart, (huart->RxXferSize - huart->RxXferCount));
2532:Drivers/STM32F4xx_HAL_Driver/Src/stm32f4xx_hal_uart.c **** #else
2533:Drivers/STM32F4xx_HAL_Driver/Src/stm32f4xx_hal_uart.c ****         /*Call legacy weak Rx Event callback*/
2534:Drivers/STM32F4xx_HAL_Driver/Src/stm32f4xx_hal_uart.c ****         HAL_UARTEx_RxEventCallback(huart, (huart->RxXferSize - huart->RxXferCount));
 5803              		.loc 1 2534 49
 5804 03c2 7B68     		ldr	r3, [r7, #4]
 5805 03c4 9A8D     		ldrh	r2, [r3, #44]
 5806              		.loc 1 2534 69
 5807 03c6 7B68     		ldr	r3, [r7, #4]
 5808 03c8 DB8D     		ldrh	r3, [r3, #46]	@ movhi
 5809 03ca 9BB2     		uxth	r3, r3
 5810              		.loc 1 2534 9
 5811 03cc D31A     		subs	r3, r2, r3
 5812 03ce 9BB2     		uxth	r3, r3
 5813 03d0 1946     		mov	r1, r3
 5814 03d2 7868     		ldr	r0, [r7, #4]
 5815 03d4 FFF7FEFF 		bl	HAL_UARTEx_RxEventCallback
2535:Drivers/STM32F4xx_HAL_Driver/Src/stm32f4xx_hal_uart.c **** #endif /* USE_HAL_UART_REGISTER_CALLBACKS */
2536:Drivers/STM32F4xx_HAL_Driver/Src/stm32f4xx_hal_uart.c ****       }
2537:Drivers/STM32F4xx_HAL_Driver/Src/stm32f4xx_hal_uart.c ****       return;
 5816              		.loc 1 2537 7
 5817 03d8 99E0     		b	.L325
 5818              	.L328:
 5819 03da 00BF     		.align	2
 5820              	.L327:
 5821 03dc 00000000 		.word	UART_DMAAbortOnError
 5822              	.L297:
 5823              	.LBE505:
 5824              	.LBB526:
2538:Drivers/STM32F4xx_HAL_Driver/Src/stm32f4xx_hal_uart.c ****     }
2539:Drivers/STM32F4xx_HAL_Driver/Src/stm32f4xx_hal_uart.c ****     else
2540:Drivers/STM32F4xx_HAL_Driver/Src/stm32f4xx_hal_uart.c ****     {
2541:Drivers/STM32F4xx_HAL_Driver/Src/stm32f4xx_hal_uart.c ****       /* DMA mode not enabled */
2542:Drivers/STM32F4xx_HAL_Driver/Src/stm32f4xx_hal_uart.c ****       /* Check received length : If all expected data are received, do nothing.
2543:Drivers/STM32F4xx_HAL_Driver/Src/stm32f4xx_hal_uart.c ****          Otherwise, if at least one data has already been received, IDLE event is to be notified to
2544:Drivers/STM32F4xx_HAL_Driver/Src/stm32f4xx_hal_uart.c ****       uint16_t nb_rx_data = huart->RxXferSize - huart->RxXferCount;
 5825              		.loc 1 2544 34
 5826 03e0 7B68     		ldr	r3, [r7, #4]
 5827 03e2 9A8D     		ldrh	r2, [r3, #44]
 5828              		.loc 1 2544 54
 5829 03e4 7B68     		ldr	r3, [r7, #4]
 5830 03e6 DB8D     		ldrh	r3, [r3, #46]	@ movhi
 5831 03e8 9BB2     		uxth	r3, r3
 5832              		.loc 1 2544 16
ARM GAS  /tmp/ccIpdX1g.s 			page 169


 5833 03ea D31A     		subs	r3, r2, r3
 5834 03ec A7F8CE30 		strh	r3, [r7, #206]	@ movhi
2545:Drivers/STM32F4xx_HAL_Driver/Src/stm32f4xx_hal_uart.c ****       if ((huart->RxXferCount > 0U)
 5835              		.loc 1 2545 17
 5836 03f0 7B68     		ldr	r3, [r7, #4]
 5837 03f2 DB8D     		ldrh	r3, [r3, #46]	@ movhi
 5838 03f4 9BB2     		uxth	r3, r3
 5839              		.loc 1 2545 10
 5840 03f6 002B     		cmp	r3, #0
 5841 03f8 00F08B80 		beq	.L326
2546:Drivers/STM32F4xx_HAL_Driver/Src/stm32f4xx_hal_uart.c ****           && (nb_rx_data > 0U))
 5842              		.loc 1 2546 11
 5843 03fc B7F8CE30 		ldrh	r3, [r7, #206]
 5844 0400 002B     		cmp	r3, #0
 5845 0402 00F08680 		beq	.L326
 5846              	.L315:
 5847              	.LBB527:
2547:Drivers/STM32F4xx_HAL_Driver/Src/stm32f4xx_hal_uart.c ****       {
2548:Drivers/STM32F4xx_HAL_Driver/Src/stm32f4xx_hal_uart.c ****         /* Disable the UART Parity Error Interrupt and RXNE interrupts */
2549:Drivers/STM32F4xx_HAL_Driver/Src/stm32f4xx_hal_uart.c ****         ATOMIC_CLEAR_BIT(huart->Instance->CR1, (USART_CR1_RXNEIE | USART_CR1_PEIE));
 5848              		.loc 1 2549 9 discriminator 1
 5849 0406 7B68     		ldr	r3, [r7, #4]
 5850 0408 1B68     		ldr	r3, [r3]
 5851 040a 0C33     		adds	r3, r3, #12
 5852 040c BB63     		str	r3, [r7, #56]
 5853              	.LBB528:
 5854              	.LBB529:
1072:Drivers/CMSIS/Include/cmsis_gcc.h ****    return(result);
 5855              		.loc 2 1072 4 discriminator 1
 5856 040e BB6B     		ldr	r3, [r7, #56]
 5857              		.syntax unified
 5858              	@ 1072 "Drivers/CMSIS/Include/cmsis_gcc.h" 1
 5859 0410 53E8003F 		ldrex r3, [r3]
 5860              	@ 0 "" 2
 5861              		.thumb
 5862              		.syntax unified
 5863 0414 7B63     		str	r3, [r7, #52]
1073:Drivers/CMSIS/Include/cmsis_gcc.h **** }
 5864              		.loc 2 1073 10 discriminator 1
 5865 0416 7B6B     		ldr	r3, [r7, #52]
 5866              	.LBE529:
 5867              	.LBE528:
 5868              		.loc 1 2549 9 discriminator 1
 5869 0418 23F49073 		bic	r3, r3, #288
 5870 041c C7F8C830 		str	r3, [r7, #200]
 5871 0420 7B68     		ldr	r3, [r7, #4]
 5872 0422 1B68     		ldr	r3, [r3]
 5873 0424 0C33     		adds	r3, r3, #12
 5874 0426 D7F8C820 		ldr	r2, [r7, #200]
 5875 042a 7A64     		str	r2, [r7, #68]
 5876 042c 3B64     		str	r3, [r7, #64]
 5877              	.LBB530:
 5878              	.LBB531:
1123:Drivers/CMSIS/Include/cmsis_gcc.h ****    return(result);
 5879              		.loc 2 1123 4 discriminator 1
 5880 042e 396C     		ldr	r1, [r7, #64]
 5881 0430 7A6C     		ldr	r2, [r7, #68]
ARM GAS  /tmp/ccIpdX1g.s 			page 170


 5882              		.syntax unified
 5883              	@ 1123 "Drivers/CMSIS/Include/cmsis_gcc.h" 1
 5884 0432 41E80023 		strex r3, r2, [r1]
 5885              	@ 0 "" 2
 5886              		.thumb
 5887              		.syntax unified
 5888 0436 FB63     		str	r3, [r7, #60]
 5889              		.loc 2 1124 10 discriminator 1
 5890 0438 FB6B     		ldr	r3, [r7, #60]
 5891              	.LBE531:
 5892              	.LBE530:
 5893              		.loc 1 2549 9 discriminator 1
 5894 043a 002B     		cmp	r3, #0
 5895 043c E3D1     		bne	.L315
 5896              	.L318:
 5897              	.LBE527:
 5898              	.LBB532:
2550:Drivers/STM32F4xx_HAL_Driver/Src/stm32f4xx_hal_uart.c **** 
2551:Drivers/STM32F4xx_HAL_Driver/Src/stm32f4xx_hal_uart.c ****         /* Disable the UART Error Interrupt: (Frame error, noise error, overrun error) */
2552:Drivers/STM32F4xx_HAL_Driver/Src/stm32f4xx_hal_uart.c ****         ATOMIC_CLEAR_BIT(huart->Instance->CR3, USART_CR3_EIE);
 5899              		.loc 1 2552 9 discriminator 1
 5900 043e 7B68     		ldr	r3, [r7, #4]
 5901 0440 1B68     		ldr	r3, [r3]
 5902 0442 1433     		adds	r3, r3, #20
 5903 0444 7B62     		str	r3, [r7, #36]
 5904              	.LBB533:
 5905              	.LBB534:
1072:Drivers/CMSIS/Include/cmsis_gcc.h ****    return(result);
 5906              		.loc 2 1072 4 discriminator 1
 5907 0446 7B6A     		ldr	r3, [r7, #36]
 5908              		.syntax unified
 5909              	@ 1072 "Drivers/CMSIS/Include/cmsis_gcc.h" 1
 5910 0448 53E8003F 		ldrex r3, [r3]
 5911              	@ 0 "" 2
 5912              		.thumb
 5913              		.syntax unified
 5914 044c 3B62     		str	r3, [r7, #32]
1073:Drivers/CMSIS/Include/cmsis_gcc.h **** }
 5915              		.loc 2 1073 10 discriminator 1
 5916 044e 3B6A     		ldr	r3, [r7, #32]
 5917              	.LBE534:
 5918              	.LBE533:
 5919              		.loc 1 2552 9 discriminator 1
 5920 0450 23F00103 		bic	r3, r3, #1
 5921 0454 C7F8C430 		str	r3, [r7, #196]
 5922 0458 7B68     		ldr	r3, [r7, #4]
 5923 045a 1B68     		ldr	r3, [r3]
 5924 045c 1433     		adds	r3, r3, #20
 5925 045e D7F8C420 		ldr	r2, [r7, #196]
 5926 0462 3A63     		str	r2, [r7, #48]
 5927 0464 FB62     		str	r3, [r7, #44]
 5928              	.LBB535:
 5929              	.LBB536:
1123:Drivers/CMSIS/Include/cmsis_gcc.h ****    return(result);
 5930              		.loc 2 1123 4 discriminator 1
 5931 0466 F96A     		ldr	r1, [r7, #44]
 5932 0468 3A6B     		ldr	r2, [r7, #48]
ARM GAS  /tmp/ccIpdX1g.s 			page 171


 5933              		.syntax unified
 5934              	@ 1123 "Drivers/CMSIS/Include/cmsis_gcc.h" 1
 5935 046a 41E80023 		strex r3, r2, [r1]
 5936              	@ 0 "" 2
 5937              		.thumb
 5938              		.syntax unified
 5939 046e BB62     		str	r3, [r7, #40]
 5940              		.loc 2 1124 10 discriminator 1
 5941 0470 BB6A     		ldr	r3, [r7, #40]
 5942              	.LBE536:
 5943              	.LBE535:
 5944              		.loc 1 2552 9 discriminator 1
 5945 0472 002B     		cmp	r3, #0
 5946 0474 E3D1     		bne	.L318
 5947              	.LBE532:
2553:Drivers/STM32F4xx_HAL_Driver/Src/stm32f4xx_hal_uart.c **** 
2554:Drivers/STM32F4xx_HAL_Driver/Src/stm32f4xx_hal_uart.c ****         /* Rx process is completed, restore huart->RxState to Ready */
2555:Drivers/STM32F4xx_HAL_Driver/Src/stm32f4xx_hal_uart.c ****         huart->RxState = HAL_UART_STATE_READY;
 5948              		.loc 1 2555 24
 5949 0476 7B68     		ldr	r3, [r7, #4]
 5950 0478 2022     		movs	r2, #32
 5951 047a 83F83E20 		strb	r2, [r3, #62]
2556:Drivers/STM32F4xx_HAL_Driver/Src/stm32f4xx_hal_uart.c ****         huart->ReceptionType = HAL_UART_RECEPTION_STANDARD;
 5952              		.loc 1 2556 30
 5953 047e 7B68     		ldr	r3, [r7, #4]
 5954 0480 0022     		movs	r2, #0
 5955 0482 1A63     		str	r2, [r3, #48]
 5956              	.L321:
 5957              	.LBB537:
2557:Drivers/STM32F4xx_HAL_Driver/Src/stm32f4xx_hal_uart.c **** 
2558:Drivers/STM32F4xx_HAL_Driver/Src/stm32f4xx_hal_uart.c ****         ATOMIC_CLEAR_BIT(huart->Instance->CR1, USART_CR1_IDLEIE);
 5958              		.loc 1 2558 9 discriminator 1
 5959 0484 7B68     		ldr	r3, [r7, #4]
 5960 0486 1B68     		ldr	r3, [r3]
 5961 0488 0C33     		adds	r3, r3, #12
 5962 048a 3B61     		str	r3, [r7, #16]
 5963              	.LBB538:
 5964              	.LBB539:
1072:Drivers/CMSIS/Include/cmsis_gcc.h ****    return(result);
 5965              		.loc 2 1072 4 discriminator 1
 5966 048c 3B69     		ldr	r3, [r7, #16]
 5967              		.syntax unified
 5968              	@ 1072 "Drivers/CMSIS/Include/cmsis_gcc.h" 1
 5969 048e 53E8003F 		ldrex r3, [r3]
 5970              	@ 0 "" 2
 5971              		.thumb
 5972              		.syntax unified
 5973 0492 FB60     		str	r3, [r7, #12]
1073:Drivers/CMSIS/Include/cmsis_gcc.h **** }
 5974              		.loc 2 1073 10 discriminator 1
 5975 0494 FB68     		ldr	r3, [r7, #12]
 5976              	.LBE539:
 5977              	.LBE538:
 5978              		.loc 1 2558 9 discriminator 1
 5979 0496 23F01003 		bic	r3, r3, #16
 5980 049a C7F8C030 		str	r3, [r7, #192]
 5981 049e 7B68     		ldr	r3, [r7, #4]
ARM GAS  /tmp/ccIpdX1g.s 			page 172


 5982 04a0 1B68     		ldr	r3, [r3]
 5983 04a2 0C33     		adds	r3, r3, #12
 5984 04a4 D7F8C020 		ldr	r2, [r7, #192]
 5985 04a8 FA61     		str	r2, [r7, #28]
 5986 04aa BB61     		str	r3, [r7, #24]
 5987              	.LBB540:
 5988              	.LBB541:
1123:Drivers/CMSIS/Include/cmsis_gcc.h ****    return(result);
 5989              		.loc 2 1123 4 discriminator 1
 5990 04ac B969     		ldr	r1, [r7, #24]
 5991 04ae FA69     		ldr	r2, [r7, #28]
 5992              		.syntax unified
 5993              	@ 1123 "Drivers/CMSIS/Include/cmsis_gcc.h" 1
 5994 04b0 41E80023 		strex r3, r2, [r1]
 5995              	@ 0 "" 2
 5996              		.thumb
 5997              		.syntax unified
 5998 04b4 7B61     		str	r3, [r7, #20]
 5999              		.loc 2 1124 10 discriminator 1
 6000 04b6 7B69     		ldr	r3, [r7, #20]
 6001              	.LBE541:
 6002              	.LBE540:
 6003              		.loc 1 2558 9 discriminator 1
 6004 04b8 002B     		cmp	r3, #0
 6005 04ba E3D1     		bne	.L321
 6006              	.LBE537:
2559:Drivers/STM32F4xx_HAL_Driver/Src/stm32f4xx_hal_uart.c **** #if (USE_HAL_UART_REGISTER_CALLBACKS == 1)
2560:Drivers/STM32F4xx_HAL_Driver/Src/stm32f4xx_hal_uart.c ****         /*Call registered Rx complete callback*/
2561:Drivers/STM32F4xx_HAL_Driver/Src/stm32f4xx_hal_uart.c ****         huart->RxEventCallback(huart, nb_rx_data);
2562:Drivers/STM32F4xx_HAL_Driver/Src/stm32f4xx_hal_uart.c **** #else
2563:Drivers/STM32F4xx_HAL_Driver/Src/stm32f4xx_hal_uart.c ****         /*Call legacy weak Rx Event callback*/
2564:Drivers/STM32F4xx_HAL_Driver/Src/stm32f4xx_hal_uart.c ****         HAL_UARTEx_RxEventCallback(huart, nb_rx_data);
 6007              		.loc 1 2564 9
 6008 04bc B7F8CE30 		ldrh	r3, [r7, #206]
 6009 04c0 1946     		mov	r1, r3
 6010 04c2 7868     		ldr	r0, [r7, #4]
 6011 04c4 FFF7FEFF 		bl	HAL_UARTEx_RxEventCallback
2565:Drivers/STM32F4xx_HAL_Driver/Src/stm32f4xx_hal_uart.c **** #endif /* USE_HAL_UART_REGISTER_CALLBACKS */
2566:Drivers/STM32F4xx_HAL_Driver/Src/stm32f4xx_hal_uart.c ****       }
2567:Drivers/STM32F4xx_HAL_Driver/Src/stm32f4xx_hal_uart.c ****       return;
 6012              		.loc 1 2567 7
 6013 04c8 23E0     		b	.L326
 6014              	.L296:
 6015              	.LBE526:
2568:Drivers/STM32F4xx_HAL_Driver/Src/stm32f4xx_hal_uart.c ****     }
2569:Drivers/STM32F4xx_HAL_Driver/Src/stm32f4xx_hal_uart.c ****   }
2570:Drivers/STM32F4xx_HAL_Driver/Src/stm32f4xx_hal_uart.c **** 
2571:Drivers/STM32F4xx_HAL_Driver/Src/stm32f4xx_hal_uart.c ****   /* UART in mode Transmitter ------------------------------------------------*/
2572:Drivers/STM32F4xx_HAL_Driver/Src/stm32f4xx_hal_uart.c ****   if (((isrflags & USART_SR_TXE) != RESET) && ((cr1its & USART_CR1_TXEIE) != RESET))
 6016              		.loc 1 2572 18
 6017 04ca D7F8E430 		ldr	r3, [r7, #228]
 6018 04ce 03F08003 		and	r3, r3, #128
 6019              		.loc 1 2572 6
 6020 04d2 002B     		cmp	r3, #0
 6021 04d4 09D0     		beq	.L322
 6022              		.loc 1 2572 56 discriminator 1
 6023 04d6 D7F8E030 		ldr	r3, [r7, #224]
ARM GAS  /tmp/ccIpdX1g.s 			page 173


 6024 04da 03F08003 		and	r3, r3, #128
 6025              		.loc 1 2572 44 discriminator 1
 6026 04de 002B     		cmp	r3, #0
 6027 04e0 03D0     		beq	.L322
2573:Drivers/STM32F4xx_HAL_Driver/Src/stm32f4xx_hal_uart.c ****   {
2574:Drivers/STM32F4xx_HAL_Driver/Src/stm32f4xx_hal_uart.c ****     UART_Transmit_IT(huart);
 6028              		.loc 1 2574 5
 6029 04e2 7868     		ldr	r0, [r7, #4]
 6030 04e4 FFF7FEFF 		bl	UART_Transmit_IT
2575:Drivers/STM32F4xx_HAL_Driver/Src/stm32f4xx_hal_uart.c ****     return;
 6031              		.loc 1 2575 5
 6032 04e8 14E0     		b	.L276
 6033              	.L322:
2576:Drivers/STM32F4xx_HAL_Driver/Src/stm32f4xx_hal_uart.c ****   }
2577:Drivers/STM32F4xx_HAL_Driver/Src/stm32f4xx_hal_uart.c **** 
2578:Drivers/STM32F4xx_HAL_Driver/Src/stm32f4xx_hal_uart.c ****   /* UART in mode Transmitter end --------------------------------------------*/
2579:Drivers/STM32F4xx_HAL_Driver/Src/stm32f4xx_hal_uart.c ****   if (((isrflags & USART_SR_TC) != RESET) && ((cr1its & USART_CR1_TCIE) != RESET))
 6034              		.loc 1 2579 18
 6035 04ea D7F8E430 		ldr	r3, [r7, #228]
 6036 04ee 03F04003 		and	r3, r3, #64
 6037              		.loc 1 2579 6
 6038 04f2 002B     		cmp	r3, #0
 6039 04f4 0ED0     		beq	.L276
 6040              		.loc 1 2579 55 discriminator 1
 6041 04f6 D7F8E030 		ldr	r3, [r7, #224]
 6042 04fa 03F04003 		and	r3, r3, #64
 6043              		.loc 1 2579 43 discriminator 1
 6044 04fe 002B     		cmp	r3, #0
 6045 0500 08D0     		beq	.L276
2580:Drivers/STM32F4xx_HAL_Driver/Src/stm32f4xx_hal_uart.c ****   {
2581:Drivers/STM32F4xx_HAL_Driver/Src/stm32f4xx_hal_uart.c ****     UART_EndTransmit_IT(huart);
 6046              		.loc 1 2581 5
 6047 0502 7868     		ldr	r0, [r7, #4]
 6048 0504 FFF7FEFF 		bl	UART_EndTransmit_IT
2582:Drivers/STM32F4xx_HAL_Driver/Src/stm32f4xx_hal_uart.c ****     return;
 6049              		.loc 1 2582 5
 6050 0508 04E0     		b	.L276
 6051              	.L323:
2484:Drivers/STM32F4xx_HAL_Driver/Src/stm32f4xx_hal_uart.c ****   } /* End if some error occurs */
 6052              		.loc 1 2484 5
 6053 050a 00BF     		nop
 6054 050c 02E0     		b	.L276
 6055              	.L325:
 6056              	.LBB542:
2537:Drivers/STM32F4xx_HAL_Driver/Src/stm32f4xx_hal_uart.c ****     }
 6057              		.loc 1 2537 7
 6058 050e 00BF     		nop
 6059 0510 00E0     		b	.L276
 6060              	.L326:
 6061              	.LBE542:
 6062              	.LBB543:
2567:Drivers/STM32F4xx_HAL_Driver/Src/stm32f4xx_hal_uart.c ****     }
 6063              		.loc 1 2567 7
 6064 0512 00BF     		nop
 6065              	.L276:
 6066              	.LBE543:
2583:Drivers/STM32F4xx_HAL_Driver/Src/stm32f4xx_hal_uart.c ****   }
ARM GAS  /tmp/ccIpdX1g.s 			page 174


2584:Drivers/STM32F4xx_HAL_Driver/Src/stm32f4xx_hal_uart.c **** }
 6067              		.loc 1 2584 1
 6068 0514 E837     		adds	r7, r7, #232
 6069              	.LCFI133:
 6070              		.cfi_def_cfa_offset 8
 6071 0516 BD46     		mov	sp, r7
 6072              	.LCFI134:
 6073              		.cfi_def_cfa_register 13
 6074              		@ sp needed
 6075 0518 80BD     		pop	{r7, pc}
 6076              		.cfi_endproc
 6077              	.LFE241:
 6079 051a 00BF     		.section	.text.HAL_UART_TxCpltCallback,"ax",%progbits
 6080              		.align	1
 6081              		.weak	HAL_UART_TxCpltCallback
 6082              		.syntax unified
 6083              		.thumb
 6084              		.thumb_func
 6086              	HAL_UART_TxCpltCallback:
 6087              	.LFB242:
2585:Drivers/STM32F4xx_HAL_Driver/Src/stm32f4xx_hal_uart.c **** 
2586:Drivers/STM32F4xx_HAL_Driver/Src/stm32f4xx_hal_uart.c **** /**
2587:Drivers/STM32F4xx_HAL_Driver/Src/stm32f4xx_hal_uart.c ****   * @brief  Tx Transfer completed callbacks.
2588:Drivers/STM32F4xx_HAL_Driver/Src/stm32f4xx_hal_uart.c ****   * @param  huart  Pointer to a UART_HandleTypeDef structure that contains
2589:Drivers/STM32F4xx_HAL_Driver/Src/stm32f4xx_hal_uart.c ****   *                the configuration information for the specified UART module.
2590:Drivers/STM32F4xx_HAL_Driver/Src/stm32f4xx_hal_uart.c ****   * @retval None
2591:Drivers/STM32F4xx_HAL_Driver/Src/stm32f4xx_hal_uart.c ****   */
2592:Drivers/STM32F4xx_HAL_Driver/Src/stm32f4xx_hal_uart.c **** __weak void HAL_UART_TxCpltCallback(UART_HandleTypeDef *huart)
2593:Drivers/STM32F4xx_HAL_Driver/Src/stm32f4xx_hal_uart.c **** {
 6088              		.loc 1 2593 1
 6089              		.cfi_startproc
 6090              		@ args = 0, pretend = 0, frame = 8
 6091              		@ frame_needed = 1, uses_anonymous_args = 0
 6092              		@ link register save eliminated.
 6093 0000 80B4     		push	{r7}
 6094              	.LCFI135:
 6095              		.cfi_def_cfa_offset 4
 6096              		.cfi_offset 7, -4
 6097 0002 83B0     		sub	sp, sp, #12
 6098              	.LCFI136:
 6099              		.cfi_def_cfa_offset 16
 6100 0004 00AF     		add	r7, sp, #0
 6101              	.LCFI137:
 6102              		.cfi_def_cfa_register 7
 6103 0006 7860     		str	r0, [r7, #4]
2594:Drivers/STM32F4xx_HAL_Driver/Src/stm32f4xx_hal_uart.c ****   /* Prevent unused argument(s) compilation warning */
2595:Drivers/STM32F4xx_HAL_Driver/Src/stm32f4xx_hal_uart.c ****   UNUSED(huart);
2596:Drivers/STM32F4xx_HAL_Driver/Src/stm32f4xx_hal_uart.c ****   /* NOTE: This function should not be modified, when the callback is needed,
2597:Drivers/STM32F4xx_HAL_Driver/Src/stm32f4xx_hal_uart.c ****            the HAL_UART_TxCpltCallback could be implemented in the user file
2598:Drivers/STM32F4xx_HAL_Driver/Src/stm32f4xx_hal_uart.c ****    */
2599:Drivers/STM32F4xx_HAL_Driver/Src/stm32f4xx_hal_uart.c **** }
 6104              		.loc 1 2599 1
 6105 0008 00BF     		nop
 6106 000a 0C37     		adds	r7, r7, #12
 6107              	.LCFI138:
 6108              		.cfi_def_cfa_offset 4
 6109 000c BD46     		mov	sp, r7
ARM GAS  /tmp/ccIpdX1g.s 			page 175


 6110              	.LCFI139:
 6111              		.cfi_def_cfa_register 13
 6112              		@ sp needed
 6113 000e 5DF8047B 		ldr	r7, [sp], #4
 6114              	.LCFI140:
 6115              		.cfi_restore 7
 6116              		.cfi_def_cfa_offset 0
 6117 0012 7047     		bx	lr
 6118              		.cfi_endproc
 6119              	.LFE242:
 6121              		.section	.text.HAL_UART_TxHalfCpltCallback,"ax",%progbits
 6122              		.align	1
 6123              		.weak	HAL_UART_TxHalfCpltCallback
 6124              		.syntax unified
 6125              		.thumb
 6126              		.thumb_func
 6128              	HAL_UART_TxHalfCpltCallback:
 6129              	.LFB243:
2600:Drivers/STM32F4xx_HAL_Driver/Src/stm32f4xx_hal_uart.c **** 
2601:Drivers/STM32F4xx_HAL_Driver/Src/stm32f4xx_hal_uart.c **** /**
2602:Drivers/STM32F4xx_HAL_Driver/Src/stm32f4xx_hal_uart.c ****   * @brief  Tx Half Transfer completed callbacks.
2603:Drivers/STM32F4xx_HAL_Driver/Src/stm32f4xx_hal_uart.c ****   * @param  huart  Pointer to a UART_HandleTypeDef structure that contains
2604:Drivers/STM32F4xx_HAL_Driver/Src/stm32f4xx_hal_uart.c ****   *                the configuration information for the specified UART module.
2605:Drivers/STM32F4xx_HAL_Driver/Src/stm32f4xx_hal_uart.c ****   * @retval None
2606:Drivers/STM32F4xx_HAL_Driver/Src/stm32f4xx_hal_uart.c ****   */
2607:Drivers/STM32F4xx_HAL_Driver/Src/stm32f4xx_hal_uart.c **** __weak void HAL_UART_TxHalfCpltCallback(UART_HandleTypeDef *huart)
2608:Drivers/STM32F4xx_HAL_Driver/Src/stm32f4xx_hal_uart.c **** {
 6130              		.loc 1 2608 1
 6131              		.cfi_startproc
 6132              		@ args = 0, pretend = 0, frame = 8
 6133              		@ frame_needed = 1, uses_anonymous_args = 0
 6134              		@ link register save eliminated.
 6135 0000 80B4     		push	{r7}
 6136              	.LCFI141:
 6137              		.cfi_def_cfa_offset 4
 6138              		.cfi_offset 7, -4
 6139 0002 83B0     		sub	sp, sp, #12
 6140              	.LCFI142:
 6141              		.cfi_def_cfa_offset 16
 6142 0004 00AF     		add	r7, sp, #0
 6143              	.LCFI143:
 6144              		.cfi_def_cfa_register 7
 6145 0006 7860     		str	r0, [r7, #4]
2609:Drivers/STM32F4xx_HAL_Driver/Src/stm32f4xx_hal_uart.c ****   /* Prevent unused argument(s) compilation warning */
2610:Drivers/STM32F4xx_HAL_Driver/Src/stm32f4xx_hal_uart.c ****   UNUSED(huart);
2611:Drivers/STM32F4xx_HAL_Driver/Src/stm32f4xx_hal_uart.c ****   /* NOTE: This function should not be modified, when the callback is needed,
2612:Drivers/STM32F4xx_HAL_Driver/Src/stm32f4xx_hal_uart.c ****            the HAL_UART_TxHalfCpltCallback could be implemented in the user file
2613:Drivers/STM32F4xx_HAL_Driver/Src/stm32f4xx_hal_uart.c ****    */
2614:Drivers/STM32F4xx_HAL_Driver/Src/stm32f4xx_hal_uart.c **** }
 6146              		.loc 1 2614 1
 6147 0008 00BF     		nop
 6148 000a 0C37     		adds	r7, r7, #12
 6149              	.LCFI144:
 6150              		.cfi_def_cfa_offset 4
 6151 000c BD46     		mov	sp, r7
 6152              	.LCFI145:
 6153              		.cfi_def_cfa_register 13
ARM GAS  /tmp/ccIpdX1g.s 			page 176


 6154              		@ sp needed
 6155 000e 5DF8047B 		ldr	r7, [sp], #4
 6156              	.LCFI146:
 6157              		.cfi_restore 7
 6158              		.cfi_def_cfa_offset 0
 6159 0012 7047     		bx	lr
 6160              		.cfi_endproc
 6161              	.LFE243:
 6163              		.section	.text.HAL_UART_RxCpltCallback,"ax",%progbits
 6164              		.align	1
 6165              		.weak	HAL_UART_RxCpltCallback
 6166              		.syntax unified
 6167              		.thumb
 6168              		.thumb_func
 6170              	HAL_UART_RxCpltCallback:
 6171              	.LFB244:
2615:Drivers/STM32F4xx_HAL_Driver/Src/stm32f4xx_hal_uart.c **** 
2616:Drivers/STM32F4xx_HAL_Driver/Src/stm32f4xx_hal_uart.c **** /**
2617:Drivers/STM32F4xx_HAL_Driver/Src/stm32f4xx_hal_uart.c ****   * @brief  Rx Transfer completed callbacks.
2618:Drivers/STM32F4xx_HAL_Driver/Src/stm32f4xx_hal_uart.c ****   * @param  huart  Pointer to a UART_HandleTypeDef structure that contains
2619:Drivers/STM32F4xx_HAL_Driver/Src/stm32f4xx_hal_uart.c ****   *                the configuration information for the specified UART module.
2620:Drivers/STM32F4xx_HAL_Driver/Src/stm32f4xx_hal_uart.c ****   * @retval None
2621:Drivers/STM32F4xx_HAL_Driver/Src/stm32f4xx_hal_uart.c ****   */
2622:Drivers/STM32F4xx_HAL_Driver/Src/stm32f4xx_hal_uart.c **** __weak void HAL_UART_RxCpltCallback(UART_HandleTypeDef *huart)
2623:Drivers/STM32F4xx_HAL_Driver/Src/stm32f4xx_hal_uart.c **** {
 6172              		.loc 1 2623 1
 6173              		.cfi_startproc
 6174              		@ args = 0, pretend = 0, frame = 8
 6175              		@ frame_needed = 1, uses_anonymous_args = 0
 6176              		@ link register save eliminated.
 6177 0000 80B4     		push	{r7}
 6178              	.LCFI147:
 6179              		.cfi_def_cfa_offset 4
 6180              		.cfi_offset 7, -4
 6181 0002 83B0     		sub	sp, sp, #12
 6182              	.LCFI148:
 6183              		.cfi_def_cfa_offset 16
 6184 0004 00AF     		add	r7, sp, #0
 6185              	.LCFI149:
 6186              		.cfi_def_cfa_register 7
 6187 0006 7860     		str	r0, [r7, #4]
2624:Drivers/STM32F4xx_HAL_Driver/Src/stm32f4xx_hal_uart.c ****   /* Prevent unused argument(s) compilation warning */
2625:Drivers/STM32F4xx_HAL_Driver/Src/stm32f4xx_hal_uart.c ****   UNUSED(huart);
2626:Drivers/STM32F4xx_HAL_Driver/Src/stm32f4xx_hal_uart.c ****   /* NOTE: This function should not be modified, when the callback is needed,
2627:Drivers/STM32F4xx_HAL_Driver/Src/stm32f4xx_hal_uart.c ****            the HAL_UART_RxCpltCallback could be implemented in the user file
2628:Drivers/STM32F4xx_HAL_Driver/Src/stm32f4xx_hal_uart.c ****    */
2629:Drivers/STM32F4xx_HAL_Driver/Src/stm32f4xx_hal_uart.c **** }
 6188              		.loc 1 2629 1
 6189 0008 00BF     		nop
 6190 000a 0C37     		adds	r7, r7, #12
 6191              	.LCFI150:
 6192              		.cfi_def_cfa_offset 4
 6193 000c BD46     		mov	sp, r7
 6194              	.LCFI151:
 6195              		.cfi_def_cfa_register 13
 6196              		@ sp needed
 6197 000e 5DF8047B 		ldr	r7, [sp], #4
ARM GAS  /tmp/ccIpdX1g.s 			page 177


 6198              	.LCFI152:
 6199              		.cfi_restore 7
 6200              		.cfi_def_cfa_offset 0
 6201 0012 7047     		bx	lr
 6202              		.cfi_endproc
 6203              	.LFE244:
 6205              		.section	.text.HAL_UART_RxHalfCpltCallback,"ax",%progbits
 6206              		.align	1
 6207              		.weak	HAL_UART_RxHalfCpltCallback
 6208              		.syntax unified
 6209              		.thumb
 6210              		.thumb_func
 6212              	HAL_UART_RxHalfCpltCallback:
 6213              	.LFB245:
2630:Drivers/STM32F4xx_HAL_Driver/Src/stm32f4xx_hal_uart.c **** 
2631:Drivers/STM32F4xx_HAL_Driver/Src/stm32f4xx_hal_uart.c **** /**
2632:Drivers/STM32F4xx_HAL_Driver/Src/stm32f4xx_hal_uart.c ****   * @brief  Rx Half Transfer completed callbacks.
2633:Drivers/STM32F4xx_HAL_Driver/Src/stm32f4xx_hal_uart.c ****   * @param  huart  Pointer to a UART_HandleTypeDef structure that contains
2634:Drivers/STM32F4xx_HAL_Driver/Src/stm32f4xx_hal_uart.c ****   *                the configuration information for the specified UART module.
2635:Drivers/STM32F4xx_HAL_Driver/Src/stm32f4xx_hal_uart.c ****   * @retval None
2636:Drivers/STM32F4xx_HAL_Driver/Src/stm32f4xx_hal_uart.c ****   */
2637:Drivers/STM32F4xx_HAL_Driver/Src/stm32f4xx_hal_uart.c **** __weak void HAL_UART_RxHalfCpltCallback(UART_HandleTypeDef *huart)
2638:Drivers/STM32F4xx_HAL_Driver/Src/stm32f4xx_hal_uart.c **** {
 6214              		.loc 1 2638 1
 6215              		.cfi_startproc
 6216              		@ args = 0, pretend = 0, frame = 8
 6217              		@ frame_needed = 1, uses_anonymous_args = 0
 6218              		@ link register save eliminated.
 6219 0000 80B4     		push	{r7}
 6220              	.LCFI153:
 6221              		.cfi_def_cfa_offset 4
 6222              		.cfi_offset 7, -4
 6223 0002 83B0     		sub	sp, sp, #12
 6224              	.LCFI154:
 6225              		.cfi_def_cfa_offset 16
 6226 0004 00AF     		add	r7, sp, #0
 6227              	.LCFI155:
 6228              		.cfi_def_cfa_register 7
 6229 0006 7860     		str	r0, [r7, #4]
2639:Drivers/STM32F4xx_HAL_Driver/Src/stm32f4xx_hal_uart.c ****   /* Prevent unused argument(s) compilation warning */
2640:Drivers/STM32F4xx_HAL_Driver/Src/stm32f4xx_hal_uart.c ****   UNUSED(huart);
2641:Drivers/STM32F4xx_HAL_Driver/Src/stm32f4xx_hal_uart.c ****   /* NOTE: This function should not be modified, when the callback is needed,
2642:Drivers/STM32F4xx_HAL_Driver/Src/stm32f4xx_hal_uart.c ****            the HAL_UART_RxHalfCpltCallback could be implemented in the user file
2643:Drivers/STM32F4xx_HAL_Driver/Src/stm32f4xx_hal_uart.c ****    */
2644:Drivers/STM32F4xx_HAL_Driver/Src/stm32f4xx_hal_uart.c **** }
 6230              		.loc 1 2644 1
 6231 0008 00BF     		nop
 6232 000a 0C37     		adds	r7, r7, #12
 6233              	.LCFI156:
 6234              		.cfi_def_cfa_offset 4
 6235 000c BD46     		mov	sp, r7
 6236              	.LCFI157:
 6237              		.cfi_def_cfa_register 13
 6238              		@ sp needed
 6239 000e 5DF8047B 		ldr	r7, [sp], #4
 6240              	.LCFI158:
 6241              		.cfi_restore 7
ARM GAS  /tmp/ccIpdX1g.s 			page 178


 6242              		.cfi_def_cfa_offset 0
 6243 0012 7047     		bx	lr
 6244              		.cfi_endproc
 6245              	.LFE245:
 6247              		.section	.text.HAL_UART_ErrorCallback,"ax",%progbits
 6248              		.align	1
 6249              		.weak	HAL_UART_ErrorCallback
 6250              		.syntax unified
 6251              		.thumb
 6252              		.thumb_func
 6254              	HAL_UART_ErrorCallback:
 6255              	.LFB246:
2645:Drivers/STM32F4xx_HAL_Driver/Src/stm32f4xx_hal_uart.c **** 
2646:Drivers/STM32F4xx_HAL_Driver/Src/stm32f4xx_hal_uart.c **** /**
2647:Drivers/STM32F4xx_HAL_Driver/Src/stm32f4xx_hal_uart.c ****   * @brief  UART error callbacks.
2648:Drivers/STM32F4xx_HAL_Driver/Src/stm32f4xx_hal_uart.c ****   * @param  huart  Pointer to a UART_HandleTypeDef structure that contains
2649:Drivers/STM32F4xx_HAL_Driver/Src/stm32f4xx_hal_uart.c ****   *                the configuration information for the specified UART module.
2650:Drivers/STM32F4xx_HAL_Driver/Src/stm32f4xx_hal_uart.c ****   * @retval None
2651:Drivers/STM32F4xx_HAL_Driver/Src/stm32f4xx_hal_uart.c ****   */
2652:Drivers/STM32F4xx_HAL_Driver/Src/stm32f4xx_hal_uart.c **** __weak void HAL_UART_ErrorCallback(UART_HandleTypeDef *huart)
2653:Drivers/STM32F4xx_HAL_Driver/Src/stm32f4xx_hal_uart.c **** {
 6256              		.loc 1 2653 1
 6257              		.cfi_startproc
 6258              		@ args = 0, pretend = 0, frame = 8
 6259              		@ frame_needed = 1, uses_anonymous_args = 0
 6260              		@ link register save eliminated.
 6261 0000 80B4     		push	{r7}
 6262              	.LCFI159:
 6263              		.cfi_def_cfa_offset 4
 6264              		.cfi_offset 7, -4
 6265 0002 83B0     		sub	sp, sp, #12
 6266              	.LCFI160:
 6267              		.cfi_def_cfa_offset 16
 6268 0004 00AF     		add	r7, sp, #0
 6269              	.LCFI161:
 6270              		.cfi_def_cfa_register 7
 6271 0006 7860     		str	r0, [r7, #4]
2654:Drivers/STM32F4xx_HAL_Driver/Src/stm32f4xx_hal_uart.c ****   /* Prevent unused argument(s) compilation warning */
2655:Drivers/STM32F4xx_HAL_Driver/Src/stm32f4xx_hal_uart.c ****   UNUSED(huart);
2656:Drivers/STM32F4xx_HAL_Driver/Src/stm32f4xx_hal_uart.c ****   /* NOTE: This function should not be modified, when the callback is needed,
2657:Drivers/STM32F4xx_HAL_Driver/Src/stm32f4xx_hal_uart.c ****            the HAL_UART_ErrorCallback could be implemented in the user file
2658:Drivers/STM32F4xx_HAL_Driver/Src/stm32f4xx_hal_uart.c ****    */
2659:Drivers/STM32F4xx_HAL_Driver/Src/stm32f4xx_hal_uart.c **** }
 6272              		.loc 1 2659 1
 6273 0008 00BF     		nop
 6274 000a 0C37     		adds	r7, r7, #12
 6275              	.LCFI162:
 6276              		.cfi_def_cfa_offset 4
 6277 000c BD46     		mov	sp, r7
 6278              	.LCFI163:
 6279              		.cfi_def_cfa_register 13
 6280              		@ sp needed
 6281 000e 5DF8047B 		ldr	r7, [sp], #4
 6282              	.LCFI164:
 6283              		.cfi_restore 7
 6284              		.cfi_def_cfa_offset 0
 6285 0012 7047     		bx	lr
ARM GAS  /tmp/ccIpdX1g.s 			page 179


 6286              		.cfi_endproc
 6287              	.LFE246:
 6289              		.section	.text.HAL_UART_AbortCpltCallback,"ax",%progbits
 6290              		.align	1
 6291              		.weak	HAL_UART_AbortCpltCallback
 6292              		.syntax unified
 6293              		.thumb
 6294              		.thumb_func
 6296              	HAL_UART_AbortCpltCallback:
 6297              	.LFB247:
2660:Drivers/STM32F4xx_HAL_Driver/Src/stm32f4xx_hal_uart.c **** 
2661:Drivers/STM32F4xx_HAL_Driver/Src/stm32f4xx_hal_uart.c **** /**
2662:Drivers/STM32F4xx_HAL_Driver/Src/stm32f4xx_hal_uart.c ****   * @brief  UART Abort Complete callback.
2663:Drivers/STM32F4xx_HAL_Driver/Src/stm32f4xx_hal_uart.c ****   * @param  huart UART handle.
2664:Drivers/STM32F4xx_HAL_Driver/Src/stm32f4xx_hal_uart.c ****   * @retval None
2665:Drivers/STM32F4xx_HAL_Driver/Src/stm32f4xx_hal_uart.c ****   */
2666:Drivers/STM32F4xx_HAL_Driver/Src/stm32f4xx_hal_uart.c **** __weak void HAL_UART_AbortCpltCallback(UART_HandleTypeDef *huart)
2667:Drivers/STM32F4xx_HAL_Driver/Src/stm32f4xx_hal_uart.c **** {
 6298              		.loc 1 2667 1
 6299              		.cfi_startproc
 6300              		@ args = 0, pretend = 0, frame = 8
 6301              		@ frame_needed = 1, uses_anonymous_args = 0
 6302              		@ link register save eliminated.
 6303 0000 80B4     		push	{r7}
 6304              	.LCFI165:
 6305              		.cfi_def_cfa_offset 4
 6306              		.cfi_offset 7, -4
 6307 0002 83B0     		sub	sp, sp, #12
 6308              	.LCFI166:
 6309              		.cfi_def_cfa_offset 16
 6310 0004 00AF     		add	r7, sp, #0
 6311              	.LCFI167:
 6312              		.cfi_def_cfa_register 7
 6313 0006 7860     		str	r0, [r7, #4]
2668:Drivers/STM32F4xx_HAL_Driver/Src/stm32f4xx_hal_uart.c ****   /* Prevent unused argument(s) compilation warning */
2669:Drivers/STM32F4xx_HAL_Driver/Src/stm32f4xx_hal_uart.c ****   UNUSED(huart);
2670:Drivers/STM32F4xx_HAL_Driver/Src/stm32f4xx_hal_uart.c **** 
2671:Drivers/STM32F4xx_HAL_Driver/Src/stm32f4xx_hal_uart.c ****   /* NOTE : This function should not be modified, when the callback is needed,
2672:Drivers/STM32F4xx_HAL_Driver/Src/stm32f4xx_hal_uart.c ****             the HAL_UART_AbortCpltCallback can be implemented in the user file.
2673:Drivers/STM32F4xx_HAL_Driver/Src/stm32f4xx_hal_uart.c ****    */
2674:Drivers/STM32F4xx_HAL_Driver/Src/stm32f4xx_hal_uart.c **** }
 6314              		.loc 1 2674 1
 6315 0008 00BF     		nop
 6316 000a 0C37     		adds	r7, r7, #12
 6317              	.LCFI168:
 6318              		.cfi_def_cfa_offset 4
 6319 000c BD46     		mov	sp, r7
 6320              	.LCFI169:
 6321              		.cfi_def_cfa_register 13
 6322              		@ sp needed
 6323 000e 5DF8047B 		ldr	r7, [sp], #4
 6324              	.LCFI170:
 6325              		.cfi_restore 7
 6326              		.cfi_def_cfa_offset 0
 6327 0012 7047     		bx	lr
 6328              		.cfi_endproc
 6329              	.LFE247:
ARM GAS  /tmp/ccIpdX1g.s 			page 180


 6331              		.section	.text.HAL_UART_AbortTransmitCpltCallback,"ax",%progbits
 6332              		.align	1
 6333              		.weak	HAL_UART_AbortTransmitCpltCallback
 6334              		.syntax unified
 6335              		.thumb
 6336              		.thumb_func
 6338              	HAL_UART_AbortTransmitCpltCallback:
 6339              	.LFB248:
2675:Drivers/STM32F4xx_HAL_Driver/Src/stm32f4xx_hal_uart.c **** 
2676:Drivers/STM32F4xx_HAL_Driver/Src/stm32f4xx_hal_uart.c **** /**
2677:Drivers/STM32F4xx_HAL_Driver/Src/stm32f4xx_hal_uart.c ****   * @brief  UART Abort Complete callback.
2678:Drivers/STM32F4xx_HAL_Driver/Src/stm32f4xx_hal_uart.c ****   * @param  huart UART handle.
2679:Drivers/STM32F4xx_HAL_Driver/Src/stm32f4xx_hal_uart.c ****   * @retval None
2680:Drivers/STM32F4xx_HAL_Driver/Src/stm32f4xx_hal_uart.c ****   */
2681:Drivers/STM32F4xx_HAL_Driver/Src/stm32f4xx_hal_uart.c **** __weak void HAL_UART_AbortTransmitCpltCallback(UART_HandleTypeDef *huart)
2682:Drivers/STM32F4xx_HAL_Driver/Src/stm32f4xx_hal_uart.c **** {
 6340              		.loc 1 2682 1
 6341              		.cfi_startproc
 6342              		@ args = 0, pretend = 0, frame = 8
 6343              		@ frame_needed = 1, uses_anonymous_args = 0
 6344              		@ link register save eliminated.
 6345 0000 80B4     		push	{r7}
 6346              	.LCFI171:
 6347              		.cfi_def_cfa_offset 4
 6348              		.cfi_offset 7, -4
 6349 0002 83B0     		sub	sp, sp, #12
 6350              	.LCFI172:
 6351              		.cfi_def_cfa_offset 16
 6352 0004 00AF     		add	r7, sp, #0
 6353              	.LCFI173:
 6354              		.cfi_def_cfa_register 7
 6355 0006 7860     		str	r0, [r7, #4]
2683:Drivers/STM32F4xx_HAL_Driver/Src/stm32f4xx_hal_uart.c ****   /* Prevent unused argument(s) compilation warning */
2684:Drivers/STM32F4xx_HAL_Driver/Src/stm32f4xx_hal_uart.c ****   UNUSED(huart);
2685:Drivers/STM32F4xx_HAL_Driver/Src/stm32f4xx_hal_uart.c **** 
2686:Drivers/STM32F4xx_HAL_Driver/Src/stm32f4xx_hal_uart.c ****   /* NOTE : This function should not be modified, when the callback is needed,
2687:Drivers/STM32F4xx_HAL_Driver/Src/stm32f4xx_hal_uart.c ****             the HAL_UART_AbortTransmitCpltCallback can be implemented in the user file.
2688:Drivers/STM32F4xx_HAL_Driver/Src/stm32f4xx_hal_uart.c ****    */
2689:Drivers/STM32F4xx_HAL_Driver/Src/stm32f4xx_hal_uart.c **** }
 6356              		.loc 1 2689 1
 6357 0008 00BF     		nop
 6358 000a 0C37     		adds	r7, r7, #12
 6359              	.LCFI174:
 6360              		.cfi_def_cfa_offset 4
 6361 000c BD46     		mov	sp, r7
 6362              	.LCFI175:
 6363              		.cfi_def_cfa_register 13
 6364              		@ sp needed
 6365 000e 5DF8047B 		ldr	r7, [sp], #4
 6366              	.LCFI176:
 6367              		.cfi_restore 7
 6368              		.cfi_def_cfa_offset 0
 6369 0012 7047     		bx	lr
 6370              		.cfi_endproc
 6371              	.LFE248:
 6373              		.section	.text.HAL_UART_AbortReceiveCpltCallback,"ax",%progbits
 6374              		.align	1
ARM GAS  /tmp/ccIpdX1g.s 			page 181


 6375              		.weak	HAL_UART_AbortReceiveCpltCallback
 6376              		.syntax unified
 6377              		.thumb
 6378              		.thumb_func
 6380              	HAL_UART_AbortReceiveCpltCallback:
 6381              	.LFB249:
2690:Drivers/STM32F4xx_HAL_Driver/Src/stm32f4xx_hal_uart.c **** 
2691:Drivers/STM32F4xx_HAL_Driver/Src/stm32f4xx_hal_uart.c **** /**
2692:Drivers/STM32F4xx_HAL_Driver/Src/stm32f4xx_hal_uart.c ****   * @brief  UART Abort Receive Complete callback.
2693:Drivers/STM32F4xx_HAL_Driver/Src/stm32f4xx_hal_uart.c ****   * @param  huart UART handle.
2694:Drivers/STM32F4xx_HAL_Driver/Src/stm32f4xx_hal_uart.c ****   * @retval None
2695:Drivers/STM32F4xx_HAL_Driver/Src/stm32f4xx_hal_uart.c ****   */
2696:Drivers/STM32F4xx_HAL_Driver/Src/stm32f4xx_hal_uart.c **** __weak void HAL_UART_AbortReceiveCpltCallback(UART_HandleTypeDef *huart)
2697:Drivers/STM32F4xx_HAL_Driver/Src/stm32f4xx_hal_uart.c **** {
 6382              		.loc 1 2697 1
 6383              		.cfi_startproc
 6384              		@ args = 0, pretend = 0, frame = 8
 6385              		@ frame_needed = 1, uses_anonymous_args = 0
 6386              		@ link register save eliminated.
 6387 0000 80B4     		push	{r7}
 6388              	.LCFI177:
 6389              		.cfi_def_cfa_offset 4
 6390              		.cfi_offset 7, -4
 6391 0002 83B0     		sub	sp, sp, #12
 6392              	.LCFI178:
 6393              		.cfi_def_cfa_offset 16
 6394 0004 00AF     		add	r7, sp, #0
 6395              	.LCFI179:
 6396              		.cfi_def_cfa_register 7
 6397 0006 7860     		str	r0, [r7, #4]
2698:Drivers/STM32F4xx_HAL_Driver/Src/stm32f4xx_hal_uart.c ****   /* Prevent unused argument(s) compilation warning */
2699:Drivers/STM32F4xx_HAL_Driver/Src/stm32f4xx_hal_uart.c ****   UNUSED(huart);
2700:Drivers/STM32F4xx_HAL_Driver/Src/stm32f4xx_hal_uart.c **** 
2701:Drivers/STM32F4xx_HAL_Driver/Src/stm32f4xx_hal_uart.c ****   /* NOTE : This function should not be modified, when the callback is needed,
2702:Drivers/STM32F4xx_HAL_Driver/Src/stm32f4xx_hal_uart.c ****             the HAL_UART_AbortReceiveCpltCallback can be implemented in the user file.
2703:Drivers/STM32F4xx_HAL_Driver/Src/stm32f4xx_hal_uart.c ****    */
2704:Drivers/STM32F4xx_HAL_Driver/Src/stm32f4xx_hal_uart.c **** }
 6398              		.loc 1 2704 1
 6399 0008 00BF     		nop
 6400 000a 0C37     		adds	r7, r7, #12
 6401              	.LCFI180:
 6402              		.cfi_def_cfa_offset 4
 6403 000c BD46     		mov	sp, r7
 6404              	.LCFI181:
 6405              		.cfi_def_cfa_register 13
 6406              		@ sp needed
 6407 000e 5DF8047B 		ldr	r7, [sp], #4
 6408              	.LCFI182:
 6409              		.cfi_restore 7
 6410              		.cfi_def_cfa_offset 0
 6411 0012 7047     		bx	lr
 6412              		.cfi_endproc
 6413              	.LFE249:
 6415              		.section	.text.HAL_UARTEx_RxEventCallback,"ax",%progbits
 6416              		.align	1
 6417              		.weak	HAL_UARTEx_RxEventCallback
 6418              		.syntax unified
ARM GAS  /tmp/ccIpdX1g.s 			page 182


 6419              		.thumb
 6420              		.thumb_func
 6422              	HAL_UARTEx_RxEventCallback:
 6423              	.LFB250:
2705:Drivers/STM32F4xx_HAL_Driver/Src/stm32f4xx_hal_uart.c **** 
2706:Drivers/STM32F4xx_HAL_Driver/Src/stm32f4xx_hal_uart.c **** /**
2707:Drivers/STM32F4xx_HAL_Driver/Src/stm32f4xx_hal_uart.c ****   * @brief  Reception Event Callback (Rx event notification called after use of advanced reception 
2708:Drivers/STM32F4xx_HAL_Driver/Src/stm32f4xx_hal_uart.c ****   * @param  huart UART handle
2709:Drivers/STM32F4xx_HAL_Driver/Src/stm32f4xx_hal_uart.c ****   * @param  Size  Number of data available in application reception buffer (indicates a position in
2710:Drivers/STM32F4xx_HAL_Driver/Src/stm32f4xx_hal_uart.c ****   *               reception buffer until which, data are available)
2711:Drivers/STM32F4xx_HAL_Driver/Src/stm32f4xx_hal_uart.c ****   * @retval None
2712:Drivers/STM32F4xx_HAL_Driver/Src/stm32f4xx_hal_uart.c ****   */
2713:Drivers/STM32F4xx_HAL_Driver/Src/stm32f4xx_hal_uart.c **** __weak void HAL_UARTEx_RxEventCallback(UART_HandleTypeDef *huart, uint16_t Size)
2714:Drivers/STM32F4xx_HAL_Driver/Src/stm32f4xx_hal_uart.c **** {
 6424              		.loc 1 2714 1
 6425              		.cfi_startproc
 6426              		@ args = 0, pretend = 0, frame = 8
 6427              		@ frame_needed = 1, uses_anonymous_args = 0
 6428              		@ link register save eliminated.
 6429 0000 80B4     		push	{r7}
 6430              	.LCFI183:
 6431              		.cfi_def_cfa_offset 4
 6432              		.cfi_offset 7, -4
 6433 0002 83B0     		sub	sp, sp, #12
 6434              	.LCFI184:
 6435              		.cfi_def_cfa_offset 16
 6436 0004 00AF     		add	r7, sp, #0
 6437              	.LCFI185:
 6438              		.cfi_def_cfa_register 7
 6439 0006 7860     		str	r0, [r7, #4]
 6440 0008 0B46     		mov	r3, r1
 6441 000a 7B80     		strh	r3, [r7, #2]	@ movhi
2715:Drivers/STM32F4xx_HAL_Driver/Src/stm32f4xx_hal_uart.c ****   /* Prevent unused argument(s) compilation warning */
2716:Drivers/STM32F4xx_HAL_Driver/Src/stm32f4xx_hal_uart.c ****   UNUSED(huart);
2717:Drivers/STM32F4xx_HAL_Driver/Src/stm32f4xx_hal_uart.c ****   UNUSED(Size);
2718:Drivers/STM32F4xx_HAL_Driver/Src/stm32f4xx_hal_uart.c **** 
2719:Drivers/STM32F4xx_HAL_Driver/Src/stm32f4xx_hal_uart.c ****   /* NOTE : This function should not be modified, when the callback is needed,
2720:Drivers/STM32F4xx_HAL_Driver/Src/stm32f4xx_hal_uart.c ****             the HAL_UARTEx_RxEventCallback can be implemented in the user file.
2721:Drivers/STM32F4xx_HAL_Driver/Src/stm32f4xx_hal_uart.c ****    */
2722:Drivers/STM32F4xx_HAL_Driver/Src/stm32f4xx_hal_uart.c **** }
 6442              		.loc 1 2722 1
 6443 000c 00BF     		nop
 6444 000e 0C37     		adds	r7, r7, #12
 6445              	.LCFI186:
 6446              		.cfi_def_cfa_offset 4
 6447 0010 BD46     		mov	sp, r7
 6448              	.LCFI187:
 6449              		.cfi_def_cfa_register 13
 6450              		@ sp needed
 6451 0012 5DF8047B 		ldr	r7, [sp], #4
 6452              	.LCFI188:
 6453              		.cfi_restore 7
 6454              		.cfi_def_cfa_offset 0
 6455 0016 7047     		bx	lr
 6456              		.cfi_endproc
 6457              	.LFE250:
 6459              		.section	.text.HAL_LIN_SendBreak,"ax",%progbits
ARM GAS  /tmp/ccIpdX1g.s 			page 183


 6460              		.align	1
 6461              		.global	HAL_LIN_SendBreak
 6462              		.syntax unified
 6463              		.thumb
 6464              		.thumb_func
 6466              	HAL_LIN_SendBreak:
 6467              	.LFB251:
2723:Drivers/STM32F4xx_HAL_Driver/Src/stm32f4xx_hal_uart.c **** 
2724:Drivers/STM32F4xx_HAL_Driver/Src/stm32f4xx_hal_uart.c **** /**
2725:Drivers/STM32F4xx_HAL_Driver/Src/stm32f4xx_hal_uart.c ****   * @}
2726:Drivers/STM32F4xx_HAL_Driver/Src/stm32f4xx_hal_uart.c ****   */
2727:Drivers/STM32F4xx_HAL_Driver/Src/stm32f4xx_hal_uart.c **** 
2728:Drivers/STM32F4xx_HAL_Driver/Src/stm32f4xx_hal_uart.c **** /** @defgroup UART_Exported_Functions_Group3 Peripheral Control functions
2729:Drivers/STM32F4xx_HAL_Driver/Src/stm32f4xx_hal_uart.c ****   *  @brief   UART control functions
2730:Drivers/STM32F4xx_HAL_Driver/Src/stm32f4xx_hal_uart.c ****   *
2731:Drivers/STM32F4xx_HAL_Driver/Src/stm32f4xx_hal_uart.c **** @verbatim
2732:Drivers/STM32F4xx_HAL_Driver/Src/stm32f4xx_hal_uart.c ****   ==============================================================================
2733:Drivers/STM32F4xx_HAL_Driver/Src/stm32f4xx_hal_uart.c ****                       ##### Peripheral Control functions #####
2734:Drivers/STM32F4xx_HAL_Driver/Src/stm32f4xx_hal_uart.c ****   ==============================================================================
2735:Drivers/STM32F4xx_HAL_Driver/Src/stm32f4xx_hal_uart.c ****   [..]
2736:Drivers/STM32F4xx_HAL_Driver/Src/stm32f4xx_hal_uart.c ****     This subsection provides a set of functions allowing to control the UART:
2737:Drivers/STM32F4xx_HAL_Driver/Src/stm32f4xx_hal_uart.c ****     (+) HAL_LIN_SendBreak() API can be helpful to transmit the break character.
2738:Drivers/STM32F4xx_HAL_Driver/Src/stm32f4xx_hal_uart.c ****     (+) HAL_MultiProcessor_EnterMuteMode() API can be helpful to enter the UART in mute mode.
2739:Drivers/STM32F4xx_HAL_Driver/Src/stm32f4xx_hal_uart.c ****     (+) HAL_MultiProcessor_ExitMuteMode() API can be helpful to exit the UART mute mode by software
2740:Drivers/STM32F4xx_HAL_Driver/Src/stm32f4xx_hal_uart.c ****     (+) HAL_HalfDuplex_EnableTransmitter() API to enable the UART transmitter and disables the UART
2741:Drivers/STM32F4xx_HAL_Driver/Src/stm32f4xx_hal_uart.c ****     (+) HAL_HalfDuplex_EnableReceiver() API to enable the UART receiver and disables the UART trans
2742:Drivers/STM32F4xx_HAL_Driver/Src/stm32f4xx_hal_uart.c **** 
2743:Drivers/STM32F4xx_HAL_Driver/Src/stm32f4xx_hal_uart.c **** @endverbatim
2744:Drivers/STM32F4xx_HAL_Driver/Src/stm32f4xx_hal_uart.c ****   * @{
2745:Drivers/STM32F4xx_HAL_Driver/Src/stm32f4xx_hal_uart.c ****   */
2746:Drivers/STM32F4xx_HAL_Driver/Src/stm32f4xx_hal_uart.c **** 
2747:Drivers/STM32F4xx_HAL_Driver/Src/stm32f4xx_hal_uart.c **** /**
2748:Drivers/STM32F4xx_HAL_Driver/Src/stm32f4xx_hal_uart.c ****   * @brief  Transmits break characters.
2749:Drivers/STM32F4xx_HAL_Driver/Src/stm32f4xx_hal_uart.c ****   * @param  huart  Pointer to a UART_HandleTypeDef structure that contains
2750:Drivers/STM32F4xx_HAL_Driver/Src/stm32f4xx_hal_uart.c ****   *                the configuration information for the specified UART module.
2751:Drivers/STM32F4xx_HAL_Driver/Src/stm32f4xx_hal_uart.c ****   * @retval HAL status
2752:Drivers/STM32F4xx_HAL_Driver/Src/stm32f4xx_hal_uart.c ****   */
2753:Drivers/STM32F4xx_HAL_Driver/Src/stm32f4xx_hal_uart.c **** HAL_StatusTypeDef HAL_LIN_SendBreak(UART_HandleTypeDef *huart)
2754:Drivers/STM32F4xx_HAL_Driver/Src/stm32f4xx_hal_uart.c **** {
 6468              		.loc 1 2754 1
 6469              		.cfi_startproc
 6470              		@ args = 0, pretend = 0, frame = 32
 6471              		@ frame_needed = 1, uses_anonymous_args = 0
 6472              		@ link register save eliminated.
 6473 0000 80B4     		push	{r7}
 6474              	.LCFI189:
 6475              		.cfi_def_cfa_offset 4
 6476              		.cfi_offset 7, -4
 6477 0002 89B0     		sub	sp, sp, #36
 6478              	.LCFI190:
 6479              		.cfi_def_cfa_offset 40
 6480 0004 00AF     		add	r7, sp, #0
 6481              	.LCFI191:
 6482              		.cfi_def_cfa_register 7
 6483 0006 7860     		str	r0, [r7, #4]
2755:Drivers/STM32F4xx_HAL_Driver/Src/stm32f4xx_hal_uart.c ****   /* Check the parameters */
2756:Drivers/STM32F4xx_HAL_Driver/Src/stm32f4xx_hal_uart.c ****   assert_param(IS_UART_INSTANCE(huart->Instance));
ARM GAS  /tmp/ccIpdX1g.s 			page 184


2757:Drivers/STM32F4xx_HAL_Driver/Src/stm32f4xx_hal_uart.c **** 
2758:Drivers/STM32F4xx_HAL_Driver/Src/stm32f4xx_hal_uart.c ****   /* Process Locked */
2759:Drivers/STM32F4xx_HAL_Driver/Src/stm32f4xx_hal_uart.c ****   __HAL_LOCK(huart);
 6484              		.loc 1 2759 3
 6485 0008 7B68     		ldr	r3, [r7, #4]
 6486 000a 93F83C30 		ldrb	r3, [r3, #60]	@ zero_extendqisi2
 6487 000e 012B     		cmp	r3, #1
 6488 0010 01D1     		bne	.L339
 6489              		.loc 1 2759 3 is_stmt 0 discriminator 1
 6490 0012 0223     		movs	r3, #2
 6491 0014 2AE0     		b	.L340
 6492              	.L339:
 6493              		.loc 1 2759 3 discriminator 2
 6494 0016 7B68     		ldr	r3, [r7, #4]
 6495 0018 0122     		movs	r2, #1
 6496 001a 83F83C20 		strb	r2, [r3, #60]
2760:Drivers/STM32F4xx_HAL_Driver/Src/stm32f4xx_hal_uart.c **** 
2761:Drivers/STM32F4xx_HAL_Driver/Src/stm32f4xx_hal_uart.c ****   huart->gState = HAL_UART_STATE_BUSY;
 6497              		.loc 1 2761 17 is_stmt 1 discriminator 2
 6498 001e 7B68     		ldr	r3, [r7, #4]
 6499 0020 2422     		movs	r2, #36
 6500 0022 83F83D20 		strb	r2, [r3, #61]
 6501              	.L343:
 6502              	.LBB544:
2762:Drivers/STM32F4xx_HAL_Driver/Src/stm32f4xx_hal_uart.c **** 
2763:Drivers/STM32F4xx_HAL_Driver/Src/stm32f4xx_hal_uart.c ****   /* Send break characters */
2764:Drivers/STM32F4xx_HAL_Driver/Src/stm32f4xx_hal_uart.c ****   ATOMIC_SET_BIT(huart->Instance->CR1, USART_CR1_SBK);
 6503              		.loc 1 2764 3 discriminator 1
 6504 0026 7B68     		ldr	r3, [r7, #4]
 6505 0028 1B68     		ldr	r3, [r3]
 6506 002a 0C33     		adds	r3, r3, #12
 6507 002c FB60     		str	r3, [r7, #12]
 6508              	.LBB545:
 6509              	.LBB546:
1072:Drivers/CMSIS/Include/cmsis_gcc.h ****    return(result);
 6510              		.loc 2 1072 4 discriminator 1
 6511 002e FB68     		ldr	r3, [r7, #12]
 6512              		.syntax unified
 6513              	@ 1072 "Drivers/CMSIS/Include/cmsis_gcc.h" 1
 6514 0030 53E8003F 		ldrex r3, [r3]
 6515              	@ 0 "" 2
 6516              		.thumb
 6517              		.syntax unified
 6518 0034 BB60     		str	r3, [r7, #8]
1073:Drivers/CMSIS/Include/cmsis_gcc.h **** }
 6519              		.loc 2 1073 10 discriminator 1
 6520 0036 BB68     		ldr	r3, [r7, #8]
 6521              	.LBE546:
 6522              	.LBE545:
 6523              		.loc 1 2764 3 discriminator 1
 6524 0038 43F00103 		orr	r3, r3, #1
 6525 003c FB61     		str	r3, [r7, #28]
 6526 003e 7B68     		ldr	r3, [r7, #4]
 6527 0040 1B68     		ldr	r3, [r3]
 6528 0042 0C33     		adds	r3, r3, #12
 6529 0044 FA69     		ldr	r2, [r7, #28]
 6530 0046 BA61     		str	r2, [r7, #24]
ARM GAS  /tmp/ccIpdX1g.s 			page 185


 6531 0048 7B61     		str	r3, [r7, #20]
 6532              	.LBB547:
 6533              	.LBB548:
1123:Drivers/CMSIS/Include/cmsis_gcc.h ****    return(result);
 6534              		.loc 2 1123 4 discriminator 1
 6535 004a 7969     		ldr	r1, [r7, #20]
 6536 004c BA69     		ldr	r2, [r7, #24]
 6537              		.syntax unified
 6538              	@ 1123 "Drivers/CMSIS/Include/cmsis_gcc.h" 1
 6539 004e 41E80023 		strex r3, r2, [r1]
 6540              	@ 0 "" 2
 6541              		.thumb
 6542              		.syntax unified
 6543 0052 3B61     		str	r3, [r7, #16]
 6544              		.loc 2 1124 10 discriminator 1
 6545 0054 3B69     		ldr	r3, [r7, #16]
 6546              	.LBE548:
 6547              	.LBE547:
 6548              		.loc 1 2764 3 discriminator 1
 6549 0056 002B     		cmp	r3, #0
 6550 0058 E5D1     		bne	.L343
 6551              	.LBE544:
2765:Drivers/STM32F4xx_HAL_Driver/Src/stm32f4xx_hal_uart.c **** 
2766:Drivers/STM32F4xx_HAL_Driver/Src/stm32f4xx_hal_uart.c ****   huart->gState = HAL_UART_STATE_READY;
 6552              		.loc 1 2766 17
 6553 005a 7B68     		ldr	r3, [r7, #4]
 6554 005c 2022     		movs	r2, #32
 6555 005e 83F83D20 		strb	r2, [r3, #61]
2767:Drivers/STM32F4xx_HAL_Driver/Src/stm32f4xx_hal_uart.c **** 
2768:Drivers/STM32F4xx_HAL_Driver/Src/stm32f4xx_hal_uart.c ****   /* Process Unlocked */
2769:Drivers/STM32F4xx_HAL_Driver/Src/stm32f4xx_hal_uart.c ****   __HAL_UNLOCK(huart);
 6556              		.loc 1 2769 3
 6557 0062 7B68     		ldr	r3, [r7, #4]
 6558 0064 0022     		movs	r2, #0
 6559 0066 83F83C20 		strb	r2, [r3, #60]
2770:Drivers/STM32F4xx_HAL_Driver/Src/stm32f4xx_hal_uart.c **** 
2771:Drivers/STM32F4xx_HAL_Driver/Src/stm32f4xx_hal_uart.c ****   return HAL_OK;
 6560              		.loc 1 2771 10
 6561 006a 0023     		movs	r3, #0
 6562              	.L340:
2772:Drivers/STM32F4xx_HAL_Driver/Src/stm32f4xx_hal_uart.c **** }
 6563              		.loc 1 2772 1
 6564 006c 1846     		mov	r0, r3
 6565 006e 2437     		adds	r7, r7, #36
 6566              	.LCFI192:
 6567              		.cfi_def_cfa_offset 4
 6568 0070 BD46     		mov	sp, r7
 6569              	.LCFI193:
 6570              		.cfi_def_cfa_register 13
 6571              		@ sp needed
 6572 0072 5DF8047B 		ldr	r7, [sp], #4
 6573              	.LCFI194:
 6574              		.cfi_restore 7
 6575              		.cfi_def_cfa_offset 0
 6576 0076 7047     		bx	lr
 6577              		.cfi_endproc
 6578              	.LFE251:
ARM GAS  /tmp/ccIpdX1g.s 			page 186


 6580              		.section	.text.HAL_MultiProcessor_EnterMuteMode,"ax",%progbits
 6581              		.align	1
 6582              		.global	HAL_MultiProcessor_EnterMuteMode
 6583              		.syntax unified
 6584              		.thumb
 6585              		.thumb_func
 6587              	HAL_MultiProcessor_EnterMuteMode:
 6588              	.LFB252:
2773:Drivers/STM32F4xx_HAL_Driver/Src/stm32f4xx_hal_uart.c **** 
2774:Drivers/STM32F4xx_HAL_Driver/Src/stm32f4xx_hal_uart.c **** /**
2775:Drivers/STM32F4xx_HAL_Driver/Src/stm32f4xx_hal_uart.c ****   * @brief  Enters the UART in mute mode.
2776:Drivers/STM32F4xx_HAL_Driver/Src/stm32f4xx_hal_uart.c ****   * @param  huart  Pointer to a UART_HandleTypeDef structure that contains
2777:Drivers/STM32F4xx_HAL_Driver/Src/stm32f4xx_hal_uart.c ****   *                the configuration information for the specified UART module.
2778:Drivers/STM32F4xx_HAL_Driver/Src/stm32f4xx_hal_uart.c ****   * @retval HAL status
2779:Drivers/STM32F4xx_HAL_Driver/Src/stm32f4xx_hal_uart.c ****   */
2780:Drivers/STM32F4xx_HAL_Driver/Src/stm32f4xx_hal_uart.c **** HAL_StatusTypeDef HAL_MultiProcessor_EnterMuteMode(UART_HandleTypeDef *huart)
2781:Drivers/STM32F4xx_HAL_Driver/Src/stm32f4xx_hal_uart.c **** {
 6589              		.loc 1 2781 1
 6590              		.cfi_startproc
 6591              		@ args = 0, pretend = 0, frame = 32
 6592              		@ frame_needed = 1, uses_anonymous_args = 0
 6593              		@ link register save eliminated.
 6594 0000 80B4     		push	{r7}
 6595              	.LCFI195:
 6596              		.cfi_def_cfa_offset 4
 6597              		.cfi_offset 7, -4
 6598 0002 89B0     		sub	sp, sp, #36
 6599              	.LCFI196:
 6600              		.cfi_def_cfa_offset 40
 6601 0004 00AF     		add	r7, sp, #0
 6602              	.LCFI197:
 6603              		.cfi_def_cfa_register 7
 6604 0006 7860     		str	r0, [r7, #4]
2782:Drivers/STM32F4xx_HAL_Driver/Src/stm32f4xx_hal_uart.c ****   /* Check the parameters */
2783:Drivers/STM32F4xx_HAL_Driver/Src/stm32f4xx_hal_uart.c ****   assert_param(IS_UART_INSTANCE(huart->Instance));
2784:Drivers/STM32F4xx_HAL_Driver/Src/stm32f4xx_hal_uart.c **** 
2785:Drivers/STM32F4xx_HAL_Driver/Src/stm32f4xx_hal_uart.c ****   /* Process Locked */
2786:Drivers/STM32F4xx_HAL_Driver/Src/stm32f4xx_hal_uart.c ****   __HAL_LOCK(huart);
 6605              		.loc 1 2786 3
 6606 0008 7B68     		ldr	r3, [r7, #4]
 6607 000a 93F83C30 		ldrb	r3, [r3, #60]	@ zero_extendqisi2
 6608 000e 012B     		cmp	r3, #1
 6609 0010 01D1     		bne	.L345
 6610              		.loc 1 2786 3 is_stmt 0 discriminator 1
 6611 0012 0223     		movs	r3, #2
 6612 0014 2AE0     		b	.L346
 6613              	.L345:
 6614              		.loc 1 2786 3 discriminator 2
 6615 0016 7B68     		ldr	r3, [r7, #4]
 6616 0018 0122     		movs	r2, #1
 6617 001a 83F83C20 		strb	r2, [r3, #60]
2787:Drivers/STM32F4xx_HAL_Driver/Src/stm32f4xx_hal_uart.c **** 
2788:Drivers/STM32F4xx_HAL_Driver/Src/stm32f4xx_hal_uart.c ****   huart->gState = HAL_UART_STATE_BUSY;
 6618              		.loc 1 2788 17 is_stmt 1 discriminator 2
 6619 001e 7B68     		ldr	r3, [r7, #4]
 6620 0020 2422     		movs	r2, #36
 6621 0022 83F83D20 		strb	r2, [r3, #61]
ARM GAS  /tmp/ccIpdX1g.s 			page 187


 6622              	.L349:
 6623              	.LBB549:
2789:Drivers/STM32F4xx_HAL_Driver/Src/stm32f4xx_hal_uart.c **** 
2790:Drivers/STM32F4xx_HAL_Driver/Src/stm32f4xx_hal_uart.c ****   /* Enable the USART mute mode  by setting the RWU bit in the CR1 register */
2791:Drivers/STM32F4xx_HAL_Driver/Src/stm32f4xx_hal_uart.c ****   ATOMIC_SET_BIT(huart->Instance->CR1, USART_CR1_RWU);
 6624              		.loc 1 2791 3 discriminator 1
 6625 0026 7B68     		ldr	r3, [r7, #4]
 6626 0028 1B68     		ldr	r3, [r3]
 6627 002a 0C33     		adds	r3, r3, #12
 6628 002c FB60     		str	r3, [r7, #12]
 6629              	.LBB550:
 6630              	.LBB551:
1072:Drivers/CMSIS/Include/cmsis_gcc.h ****    return(result);
 6631              		.loc 2 1072 4 discriminator 1
 6632 002e FB68     		ldr	r3, [r7, #12]
 6633              		.syntax unified
 6634              	@ 1072 "Drivers/CMSIS/Include/cmsis_gcc.h" 1
 6635 0030 53E8003F 		ldrex r3, [r3]
 6636              	@ 0 "" 2
 6637              		.thumb
 6638              		.syntax unified
 6639 0034 BB60     		str	r3, [r7, #8]
1073:Drivers/CMSIS/Include/cmsis_gcc.h **** }
 6640              		.loc 2 1073 10 discriminator 1
 6641 0036 BB68     		ldr	r3, [r7, #8]
 6642              	.LBE551:
 6643              	.LBE550:
 6644              		.loc 1 2791 3 discriminator 1
 6645 0038 43F00203 		orr	r3, r3, #2
 6646 003c FB61     		str	r3, [r7, #28]
 6647 003e 7B68     		ldr	r3, [r7, #4]
 6648 0040 1B68     		ldr	r3, [r3]
 6649 0042 0C33     		adds	r3, r3, #12
 6650 0044 FA69     		ldr	r2, [r7, #28]
 6651 0046 BA61     		str	r2, [r7, #24]
 6652 0048 7B61     		str	r3, [r7, #20]
 6653              	.LBB552:
 6654              	.LBB553:
1123:Drivers/CMSIS/Include/cmsis_gcc.h ****    return(result);
 6655              		.loc 2 1123 4 discriminator 1
 6656 004a 7969     		ldr	r1, [r7, #20]
 6657 004c BA69     		ldr	r2, [r7, #24]
 6658              		.syntax unified
 6659              	@ 1123 "Drivers/CMSIS/Include/cmsis_gcc.h" 1
 6660 004e 41E80023 		strex r3, r2, [r1]
 6661              	@ 0 "" 2
 6662              		.thumb
 6663              		.syntax unified
 6664 0052 3B61     		str	r3, [r7, #16]
 6665              		.loc 2 1124 10 discriminator 1
 6666 0054 3B69     		ldr	r3, [r7, #16]
 6667              	.LBE553:
 6668              	.LBE552:
 6669              		.loc 1 2791 3 discriminator 1
 6670 0056 002B     		cmp	r3, #0
 6671 0058 E5D1     		bne	.L349
 6672              	.LBE549:
ARM GAS  /tmp/ccIpdX1g.s 			page 188


2792:Drivers/STM32F4xx_HAL_Driver/Src/stm32f4xx_hal_uart.c **** 
2793:Drivers/STM32F4xx_HAL_Driver/Src/stm32f4xx_hal_uart.c ****   huart->gState = HAL_UART_STATE_READY;
 6673              		.loc 1 2793 17
 6674 005a 7B68     		ldr	r3, [r7, #4]
 6675 005c 2022     		movs	r2, #32
 6676 005e 83F83D20 		strb	r2, [r3, #61]
2794:Drivers/STM32F4xx_HAL_Driver/Src/stm32f4xx_hal_uart.c **** 
2795:Drivers/STM32F4xx_HAL_Driver/Src/stm32f4xx_hal_uart.c ****   /* Process Unlocked */
2796:Drivers/STM32F4xx_HAL_Driver/Src/stm32f4xx_hal_uart.c ****   __HAL_UNLOCK(huart);
 6677              		.loc 1 2796 3
 6678 0062 7B68     		ldr	r3, [r7, #4]
 6679 0064 0022     		movs	r2, #0
 6680 0066 83F83C20 		strb	r2, [r3, #60]
2797:Drivers/STM32F4xx_HAL_Driver/Src/stm32f4xx_hal_uart.c **** 
2798:Drivers/STM32F4xx_HAL_Driver/Src/stm32f4xx_hal_uart.c ****   return HAL_OK;
 6681              		.loc 1 2798 10
 6682 006a 0023     		movs	r3, #0
 6683              	.L346:
2799:Drivers/STM32F4xx_HAL_Driver/Src/stm32f4xx_hal_uart.c **** }
 6684              		.loc 1 2799 1
 6685 006c 1846     		mov	r0, r3
 6686 006e 2437     		adds	r7, r7, #36
 6687              	.LCFI198:
 6688              		.cfi_def_cfa_offset 4
 6689 0070 BD46     		mov	sp, r7
 6690              	.LCFI199:
 6691              		.cfi_def_cfa_register 13
 6692              		@ sp needed
 6693 0072 5DF8047B 		ldr	r7, [sp], #4
 6694              	.LCFI200:
 6695              		.cfi_restore 7
 6696              		.cfi_def_cfa_offset 0
 6697 0076 7047     		bx	lr
 6698              		.cfi_endproc
 6699              	.LFE252:
 6701              		.section	.text.HAL_MultiProcessor_ExitMuteMode,"ax",%progbits
 6702              		.align	1
 6703              		.global	HAL_MultiProcessor_ExitMuteMode
 6704              		.syntax unified
 6705              		.thumb
 6706              		.thumb_func
 6708              	HAL_MultiProcessor_ExitMuteMode:
 6709              	.LFB253:
2800:Drivers/STM32F4xx_HAL_Driver/Src/stm32f4xx_hal_uart.c **** 
2801:Drivers/STM32F4xx_HAL_Driver/Src/stm32f4xx_hal_uart.c **** /**
2802:Drivers/STM32F4xx_HAL_Driver/Src/stm32f4xx_hal_uart.c ****   * @brief  Exits the UART mute mode: wake up software.
2803:Drivers/STM32F4xx_HAL_Driver/Src/stm32f4xx_hal_uart.c ****   * @param  huart  Pointer to a UART_HandleTypeDef structure that contains
2804:Drivers/STM32F4xx_HAL_Driver/Src/stm32f4xx_hal_uart.c ****   *                the configuration information for the specified UART module.
2805:Drivers/STM32F4xx_HAL_Driver/Src/stm32f4xx_hal_uart.c ****   * @retval HAL status
2806:Drivers/STM32F4xx_HAL_Driver/Src/stm32f4xx_hal_uart.c ****   */
2807:Drivers/STM32F4xx_HAL_Driver/Src/stm32f4xx_hal_uart.c **** HAL_StatusTypeDef HAL_MultiProcessor_ExitMuteMode(UART_HandleTypeDef *huart)
2808:Drivers/STM32F4xx_HAL_Driver/Src/stm32f4xx_hal_uart.c **** {
 6710              		.loc 1 2808 1
 6711              		.cfi_startproc
 6712              		@ args = 0, pretend = 0, frame = 32
 6713              		@ frame_needed = 1, uses_anonymous_args = 0
 6714              		@ link register save eliminated.
ARM GAS  /tmp/ccIpdX1g.s 			page 189


 6715 0000 80B4     		push	{r7}
 6716              	.LCFI201:
 6717              		.cfi_def_cfa_offset 4
 6718              		.cfi_offset 7, -4
 6719 0002 89B0     		sub	sp, sp, #36
 6720              	.LCFI202:
 6721              		.cfi_def_cfa_offset 40
 6722 0004 00AF     		add	r7, sp, #0
 6723              	.LCFI203:
 6724              		.cfi_def_cfa_register 7
 6725 0006 7860     		str	r0, [r7, #4]
2809:Drivers/STM32F4xx_HAL_Driver/Src/stm32f4xx_hal_uart.c ****   /* Check the parameters */
2810:Drivers/STM32F4xx_HAL_Driver/Src/stm32f4xx_hal_uart.c ****   assert_param(IS_UART_INSTANCE(huart->Instance));
2811:Drivers/STM32F4xx_HAL_Driver/Src/stm32f4xx_hal_uart.c **** 
2812:Drivers/STM32F4xx_HAL_Driver/Src/stm32f4xx_hal_uart.c ****   /* Process Locked */
2813:Drivers/STM32F4xx_HAL_Driver/Src/stm32f4xx_hal_uart.c ****   __HAL_LOCK(huart);
 6726              		.loc 1 2813 3
 6727 0008 7B68     		ldr	r3, [r7, #4]
 6728 000a 93F83C30 		ldrb	r3, [r3, #60]	@ zero_extendqisi2
 6729 000e 012B     		cmp	r3, #1
 6730 0010 01D1     		bne	.L351
 6731              		.loc 1 2813 3 is_stmt 0 discriminator 1
 6732 0012 0223     		movs	r3, #2
 6733 0014 2AE0     		b	.L352
 6734              	.L351:
 6735              		.loc 1 2813 3 discriminator 2
 6736 0016 7B68     		ldr	r3, [r7, #4]
 6737 0018 0122     		movs	r2, #1
 6738 001a 83F83C20 		strb	r2, [r3, #60]
2814:Drivers/STM32F4xx_HAL_Driver/Src/stm32f4xx_hal_uart.c **** 
2815:Drivers/STM32F4xx_HAL_Driver/Src/stm32f4xx_hal_uart.c ****   huart->gState = HAL_UART_STATE_BUSY;
 6739              		.loc 1 2815 17 is_stmt 1 discriminator 2
 6740 001e 7B68     		ldr	r3, [r7, #4]
 6741 0020 2422     		movs	r2, #36
 6742 0022 83F83D20 		strb	r2, [r3, #61]
 6743              	.L355:
 6744              	.LBB554:
2816:Drivers/STM32F4xx_HAL_Driver/Src/stm32f4xx_hal_uart.c **** 
2817:Drivers/STM32F4xx_HAL_Driver/Src/stm32f4xx_hal_uart.c ****   /* Disable the USART mute mode by clearing the RWU bit in the CR1 register */
2818:Drivers/STM32F4xx_HAL_Driver/Src/stm32f4xx_hal_uart.c ****   ATOMIC_CLEAR_BIT(huart->Instance->CR1, USART_CR1_RWU);
 6745              		.loc 1 2818 3 discriminator 1
 6746 0026 7B68     		ldr	r3, [r7, #4]
 6747 0028 1B68     		ldr	r3, [r3]
 6748 002a 0C33     		adds	r3, r3, #12
 6749 002c FB60     		str	r3, [r7, #12]
 6750              	.LBB555:
 6751              	.LBB556:
1072:Drivers/CMSIS/Include/cmsis_gcc.h ****    return(result);
 6752              		.loc 2 1072 4 discriminator 1
 6753 002e FB68     		ldr	r3, [r7, #12]
 6754              		.syntax unified
 6755              	@ 1072 "Drivers/CMSIS/Include/cmsis_gcc.h" 1
 6756 0030 53E8003F 		ldrex r3, [r3]
 6757              	@ 0 "" 2
 6758              		.thumb
 6759              		.syntax unified
 6760 0034 BB60     		str	r3, [r7, #8]
ARM GAS  /tmp/ccIpdX1g.s 			page 190


1073:Drivers/CMSIS/Include/cmsis_gcc.h **** }
 6761              		.loc 2 1073 10 discriminator 1
 6762 0036 BB68     		ldr	r3, [r7, #8]
 6763              	.LBE556:
 6764              	.LBE555:
 6765              		.loc 1 2818 3 discriminator 1
 6766 0038 23F00203 		bic	r3, r3, #2
 6767 003c FB61     		str	r3, [r7, #28]
 6768 003e 7B68     		ldr	r3, [r7, #4]
 6769 0040 1B68     		ldr	r3, [r3]
 6770 0042 0C33     		adds	r3, r3, #12
 6771 0044 FA69     		ldr	r2, [r7, #28]
 6772 0046 BA61     		str	r2, [r7, #24]
 6773 0048 7B61     		str	r3, [r7, #20]
 6774              	.LBB557:
 6775              	.LBB558:
1123:Drivers/CMSIS/Include/cmsis_gcc.h ****    return(result);
 6776              		.loc 2 1123 4 discriminator 1
 6777 004a 7969     		ldr	r1, [r7, #20]
 6778 004c BA69     		ldr	r2, [r7, #24]
 6779              		.syntax unified
 6780              	@ 1123 "Drivers/CMSIS/Include/cmsis_gcc.h" 1
 6781 004e 41E80023 		strex r3, r2, [r1]
 6782              	@ 0 "" 2
 6783              		.thumb
 6784              		.syntax unified
 6785 0052 3B61     		str	r3, [r7, #16]
 6786              		.loc 2 1124 10 discriminator 1
 6787 0054 3B69     		ldr	r3, [r7, #16]
 6788              	.LBE558:
 6789              	.LBE557:
 6790              		.loc 1 2818 3 discriminator 1
 6791 0056 002B     		cmp	r3, #0
 6792 0058 E5D1     		bne	.L355
 6793              	.LBE554:
2819:Drivers/STM32F4xx_HAL_Driver/Src/stm32f4xx_hal_uart.c **** 
2820:Drivers/STM32F4xx_HAL_Driver/Src/stm32f4xx_hal_uart.c ****   huart->gState = HAL_UART_STATE_READY;
 6794              		.loc 1 2820 17
 6795 005a 7B68     		ldr	r3, [r7, #4]
 6796 005c 2022     		movs	r2, #32
 6797 005e 83F83D20 		strb	r2, [r3, #61]
2821:Drivers/STM32F4xx_HAL_Driver/Src/stm32f4xx_hal_uart.c **** 
2822:Drivers/STM32F4xx_HAL_Driver/Src/stm32f4xx_hal_uart.c ****   /* Process Unlocked */
2823:Drivers/STM32F4xx_HAL_Driver/Src/stm32f4xx_hal_uart.c ****   __HAL_UNLOCK(huart);
 6798              		.loc 1 2823 3
 6799 0062 7B68     		ldr	r3, [r7, #4]
 6800 0064 0022     		movs	r2, #0
 6801 0066 83F83C20 		strb	r2, [r3, #60]
2824:Drivers/STM32F4xx_HAL_Driver/Src/stm32f4xx_hal_uart.c **** 
2825:Drivers/STM32F4xx_HAL_Driver/Src/stm32f4xx_hal_uart.c ****   return HAL_OK;
 6802              		.loc 1 2825 10
 6803 006a 0023     		movs	r3, #0
 6804              	.L352:
2826:Drivers/STM32F4xx_HAL_Driver/Src/stm32f4xx_hal_uart.c **** }
 6805              		.loc 1 2826 1
 6806 006c 1846     		mov	r0, r3
 6807 006e 2437     		adds	r7, r7, #36
ARM GAS  /tmp/ccIpdX1g.s 			page 191


 6808              	.LCFI204:
 6809              		.cfi_def_cfa_offset 4
 6810 0070 BD46     		mov	sp, r7
 6811              	.LCFI205:
 6812              		.cfi_def_cfa_register 13
 6813              		@ sp needed
 6814 0072 5DF8047B 		ldr	r7, [sp], #4
 6815              	.LCFI206:
 6816              		.cfi_restore 7
 6817              		.cfi_def_cfa_offset 0
 6818 0076 7047     		bx	lr
 6819              		.cfi_endproc
 6820              	.LFE253:
 6822              		.section	.text.HAL_HalfDuplex_EnableTransmitter,"ax",%progbits
 6823              		.align	1
 6824              		.global	HAL_HalfDuplex_EnableTransmitter
 6825              		.syntax unified
 6826              		.thumb
 6827              		.thumb_func
 6829              	HAL_HalfDuplex_EnableTransmitter:
 6830              	.LFB254:
2827:Drivers/STM32F4xx_HAL_Driver/Src/stm32f4xx_hal_uart.c **** 
2828:Drivers/STM32F4xx_HAL_Driver/Src/stm32f4xx_hal_uart.c **** /**
2829:Drivers/STM32F4xx_HAL_Driver/Src/stm32f4xx_hal_uart.c ****   * @brief  Enables the UART transmitter and disables the UART receiver.
2830:Drivers/STM32F4xx_HAL_Driver/Src/stm32f4xx_hal_uart.c ****   * @param  huart  Pointer to a UART_HandleTypeDef structure that contains
2831:Drivers/STM32F4xx_HAL_Driver/Src/stm32f4xx_hal_uart.c ****   *                the configuration information for the specified UART module.
2832:Drivers/STM32F4xx_HAL_Driver/Src/stm32f4xx_hal_uart.c ****   * @retval HAL status
2833:Drivers/STM32F4xx_HAL_Driver/Src/stm32f4xx_hal_uart.c ****   */
2834:Drivers/STM32F4xx_HAL_Driver/Src/stm32f4xx_hal_uart.c **** HAL_StatusTypeDef HAL_HalfDuplex_EnableTransmitter(UART_HandleTypeDef *huart)
2835:Drivers/STM32F4xx_HAL_Driver/Src/stm32f4xx_hal_uart.c **** {
 6831              		.loc 1 2835 1
 6832              		.cfi_startproc
 6833              		@ args = 0, pretend = 0, frame = 16
 6834              		@ frame_needed = 1, uses_anonymous_args = 0
 6835              		@ link register save eliminated.
 6836 0000 80B4     		push	{r7}
 6837              	.LCFI207:
 6838              		.cfi_def_cfa_offset 4
 6839              		.cfi_offset 7, -4
 6840 0002 85B0     		sub	sp, sp, #20
 6841              	.LCFI208:
 6842              		.cfi_def_cfa_offset 24
 6843 0004 00AF     		add	r7, sp, #0
 6844              	.LCFI209:
 6845              		.cfi_def_cfa_register 7
 6846 0006 7860     		str	r0, [r7, #4]
2836:Drivers/STM32F4xx_HAL_Driver/Src/stm32f4xx_hal_uart.c ****   uint32_t tmpreg = 0x00U;
 6847              		.loc 1 2836 12
 6848 0008 0023     		movs	r3, #0
 6849 000a FB60     		str	r3, [r7, #12]
2837:Drivers/STM32F4xx_HAL_Driver/Src/stm32f4xx_hal_uart.c **** 
2838:Drivers/STM32F4xx_HAL_Driver/Src/stm32f4xx_hal_uart.c ****   /* Process Locked */
2839:Drivers/STM32F4xx_HAL_Driver/Src/stm32f4xx_hal_uart.c ****   __HAL_LOCK(huart);
 6850              		.loc 1 2839 3
 6851 000c 7B68     		ldr	r3, [r7, #4]
 6852 000e 93F83C30 		ldrb	r3, [r3, #60]	@ zero_extendqisi2
 6853 0012 012B     		cmp	r3, #1
ARM GAS  /tmp/ccIpdX1g.s 			page 192


 6854 0014 01D1     		bne	.L357
 6855              		.loc 1 2839 3 is_stmt 0 discriminator 1
 6856 0016 0223     		movs	r3, #2
 6857 0018 20E0     		b	.L358
 6858              	.L357:
 6859              		.loc 1 2839 3 discriminator 2
 6860 001a 7B68     		ldr	r3, [r7, #4]
 6861 001c 0122     		movs	r2, #1
 6862 001e 83F83C20 		strb	r2, [r3, #60]
2840:Drivers/STM32F4xx_HAL_Driver/Src/stm32f4xx_hal_uart.c **** 
2841:Drivers/STM32F4xx_HAL_Driver/Src/stm32f4xx_hal_uart.c ****   huart->gState = HAL_UART_STATE_BUSY;
 6863              		.loc 1 2841 17 is_stmt 1 discriminator 2
 6864 0022 7B68     		ldr	r3, [r7, #4]
 6865 0024 2422     		movs	r2, #36
 6866 0026 83F83D20 		strb	r2, [r3, #61]
2842:Drivers/STM32F4xx_HAL_Driver/Src/stm32f4xx_hal_uart.c **** 
2843:Drivers/STM32F4xx_HAL_Driver/Src/stm32f4xx_hal_uart.c ****   /*-------------------------- USART CR1 Configuration -----------------------*/
2844:Drivers/STM32F4xx_HAL_Driver/Src/stm32f4xx_hal_uart.c ****   tmpreg = huart->Instance->CR1;
 6867              		.loc 1 2844 17 discriminator 2
 6868 002a 7B68     		ldr	r3, [r7, #4]
 6869 002c 1B68     		ldr	r3, [r3]
 6870              		.loc 1 2844 10 discriminator 2
 6871 002e DB68     		ldr	r3, [r3, #12]
 6872 0030 FB60     		str	r3, [r7, #12]
2845:Drivers/STM32F4xx_HAL_Driver/Src/stm32f4xx_hal_uart.c **** 
2846:Drivers/STM32F4xx_HAL_Driver/Src/stm32f4xx_hal_uart.c ****   /* Clear TE and RE bits */
2847:Drivers/STM32F4xx_HAL_Driver/Src/stm32f4xx_hal_uart.c ****   tmpreg &= (uint32_t)~((uint32_t)(USART_CR1_TE | USART_CR1_RE));
 6873              		.loc 1 2847 10 discriminator 2
 6874 0032 FB68     		ldr	r3, [r7, #12]
 6875 0034 23F00C03 		bic	r3, r3, #12
 6876 0038 FB60     		str	r3, [r7, #12]
2848:Drivers/STM32F4xx_HAL_Driver/Src/stm32f4xx_hal_uart.c **** 
2849:Drivers/STM32F4xx_HAL_Driver/Src/stm32f4xx_hal_uart.c ****   /* Enable the USART's transmit interface by setting the TE bit in the USART CR1 register */
2850:Drivers/STM32F4xx_HAL_Driver/Src/stm32f4xx_hal_uart.c ****   tmpreg |= (uint32_t)USART_CR1_TE;
 6877              		.loc 1 2850 10 discriminator 2
 6878 003a FB68     		ldr	r3, [r7, #12]
 6879 003c 43F00803 		orr	r3, r3, #8
 6880 0040 FB60     		str	r3, [r7, #12]
2851:Drivers/STM32F4xx_HAL_Driver/Src/stm32f4xx_hal_uart.c **** 
2852:Drivers/STM32F4xx_HAL_Driver/Src/stm32f4xx_hal_uart.c ****   /* Write to USART CR1 */
2853:Drivers/STM32F4xx_HAL_Driver/Src/stm32f4xx_hal_uart.c ****   WRITE_REG(huart->Instance->CR1, (uint32_t)tmpreg);
 6881              		.loc 1 2853 3 discriminator 2
 6882 0042 7B68     		ldr	r3, [r7, #4]
 6883 0044 1B68     		ldr	r3, [r3]
 6884 0046 FA68     		ldr	r2, [r7, #12]
 6885 0048 DA60     		str	r2, [r3, #12]
2854:Drivers/STM32F4xx_HAL_Driver/Src/stm32f4xx_hal_uart.c **** 
2855:Drivers/STM32F4xx_HAL_Driver/Src/stm32f4xx_hal_uart.c ****   huart->gState = HAL_UART_STATE_READY;
 6886              		.loc 1 2855 17 discriminator 2
 6887 004a 7B68     		ldr	r3, [r7, #4]
 6888 004c 2022     		movs	r2, #32
 6889 004e 83F83D20 		strb	r2, [r3, #61]
2856:Drivers/STM32F4xx_HAL_Driver/Src/stm32f4xx_hal_uart.c **** 
2857:Drivers/STM32F4xx_HAL_Driver/Src/stm32f4xx_hal_uart.c ****   /* Process Unlocked */
2858:Drivers/STM32F4xx_HAL_Driver/Src/stm32f4xx_hal_uart.c ****   __HAL_UNLOCK(huart);
 6890              		.loc 1 2858 3 discriminator 2
 6891 0052 7B68     		ldr	r3, [r7, #4]
ARM GAS  /tmp/ccIpdX1g.s 			page 193


 6892 0054 0022     		movs	r2, #0
 6893 0056 83F83C20 		strb	r2, [r3, #60]
2859:Drivers/STM32F4xx_HAL_Driver/Src/stm32f4xx_hal_uart.c **** 
2860:Drivers/STM32F4xx_HAL_Driver/Src/stm32f4xx_hal_uart.c ****   return HAL_OK;
 6894              		.loc 1 2860 10 discriminator 2
 6895 005a 0023     		movs	r3, #0
 6896              	.L358:
2861:Drivers/STM32F4xx_HAL_Driver/Src/stm32f4xx_hal_uart.c **** }
 6897              		.loc 1 2861 1
 6898 005c 1846     		mov	r0, r3
 6899 005e 1437     		adds	r7, r7, #20
 6900              	.LCFI210:
 6901              		.cfi_def_cfa_offset 4
 6902 0060 BD46     		mov	sp, r7
 6903              	.LCFI211:
 6904              		.cfi_def_cfa_register 13
 6905              		@ sp needed
 6906 0062 5DF8047B 		ldr	r7, [sp], #4
 6907              	.LCFI212:
 6908              		.cfi_restore 7
 6909              		.cfi_def_cfa_offset 0
 6910 0066 7047     		bx	lr
 6911              		.cfi_endproc
 6912              	.LFE254:
 6914              		.section	.text.HAL_HalfDuplex_EnableReceiver,"ax",%progbits
 6915              		.align	1
 6916              		.global	HAL_HalfDuplex_EnableReceiver
 6917              		.syntax unified
 6918              		.thumb
 6919              		.thumb_func
 6921              	HAL_HalfDuplex_EnableReceiver:
 6922              	.LFB255:
2862:Drivers/STM32F4xx_HAL_Driver/Src/stm32f4xx_hal_uart.c **** 
2863:Drivers/STM32F4xx_HAL_Driver/Src/stm32f4xx_hal_uart.c **** /**
2864:Drivers/STM32F4xx_HAL_Driver/Src/stm32f4xx_hal_uart.c ****   * @brief  Enables the UART receiver and disables the UART transmitter.
2865:Drivers/STM32F4xx_HAL_Driver/Src/stm32f4xx_hal_uart.c ****   * @param  huart  Pointer to a UART_HandleTypeDef structure that contains
2866:Drivers/STM32F4xx_HAL_Driver/Src/stm32f4xx_hal_uart.c ****   *                the configuration information for the specified UART module.
2867:Drivers/STM32F4xx_HAL_Driver/Src/stm32f4xx_hal_uart.c ****   * @retval HAL status
2868:Drivers/STM32F4xx_HAL_Driver/Src/stm32f4xx_hal_uart.c ****   */
2869:Drivers/STM32F4xx_HAL_Driver/Src/stm32f4xx_hal_uart.c **** HAL_StatusTypeDef HAL_HalfDuplex_EnableReceiver(UART_HandleTypeDef *huart)
2870:Drivers/STM32F4xx_HAL_Driver/Src/stm32f4xx_hal_uart.c **** {
 6923              		.loc 1 2870 1
 6924              		.cfi_startproc
 6925              		@ args = 0, pretend = 0, frame = 16
 6926              		@ frame_needed = 1, uses_anonymous_args = 0
 6927              		@ link register save eliminated.
 6928 0000 80B4     		push	{r7}
 6929              	.LCFI213:
 6930              		.cfi_def_cfa_offset 4
 6931              		.cfi_offset 7, -4
 6932 0002 85B0     		sub	sp, sp, #20
 6933              	.LCFI214:
 6934              		.cfi_def_cfa_offset 24
 6935 0004 00AF     		add	r7, sp, #0
 6936              	.LCFI215:
 6937              		.cfi_def_cfa_register 7
 6938 0006 7860     		str	r0, [r7, #4]
ARM GAS  /tmp/ccIpdX1g.s 			page 194


2871:Drivers/STM32F4xx_HAL_Driver/Src/stm32f4xx_hal_uart.c ****   uint32_t tmpreg = 0x00U;
 6939              		.loc 1 2871 12
 6940 0008 0023     		movs	r3, #0
 6941 000a FB60     		str	r3, [r7, #12]
2872:Drivers/STM32F4xx_HAL_Driver/Src/stm32f4xx_hal_uart.c **** 
2873:Drivers/STM32F4xx_HAL_Driver/Src/stm32f4xx_hal_uart.c ****   /* Process Locked */
2874:Drivers/STM32F4xx_HAL_Driver/Src/stm32f4xx_hal_uart.c ****   __HAL_LOCK(huart);
 6942              		.loc 1 2874 3
 6943 000c 7B68     		ldr	r3, [r7, #4]
 6944 000e 93F83C30 		ldrb	r3, [r3, #60]	@ zero_extendqisi2
 6945 0012 012B     		cmp	r3, #1
 6946 0014 01D1     		bne	.L360
 6947              		.loc 1 2874 3 is_stmt 0 discriminator 1
 6948 0016 0223     		movs	r3, #2
 6949 0018 20E0     		b	.L361
 6950              	.L360:
 6951              		.loc 1 2874 3 discriminator 2
 6952 001a 7B68     		ldr	r3, [r7, #4]
 6953 001c 0122     		movs	r2, #1
 6954 001e 83F83C20 		strb	r2, [r3, #60]
2875:Drivers/STM32F4xx_HAL_Driver/Src/stm32f4xx_hal_uart.c **** 
2876:Drivers/STM32F4xx_HAL_Driver/Src/stm32f4xx_hal_uart.c ****   huart->gState = HAL_UART_STATE_BUSY;
 6955              		.loc 1 2876 17 is_stmt 1 discriminator 2
 6956 0022 7B68     		ldr	r3, [r7, #4]
 6957 0024 2422     		movs	r2, #36
 6958 0026 83F83D20 		strb	r2, [r3, #61]
2877:Drivers/STM32F4xx_HAL_Driver/Src/stm32f4xx_hal_uart.c **** 
2878:Drivers/STM32F4xx_HAL_Driver/Src/stm32f4xx_hal_uart.c ****   /*-------------------------- USART CR1 Configuration -----------------------*/
2879:Drivers/STM32F4xx_HAL_Driver/Src/stm32f4xx_hal_uart.c ****   tmpreg = huart->Instance->CR1;
 6959              		.loc 1 2879 17 discriminator 2
 6960 002a 7B68     		ldr	r3, [r7, #4]
 6961 002c 1B68     		ldr	r3, [r3]
 6962              		.loc 1 2879 10 discriminator 2
 6963 002e DB68     		ldr	r3, [r3, #12]
 6964 0030 FB60     		str	r3, [r7, #12]
2880:Drivers/STM32F4xx_HAL_Driver/Src/stm32f4xx_hal_uart.c **** 
2881:Drivers/STM32F4xx_HAL_Driver/Src/stm32f4xx_hal_uart.c ****   /* Clear TE and RE bits */
2882:Drivers/STM32F4xx_HAL_Driver/Src/stm32f4xx_hal_uart.c ****   tmpreg &= (uint32_t)~((uint32_t)(USART_CR1_TE | USART_CR1_RE));
 6965              		.loc 1 2882 10 discriminator 2
 6966 0032 FB68     		ldr	r3, [r7, #12]
 6967 0034 23F00C03 		bic	r3, r3, #12
 6968 0038 FB60     		str	r3, [r7, #12]
2883:Drivers/STM32F4xx_HAL_Driver/Src/stm32f4xx_hal_uart.c **** 
2884:Drivers/STM32F4xx_HAL_Driver/Src/stm32f4xx_hal_uart.c ****   /* Enable the USART's receive interface by setting the RE bit in the USART CR1 register */
2885:Drivers/STM32F4xx_HAL_Driver/Src/stm32f4xx_hal_uart.c ****   tmpreg |= (uint32_t)USART_CR1_RE;
 6969              		.loc 1 2885 10 discriminator 2
 6970 003a FB68     		ldr	r3, [r7, #12]
 6971 003c 43F00403 		orr	r3, r3, #4
 6972 0040 FB60     		str	r3, [r7, #12]
2886:Drivers/STM32F4xx_HAL_Driver/Src/stm32f4xx_hal_uart.c **** 
2887:Drivers/STM32F4xx_HAL_Driver/Src/stm32f4xx_hal_uart.c ****   /* Write to USART CR1 */
2888:Drivers/STM32F4xx_HAL_Driver/Src/stm32f4xx_hal_uart.c ****   WRITE_REG(huart->Instance->CR1, (uint32_t)tmpreg);
 6973              		.loc 1 2888 3 discriminator 2
 6974 0042 7B68     		ldr	r3, [r7, #4]
 6975 0044 1B68     		ldr	r3, [r3]
 6976 0046 FA68     		ldr	r2, [r7, #12]
 6977 0048 DA60     		str	r2, [r3, #12]
ARM GAS  /tmp/ccIpdX1g.s 			page 195


2889:Drivers/STM32F4xx_HAL_Driver/Src/stm32f4xx_hal_uart.c **** 
2890:Drivers/STM32F4xx_HAL_Driver/Src/stm32f4xx_hal_uart.c ****   huart->gState = HAL_UART_STATE_READY;
 6978              		.loc 1 2890 17 discriminator 2
 6979 004a 7B68     		ldr	r3, [r7, #4]
 6980 004c 2022     		movs	r2, #32
 6981 004e 83F83D20 		strb	r2, [r3, #61]
2891:Drivers/STM32F4xx_HAL_Driver/Src/stm32f4xx_hal_uart.c **** 
2892:Drivers/STM32F4xx_HAL_Driver/Src/stm32f4xx_hal_uart.c ****   /* Process Unlocked */
2893:Drivers/STM32F4xx_HAL_Driver/Src/stm32f4xx_hal_uart.c ****   __HAL_UNLOCK(huart);
 6982              		.loc 1 2893 3 discriminator 2
 6983 0052 7B68     		ldr	r3, [r7, #4]
 6984 0054 0022     		movs	r2, #0
 6985 0056 83F83C20 		strb	r2, [r3, #60]
2894:Drivers/STM32F4xx_HAL_Driver/Src/stm32f4xx_hal_uart.c **** 
2895:Drivers/STM32F4xx_HAL_Driver/Src/stm32f4xx_hal_uart.c ****   return HAL_OK;
 6986              		.loc 1 2895 10 discriminator 2
 6987 005a 0023     		movs	r3, #0
 6988              	.L361:
2896:Drivers/STM32F4xx_HAL_Driver/Src/stm32f4xx_hal_uart.c **** }
 6989              		.loc 1 2896 1
 6990 005c 1846     		mov	r0, r3
 6991 005e 1437     		adds	r7, r7, #20
 6992              	.LCFI216:
 6993              		.cfi_def_cfa_offset 4
 6994 0060 BD46     		mov	sp, r7
 6995              	.LCFI217:
 6996              		.cfi_def_cfa_register 13
 6997              		@ sp needed
 6998 0062 5DF8047B 		ldr	r7, [sp], #4
 6999              	.LCFI218:
 7000              		.cfi_restore 7
 7001              		.cfi_def_cfa_offset 0
 7002 0066 7047     		bx	lr
 7003              		.cfi_endproc
 7004              	.LFE255:
 7006              		.section	.text.HAL_UART_GetState,"ax",%progbits
 7007              		.align	1
 7008              		.global	HAL_UART_GetState
 7009              		.syntax unified
 7010              		.thumb
 7011              		.thumb_func
 7013              	HAL_UART_GetState:
 7014              	.LFB256:
2897:Drivers/STM32F4xx_HAL_Driver/Src/stm32f4xx_hal_uart.c **** 
2898:Drivers/STM32F4xx_HAL_Driver/Src/stm32f4xx_hal_uart.c **** /**
2899:Drivers/STM32F4xx_HAL_Driver/Src/stm32f4xx_hal_uart.c ****   * @}
2900:Drivers/STM32F4xx_HAL_Driver/Src/stm32f4xx_hal_uart.c ****   */
2901:Drivers/STM32F4xx_HAL_Driver/Src/stm32f4xx_hal_uart.c **** 
2902:Drivers/STM32F4xx_HAL_Driver/Src/stm32f4xx_hal_uart.c **** /** @defgroup UART_Exported_Functions_Group4 Peripheral State and Errors functions
2903:Drivers/STM32F4xx_HAL_Driver/Src/stm32f4xx_hal_uart.c ****   *  @brief   UART State and Errors functions
2904:Drivers/STM32F4xx_HAL_Driver/Src/stm32f4xx_hal_uart.c ****   *
2905:Drivers/STM32F4xx_HAL_Driver/Src/stm32f4xx_hal_uart.c **** @verbatim
2906:Drivers/STM32F4xx_HAL_Driver/Src/stm32f4xx_hal_uart.c ****   ==============================================================================
2907:Drivers/STM32F4xx_HAL_Driver/Src/stm32f4xx_hal_uart.c ****                  ##### Peripheral State and Errors functions #####
2908:Drivers/STM32F4xx_HAL_Driver/Src/stm32f4xx_hal_uart.c ****   ==============================================================================
2909:Drivers/STM32F4xx_HAL_Driver/Src/stm32f4xx_hal_uart.c ****  [..]
2910:Drivers/STM32F4xx_HAL_Driver/Src/stm32f4xx_hal_uart.c ****    This subsection provides a set of functions allowing to return the State of
ARM GAS  /tmp/ccIpdX1g.s 			page 196


2911:Drivers/STM32F4xx_HAL_Driver/Src/stm32f4xx_hal_uart.c ****    UART communication process, return Peripheral Errors occurred during communication
2912:Drivers/STM32F4xx_HAL_Driver/Src/stm32f4xx_hal_uart.c ****    process
2913:Drivers/STM32F4xx_HAL_Driver/Src/stm32f4xx_hal_uart.c ****    (+) HAL_UART_GetState() API can be helpful to check in run-time the state of the UART peripheral
2914:Drivers/STM32F4xx_HAL_Driver/Src/stm32f4xx_hal_uart.c ****    (+) HAL_UART_GetError() check in run-time errors that could be occurred during communication.
2915:Drivers/STM32F4xx_HAL_Driver/Src/stm32f4xx_hal_uart.c **** 
2916:Drivers/STM32F4xx_HAL_Driver/Src/stm32f4xx_hal_uart.c **** @endverbatim
2917:Drivers/STM32F4xx_HAL_Driver/Src/stm32f4xx_hal_uart.c ****   * @{
2918:Drivers/STM32F4xx_HAL_Driver/Src/stm32f4xx_hal_uart.c ****   */
2919:Drivers/STM32F4xx_HAL_Driver/Src/stm32f4xx_hal_uart.c **** 
2920:Drivers/STM32F4xx_HAL_Driver/Src/stm32f4xx_hal_uart.c **** /**
2921:Drivers/STM32F4xx_HAL_Driver/Src/stm32f4xx_hal_uart.c ****   * @brief  Returns the UART state.
2922:Drivers/STM32F4xx_HAL_Driver/Src/stm32f4xx_hal_uart.c ****   * @param  huart  Pointer to a UART_HandleTypeDef structure that contains
2923:Drivers/STM32F4xx_HAL_Driver/Src/stm32f4xx_hal_uart.c ****   *                the configuration information for the specified UART module.
2924:Drivers/STM32F4xx_HAL_Driver/Src/stm32f4xx_hal_uart.c ****   * @retval HAL state
2925:Drivers/STM32F4xx_HAL_Driver/Src/stm32f4xx_hal_uart.c ****   */
2926:Drivers/STM32F4xx_HAL_Driver/Src/stm32f4xx_hal_uart.c **** HAL_UART_StateTypeDef HAL_UART_GetState(UART_HandleTypeDef *huart)
2927:Drivers/STM32F4xx_HAL_Driver/Src/stm32f4xx_hal_uart.c **** {
 7015              		.loc 1 2927 1
 7016              		.cfi_startproc
 7017              		@ args = 0, pretend = 0, frame = 16
 7018              		@ frame_needed = 1, uses_anonymous_args = 0
 7019              		@ link register save eliminated.
 7020 0000 80B4     		push	{r7}
 7021              	.LCFI219:
 7022              		.cfi_def_cfa_offset 4
 7023              		.cfi_offset 7, -4
 7024 0002 85B0     		sub	sp, sp, #20
 7025              	.LCFI220:
 7026              		.cfi_def_cfa_offset 24
 7027 0004 00AF     		add	r7, sp, #0
 7028              	.LCFI221:
 7029              		.cfi_def_cfa_register 7
 7030 0006 7860     		str	r0, [r7, #4]
2928:Drivers/STM32F4xx_HAL_Driver/Src/stm32f4xx_hal_uart.c ****   uint32_t temp1 = 0x00U, temp2 = 0x00U;
 7031              		.loc 1 2928 12
 7032 0008 0023     		movs	r3, #0
 7033 000a FB60     		str	r3, [r7, #12]
 7034              		.loc 1 2928 27
 7035 000c 0023     		movs	r3, #0
 7036 000e BB60     		str	r3, [r7, #8]
2929:Drivers/STM32F4xx_HAL_Driver/Src/stm32f4xx_hal_uart.c ****   temp1 = huart->gState;
 7037              		.loc 1 2929 16
 7038 0010 7B68     		ldr	r3, [r7, #4]
 7039 0012 93F83D30 		ldrb	r3, [r3, #61]
 7040 0016 DBB2     		uxtb	r3, r3
 7041              		.loc 1 2929 9
 7042 0018 FB60     		str	r3, [r7, #12]
2930:Drivers/STM32F4xx_HAL_Driver/Src/stm32f4xx_hal_uart.c ****   temp2 = huart->RxState;
 7043              		.loc 1 2930 16
 7044 001a 7B68     		ldr	r3, [r7, #4]
 7045 001c 93F83E30 		ldrb	r3, [r3, #62]
 7046 0020 DBB2     		uxtb	r3, r3
 7047              		.loc 1 2930 9
 7048 0022 BB60     		str	r3, [r7, #8]
2931:Drivers/STM32F4xx_HAL_Driver/Src/stm32f4xx_hal_uart.c **** 
2932:Drivers/STM32F4xx_HAL_Driver/Src/stm32f4xx_hal_uart.c ****   return (HAL_UART_StateTypeDef)(temp1 | temp2);
 7049              		.loc 1 2932 10
ARM GAS  /tmp/ccIpdX1g.s 			page 197


 7050 0024 FB68     		ldr	r3, [r7, #12]
 7051 0026 DAB2     		uxtb	r2, r3
 7052 0028 BB68     		ldr	r3, [r7, #8]
 7053 002a DBB2     		uxtb	r3, r3
 7054 002c 1343     		orrs	r3, r3, r2
 7055 002e DBB2     		uxtb	r3, r3
2933:Drivers/STM32F4xx_HAL_Driver/Src/stm32f4xx_hal_uart.c **** }
 7056              		.loc 1 2933 1
 7057 0030 1846     		mov	r0, r3
 7058 0032 1437     		adds	r7, r7, #20
 7059              	.LCFI222:
 7060              		.cfi_def_cfa_offset 4
 7061 0034 BD46     		mov	sp, r7
 7062              	.LCFI223:
 7063              		.cfi_def_cfa_register 13
 7064              		@ sp needed
 7065 0036 5DF8047B 		ldr	r7, [sp], #4
 7066              	.LCFI224:
 7067              		.cfi_restore 7
 7068              		.cfi_def_cfa_offset 0
 7069 003a 7047     		bx	lr
 7070              		.cfi_endproc
 7071              	.LFE256:
 7073              		.section	.text.HAL_UART_GetError,"ax",%progbits
 7074              		.align	1
 7075              		.global	HAL_UART_GetError
 7076              		.syntax unified
 7077              		.thumb
 7078              		.thumb_func
 7080              	HAL_UART_GetError:
 7081              	.LFB257:
2934:Drivers/STM32F4xx_HAL_Driver/Src/stm32f4xx_hal_uart.c **** 
2935:Drivers/STM32F4xx_HAL_Driver/Src/stm32f4xx_hal_uart.c **** /**
2936:Drivers/STM32F4xx_HAL_Driver/Src/stm32f4xx_hal_uart.c ****   * @brief  Return the UART error code
2937:Drivers/STM32F4xx_HAL_Driver/Src/stm32f4xx_hal_uart.c ****   * @param  huart Pointer to a UART_HandleTypeDef structure that contains
2938:Drivers/STM32F4xx_HAL_Driver/Src/stm32f4xx_hal_uart.c ****   *               the configuration information for the specified UART.
2939:Drivers/STM32F4xx_HAL_Driver/Src/stm32f4xx_hal_uart.c ****   * @retval UART Error Code
2940:Drivers/STM32F4xx_HAL_Driver/Src/stm32f4xx_hal_uart.c ****   */
2941:Drivers/STM32F4xx_HAL_Driver/Src/stm32f4xx_hal_uart.c **** uint32_t HAL_UART_GetError(UART_HandleTypeDef *huart)
2942:Drivers/STM32F4xx_HAL_Driver/Src/stm32f4xx_hal_uart.c **** {
 7082              		.loc 1 2942 1
 7083              		.cfi_startproc
 7084              		@ args = 0, pretend = 0, frame = 8
 7085              		@ frame_needed = 1, uses_anonymous_args = 0
 7086              		@ link register save eliminated.
 7087 0000 80B4     		push	{r7}
 7088              	.LCFI225:
 7089              		.cfi_def_cfa_offset 4
 7090              		.cfi_offset 7, -4
 7091 0002 83B0     		sub	sp, sp, #12
 7092              	.LCFI226:
 7093              		.cfi_def_cfa_offset 16
 7094 0004 00AF     		add	r7, sp, #0
 7095              	.LCFI227:
 7096              		.cfi_def_cfa_register 7
 7097 0006 7860     		str	r0, [r7, #4]
2943:Drivers/STM32F4xx_HAL_Driver/Src/stm32f4xx_hal_uart.c ****   return huart->ErrorCode;
ARM GAS  /tmp/ccIpdX1g.s 			page 198


 7098              		.loc 1 2943 15
 7099 0008 7B68     		ldr	r3, [r7, #4]
 7100 000a 1B6C     		ldr	r3, [r3, #64]
2944:Drivers/STM32F4xx_HAL_Driver/Src/stm32f4xx_hal_uart.c **** }
 7101              		.loc 1 2944 1
 7102 000c 1846     		mov	r0, r3
 7103 000e 0C37     		adds	r7, r7, #12
 7104              	.LCFI228:
 7105              		.cfi_def_cfa_offset 4
 7106 0010 BD46     		mov	sp, r7
 7107              	.LCFI229:
 7108              		.cfi_def_cfa_register 13
 7109              		@ sp needed
 7110 0012 5DF8047B 		ldr	r7, [sp], #4
 7111              	.LCFI230:
 7112              		.cfi_restore 7
 7113              		.cfi_def_cfa_offset 0
 7114 0016 7047     		bx	lr
 7115              		.cfi_endproc
 7116              	.LFE257:
 7118              		.section	.text.UART_DMATransmitCplt,"ax",%progbits
 7119              		.align	1
 7120              		.syntax unified
 7121              		.thumb
 7122              		.thumb_func
 7124              	UART_DMATransmitCplt:
 7125              	.LFB258:
2945:Drivers/STM32F4xx_HAL_Driver/Src/stm32f4xx_hal_uart.c **** 
2946:Drivers/STM32F4xx_HAL_Driver/Src/stm32f4xx_hal_uart.c **** /**
2947:Drivers/STM32F4xx_HAL_Driver/Src/stm32f4xx_hal_uart.c ****   * @}
2948:Drivers/STM32F4xx_HAL_Driver/Src/stm32f4xx_hal_uart.c ****   */
2949:Drivers/STM32F4xx_HAL_Driver/Src/stm32f4xx_hal_uart.c **** 
2950:Drivers/STM32F4xx_HAL_Driver/Src/stm32f4xx_hal_uart.c **** /**
2951:Drivers/STM32F4xx_HAL_Driver/Src/stm32f4xx_hal_uart.c ****   * @}
2952:Drivers/STM32F4xx_HAL_Driver/Src/stm32f4xx_hal_uart.c ****   */
2953:Drivers/STM32F4xx_HAL_Driver/Src/stm32f4xx_hal_uart.c **** 
2954:Drivers/STM32F4xx_HAL_Driver/Src/stm32f4xx_hal_uart.c **** /** @defgroup UART_Private_Functions UART Private Functions
2955:Drivers/STM32F4xx_HAL_Driver/Src/stm32f4xx_hal_uart.c ****   * @{
2956:Drivers/STM32F4xx_HAL_Driver/Src/stm32f4xx_hal_uart.c ****   */
2957:Drivers/STM32F4xx_HAL_Driver/Src/stm32f4xx_hal_uart.c **** 
2958:Drivers/STM32F4xx_HAL_Driver/Src/stm32f4xx_hal_uart.c **** /**
2959:Drivers/STM32F4xx_HAL_Driver/Src/stm32f4xx_hal_uart.c ****   * @brief  Initialize the callbacks to their default values.
2960:Drivers/STM32F4xx_HAL_Driver/Src/stm32f4xx_hal_uart.c ****   * @param  huart UART handle.
2961:Drivers/STM32F4xx_HAL_Driver/Src/stm32f4xx_hal_uart.c ****   * @retval none
2962:Drivers/STM32F4xx_HAL_Driver/Src/stm32f4xx_hal_uart.c ****   */
2963:Drivers/STM32F4xx_HAL_Driver/Src/stm32f4xx_hal_uart.c **** #if (USE_HAL_UART_REGISTER_CALLBACKS == 1)
2964:Drivers/STM32F4xx_HAL_Driver/Src/stm32f4xx_hal_uart.c **** void UART_InitCallbacksToDefault(UART_HandleTypeDef *huart)
2965:Drivers/STM32F4xx_HAL_Driver/Src/stm32f4xx_hal_uart.c **** {
2966:Drivers/STM32F4xx_HAL_Driver/Src/stm32f4xx_hal_uart.c ****   /* Init the UART Callback settings */
2967:Drivers/STM32F4xx_HAL_Driver/Src/stm32f4xx_hal_uart.c ****   huart->TxHalfCpltCallback        = HAL_UART_TxHalfCpltCallback;        /* Legacy weak TxHalfCpltC
2968:Drivers/STM32F4xx_HAL_Driver/Src/stm32f4xx_hal_uart.c ****   huart->TxCpltCallback            = HAL_UART_TxCpltCallback;            /* Legacy weak TxCpltCallb
2969:Drivers/STM32F4xx_HAL_Driver/Src/stm32f4xx_hal_uart.c ****   huart->RxHalfCpltCallback        = HAL_UART_RxHalfCpltCallback;        /* Legacy weak RxHalfCpltC
2970:Drivers/STM32F4xx_HAL_Driver/Src/stm32f4xx_hal_uart.c ****   huart->RxCpltCallback            = HAL_UART_RxCpltCallback;            /* Legacy weak RxCpltCallb
2971:Drivers/STM32F4xx_HAL_Driver/Src/stm32f4xx_hal_uart.c ****   huart->ErrorCallback             = HAL_UART_ErrorCallback;             /* Legacy weak ErrorCallba
2972:Drivers/STM32F4xx_HAL_Driver/Src/stm32f4xx_hal_uart.c ****   huart->AbortCpltCallback         = HAL_UART_AbortCpltCallback;         /* Legacy weak AbortCpltCa
2973:Drivers/STM32F4xx_HAL_Driver/Src/stm32f4xx_hal_uart.c ****   huart->AbortTransmitCpltCallback = HAL_UART_AbortTransmitCpltCallback; /* Legacy weak AbortTransm
2974:Drivers/STM32F4xx_HAL_Driver/Src/stm32f4xx_hal_uart.c ****   huart->AbortReceiveCpltCallback  = HAL_UART_AbortReceiveCpltCallback;  /* Legacy weak AbortReceiv
ARM GAS  /tmp/ccIpdX1g.s 			page 199


2975:Drivers/STM32F4xx_HAL_Driver/Src/stm32f4xx_hal_uart.c ****   huart->RxEventCallback           = HAL_UARTEx_RxEventCallback;         /* Legacy weak RxEventCall
2976:Drivers/STM32F4xx_HAL_Driver/Src/stm32f4xx_hal_uart.c **** 
2977:Drivers/STM32F4xx_HAL_Driver/Src/stm32f4xx_hal_uart.c **** }
2978:Drivers/STM32F4xx_HAL_Driver/Src/stm32f4xx_hal_uart.c **** #endif /* USE_HAL_UART_REGISTER_CALLBACKS */
2979:Drivers/STM32F4xx_HAL_Driver/Src/stm32f4xx_hal_uart.c **** 
2980:Drivers/STM32F4xx_HAL_Driver/Src/stm32f4xx_hal_uart.c **** /**
2981:Drivers/STM32F4xx_HAL_Driver/Src/stm32f4xx_hal_uart.c ****   * @brief  DMA UART transmit process complete callback.
2982:Drivers/STM32F4xx_HAL_Driver/Src/stm32f4xx_hal_uart.c ****   * @param  hdma  Pointer to a DMA_HandleTypeDef structure that contains
2983:Drivers/STM32F4xx_HAL_Driver/Src/stm32f4xx_hal_uart.c ****   *               the configuration information for the specified DMA module.
2984:Drivers/STM32F4xx_HAL_Driver/Src/stm32f4xx_hal_uart.c ****   * @retval None
2985:Drivers/STM32F4xx_HAL_Driver/Src/stm32f4xx_hal_uart.c ****   */
2986:Drivers/STM32F4xx_HAL_Driver/Src/stm32f4xx_hal_uart.c **** static void UART_DMATransmitCplt(DMA_HandleTypeDef *hdma)
2987:Drivers/STM32F4xx_HAL_Driver/Src/stm32f4xx_hal_uart.c **** {
 7126              		.loc 1 2987 1
 7127              		.cfi_startproc
 7128              		@ args = 0, pretend = 0, frame = 64
 7129              		@ frame_needed = 1, uses_anonymous_args = 0
 7130 0000 80B5     		push	{r7, lr}
 7131              	.LCFI231:
 7132              		.cfi_def_cfa_offset 8
 7133              		.cfi_offset 7, -8
 7134              		.cfi_offset 14, -4
 7135 0002 90B0     		sub	sp, sp, #64
 7136              	.LCFI232:
 7137              		.cfi_def_cfa_offset 72
 7138 0004 00AF     		add	r7, sp, #0
 7139              	.LCFI233:
 7140              		.cfi_def_cfa_register 7
 7141 0006 7860     		str	r0, [r7, #4]
2988:Drivers/STM32F4xx_HAL_Driver/Src/stm32f4xx_hal_uart.c ****   UART_HandleTypeDef *huart = (UART_HandleTypeDef *)((DMA_HandleTypeDef *)hdma)->Parent;
 7142              		.loc 1 2988 23
 7143 0008 7B68     		ldr	r3, [r7, #4]
 7144 000a 9B6B     		ldr	r3, [r3, #56]
 7145 000c FB63     		str	r3, [r7, #60]
2989:Drivers/STM32F4xx_HAL_Driver/Src/stm32f4xx_hal_uart.c ****   /* DMA Normal mode*/
2990:Drivers/STM32F4xx_HAL_Driver/Src/stm32f4xx_hal_uart.c ****   if ((hdma->Instance->CR & DMA_SxCR_CIRC) == 0U)
 7146              		.loc 1 2990 12
 7147 000e 7B68     		ldr	r3, [r7, #4]
 7148 0010 1B68     		ldr	r3, [r3]
 7149              		.loc 1 2990 22
 7150 0012 1B68     		ldr	r3, [r3]
 7151              		.loc 1 2990 27
 7152 0014 03F48073 		and	r3, r3, #256
 7153              		.loc 1 2990 6
 7154 0018 002B     		cmp	r3, #0
 7155 001a 37D1     		bne	.L367
2991:Drivers/STM32F4xx_HAL_Driver/Src/stm32f4xx_hal_uart.c ****   {
2992:Drivers/STM32F4xx_HAL_Driver/Src/stm32f4xx_hal_uart.c ****     huart->TxXferCount = 0x00U;
 7156              		.loc 1 2992 24
 7157 001c FB6B     		ldr	r3, [r7, #60]
 7158 001e 0022     		movs	r2, #0
 7159 0020 DA84     		strh	r2, [r3, #38]	@ movhi
 7160              	.L370:
 7161              	.LBB559:
2993:Drivers/STM32F4xx_HAL_Driver/Src/stm32f4xx_hal_uart.c **** 
2994:Drivers/STM32F4xx_HAL_Driver/Src/stm32f4xx_hal_uart.c ****     /* Disable the DMA transfer for transmit request by setting the DMAT bit
2995:Drivers/STM32F4xx_HAL_Driver/Src/stm32f4xx_hal_uart.c ****        in the UART CR3 register */
ARM GAS  /tmp/ccIpdX1g.s 			page 200


2996:Drivers/STM32F4xx_HAL_Driver/Src/stm32f4xx_hal_uart.c ****     ATOMIC_CLEAR_BIT(huart->Instance->CR3, USART_CR3_DMAT);
 7162              		.loc 1 2996 5 discriminator 1
 7163 0022 FB6B     		ldr	r3, [r7, #60]
 7164 0024 1B68     		ldr	r3, [r3]
 7165 0026 1433     		adds	r3, r3, #20
 7166 0028 7B62     		str	r3, [r7, #36]
 7167              	.LBB560:
 7168              	.LBB561:
1072:Drivers/CMSIS/Include/cmsis_gcc.h ****    return(result);
 7169              		.loc 2 1072 4 discriminator 1
 7170 002a 7B6A     		ldr	r3, [r7, #36]
 7171              		.syntax unified
 7172              	@ 1072 "Drivers/CMSIS/Include/cmsis_gcc.h" 1
 7173 002c 53E8003F 		ldrex r3, [r3]
 7174              	@ 0 "" 2
 7175              		.thumb
 7176              		.syntax unified
 7177 0030 3B62     		str	r3, [r7, #32]
1073:Drivers/CMSIS/Include/cmsis_gcc.h **** }
 7178              		.loc 2 1073 10 discriminator 1
 7179 0032 3B6A     		ldr	r3, [r7, #32]
 7180              	.LBE561:
 7181              	.LBE560:
 7182              		.loc 1 2996 5 discriminator 1
 7183 0034 23F08003 		bic	r3, r3, #128
 7184 0038 BB63     		str	r3, [r7, #56]
 7185 003a FB6B     		ldr	r3, [r7, #60]
 7186 003c 1B68     		ldr	r3, [r3]
 7187 003e 1433     		adds	r3, r3, #20
 7188 0040 BA6B     		ldr	r2, [r7, #56]
 7189 0042 3A63     		str	r2, [r7, #48]
 7190 0044 FB62     		str	r3, [r7, #44]
 7191              	.LBB562:
 7192              	.LBB563:
1123:Drivers/CMSIS/Include/cmsis_gcc.h ****    return(result);
 7193              		.loc 2 1123 4 discriminator 1
 7194 0046 F96A     		ldr	r1, [r7, #44]
 7195 0048 3A6B     		ldr	r2, [r7, #48]
 7196              		.syntax unified
 7197              	@ 1123 "Drivers/CMSIS/Include/cmsis_gcc.h" 1
 7198 004a 41E80023 		strex r3, r2, [r1]
 7199              	@ 0 "" 2
 7200              		.thumb
 7201              		.syntax unified
 7202 004e BB62     		str	r3, [r7, #40]
 7203              		.loc 2 1124 10 discriminator 1
 7204 0050 BB6A     		ldr	r3, [r7, #40]
 7205              	.LBE563:
 7206              	.LBE562:
 7207              		.loc 1 2996 5 discriminator 1
 7208 0052 002B     		cmp	r3, #0
 7209 0054 E5D1     		bne	.L370
 7210              	.L373:
 7211              	.LBE559:
 7212              	.LBB564:
2997:Drivers/STM32F4xx_HAL_Driver/Src/stm32f4xx_hal_uart.c **** 
2998:Drivers/STM32F4xx_HAL_Driver/Src/stm32f4xx_hal_uart.c ****     /* Enable the UART Transmit Complete Interrupt */
ARM GAS  /tmp/ccIpdX1g.s 			page 201


2999:Drivers/STM32F4xx_HAL_Driver/Src/stm32f4xx_hal_uart.c ****     ATOMIC_SET_BIT(huart->Instance->CR1, USART_CR1_TCIE);
 7213              		.loc 1 2999 5 discriminator 1
 7214 0056 FB6B     		ldr	r3, [r7, #60]
 7215 0058 1B68     		ldr	r3, [r3]
 7216 005a 0C33     		adds	r3, r3, #12
 7217 005c 3B61     		str	r3, [r7, #16]
 7218              	.LBB565:
 7219              	.LBB566:
1072:Drivers/CMSIS/Include/cmsis_gcc.h ****    return(result);
 7220              		.loc 2 1072 4 discriminator 1
 7221 005e 3B69     		ldr	r3, [r7, #16]
 7222              		.syntax unified
 7223              	@ 1072 "Drivers/CMSIS/Include/cmsis_gcc.h" 1
 7224 0060 53E8003F 		ldrex r3, [r3]
 7225              	@ 0 "" 2
 7226              		.thumb
 7227              		.syntax unified
 7228 0064 FB60     		str	r3, [r7, #12]
1073:Drivers/CMSIS/Include/cmsis_gcc.h **** }
 7229              		.loc 2 1073 10 discriminator 1
 7230 0066 FB68     		ldr	r3, [r7, #12]
 7231              	.LBE566:
 7232              	.LBE565:
 7233              		.loc 1 2999 5 discriminator 1
 7234 0068 43F04003 		orr	r3, r3, #64
 7235 006c 7B63     		str	r3, [r7, #52]
 7236 006e FB6B     		ldr	r3, [r7, #60]
 7237 0070 1B68     		ldr	r3, [r3]
 7238 0072 0C33     		adds	r3, r3, #12
 7239 0074 7A6B     		ldr	r2, [r7, #52]
 7240 0076 FA61     		str	r2, [r7, #28]
 7241 0078 BB61     		str	r3, [r7, #24]
 7242              	.LBB567:
 7243              	.LBB568:
1123:Drivers/CMSIS/Include/cmsis_gcc.h ****    return(result);
 7244              		.loc 2 1123 4 discriminator 1
 7245 007a B969     		ldr	r1, [r7, #24]
 7246 007c FA69     		ldr	r2, [r7, #28]
 7247              		.syntax unified
 7248              	@ 1123 "Drivers/CMSIS/Include/cmsis_gcc.h" 1
 7249 007e 41E80023 		strex r3, r2, [r1]
 7250              	@ 0 "" 2
 7251              		.thumb
 7252              		.syntax unified
 7253 0082 7B61     		str	r3, [r7, #20]
 7254              		.loc 2 1124 10 discriminator 1
 7255 0084 7B69     		ldr	r3, [r7, #20]
 7256              	.LBE568:
 7257              	.LBE567:
 7258              		.loc 1 2999 5 discriminator 1
 7259 0086 002B     		cmp	r3, #0
 7260 0088 E5D1     		bne	.L373
 7261              	.LBE564:
3000:Drivers/STM32F4xx_HAL_Driver/Src/stm32f4xx_hal_uart.c **** 
3001:Drivers/STM32F4xx_HAL_Driver/Src/stm32f4xx_hal_uart.c ****   }
3002:Drivers/STM32F4xx_HAL_Driver/Src/stm32f4xx_hal_uart.c ****   /* DMA Circular mode */
3003:Drivers/STM32F4xx_HAL_Driver/Src/stm32f4xx_hal_uart.c ****   else
ARM GAS  /tmp/ccIpdX1g.s 			page 202


3004:Drivers/STM32F4xx_HAL_Driver/Src/stm32f4xx_hal_uart.c ****   {
3005:Drivers/STM32F4xx_HAL_Driver/Src/stm32f4xx_hal_uart.c **** #if (USE_HAL_UART_REGISTER_CALLBACKS == 1)
3006:Drivers/STM32F4xx_HAL_Driver/Src/stm32f4xx_hal_uart.c ****     /*Call registered Tx complete callback*/
3007:Drivers/STM32F4xx_HAL_Driver/Src/stm32f4xx_hal_uart.c ****     huart->TxCpltCallback(huart);
3008:Drivers/STM32F4xx_HAL_Driver/Src/stm32f4xx_hal_uart.c **** #else
3009:Drivers/STM32F4xx_HAL_Driver/Src/stm32f4xx_hal_uart.c ****     /*Call legacy weak Tx complete callback*/
3010:Drivers/STM32F4xx_HAL_Driver/Src/stm32f4xx_hal_uart.c ****     HAL_UART_TxCpltCallback(huart);
3011:Drivers/STM32F4xx_HAL_Driver/Src/stm32f4xx_hal_uart.c **** #endif /* USE_HAL_UART_REGISTER_CALLBACKS */
3012:Drivers/STM32F4xx_HAL_Driver/Src/stm32f4xx_hal_uart.c ****   }
3013:Drivers/STM32F4xx_HAL_Driver/Src/stm32f4xx_hal_uart.c **** }
 7262              		.loc 1 3013 1
 7263 008a 02E0     		b	.L375
 7264              	.L367:
3010:Drivers/STM32F4xx_HAL_Driver/Src/stm32f4xx_hal_uart.c **** #endif /* USE_HAL_UART_REGISTER_CALLBACKS */
 7265              		.loc 1 3010 5
 7266 008c F86B     		ldr	r0, [r7, #60]
 7267 008e FFF7FEFF 		bl	HAL_UART_TxCpltCallback
 7268              	.L375:
 7269              		.loc 1 3013 1
 7270 0092 00BF     		nop
 7271 0094 4037     		adds	r7, r7, #64
 7272              	.LCFI234:
 7273              		.cfi_def_cfa_offset 8
 7274 0096 BD46     		mov	sp, r7
 7275              	.LCFI235:
 7276              		.cfi_def_cfa_register 13
 7277              		@ sp needed
 7278 0098 80BD     		pop	{r7, pc}
 7279              		.cfi_endproc
 7280              	.LFE258:
 7282              		.section	.text.UART_DMATxHalfCplt,"ax",%progbits
 7283              		.align	1
 7284              		.syntax unified
 7285              		.thumb
 7286              		.thumb_func
 7288              	UART_DMATxHalfCplt:
 7289              	.LFB259:
3014:Drivers/STM32F4xx_HAL_Driver/Src/stm32f4xx_hal_uart.c **** 
3015:Drivers/STM32F4xx_HAL_Driver/Src/stm32f4xx_hal_uart.c **** /**
3016:Drivers/STM32F4xx_HAL_Driver/Src/stm32f4xx_hal_uart.c ****   * @brief DMA UART transmit process half complete callback
3017:Drivers/STM32F4xx_HAL_Driver/Src/stm32f4xx_hal_uart.c ****   * @param  hdma  Pointer to a DMA_HandleTypeDef structure that contains
3018:Drivers/STM32F4xx_HAL_Driver/Src/stm32f4xx_hal_uart.c ****   *               the configuration information for the specified DMA module.
3019:Drivers/STM32F4xx_HAL_Driver/Src/stm32f4xx_hal_uart.c ****   * @retval None
3020:Drivers/STM32F4xx_HAL_Driver/Src/stm32f4xx_hal_uart.c ****   */
3021:Drivers/STM32F4xx_HAL_Driver/Src/stm32f4xx_hal_uart.c **** static void UART_DMATxHalfCplt(DMA_HandleTypeDef *hdma)
3022:Drivers/STM32F4xx_HAL_Driver/Src/stm32f4xx_hal_uart.c **** {
 7290              		.loc 1 3022 1
 7291              		.cfi_startproc
 7292              		@ args = 0, pretend = 0, frame = 16
 7293              		@ frame_needed = 1, uses_anonymous_args = 0
 7294 0000 80B5     		push	{r7, lr}
 7295              	.LCFI236:
 7296              		.cfi_def_cfa_offset 8
 7297              		.cfi_offset 7, -8
 7298              		.cfi_offset 14, -4
 7299 0002 84B0     		sub	sp, sp, #16
 7300              	.LCFI237:
ARM GAS  /tmp/ccIpdX1g.s 			page 203


 7301              		.cfi_def_cfa_offset 24
 7302 0004 00AF     		add	r7, sp, #0
 7303              	.LCFI238:
 7304              		.cfi_def_cfa_register 7
 7305 0006 7860     		str	r0, [r7, #4]
3023:Drivers/STM32F4xx_HAL_Driver/Src/stm32f4xx_hal_uart.c ****   UART_HandleTypeDef *huart = (UART_HandleTypeDef *)((DMA_HandleTypeDef *)hdma)->Parent;
 7306              		.loc 1 3023 23
 7307 0008 7B68     		ldr	r3, [r7, #4]
 7308 000a 9B6B     		ldr	r3, [r3, #56]
 7309 000c FB60     		str	r3, [r7, #12]
3024:Drivers/STM32F4xx_HAL_Driver/Src/stm32f4xx_hal_uart.c **** 
3025:Drivers/STM32F4xx_HAL_Driver/Src/stm32f4xx_hal_uart.c **** #if (USE_HAL_UART_REGISTER_CALLBACKS == 1)
3026:Drivers/STM32F4xx_HAL_Driver/Src/stm32f4xx_hal_uart.c ****   /*Call registered Tx complete callback*/
3027:Drivers/STM32F4xx_HAL_Driver/Src/stm32f4xx_hal_uart.c ****   huart->TxHalfCpltCallback(huart);
3028:Drivers/STM32F4xx_HAL_Driver/Src/stm32f4xx_hal_uart.c **** #else
3029:Drivers/STM32F4xx_HAL_Driver/Src/stm32f4xx_hal_uart.c ****   /*Call legacy weak Tx complete callback*/
3030:Drivers/STM32F4xx_HAL_Driver/Src/stm32f4xx_hal_uart.c ****   HAL_UART_TxHalfCpltCallback(huart);
 7310              		.loc 1 3030 3
 7311 000e F868     		ldr	r0, [r7, #12]
 7312 0010 FFF7FEFF 		bl	HAL_UART_TxHalfCpltCallback
3031:Drivers/STM32F4xx_HAL_Driver/Src/stm32f4xx_hal_uart.c **** #endif /* USE_HAL_UART_REGISTER_CALLBACKS */
3032:Drivers/STM32F4xx_HAL_Driver/Src/stm32f4xx_hal_uart.c **** }
 7313              		.loc 1 3032 1
 7314 0014 00BF     		nop
 7315 0016 1037     		adds	r7, r7, #16
 7316              	.LCFI239:
 7317              		.cfi_def_cfa_offset 8
 7318 0018 BD46     		mov	sp, r7
 7319              	.LCFI240:
 7320              		.cfi_def_cfa_register 13
 7321              		@ sp needed
 7322 001a 80BD     		pop	{r7, pc}
 7323              		.cfi_endproc
 7324              	.LFE259:
 7326              		.section	.text.UART_DMAReceiveCplt,"ax",%progbits
 7327              		.align	1
 7328              		.syntax unified
 7329              		.thumb
 7330              		.thumb_func
 7332              	UART_DMAReceiveCplt:
 7333              	.LFB260:
3033:Drivers/STM32F4xx_HAL_Driver/Src/stm32f4xx_hal_uart.c **** 
3034:Drivers/STM32F4xx_HAL_Driver/Src/stm32f4xx_hal_uart.c **** /**
3035:Drivers/STM32F4xx_HAL_Driver/Src/stm32f4xx_hal_uart.c ****   * @brief  DMA UART receive process complete callback.
3036:Drivers/STM32F4xx_HAL_Driver/Src/stm32f4xx_hal_uart.c ****   * @param  hdma  Pointer to a DMA_HandleTypeDef structure that contains
3037:Drivers/STM32F4xx_HAL_Driver/Src/stm32f4xx_hal_uart.c ****   *               the configuration information for the specified DMA module.
3038:Drivers/STM32F4xx_HAL_Driver/Src/stm32f4xx_hal_uart.c ****   * @retval None
3039:Drivers/STM32F4xx_HAL_Driver/Src/stm32f4xx_hal_uart.c ****   */
3040:Drivers/STM32F4xx_HAL_Driver/Src/stm32f4xx_hal_uart.c **** static void UART_DMAReceiveCplt(DMA_HandleTypeDef *hdma)
3041:Drivers/STM32F4xx_HAL_Driver/Src/stm32f4xx_hal_uart.c **** {
 7334              		.loc 1 3041 1
 7335              		.cfi_startproc
 7336              		@ args = 0, pretend = 0, frame = 112
 7337              		@ frame_needed = 1, uses_anonymous_args = 0
 7338 0000 80B5     		push	{r7, lr}
 7339              	.LCFI241:
 7340              		.cfi_def_cfa_offset 8
ARM GAS  /tmp/ccIpdX1g.s 			page 204


 7341              		.cfi_offset 7, -8
 7342              		.cfi_offset 14, -4
 7343 0002 9CB0     		sub	sp, sp, #112
 7344              	.LCFI242:
 7345              		.cfi_def_cfa_offset 120
 7346 0004 00AF     		add	r7, sp, #0
 7347              	.LCFI243:
 7348              		.cfi_def_cfa_register 7
 7349 0006 7860     		str	r0, [r7, #4]
3042:Drivers/STM32F4xx_HAL_Driver/Src/stm32f4xx_hal_uart.c ****   UART_HandleTypeDef *huart = (UART_HandleTypeDef *)((DMA_HandleTypeDef *)hdma)->Parent;
 7350              		.loc 1 3042 23
 7351 0008 7B68     		ldr	r3, [r7, #4]
 7352 000a 9B6B     		ldr	r3, [r3, #56]
 7353 000c FB66     		str	r3, [r7, #108]
3043:Drivers/STM32F4xx_HAL_Driver/Src/stm32f4xx_hal_uart.c ****   /* DMA Normal mode*/
3044:Drivers/STM32F4xx_HAL_Driver/Src/stm32f4xx_hal_uart.c ****   if ((hdma->Instance->CR & DMA_SxCR_CIRC) == 0U)
 7354              		.loc 1 3044 12
 7355 000e 7B68     		ldr	r3, [r7, #4]
 7356 0010 1B68     		ldr	r3, [r3]
 7357              		.loc 1 3044 22
 7358 0012 1B68     		ldr	r3, [r3]
 7359              		.loc 1 3044 27
 7360 0014 03F48073 		and	r3, r3, #256
 7361              		.loc 1 3044 6
 7362 0018 002B     		cmp	r3, #0
 7363 001a 72D1     		bne	.L378
3045:Drivers/STM32F4xx_HAL_Driver/Src/stm32f4xx_hal_uart.c ****   {
3046:Drivers/STM32F4xx_HAL_Driver/Src/stm32f4xx_hal_uart.c ****     huart->RxXferCount = 0U;
 7364              		.loc 1 3046 24
 7365 001c FB6E     		ldr	r3, [r7, #108]
 7366 001e 0022     		movs	r2, #0
 7367 0020 DA85     		strh	r2, [r3, #46]	@ movhi
 7368              	.L381:
 7369              	.LBB569:
3047:Drivers/STM32F4xx_HAL_Driver/Src/stm32f4xx_hal_uart.c **** 
3048:Drivers/STM32F4xx_HAL_Driver/Src/stm32f4xx_hal_uart.c ****     /* Disable RXNE, PE and ERR (Frame error, noise error, overrun error) interrupts */
3049:Drivers/STM32F4xx_HAL_Driver/Src/stm32f4xx_hal_uart.c ****     ATOMIC_CLEAR_BIT(huart->Instance->CR1, USART_CR1_PEIE);
 7370              		.loc 1 3049 5 discriminator 1
 7371 0022 FB6E     		ldr	r3, [r7, #108]
 7372 0024 1B68     		ldr	r3, [r3]
 7373 0026 0C33     		adds	r3, r3, #12
 7374 0028 FB64     		str	r3, [r7, #76]
 7375              	.LBB570:
 7376              	.LBB571:
1072:Drivers/CMSIS/Include/cmsis_gcc.h ****    return(result);
 7377              		.loc 2 1072 4 discriminator 1
 7378 002a FB6C     		ldr	r3, [r7, #76]
 7379              		.syntax unified
 7380              	@ 1072 "Drivers/CMSIS/Include/cmsis_gcc.h" 1
 7381 002c 53E8003F 		ldrex r3, [r3]
 7382              	@ 0 "" 2
 7383              		.thumb
 7384              		.syntax unified
 7385 0030 BB64     		str	r3, [r7, #72]
1073:Drivers/CMSIS/Include/cmsis_gcc.h **** }
 7386              		.loc 2 1073 10 discriminator 1
 7387 0032 BB6C     		ldr	r3, [r7, #72]
ARM GAS  /tmp/ccIpdX1g.s 			page 205


 7388              	.LBE571:
 7389              	.LBE570:
 7390              		.loc 1 3049 5 discriminator 1
 7391 0034 23F48073 		bic	r3, r3, #256
 7392 0038 BB66     		str	r3, [r7, #104]
 7393 003a FB6E     		ldr	r3, [r7, #108]
 7394 003c 1B68     		ldr	r3, [r3]
 7395 003e 0C33     		adds	r3, r3, #12
 7396 0040 BA6E     		ldr	r2, [r7, #104]
 7397 0042 BA65     		str	r2, [r7, #88]
 7398 0044 7B65     		str	r3, [r7, #84]
 7399              	.LBB572:
 7400              	.LBB573:
1123:Drivers/CMSIS/Include/cmsis_gcc.h ****    return(result);
 7401              		.loc 2 1123 4 discriminator 1
 7402 0046 796D     		ldr	r1, [r7, #84]
 7403 0048 BA6D     		ldr	r2, [r7, #88]
 7404              		.syntax unified
 7405              	@ 1123 "Drivers/CMSIS/Include/cmsis_gcc.h" 1
 7406 004a 41E80023 		strex r3, r2, [r1]
 7407              	@ 0 "" 2
 7408              		.thumb
 7409              		.syntax unified
 7410 004e 3B65     		str	r3, [r7, #80]
 7411              		.loc 2 1124 10 discriminator 1
 7412 0050 3B6D     		ldr	r3, [r7, #80]
 7413              	.LBE573:
 7414              	.LBE572:
 7415              		.loc 1 3049 5 discriminator 1
 7416 0052 002B     		cmp	r3, #0
 7417 0054 E5D1     		bne	.L381
 7418              	.L384:
 7419              	.LBE569:
 7420              	.LBB574:
3050:Drivers/STM32F4xx_HAL_Driver/Src/stm32f4xx_hal_uart.c ****     ATOMIC_CLEAR_BIT(huart->Instance->CR3, USART_CR3_EIE);
 7421              		.loc 1 3050 5 discriminator 1
 7422 0056 FB6E     		ldr	r3, [r7, #108]
 7423 0058 1B68     		ldr	r3, [r3]
 7424 005a 1433     		adds	r3, r3, #20
 7425 005c BB63     		str	r3, [r7, #56]
 7426              	.LBB575:
 7427              	.LBB576:
1072:Drivers/CMSIS/Include/cmsis_gcc.h ****    return(result);
 7428              		.loc 2 1072 4 discriminator 1
 7429 005e BB6B     		ldr	r3, [r7, #56]
 7430              		.syntax unified
 7431              	@ 1072 "Drivers/CMSIS/Include/cmsis_gcc.h" 1
 7432 0060 53E8003F 		ldrex r3, [r3]
 7433              	@ 0 "" 2
 7434              		.thumb
 7435              		.syntax unified
 7436 0064 7B63     		str	r3, [r7, #52]
1073:Drivers/CMSIS/Include/cmsis_gcc.h **** }
 7437              		.loc 2 1073 10 discriminator 1
 7438 0066 7B6B     		ldr	r3, [r7, #52]
 7439              	.LBE576:
 7440              	.LBE575:
ARM GAS  /tmp/ccIpdX1g.s 			page 206


 7441              		.loc 1 3050 5 discriminator 1
 7442 0068 23F00103 		bic	r3, r3, #1
 7443 006c 7B66     		str	r3, [r7, #100]
 7444 006e FB6E     		ldr	r3, [r7, #108]
 7445 0070 1B68     		ldr	r3, [r3]
 7446 0072 1433     		adds	r3, r3, #20
 7447 0074 7A6E     		ldr	r2, [r7, #100]
 7448 0076 7A64     		str	r2, [r7, #68]
 7449 0078 3B64     		str	r3, [r7, #64]
 7450              	.LBB577:
 7451              	.LBB578:
1123:Drivers/CMSIS/Include/cmsis_gcc.h ****    return(result);
 7452              		.loc 2 1123 4 discriminator 1
 7453 007a 396C     		ldr	r1, [r7, #64]
 7454 007c 7A6C     		ldr	r2, [r7, #68]
 7455              		.syntax unified
 7456              	@ 1123 "Drivers/CMSIS/Include/cmsis_gcc.h" 1
 7457 007e 41E80023 		strex r3, r2, [r1]
 7458              	@ 0 "" 2
 7459              		.thumb
 7460              		.syntax unified
 7461 0082 FB63     		str	r3, [r7, #60]
 7462              		.loc 2 1124 10 discriminator 1
 7463 0084 FB6B     		ldr	r3, [r7, #60]
 7464              	.LBE578:
 7465              	.LBE577:
 7466              		.loc 1 3050 5 discriminator 1
 7467 0086 002B     		cmp	r3, #0
 7468 0088 E5D1     		bne	.L384
 7469              	.L387:
 7470              	.LBE574:
 7471              	.LBB579:
3051:Drivers/STM32F4xx_HAL_Driver/Src/stm32f4xx_hal_uart.c **** 
3052:Drivers/STM32F4xx_HAL_Driver/Src/stm32f4xx_hal_uart.c ****     /* Disable the DMA transfer for the receiver request by setting the DMAR bit
3053:Drivers/STM32F4xx_HAL_Driver/Src/stm32f4xx_hal_uart.c ****        in the UART CR3 register */
3054:Drivers/STM32F4xx_HAL_Driver/Src/stm32f4xx_hal_uart.c ****     ATOMIC_CLEAR_BIT(huart->Instance->CR3, USART_CR3_DMAR);
 7472              		.loc 1 3054 5 discriminator 1
 7473 008a FB6E     		ldr	r3, [r7, #108]
 7474 008c 1B68     		ldr	r3, [r3]
 7475 008e 1433     		adds	r3, r3, #20
 7476 0090 7B62     		str	r3, [r7, #36]
 7477              	.LBB580:
 7478              	.LBB581:
1072:Drivers/CMSIS/Include/cmsis_gcc.h ****    return(result);
 7479              		.loc 2 1072 4 discriminator 1
 7480 0092 7B6A     		ldr	r3, [r7, #36]
 7481              		.syntax unified
 7482              	@ 1072 "Drivers/CMSIS/Include/cmsis_gcc.h" 1
 7483 0094 53E8003F 		ldrex r3, [r3]
 7484              	@ 0 "" 2
 7485              		.thumb
 7486              		.syntax unified
 7487 0098 3B62     		str	r3, [r7, #32]
1073:Drivers/CMSIS/Include/cmsis_gcc.h **** }
 7488              		.loc 2 1073 10 discriminator 1
 7489 009a 3B6A     		ldr	r3, [r7, #32]
 7490              	.LBE581:
ARM GAS  /tmp/ccIpdX1g.s 			page 207


 7491              	.LBE580:
 7492              		.loc 1 3054 5 discriminator 1
 7493 009c 23F04003 		bic	r3, r3, #64
 7494 00a0 3B66     		str	r3, [r7, #96]
 7495 00a2 FB6E     		ldr	r3, [r7, #108]
 7496 00a4 1B68     		ldr	r3, [r3]
 7497 00a6 1433     		adds	r3, r3, #20
 7498 00a8 3A6E     		ldr	r2, [r7, #96]
 7499 00aa 3A63     		str	r2, [r7, #48]
 7500 00ac FB62     		str	r3, [r7, #44]
 7501              	.LBB582:
 7502              	.LBB583:
1123:Drivers/CMSIS/Include/cmsis_gcc.h ****    return(result);
 7503              		.loc 2 1123 4 discriminator 1
 7504 00ae F96A     		ldr	r1, [r7, #44]
 7505 00b0 3A6B     		ldr	r2, [r7, #48]
 7506              		.syntax unified
 7507              	@ 1123 "Drivers/CMSIS/Include/cmsis_gcc.h" 1
 7508 00b2 41E80023 		strex r3, r2, [r1]
 7509              	@ 0 "" 2
 7510              		.thumb
 7511              		.syntax unified
 7512 00b6 BB62     		str	r3, [r7, #40]
 7513              		.loc 2 1124 10 discriminator 1
 7514 00b8 BB6A     		ldr	r3, [r7, #40]
 7515              	.LBE583:
 7516              	.LBE582:
 7517              		.loc 1 3054 5 discriminator 1
 7518 00ba 002B     		cmp	r3, #0
 7519 00bc E5D1     		bne	.L387
 7520              	.LBE579:
3055:Drivers/STM32F4xx_HAL_Driver/Src/stm32f4xx_hal_uart.c **** 
3056:Drivers/STM32F4xx_HAL_Driver/Src/stm32f4xx_hal_uart.c ****     /* At end of Rx process, restore huart->RxState to Ready */
3057:Drivers/STM32F4xx_HAL_Driver/Src/stm32f4xx_hal_uart.c ****     huart->RxState = HAL_UART_STATE_READY;
 7521              		.loc 1 3057 20
 7522 00be FB6E     		ldr	r3, [r7, #108]
 7523 00c0 2022     		movs	r2, #32
 7524 00c2 83F83E20 		strb	r2, [r3, #62]
3058:Drivers/STM32F4xx_HAL_Driver/Src/stm32f4xx_hal_uart.c **** 
3059:Drivers/STM32F4xx_HAL_Driver/Src/stm32f4xx_hal_uart.c ****     /* If Reception till IDLE event has been selected, Disable IDLE Interrupt */
3060:Drivers/STM32F4xx_HAL_Driver/Src/stm32f4xx_hal_uart.c ****     if (huart->ReceptionType == HAL_UART_RECEPTION_TOIDLE)
 7525              		.loc 1 3060 14
 7526 00c6 FB6E     		ldr	r3, [r7, #108]
 7527 00c8 1B6B     		ldr	r3, [r3, #48]
 7528              		.loc 1 3060 8
 7529 00ca 012B     		cmp	r3, #1
 7530 00cc 19D1     		bne	.L378
 7531              	.L390:
 7532              	.LBB584:
3061:Drivers/STM32F4xx_HAL_Driver/Src/stm32f4xx_hal_uart.c ****     {
3062:Drivers/STM32F4xx_HAL_Driver/Src/stm32f4xx_hal_uart.c ****       ATOMIC_CLEAR_BIT(huart->Instance->CR1, USART_CR1_IDLEIE);
 7533              		.loc 1 3062 7 discriminator 1
 7534 00ce FB6E     		ldr	r3, [r7, #108]
 7535 00d0 1B68     		ldr	r3, [r3]
 7536 00d2 0C33     		adds	r3, r3, #12
 7537 00d4 3B61     		str	r3, [r7, #16]
 7538              	.LBB585:
ARM GAS  /tmp/ccIpdX1g.s 			page 208


 7539              	.LBB586:
1072:Drivers/CMSIS/Include/cmsis_gcc.h ****    return(result);
 7540              		.loc 2 1072 4 discriminator 1
 7541 00d6 3B69     		ldr	r3, [r7, #16]
 7542              		.syntax unified
 7543              	@ 1072 "Drivers/CMSIS/Include/cmsis_gcc.h" 1
 7544 00d8 53E8003F 		ldrex r3, [r3]
 7545              	@ 0 "" 2
 7546              		.thumb
 7547              		.syntax unified
 7548 00dc FB60     		str	r3, [r7, #12]
1073:Drivers/CMSIS/Include/cmsis_gcc.h **** }
 7549              		.loc 2 1073 10 discriminator 1
 7550 00de FB68     		ldr	r3, [r7, #12]
 7551              	.LBE586:
 7552              	.LBE585:
 7553              		.loc 1 3062 7 discriminator 1
 7554 00e0 23F01003 		bic	r3, r3, #16
 7555 00e4 FB65     		str	r3, [r7, #92]
 7556 00e6 FB6E     		ldr	r3, [r7, #108]
 7557 00e8 1B68     		ldr	r3, [r3]
 7558 00ea 0C33     		adds	r3, r3, #12
 7559 00ec FA6D     		ldr	r2, [r7, #92]
 7560 00ee FA61     		str	r2, [r7, #28]
 7561 00f0 BB61     		str	r3, [r7, #24]
 7562              	.LBB587:
 7563              	.LBB588:
1123:Drivers/CMSIS/Include/cmsis_gcc.h ****    return(result);
 7564              		.loc 2 1123 4 discriminator 1
 7565 00f2 B969     		ldr	r1, [r7, #24]
 7566 00f4 FA69     		ldr	r2, [r7, #28]
 7567              		.syntax unified
 7568              	@ 1123 "Drivers/CMSIS/Include/cmsis_gcc.h" 1
 7569 00f6 41E80023 		strex r3, r2, [r1]
 7570              	@ 0 "" 2
 7571              		.thumb
 7572              		.syntax unified
 7573 00fa 7B61     		str	r3, [r7, #20]
 7574              		.loc 2 1124 10 discriminator 1
 7575 00fc 7B69     		ldr	r3, [r7, #20]
 7576              	.LBE588:
 7577              	.LBE587:
 7578              		.loc 1 3062 7 discriminator 1
 7579 00fe 002B     		cmp	r3, #0
 7580 0100 E5D1     		bne	.L390
 7581              	.L378:
 7582              	.LBE584:
3063:Drivers/STM32F4xx_HAL_Driver/Src/stm32f4xx_hal_uart.c ****     }
3064:Drivers/STM32F4xx_HAL_Driver/Src/stm32f4xx_hal_uart.c ****   }
3065:Drivers/STM32F4xx_HAL_Driver/Src/stm32f4xx_hal_uart.c **** 
3066:Drivers/STM32F4xx_HAL_Driver/Src/stm32f4xx_hal_uart.c ****   /* Check current reception Mode :
3067:Drivers/STM32F4xx_HAL_Driver/Src/stm32f4xx_hal_uart.c ****      If Reception till IDLE event has been selected : use Rx Event callback */
3068:Drivers/STM32F4xx_HAL_Driver/Src/stm32f4xx_hal_uart.c ****   if (huart->ReceptionType == HAL_UART_RECEPTION_TOIDLE)
 7583              		.loc 1 3068 12
 7584 0102 FB6E     		ldr	r3, [r7, #108]
 7585 0104 1B6B     		ldr	r3, [r3, #48]
 7586              		.loc 1 3068 6
ARM GAS  /tmp/ccIpdX1g.s 			page 209


 7587 0106 012B     		cmp	r3, #1
 7588 0108 06D1     		bne	.L391
3069:Drivers/STM32F4xx_HAL_Driver/Src/stm32f4xx_hal_uart.c ****   {
3070:Drivers/STM32F4xx_HAL_Driver/Src/stm32f4xx_hal_uart.c **** #if (USE_HAL_UART_REGISTER_CALLBACKS == 1)
3071:Drivers/STM32F4xx_HAL_Driver/Src/stm32f4xx_hal_uart.c ****     /*Call registered Rx Event callback*/
3072:Drivers/STM32F4xx_HAL_Driver/Src/stm32f4xx_hal_uart.c ****     huart->RxEventCallback(huart, huart->RxXferSize);
3073:Drivers/STM32F4xx_HAL_Driver/Src/stm32f4xx_hal_uart.c **** #else
3074:Drivers/STM32F4xx_HAL_Driver/Src/stm32f4xx_hal_uart.c ****     /*Call legacy weak Rx Event callback*/
3075:Drivers/STM32F4xx_HAL_Driver/Src/stm32f4xx_hal_uart.c ****     HAL_UARTEx_RxEventCallback(huart, huart->RxXferSize);
 7589              		.loc 1 3075 5
 7590 010a FB6E     		ldr	r3, [r7, #108]
 7591 010c 9B8D     		ldrh	r3, [r3, #44]
 7592 010e 1946     		mov	r1, r3
 7593 0110 F86E     		ldr	r0, [r7, #108]
 7594 0112 FFF7FEFF 		bl	HAL_UARTEx_RxEventCallback
3076:Drivers/STM32F4xx_HAL_Driver/Src/stm32f4xx_hal_uart.c **** #endif /* USE_HAL_UART_REGISTER_CALLBACKS */
3077:Drivers/STM32F4xx_HAL_Driver/Src/stm32f4xx_hal_uart.c ****   }
3078:Drivers/STM32F4xx_HAL_Driver/Src/stm32f4xx_hal_uart.c ****   else
3079:Drivers/STM32F4xx_HAL_Driver/Src/stm32f4xx_hal_uart.c ****   {
3080:Drivers/STM32F4xx_HAL_Driver/Src/stm32f4xx_hal_uart.c ****     /* In other cases : use Rx Complete callback */
3081:Drivers/STM32F4xx_HAL_Driver/Src/stm32f4xx_hal_uart.c **** #if (USE_HAL_UART_REGISTER_CALLBACKS == 1)
3082:Drivers/STM32F4xx_HAL_Driver/Src/stm32f4xx_hal_uart.c ****     /*Call registered Rx complete callback*/
3083:Drivers/STM32F4xx_HAL_Driver/Src/stm32f4xx_hal_uart.c ****     huart->RxCpltCallback(huart);
3084:Drivers/STM32F4xx_HAL_Driver/Src/stm32f4xx_hal_uart.c **** #else
3085:Drivers/STM32F4xx_HAL_Driver/Src/stm32f4xx_hal_uart.c ****     /*Call legacy weak Rx complete callback*/
3086:Drivers/STM32F4xx_HAL_Driver/Src/stm32f4xx_hal_uart.c ****     HAL_UART_RxCpltCallback(huart);
3087:Drivers/STM32F4xx_HAL_Driver/Src/stm32f4xx_hal_uart.c **** #endif /* USE_HAL_UART_REGISTER_CALLBACKS */
3088:Drivers/STM32F4xx_HAL_Driver/Src/stm32f4xx_hal_uart.c ****   }
3089:Drivers/STM32F4xx_HAL_Driver/Src/stm32f4xx_hal_uart.c **** }
 7595              		.loc 1 3089 1
 7596 0116 02E0     		b	.L393
 7597              	.L391:
3086:Drivers/STM32F4xx_HAL_Driver/Src/stm32f4xx_hal_uart.c **** #endif /* USE_HAL_UART_REGISTER_CALLBACKS */
 7598              		.loc 1 3086 5
 7599 0118 F86E     		ldr	r0, [r7, #108]
 7600 011a FFF7FEFF 		bl	HAL_UART_RxCpltCallback
 7601              	.L393:
 7602              		.loc 1 3089 1
 7603 011e 00BF     		nop
 7604 0120 7037     		adds	r7, r7, #112
 7605              	.LCFI244:
 7606              		.cfi_def_cfa_offset 8
 7607 0122 BD46     		mov	sp, r7
 7608              	.LCFI245:
 7609              		.cfi_def_cfa_register 13
 7610              		@ sp needed
 7611 0124 80BD     		pop	{r7, pc}
 7612              		.cfi_endproc
 7613              	.LFE260:
 7615              		.section	.text.UART_DMARxHalfCplt,"ax",%progbits
 7616              		.align	1
 7617              		.syntax unified
 7618              		.thumb
 7619              		.thumb_func
 7621              	UART_DMARxHalfCplt:
 7622              	.LFB261:
3090:Drivers/STM32F4xx_HAL_Driver/Src/stm32f4xx_hal_uart.c **** 
ARM GAS  /tmp/ccIpdX1g.s 			page 210


3091:Drivers/STM32F4xx_HAL_Driver/Src/stm32f4xx_hal_uart.c **** /**
3092:Drivers/STM32F4xx_HAL_Driver/Src/stm32f4xx_hal_uart.c ****   * @brief DMA UART receive process half complete callback
3093:Drivers/STM32F4xx_HAL_Driver/Src/stm32f4xx_hal_uart.c ****   * @param  hdma  Pointer to a DMA_HandleTypeDef structure that contains
3094:Drivers/STM32F4xx_HAL_Driver/Src/stm32f4xx_hal_uart.c ****   *               the configuration information for the specified DMA module.
3095:Drivers/STM32F4xx_HAL_Driver/Src/stm32f4xx_hal_uart.c ****   * @retval None
3096:Drivers/STM32F4xx_HAL_Driver/Src/stm32f4xx_hal_uart.c ****   */
3097:Drivers/STM32F4xx_HAL_Driver/Src/stm32f4xx_hal_uart.c **** static void UART_DMARxHalfCplt(DMA_HandleTypeDef *hdma)
3098:Drivers/STM32F4xx_HAL_Driver/Src/stm32f4xx_hal_uart.c **** {
 7623              		.loc 1 3098 1
 7624              		.cfi_startproc
 7625              		@ args = 0, pretend = 0, frame = 16
 7626              		@ frame_needed = 1, uses_anonymous_args = 0
 7627 0000 80B5     		push	{r7, lr}
 7628              	.LCFI246:
 7629              		.cfi_def_cfa_offset 8
 7630              		.cfi_offset 7, -8
 7631              		.cfi_offset 14, -4
 7632 0002 84B0     		sub	sp, sp, #16
 7633              	.LCFI247:
 7634              		.cfi_def_cfa_offset 24
 7635 0004 00AF     		add	r7, sp, #0
 7636              	.LCFI248:
 7637              		.cfi_def_cfa_register 7
 7638 0006 7860     		str	r0, [r7, #4]
3099:Drivers/STM32F4xx_HAL_Driver/Src/stm32f4xx_hal_uart.c ****   UART_HandleTypeDef *huart = (UART_HandleTypeDef *)((DMA_HandleTypeDef *)hdma)->Parent;
 7639              		.loc 1 3099 23
 7640 0008 7B68     		ldr	r3, [r7, #4]
 7641 000a 9B6B     		ldr	r3, [r3, #56]
 7642 000c FB60     		str	r3, [r7, #12]
3100:Drivers/STM32F4xx_HAL_Driver/Src/stm32f4xx_hal_uart.c **** 
3101:Drivers/STM32F4xx_HAL_Driver/Src/stm32f4xx_hal_uart.c ****   /* Check current reception Mode :
3102:Drivers/STM32F4xx_HAL_Driver/Src/stm32f4xx_hal_uart.c ****      If Reception till IDLE event has been selected : use Rx Event callback */
3103:Drivers/STM32F4xx_HAL_Driver/Src/stm32f4xx_hal_uart.c ****   if (huart->ReceptionType == HAL_UART_RECEPTION_TOIDLE)
 7643              		.loc 1 3103 12
 7644 000e FB68     		ldr	r3, [r7, #12]
 7645 0010 1B6B     		ldr	r3, [r3, #48]
 7646              		.loc 1 3103 6
 7647 0012 012B     		cmp	r3, #1
 7648 0014 08D1     		bne	.L395
3104:Drivers/STM32F4xx_HAL_Driver/Src/stm32f4xx_hal_uart.c ****   {
3105:Drivers/STM32F4xx_HAL_Driver/Src/stm32f4xx_hal_uart.c **** #if (USE_HAL_UART_REGISTER_CALLBACKS == 1)
3106:Drivers/STM32F4xx_HAL_Driver/Src/stm32f4xx_hal_uart.c ****     /*Call registered Rx Event callback*/
3107:Drivers/STM32F4xx_HAL_Driver/Src/stm32f4xx_hal_uart.c ****     huart->RxEventCallback(huart, huart->RxXferSize / 2U);
3108:Drivers/STM32F4xx_HAL_Driver/Src/stm32f4xx_hal_uart.c **** #else
3109:Drivers/STM32F4xx_HAL_Driver/Src/stm32f4xx_hal_uart.c ****     /*Call legacy weak Rx Event callback*/
3110:Drivers/STM32F4xx_HAL_Driver/Src/stm32f4xx_hal_uart.c ****     HAL_UARTEx_RxEventCallback(huart, huart->RxXferSize / 2U);
 7649              		.loc 1 3110 44
 7650 0016 FB68     		ldr	r3, [r7, #12]
 7651 0018 9B8D     		ldrh	r3, [r3, #44]
 7652              		.loc 1 3110 5
 7653 001a 5B08     		lsrs	r3, r3, #1
 7654 001c 9BB2     		uxth	r3, r3
 7655 001e 1946     		mov	r1, r3
 7656 0020 F868     		ldr	r0, [r7, #12]
 7657 0022 FFF7FEFF 		bl	HAL_UARTEx_RxEventCallback
3111:Drivers/STM32F4xx_HAL_Driver/Src/stm32f4xx_hal_uart.c **** #endif /* USE_HAL_UART_REGISTER_CALLBACKS */
3112:Drivers/STM32F4xx_HAL_Driver/Src/stm32f4xx_hal_uart.c ****   }
ARM GAS  /tmp/ccIpdX1g.s 			page 211


3113:Drivers/STM32F4xx_HAL_Driver/Src/stm32f4xx_hal_uart.c ****   else
3114:Drivers/STM32F4xx_HAL_Driver/Src/stm32f4xx_hal_uart.c ****   {
3115:Drivers/STM32F4xx_HAL_Driver/Src/stm32f4xx_hal_uart.c ****     /* In other cases : use Rx Half Complete callback */
3116:Drivers/STM32F4xx_HAL_Driver/Src/stm32f4xx_hal_uart.c **** #if (USE_HAL_UART_REGISTER_CALLBACKS == 1)
3117:Drivers/STM32F4xx_HAL_Driver/Src/stm32f4xx_hal_uart.c ****     /*Call registered Rx Half complete callback*/
3118:Drivers/STM32F4xx_HAL_Driver/Src/stm32f4xx_hal_uart.c ****     huart->RxHalfCpltCallback(huart);
3119:Drivers/STM32F4xx_HAL_Driver/Src/stm32f4xx_hal_uart.c **** #else
3120:Drivers/STM32F4xx_HAL_Driver/Src/stm32f4xx_hal_uart.c ****     /*Call legacy weak Rx Half complete callback*/
3121:Drivers/STM32F4xx_HAL_Driver/Src/stm32f4xx_hal_uart.c ****     HAL_UART_RxHalfCpltCallback(huart);
3122:Drivers/STM32F4xx_HAL_Driver/Src/stm32f4xx_hal_uart.c **** #endif /* USE_HAL_UART_REGISTER_CALLBACKS */
3123:Drivers/STM32F4xx_HAL_Driver/Src/stm32f4xx_hal_uart.c ****   }
3124:Drivers/STM32F4xx_HAL_Driver/Src/stm32f4xx_hal_uart.c **** }
 7658              		.loc 1 3124 1
 7659 0026 02E0     		b	.L397
 7660              	.L395:
3121:Drivers/STM32F4xx_HAL_Driver/Src/stm32f4xx_hal_uart.c **** #endif /* USE_HAL_UART_REGISTER_CALLBACKS */
 7661              		.loc 1 3121 5
 7662 0028 F868     		ldr	r0, [r7, #12]
 7663 002a FFF7FEFF 		bl	HAL_UART_RxHalfCpltCallback
 7664              	.L397:
 7665              		.loc 1 3124 1
 7666 002e 00BF     		nop
 7667 0030 1037     		adds	r7, r7, #16
 7668              	.LCFI249:
 7669              		.cfi_def_cfa_offset 8
 7670 0032 BD46     		mov	sp, r7
 7671              	.LCFI250:
 7672              		.cfi_def_cfa_register 13
 7673              		@ sp needed
 7674 0034 80BD     		pop	{r7, pc}
 7675              		.cfi_endproc
 7676              	.LFE261:
 7678              		.section	.text.UART_DMAError,"ax",%progbits
 7679              		.align	1
 7680              		.syntax unified
 7681              		.thumb
 7682              		.thumb_func
 7684              	UART_DMAError:
 7685              	.LFB262:
3125:Drivers/STM32F4xx_HAL_Driver/Src/stm32f4xx_hal_uart.c **** 
3126:Drivers/STM32F4xx_HAL_Driver/Src/stm32f4xx_hal_uart.c **** /**
3127:Drivers/STM32F4xx_HAL_Driver/Src/stm32f4xx_hal_uart.c ****   * @brief  DMA UART communication error callback.
3128:Drivers/STM32F4xx_HAL_Driver/Src/stm32f4xx_hal_uart.c ****   * @param  hdma  Pointer to a DMA_HandleTypeDef structure that contains
3129:Drivers/STM32F4xx_HAL_Driver/Src/stm32f4xx_hal_uart.c ****   *               the configuration information for the specified DMA module.
3130:Drivers/STM32F4xx_HAL_Driver/Src/stm32f4xx_hal_uart.c ****   * @retval None
3131:Drivers/STM32F4xx_HAL_Driver/Src/stm32f4xx_hal_uart.c ****   */
3132:Drivers/STM32F4xx_HAL_Driver/Src/stm32f4xx_hal_uart.c **** static void UART_DMAError(DMA_HandleTypeDef *hdma)
3133:Drivers/STM32F4xx_HAL_Driver/Src/stm32f4xx_hal_uart.c **** {
 7686              		.loc 1 3133 1
 7687              		.cfi_startproc
 7688              		@ args = 0, pretend = 0, frame = 16
 7689              		@ frame_needed = 1, uses_anonymous_args = 0
 7690 0000 80B5     		push	{r7, lr}
 7691              	.LCFI251:
 7692              		.cfi_def_cfa_offset 8
 7693              		.cfi_offset 7, -8
 7694              		.cfi_offset 14, -4
ARM GAS  /tmp/ccIpdX1g.s 			page 212


 7695 0002 84B0     		sub	sp, sp, #16
 7696              	.LCFI252:
 7697              		.cfi_def_cfa_offset 24
 7698 0004 00AF     		add	r7, sp, #0
 7699              	.LCFI253:
 7700              		.cfi_def_cfa_register 7
 7701 0006 7860     		str	r0, [r7, #4]
3134:Drivers/STM32F4xx_HAL_Driver/Src/stm32f4xx_hal_uart.c ****   uint32_t dmarequest = 0x00U;
 7702              		.loc 1 3134 12
 7703 0008 0023     		movs	r3, #0
 7704 000a FB60     		str	r3, [r7, #12]
3135:Drivers/STM32F4xx_HAL_Driver/Src/stm32f4xx_hal_uart.c ****   UART_HandleTypeDef *huart = (UART_HandleTypeDef *)((DMA_HandleTypeDef *)hdma)->Parent;
 7705              		.loc 1 3135 23
 7706 000c 7B68     		ldr	r3, [r7, #4]
 7707 000e 9B6B     		ldr	r3, [r3, #56]
 7708 0010 BB60     		str	r3, [r7, #8]
3136:Drivers/STM32F4xx_HAL_Driver/Src/stm32f4xx_hal_uart.c **** 
3137:Drivers/STM32F4xx_HAL_Driver/Src/stm32f4xx_hal_uart.c ****   /* Stop UART DMA Tx request if ongoing */
3138:Drivers/STM32F4xx_HAL_Driver/Src/stm32f4xx_hal_uart.c ****   dmarequest = HAL_IS_BIT_SET(huart->Instance->CR3, USART_CR3_DMAT);
 7709              		.loc 1 3138 16
 7710 0012 BB68     		ldr	r3, [r7, #8]
 7711 0014 1B68     		ldr	r3, [r3]
 7712 0016 5B69     		ldr	r3, [r3, #20]
 7713 0018 03F08003 		and	r3, r3, #128
 7714 001c 802B     		cmp	r3, #128
 7715 001e 0CBF     		ite	eq
 7716 0020 0123     		moveq	r3, #1
 7717 0022 0023     		movne	r3, #0
 7718 0024 DBB2     		uxtb	r3, r3
 7719              		.loc 1 3138 14
 7720 0026 FB60     		str	r3, [r7, #12]
3139:Drivers/STM32F4xx_HAL_Driver/Src/stm32f4xx_hal_uart.c ****   if ((huart->gState == HAL_UART_STATE_BUSY_TX) && dmarequest)
 7721              		.loc 1 3139 13
 7722 0028 BB68     		ldr	r3, [r7, #8]
 7723 002a 93F83D30 		ldrb	r3, [r3, #61]
 7724 002e DBB2     		uxtb	r3, r3
 7725              		.loc 1 3139 6
 7726 0030 212B     		cmp	r3, #33
 7727 0032 08D1     		bne	.L399
 7728              		.loc 1 3139 49 discriminator 1
 7729 0034 FB68     		ldr	r3, [r7, #12]
 7730 0036 002B     		cmp	r3, #0
 7731 0038 05D0     		beq	.L399
3140:Drivers/STM32F4xx_HAL_Driver/Src/stm32f4xx_hal_uart.c ****   {
3141:Drivers/STM32F4xx_HAL_Driver/Src/stm32f4xx_hal_uart.c ****     huart->TxXferCount = 0x00U;
 7732              		.loc 1 3141 24
 7733 003a BB68     		ldr	r3, [r7, #8]
 7734 003c 0022     		movs	r2, #0
 7735 003e DA84     		strh	r2, [r3, #38]	@ movhi
3142:Drivers/STM32F4xx_HAL_Driver/Src/stm32f4xx_hal_uart.c ****     UART_EndTxTransfer(huart);
 7736              		.loc 1 3142 5
 7737 0040 B868     		ldr	r0, [r7, #8]
 7738 0042 FFF7FEFF 		bl	UART_EndTxTransfer
 7739              	.L399:
3143:Drivers/STM32F4xx_HAL_Driver/Src/stm32f4xx_hal_uart.c ****   }
3144:Drivers/STM32F4xx_HAL_Driver/Src/stm32f4xx_hal_uart.c **** 
3145:Drivers/STM32F4xx_HAL_Driver/Src/stm32f4xx_hal_uart.c ****   /* Stop UART DMA Rx request if ongoing */
ARM GAS  /tmp/ccIpdX1g.s 			page 213


3146:Drivers/STM32F4xx_HAL_Driver/Src/stm32f4xx_hal_uart.c ****   dmarequest = HAL_IS_BIT_SET(huart->Instance->CR3, USART_CR3_DMAR);
 7740              		.loc 1 3146 16
 7741 0046 BB68     		ldr	r3, [r7, #8]
 7742 0048 1B68     		ldr	r3, [r3]
 7743 004a 5B69     		ldr	r3, [r3, #20]
 7744 004c 03F04003 		and	r3, r3, #64
 7745 0050 402B     		cmp	r3, #64
 7746 0052 0CBF     		ite	eq
 7747 0054 0123     		moveq	r3, #1
 7748 0056 0023     		movne	r3, #0
 7749 0058 DBB2     		uxtb	r3, r3
 7750              		.loc 1 3146 14
 7751 005a FB60     		str	r3, [r7, #12]
3147:Drivers/STM32F4xx_HAL_Driver/Src/stm32f4xx_hal_uart.c ****   if ((huart->RxState == HAL_UART_STATE_BUSY_RX) && dmarequest)
 7752              		.loc 1 3147 13
 7753 005c BB68     		ldr	r3, [r7, #8]
 7754 005e 93F83E30 		ldrb	r3, [r3, #62]
 7755 0062 DBB2     		uxtb	r3, r3
 7756              		.loc 1 3147 6
 7757 0064 222B     		cmp	r3, #34
 7758 0066 08D1     		bne	.L400
 7759              		.loc 1 3147 50 discriminator 1
 7760 0068 FB68     		ldr	r3, [r7, #12]
 7761 006a 002B     		cmp	r3, #0
 7762 006c 05D0     		beq	.L400
3148:Drivers/STM32F4xx_HAL_Driver/Src/stm32f4xx_hal_uart.c ****   {
3149:Drivers/STM32F4xx_HAL_Driver/Src/stm32f4xx_hal_uart.c ****     huart->RxXferCount = 0x00U;
 7763              		.loc 1 3149 24
 7764 006e BB68     		ldr	r3, [r7, #8]
 7765 0070 0022     		movs	r2, #0
 7766 0072 DA85     		strh	r2, [r3, #46]	@ movhi
3150:Drivers/STM32F4xx_HAL_Driver/Src/stm32f4xx_hal_uart.c ****     UART_EndRxTransfer(huart);
 7767              		.loc 1 3150 5
 7768 0074 B868     		ldr	r0, [r7, #8]
 7769 0076 FFF7FEFF 		bl	UART_EndRxTransfer
 7770              	.L400:
3151:Drivers/STM32F4xx_HAL_Driver/Src/stm32f4xx_hal_uart.c ****   }
3152:Drivers/STM32F4xx_HAL_Driver/Src/stm32f4xx_hal_uart.c **** 
3153:Drivers/STM32F4xx_HAL_Driver/Src/stm32f4xx_hal_uart.c ****   huart->ErrorCode |= HAL_UART_ERROR_DMA;
 7771              		.loc 1 3153 8
 7772 007a BB68     		ldr	r3, [r7, #8]
 7773 007c 1B6C     		ldr	r3, [r3, #64]
 7774              		.loc 1 3153 20
 7775 007e 43F01002 		orr	r2, r3, #16
 7776 0082 BB68     		ldr	r3, [r7, #8]
 7777 0084 1A64     		str	r2, [r3, #64]
3154:Drivers/STM32F4xx_HAL_Driver/Src/stm32f4xx_hal_uart.c **** #if (USE_HAL_UART_REGISTER_CALLBACKS == 1)
3155:Drivers/STM32F4xx_HAL_Driver/Src/stm32f4xx_hal_uart.c ****   /*Call registered error callback*/
3156:Drivers/STM32F4xx_HAL_Driver/Src/stm32f4xx_hal_uart.c ****   huart->ErrorCallback(huart);
3157:Drivers/STM32F4xx_HAL_Driver/Src/stm32f4xx_hal_uart.c **** #else
3158:Drivers/STM32F4xx_HAL_Driver/Src/stm32f4xx_hal_uart.c ****   /*Call legacy weak error callback*/
3159:Drivers/STM32F4xx_HAL_Driver/Src/stm32f4xx_hal_uart.c ****   HAL_UART_ErrorCallback(huart);
 7778              		.loc 1 3159 3
 7779 0086 B868     		ldr	r0, [r7, #8]
 7780 0088 FFF7FEFF 		bl	HAL_UART_ErrorCallback
3160:Drivers/STM32F4xx_HAL_Driver/Src/stm32f4xx_hal_uart.c **** #endif /* USE_HAL_UART_REGISTER_CALLBACKS */
3161:Drivers/STM32F4xx_HAL_Driver/Src/stm32f4xx_hal_uart.c **** }
ARM GAS  /tmp/ccIpdX1g.s 			page 214


 7781              		.loc 1 3161 1
 7782 008c 00BF     		nop
 7783 008e 1037     		adds	r7, r7, #16
 7784              	.LCFI254:
 7785              		.cfi_def_cfa_offset 8
 7786 0090 BD46     		mov	sp, r7
 7787              	.LCFI255:
 7788              		.cfi_def_cfa_register 13
 7789              		@ sp needed
 7790 0092 80BD     		pop	{r7, pc}
 7791              		.cfi_endproc
 7792              	.LFE262:
 7794              		.section	.text.UART_WaitOnFlagUntilTimeout,"ax",%progbits
 7795              		.align	1
 7796              		.syntax unified
 7797              		.thumb
 7798              		.thumb_func
 7800              	UART_WaitOnFlagUntilTimeout:
 7801              	.LFB263:
3162:Drivers/STM32F4xx_HAL_Driver/Src/stm32f4xx_hal_uart.c **** 
3163:Drivers/STM32F4xx_HAL_Driver/Src/stm32f4xx_hal_uart.c **** /**
3164:Drivers/STM32F4xx_HAL_Driver/Src/stm32f4xx_hal_uart.c ****   * @brief  This function handles UART Communication Timeout. It waits
3165:Drivers/STM32F4xx_HAL_Driver/Src/stm32f4xx_hal_uart.c ****   *         until a flag is no longer in the specified status.
3166:Drivers/STM32F4xx_HAL_Driver/Src/stm32f4xx_hal_uart.c ****   * @param  huart  Pointer to a UART_HandleTypeDef structure that contains
3167:Drivers/STM32F4xx_HAL_Driver/Src/stm32f4xx_hal_uart.c ****   *                the configuration information for the specified UART module.
3168:Drivers/STM32F4xx_HAL_Driver/Src/stm32f4xx_hal_uart.c ****   * @param  Flag specifies the UART flag to check.
3169:Drivers/STM32F4xx_HAL_Driver/Src/stm32f4xx_hal_uart.c ****   * @param  Status The actual Flag status (SET or RESET).
3170:Drivers/STM32F4xx_HAL_Driver/Src/stm32f4xx_hal_uart.c ****   * @param  Tickstart Tick start value
3171:Drivers/STM32F4xx_HAL_Driver/Src/stm32f4xx_hal_uart.c ****   * @param  Timeout Timeout duration
3172:Drivers/STM32F4xx_HAL_Driver/Src/stm32f4xx_hal_uart.c ****   * @retval HAL status
3173:Drivers/STM32F4xx_HAL_Driver/Src/stm32f4xx_hal_uart.c ****   */
3174:Drivers/STM32F4xx_HAL_Driver/Src/stm32f4xx_hal_uart.c **** static HAL_StatusTypeDef UART_WaitOnFlagUntilTimeout(UART_HandleTypeDef *huart, uint32_t Flag, Flag
3175:Drivers/STM32F4xx_HAL_Driver/Src/stm32f4xx_hal_uart.c ****                                                      uint32_t Tickstart, uint32_t Timeout)
3176:Drivers/STM32F4xx_HAL_Driver/Src/stm32f4xx_hal_uart.c **** {
 7802              		.loc 1 3176 1
 7803              		.cfi_startproc
 7804              		@ args = 4, pretend = 0, frame = 64
 7805              		@ frame_needed = 1, uses_anonymous_args = 0
 7806 0000 80B5     		push	{r7, lr}
 7807              	.LCFI256:
 7808              		.cfi_def_cfa_offset 8
 7809              		.cfi_offset 7, -8
 7810              		.cfi_offset 14, -4
 7811 0002 90B0     		sub	sp, sp, #64
 7812              	.LCFI257:
 7813              		.cfi_def_cfa_offset 72
 7814 0004 00AF     		add	r7, sp, #0
 7815              	.LCFI258:
 7816              		.cfi_def_cfa_register 7
 7817 0006 F860     		str	r0, [r7, #12]
 7818 0008 B960     		str	r1, [r7, #8]
 7819 000a 3B60     		str	r3, [r7]
 7820 000c 1346     		mov	r3, r2
 7821 000e FB71     		strb	r3, [r7, #7]
3177:Drivers/STM32F4xx_HAL_Driver/Src/stm32f4xx_hal_uart.c ****   /* Wait until flag is set */
3178:Drivers/STM32F4xx_HAL_Driver/Src/stm32f4xx_hal_uart.c ****   while ((__HAL_UART_GET_FLAG(huart, Flag) ? SET : RESET) == Status)
 7822              		.loc 1 3178 9
ARM GAS  /tmp/ccIpdX1g.s 			page 215


 7823 0010 50E0     		b	.L403
 7824              	.L412:
3179:Drivers/STM32F4xx_HAL_Driver/Src/stm32f4xx_hal_uart.c ****   {
3180:Drivers/STM32F4xx_HAL_Driver/Src/stm32f4xx_hal_uart.c ****     /* Check for the Timeout */
3181:Drivers/STM32F4xx_HAL_Driver/Src/stm32f4xx_hal_uart.c ****     if (Timeout != HAL_MAX_DELAY)
 7825              		.loc 1 3181 8
 7826 0012 BB6C     		ldr	r3, [r7, #72]
 7827 0014 B3F1FF3F 		cmp	r3, #-1
 7828 0018 4CD0     		beq	.L403
3182:Drivers/STM32F4xx_HAL_Driver/Src/stm32f4xx_hal_uart.c ****     {
3183:Drivers/STM32F4xx_HAL_Driver/Src/stm32f4xx_hal_uart.c ****       if ((Timeout == 0U) || ((HAL_GetTick() - Tickstart) > Timeout))
 7829              		.loc 1 3183 10
 7830 001a BB6C     		ldr	r3, [r7, #72]
 7831 001c 002B     		cmp	r3, #0
 7832 001e 07D0     		beq	.L407
 7833              		.loc 1 3183 32 discriminator 1
 7834 0020 FFF7FEFF 		bl	HAL_GetTick
 7835 0024 0246     		mov	r2, r0
 7836              		.loc 1 3183 46 discriminator 1
 7837 0026 3B68     		ldr	r3, [r7]
 7838 0028 D31A     		subs	r3, r2, r3
 7839              		.loc 1 3183 27 discriminator 1
 7840 002a BA6C     		ldr	r2, [r7, #72]
 7841 002c 9A42     		cmp	r2, r3
 7842 002e 41D2     		bcs	.L403
 7843              	.L407:
 7844              	.LBB589:
3184:Drivers/STM32F4xx_HAL_Driver/Src/stm32f4xx_hal_uart.c ****       {
3185:Drivers/STM32F4xx_HAL_Driver/Src/stm32f4xx_hal_uart.c ****         /* Disable TXE, RXNE, PE and ERR (Frame error, noise error, overrun error) interrupts for t
3186:Drivers/STM32F4xx_HAL_Driver/Src/stm32f4xx_hal_uart.c ****         ATOMIC_CLEAR_BIT(huart->Instance->CR1, (USART_CR1_RXNEIE | USART_CR1_PEIE | USART_CR1_TXEIE
 7845              		.loc 1 3186 9 discriminator 1
 7846 0030 FB68     		ldr	r3, [r7, #12]
 7847 0032 1B68     		ldr	r3, [r3]
 7848 0034 0C33     		adds	r3, r3, #12
 7849 0036 BB62     		str	r3, [r7, #40]
 7850              	.LBB590:
 7851              	.LBB591:
1072:Drivers/CMSIS/Include/cmsis_gcc.h ****    return(result);
 7852              		.loc 2 1072 4 discriminator 1
 7853 0038 BB6A     		ldr	r3, [r7, #40]
 7854              		.syntax unified
 7855              	@ 1072 "Drivers/CMSIS/Include/cmsis_gcc.h" 1
 7856 003a 53E8003F 		ldrex r3, [r3]
 7857              	@ 0 "" 2
 7858              		.thumb
 7859              		.syntax unified
 7860 003e 7B62     		str	r3, [r7, #36]
1073:Drivers/CMSIS/Include/cmsis_gcc.h **** }
 7861              		.loc 2 1073 10 discriminator 1
 7862 0040 7B6A     		ldr	r3, [r7, #36]
 7863              	.LBE591:
 7864              	.LBE590:
 7865              		.loc 1 3186 9 discriminator 1
 7866 0042 23F4D073 		bic	r3, r3, #416
 7867 0046 FB63     		str	r3, [r7, #60]
 7868 0048 FB68     		ldr	r3, [r7, #12]
 7869 004a 1B68     		ldr	r3, [r3]
ARM GAS  /tmp/ccIpdX1g.s 			page 216


 7870 004c 0C33     		adds	r3, r3, #12
 7871 004e FA6B     		ldr	r2, [r7, #60]
 7872 0050 7A63     		str	r2, [r7, #52]
 7873 0052 3B63     		str	r3, [r7, #48]
 7874              	.LBB592:
 7875              	.LBB593:
1123:Drivers/CMSIS/Include/cmsis_gcc.h ****    return(result);
 7876              		.loc 2 1123 4 discriminator 1
 7877 0054 396B     		ldr	r1, [r7, #48]
 7878 0056 7A6B     		ldr	r2, [r7, #52]
 7879              		.syntax unified
 7880              	@ 1123 "Drivers/CMSIS/Include/cmsis_gcc.h" 1
 7881 0058 41E80023 		strex r3, r2, [r1]
 7882              	@ 0 "" 2
 7883              		.thumb
 7884              		.syntax unified
 7885 005c FB62     		str	r3, [r7, #44]
 7886              		.loc 2 1124 10 discriminator 1
 7887 005e FB6A     		ldr	r3, [r7, #44]
 7888              	.LBE593:
 7889              	.LBE592:
 7890              		.loc 1 3186 9 discriminator 1
 7891 0060 002B     		cmp	r3, #0
 7892 0062 E5D1     		bne	.L407
 7893              	.L410:
 7894              	.LBE589:
 7895              	.LBB594:
3187:Drivers/STM32F4xx_HAL_Driver/Src/stm32f4xx_hal_uart.c ****         ATOMIC_CLEAR_BIT(huart->Instance->CR3, USART_CR3_EIE);
 7896              		.loc 1 3187 9 discriminator 1
 7897 0064 FB68     		ldr	r3, [r7, #12]
 7898 0066 1B68     		ldr	r3, [r3]
 7899 0068 1433     		adds	r3, r3, #20
 7900 006a 7B61     		str	r3, [r7, #20]
 7901              	.LBB595:
 7902              	.LBB596:
1072:Drivers/CMSIS/Include/cmsis_gcc.h ****    return(result);
 7903              		.loc 2 1072 4 discriminator 1
 7904 006c 7B69     		ldr	r3, [r7, #20]
 7905              		.syntax unified
 7906              	@ 1072 "Drivers/CMSIS/Include/cmsis_gcc.h" 1
 7907 006e 53E8003F 		ldrex r3, [r3]
 7908              	@ 0 "" 2
 7909              		.thumb
 7910              		.syntax unified
 7911 0072 3B61     		str	r3, [r7, #16]
1073:Drivers/CMSIS/Include/cmsis_gcc.h **** }
 7912              		.loc 2 1073 10 discriminator 1
 7913 0074 3B69     		ldr	r3, [r7, #16]
 7914              	.LBE596:
 7915              	.LBE595:
 7916              		.loc 1 3187 9 discriminator 1
 7917 0076 23F00103 		bic	r3, r3, #1
 7918 007a BB63     		str	r3, [r7, #56]
 7919 007c FB68     		ldr	r3, [r7, #12]
 7920 007e 1B68     		ldr	r3, [r3]
 7921 0080 1433     		adds	r3, r3, #20
 7922 0082 BA6B     		ldr	r2, [r7, #56]
ARM GAS  /tmp/ccIpdX1g.s 			page 217


 7923 0084 3A62     		str	r2, [r7, #32]
 7924 0086 FB61     		str	r3, [r7, #28]
 7925              	.LBB597:
 7926              	.LBB598:
1123:Drivers/CMSIS/Include/cmsis_gcc.h ****    return(result);
 7927              		.loc 2 1123 4 discriminator 1
 7928 0088 F969     		ldr	r1, [r7, #28]
 7929 008a 3A6A     		ldr	r2, [r7, #32]
 7930              		.syntax unified
 7931              	@ 1123 "Drivers/CMSIS/Include/cmsis_gcc.h" 1
 7932 008c 41E80023 		strex r3, r2, [r1]
 7933              	@ 0 "" 2
 7934              		.thumb
 7935              		.syntax unified
 7936 0090 BB61     		str	r3, [r7, #24]
 7937              		.loc 2 1124 10 discriminator 1
 7938 0092 BB69     		ldr	r3, [r7, #24]
 7939              	.LBE598:
 7940              	.LBE597:
 7941              		.loc 1 3187 9 discriminator 1
 7942 0094 002B     		cmp	r3, #0
 7943 0096 E5D1     		bne	.L410
 7944              	.LBE594:
3188:Drivers/STM32F4xx_HAL_Driver/Src/stm32f4xx_hal_uart.c **** 
3189:Drivers/STM32F4xx_HAL_Driver/Src/stm32f4xx_hal_uart.c ****         huart->gState  = HAL_UART_STATE_READY;
 7945              		.loc 1 3189 24
 7946 0098 FB68     		ldr	r3, [r7, #12]
 7947 009a 2022     		movs	r2, #32
 7948 009c 83F83D20 		strb	r2, [r3, #61]
3190:Drivers/STM32F4xx_HAL_Driver/Src/stm32f4xx_hal_uart.c ****         huart->RxState = HAL_UART_STATE_READY;
 7949              		.loc 1 3190 24
 7950 00a0 FB68     		ldr	r3, [r7, #12]
 7951 00a2 2022     		movs	r2, #32
 7952 00a4 83F83E20 		strb	r2, [r3, #62]
3191:Drivers/STM32F4xx_HAL_Driver/Src/stm32f4xx_hal_uart.c **** 
3192:Drivers/STM32F4xx_HAL_Driver/Src/stm32f4xx_hal_uart.c ****         /* Process Unlocked */
3193:Drivers/STM32F4xx_HAL_Driver/Src/stm32f4xx_hal_uart.c ****         __HAL_UNLOCK(huart);
 7953              		.loc 1 3193 9
 7954 00a8 FB68     		ldr	r3, [r7, #12]
 7955 00aa 0022     		movs	r2, #0
 7956 00ac 83F83C20 		strb	r2, [r3, #60]
3194:Drivers/STM32F4xx_HAL_Driver/Src/stm32f4xx_hal_uart.c **** 
3195:Drivers/STM32F4xx_HAL_Driver/Src/stm32f4xx_hal_uart.c ****         return HAL_TIMEOUT;
 7957              		.loc 1 3195 16
 7958 00b0 0323     		movs	r3, #3
 7959 00b2 0FE0     		b	.L411
 7960              	.L403:
3178:Drivers/STM32F4xx_HAL_Driver/Src/stm32f4xx_hal_uart.c ****   {
 7961              		.loc 1 3178 11
 7962 00b4 FB68     		ldr	r3, [r7, #12]
 7963 00b6 1B68     		ldr	r3, [r3]
 7964 00b8 1A68     		ldr	r2, [r3]
 7965 00ba BB68     		ldr	r3, [r7, #8]
 7966 00bc 1340     		ands	r3, r3, r2
3178:Drivers/STM32F4xx_HAL_Driver/Src/stm32f4xx_hal_uart.c ****   {
 7967              		.loc 1 3178 50
 7968 00be BA68     		ldr	r2, [r7, #8]
ARM GAS  /tmp/ccIpdX1g.s 			page 218


 7969 00c0 9A42     		cmp	r2, r3
 7970 00c2 0CBF     		ite	eq
 7971 00c4 0123     		moveq	r3, #1
 7972 00c6 0023     		movne	r3, #0
 7973 00c8 DBB2     		uxtb	r3, r3
 7974 00ca 1A46     		mov	r2, r3
3178:Drivers/STM32F4xx_HAL_Driver/Src/stm32f4xx_hal_uart.c ****   {
 7975              		.loc 1 3178 59
 7976 00cc FB79     		ldrb	r3, [r7, #7]	@ zero_extendqisi2
 7977 00ce 9A42     		cmp	r2, r3
 7978 00d0 9FD0     		beq	.L412
3196:Drivers/STM32F4xx_HAL_Driver/Src/stm32f4xx_hal_uart.c ****       }
3197:Drivers/STM32F4xx_HAL_Driver/Src/stm32f4xx_hal_uart.c ****     }
3198:Drivers/STM32F4xx_HAL_Driver/Src/stm32f4xx_hal_uart.c ****   }
3199:Drivers/STM32F4xx_HAL_Driver/Src/stm32f4xx_hal_uart.c ****   return HAL_OK;
 7979              		.loc 1 3199 10
 7980 00d2 0023     		movs	r3, #0
 7981              	.L411:
3200:Drivers/STM32F4xx_HAL_Driver/Src/stm32f4xx_hal_uart.c **** }
 7982              		.loc 1 3200 1
 7983 00d4 1846     		mov	r0, r3
 7984 00d6 4037     		adds	r7, r7, #64
 7985              	.LCFI259:
 7986              		.cfi_def_cfa_offset 8
 7987 00d8 BD46     		mov	sp, r7
 7988              	.LCFI260:
 7989              		.cfi_def_cfa_register 13
 7990              		@ sp needed
 7991 00da 80BD     		pop	{r7, pc}
 7992              		.cfi_endproc
 7993              	.LFE263:
 7995              		.section	.text.UART_Start_Receive_IT,"ax",%progbits
 7996              		.align	1
 7997              		.global	UART_Start_Receive_IT
 7998              		.syntax unified
 7999              		.thumb
 8000              		.thumb_func
 8002              	UART_Start_Receive_IT:
 8003              	.LFB264:
3201:Drivers/STM32F4xx_HAL_Driver/Src/stm32f4xx_hal_uart.c **** 
3202:Drivers/STM32F4xx_HAL_Driver/Src/stm32f4xx_hal_uart.c **** /**
3203:Drivers/STM32F4xx_HAL_Driver/Src/stm32f4xx_hal_uart.c ****   * @brief  Start Receive operation in interrupt mode.
3204:Drivers/STM32F4xx_HAL_Driver/Src/stm32f4xx_hal_uart.c ****   * @note   This function could be called by all HAL UART API providing reception in Interrupt mode
3205:Drivers/STM32F4xx_HAL_Driver/Src/stm32f4xx_hal_uart.c ****   * @note   When calling this function, parameters validity is considered as already checked,
3206:Drivers/STM32F4xx_HAL_Driver/Src/stm32f4xx_hal_uart.c ****   *         i.e. Rx State, buffer address, ...
3207:Drivers/STM32F4xx_HAL_Driver/Src/stm32f4xx_hal_uart.c ****   *         UART Handle is assumed as Locked.
3208:Drivers/STM32F4xx_HAL_Driver/Src/stm32f4xx_hal_uart.c ****   * @param  huart UART handle.
3209:Drivers/STM32F4xx_HAL_Driver/Src/stm32f4xx_hal_uart.c ****   * @param  pData Pointer to data buffer (u8 or u16 data elements).
3210:Drivers/STM32F4xx_HAL_Driver/Src/stm32f4xx_hal_uart.c ****   * @param  Size  Amount of data elements (u8 or u16) to be received.
3211:Drivers/STM32F4xx_HAL_Driver/Src/stm32f4xx_hal_uart.c ****   * @retval HAL status
3212:Drivers/STM32F4xx_HAL_Driver/Src/stm32f4xx_hal_uart.c ****   */
3213:Drivers/STM32F4xx_HAL_Driver/Src/stm32f4xx_hal_uart.c **** HAL_StatusTypeDef UART_Start_Receive_IT(UART_HandleTypeDef *huart, uint8_t *pData, uint16_t Size)
3214:Drivers/STM32F4xx_HAL_Driver/Src/stm32f4xx_hal_uart.c **** {
 8004              		.loc 1 3214 1
 8005              		.cfi_startproc
 8006              		@ args = 0, pretend = 0, frame = 16
 8007              		@ frame_needed = 1, uses_anonymous_args = 0
ARM GAS  /tmp/ccIpdX1g.s 			page 219


 8008              		@ link register save eliminated.
 8009 0000 80B4     		push	{r7}
 8010              	.LCFI261:
 8011              		.cfi_def_cfa_offset 4
 8012              		.cfi_offset 7, -4
 8013 0002 85B0     		sub	sp, sp, #20
 8014              	.LCFI262:
 8015              		.cfi_def_cfa_offset 24
 8016 0004 00AF     		add	r7, sp, #0
 8017              	.LCFI263:
 8018              		.cfi_def_cfa_register 7
 8019 0006 F860     		str	r0, [r7, #12]
 8020 0008 B960     		str	r1, [r7, #8]
 8021 000a 1346     		mov	r3, r2
 8022 000c FB80     		strh	r3, [r7, #6]	@ movhi
3215:Drivers/STM32F4xx_HAL_Driver/Src/stm32f4xx_hal_uart.c ****   huart->pRxBuffPtr = pData;
 8023              		.loc 1 3215 21
 8024 000e FB68     		ldr	r3, [r7, #12]
 8025 0010 BA68     		ldr	r2, [r7, #8]
 8026 0012 9A62     		str	r2, [r3, #40]
3216:Drivers/STM32F4xx_HAL_Driver/Src/stm32f4xx_hal_uart.c ****   huart->RxXferSize = Size;
 8027              		.loc 1 3216 21
 8028 0014 FB68     		ldr	r3, [r7, #12]
 8029 0016 FA88     		ldrh	r2, [r7, #6]	@ movhi
 8030 0018 9A85     		strh	r2, [r3, #44]	@ movhi
3217:Drivers/STM32F4xx_HAL_Driver/Src/stm32f4xx_hal_uart.c ****   huart->RxXferCount = Size;
 8031              		.loc 1 3217 22
 8032 001a FB68     		ldr	r3, [r7, #12]
 8033 001c FA88     		ldrh	r2, [r7, #6]	@ movhi
 8034 001e DA85     		strh	r2, [r3, #46]	@ movhi
3218:Drivers/STM32F4xx_HAL_Driver/Src/stm32f4xx_hal_uart.c **** 
3219:Drivers/STM32F4xx_HAL_Driver/Src/stm32f4xx_hal_uart.c ****   huart->ErrorCode = HAL_UART_ERROR_NONE;
 8035              		.loc 1 3219 20
 8036 0020 FB68     		ldr	r3, [r7, #12]
 8037 0022 0022     		movs	r2, #0
 8038 0024 1A64     		str	r2, [r3, #64]
3220:Drivers/STM32F4xx_HAL_Driver/Src/stm32f4xx_hal_uart.c ****   huart->RxState = HAL_UART_STATE_BUSY_RX;
 8039              		.loc 1 3220 18
 8040 0026 FB68     		ldr	r3, [r7, #12]
 8041 0028 2222     		movs	r2, #34
 8042 002a 83F83E20 		strb	r2, [r3, #62]
3221:Drivers/STM32F4xx_HAL_Driver/Src/stm32f4xx_hal_uart.c **** 
3222:Drivers/STM32F4xx_HAL_Driver/Src/stm32f4xx_hal_uart.c ****   /* Process Unlocked */
3223:Drivers/STM32F4xx_HAL_Driver/Src/stm32f4xx_hal_uart.c ****   __HAL_UNLOCK(huart);
 8043              		.loc 1 3223 3
 8044 002e FB68     		ldr	r3, [r7, #12]
 8045 0030 0022     		movs	r2, #0
 8046 0032 83F83C20 		strb	r2, [r3, #60]
3224:Drivers/STM32F4xx_HAL_Driver/Src/stm32f4xx_hal_uart.c **** 
3225:Drivers/STM32F4xx_HAL_Driver/Src/stm32f4xx_hal_uart.c ****   if (huart->Init.Parity != UART_PARITY_NONE)
 8047              		.loc 1 3225 18
 8048 0036 FB68     		ldr	r3, [r7, #12]
 8049 0038 1B69     		ldr	r3, [r3, #16]
 8050              		.loc 1 3225 6
 8051 003a 002B     		cmp	r3, #0
 8052 003c 07D0     		beq	.L414
3226:Drivers/STM32F4xx_HAL_Driver/Src/stm32f4xx_hal_uart.c ****   {
ARM GAS  /tmp/ccIpdX1g.s 			page 220


3227:Drivers/STM32F4xx_HAL_Driver/Src/stm32f4xx_hal_uart.c ****     /* Enable the UART Parity Error Interrupt */
3228:Drivers/STM32F4xx_HAL_Driver/Src/stm32f4xx_hal_uart.c ****     __HAL_UART_ENABLE_IT(huart, UART_IT_PE);
 8053              		.loc 1 3228 5
 8054 003e FB68     		ldr	r3, [r7, #12]
 8055 0040 1B68     		ldr	r3, [r3]
 8056 0042 DA68     		ldr	r2, [r3, #12]
 8057 0044 FB68     		ldr	r3, [r7, #12]
 8058 0046 1B68     		ldr	r3, [r3]
 8059 0048 42F48072 		orr	r2, r2, #256
 8060 004c DA60     		str	r2, [r3, #12]
 8061              	.L414:
3229:Drivers/STM32F4xx_HAL_Driver/Src/stm32f4xx_hal_uart.c ****   }
3230:Drivers/STM32F4xx_HAL_Driver/Src/stm32f4xx_hal_uart.c **** 
3231:Drivers/STM32F4xx_HAL_Driver/Src/stm32f4xx_hal_uart.c ****   /* Enable the UART Error Interrupt: (Frame error, noise error, overrun error) */
3232:Drivers/STM32F4xx_HAL_Driver/Src/stm32f4xx_hal_uart.c ****   __HAL_UART_ENABLE_IT(huart, UART_IT_ERR);
 8062              		.loc 1 3232 3
 8063 004e FB68     		ldr	r3, [r7, #12]
 8064 0050 1B68     		ldr	r3, [r3]
 8065 0052 5A69     		ldr	r2, [r3, #20]
 8066 0054 FB68     		ldr	r3, [r7, #12]
 8067 0056 1B68     		ldr	r3, [r3]
 8068 0058 42F00102 		orr	r2, r2, #1
 8069 005c 5A61     		str	r2, [r3, #20]
3233:Drivers/STM32F4xx_HAL_Driver/Src/stm32f4xx_hal_uart.c **** 
3234:Drivers/STM32F4xx_HAL_Driver/Src/stm32f4xx_hal_uart.c ****   /* Enable the UART Data Register not empty Interrupt */
3235:Drivers/STM32F4xx_HAL_Driver/Src/stm32f4xx_hal_uart.c ****   __HAL_UART_ENABLE_IT(huart, UART_IT_RXNE);
 8070              		.loc 1 3235 3
 8071 005e FB68     		ldr	r3, [r7, #12]
 8072 0060 1B68     		ldr	r3, [r3]
 8073 0062 DA68     		ldr	r2, [r3, #12]
 8074 0064 FB68     		ldr	r3, [r7, #12]
 8075 0066 1B68     		ldr	r3, [r3]
 8076 0068 42F02002 		orr	r2, r2, #32
 8077 006c DA60     		str	r2, [r3, #12]
3236:Drivers/STM32F4xx_HAL_Driver/Src/stm32f4xx_hal_uart.c **** 
3237:Drivers/STM32F4xx_HAL_Driver/Src/stm32f4xx_hal_uart.c ****   return HAL_OK;
 8078              		.loc 1 3237 10
 8079 006e 0023     		movs	r3, #0
3238:Drivers/STM32F4xx_HAL_Driver/Src/stm32f4xx_hal_uart.c **** }
 8080              		.loc 1 3238 1
 8081 0070 1846     		mov	r0, r3
 8082 0072 1437     		adds	r7, r7, #20
 8083              	.LCFI264:
 8084              		.cfi_def_cfa_offset 4
 8085 0074 BD46     		mov	sp, r7
 8086              	.LCFI265:
 8087              		.cfi_def_cfa_register 13
 8088              		@ sp needed
 8089 0076 5DF8047B 		ldr	r7, [sp], #4
 8090              	.LCFI266:
 8091              		.cfi_restore 7
 8092              		.cfi_def_cfa_offset 0
 8093 007a 7047     		bx	lr
 8094              		.cfi_endproc
 8095              	.LFE264:
 8097              		.section	.text.UART_Start_Receive_DMA,"ax",%progbits
 8098              		.align	1
ARM GAS  /tmp/ccIpdX1g.s 			page 221


 8099              		.global	UART_Start_Receive_DMA
 8100              		.syntax unified
 8101              		.thumb
 8102              		.thumb_func
 8104              	UART_Start_Receive_DMA:
 8105              	.LFB265:
3239:Drivers/STM32F4xx_HAL_Driver/Src/stm32f4xx_hal_uart.c **** 
3240:Drivers/STM32F4xx_HAL_Driver/Src/stm32f4xx_hal_uart.c **** /**
3241:Drivers/STM32F4xx_HAL_Driver/Src/stm32f4xx_hal_uart.c ****   * @brief  Start Receive operation in DMA mode.
3242:Drivers/STM32F4xx_HAL_Driver/Src/stm32f4xx_hal_uart.c ****   * @note   This function could be called by all HAL UART API providing reception in DMA mode.
3243:Drivers/STM32F4xx_HAL_Driver/Src/stm32f4xx_hal_uart.c ****   * @note   When calling this function, parameters validity is considered as already checked,
3244:Drivers/STM32F4xx_HAL_Driver/Src/stm32f4xx_hal_uart.c ****   *         i.e. Rx State, buffer address, ...
3245:Drivers/STM32F4xx_HAL_Driver/Src/stm32f4xx_hal_uart.c ****   *         UART Handle is assumed as Locked.
3246:Drivers/STM32F4xx_HAL_Driver/Src/stm32f4xx_hal_uart.c ****   * @param  huart UART handle.
3247:Drivers/STM32F4xx_HAL_Driver/Src/stm32f4xx_hal_uart.c ****   * @param  pData Pointer to data buffer (u8 or u16 data elements).
3248:Drivers/STM32F4xx_HAL_Driver/Src/stm32f4xx_hal_uart.c ****   * @param  Size  Amount of data elements (u8 or u16) to be received.
3249:Drivers/STM32F4xx_HAL_Driver/Src/stm32f4xx_hal_uart.c ****   * @retval HAL status
3250:Drivers/STM32F4xx_HAL_Driver/Src/stm32f4xx_hal_uart.c ****   */
3251:Drivers/STM32F4xx_HAL_Driver/Src/stm32f4xx_hal_uart.c **** HAL_StatusTypeDef UART_Start_Receive_DMA(UART_HandleTypeDef *huart, uint8_t *pData, uint16_t Size)
3252:Drivers/STM32F4xx_HAL_Driver/Src/stm32f4xx_hal_uart.c **** {
 8106              		.loc 1 3252 1
 8107              		.cfi_startproc
 8108              		@ args = 0, pretend = 0, frame = 96
 8109              		@ frame_needed = 1, uses_anonymous_args = 0
 8110 0000 80B5     		push	{r7, lr}
 8111              	.LCFI267:
 8112              		.cfi_def_cfa_offset 8
 8113              		.cfi_offset 7, -8
 8114              		.cfi_offset 14, -4
 8115 0002 98B0     		sub	sp, sp, #96
 8116              	.LCFI268:
 8117              		.cfi_def_cfa_offset 104
 8118 0004 00AF     		add	r7, sp, #0
 8119              	.LCFI269:
 8120              		.cfi_def_cfa_register 7
 8121 0006 F860     		str	r0, [r7, #12]
 8122 0008 B960     		str	r1, [r7, #8]
 8123 000a 1346     		mov	r3, r2
 8124 000c FB80     		strh	r3, [r7, #6]	@ movhi
3253:Drivers/STM32F4xx_HAL_Driver/Src/stm32f4xx_hal_uart.c ****   uint32_t *tmp;
3254:Drivers/STM32F4xx_HAL_Driver/Src/stm32f4xx_hal_uart.c **** 
3255:Drivers/STM32F4xx_HAL_Driver/Src/stm32f4xx_hal_uart.c ****   huart->pRxBuffPtr = pData;
 8125              		.loc 1 3255 21
 8126 000e BA68     		ldr	r2, [r7, #8]
 8127 0010 FB68     		ldr	r3, [r7, #12]
 8128 0012 9A62     		str	r2, [r3, #40]
3256:Drivers/STM32F4xx_HAL_Driver/Src/stm32f4xx_hal_uart.c ****   huart->RxXferSize = Size;
 8129              		.loc 1 3256 21
 8130 0014 FB68     		ldr	r3, [r7, #12]
 8131 0016 FA88     		ldrh	r2, [r7, #6]	@ movhi
 8132 0018 9A85     		strh	r2, [r3, #44]	@ movhi
3257:Drivers/STM32F4xx_HAL_Driver/Src/stm32f4xx_hal_uart.c **** 
3258:Drivers/STM32F4xx_HAL_Driver/Src/stm32f4xx_hal_uart.c ****   huart->ErrorCode = HAL_UART_ERROR_NONE;
 8133              		.loc 1 3258 20
 8134 001a FB68     		ldr	r3, [r7, #12]
 8135 001c 0022     		movs	r2, #0
 8136 001e 1A64     		str	r2, [r3, #64]
ARM GAS  /tmp/ccIpdX1g.s 			page 222


3259:Drivers/STM32F4xx_HAL_Driver/Src/stm32f4xx_hal_uart.c ****   huart->RxState = HAL_UART_STATE_BUSY_RX;
 8137              		.loc 1 3259 18
 8138 0020 FB68     		ldr	r3, [r7, #12]
 8139 0022 2222     		movs	r2, #34
 8140 0024 83F83E20 		strb	r2, [r3, #62]
3260:Drivers/STM32F4xx_HAL_Driver/Src/stm32f4xx_hal_uart.c **** 
3261:Drivers/STM32F4xx_HAL_Driver/Src/stm32f4xx_hal_uart.c ****   /* Set the UART DMA transfer complete callback */
3262:Drivers/STM32F4xx_HAL_Driver/Src/stm32f4xx_hal_uart.c ****   huart->hdmarx->XferCpltCallback = UART_DMAReceiveCplt;
 8141              		.loc 1 3262 8
 8142 0028 FB68     		ldr	r3, [r7, #12]
 8143 002a 9B6B     		ldr	r3, [r3, #56]
 8144              		.loc 1 3262 35
 8145 002c 404A     		ldr	r2, .L428
 8146 002e DA63     		str	r2, [r3, #60]
3263:Drivers/STM32F4xx_HAL_Driver/Src/stm32f4xx_hal_uart.c **** 
3264:Drivers/STM32F4xx_HAL_Driver/Src/stm32f4xx_hal_uart.c ****   /* Set the UART DMA Half transfer complete callback */
3265:Drivers/STM32F4xx_HAL_Driver/Src/stm32f4xx_hal_uart.c ****   huart->hdmarx->XferHalfCpltCallback = UART_DMARxHalfCplt;
 8147              		.loc 1 3265 8
 8148 0030 FB68     		ldr	r3, [r7, #12]
 8149 0032 9B6B     		ldr	r3, [r3, #56]
 8150              		.loc 1 3265 39
 8151 0034 3F4A     		ldr	r2, .L428+4
 8152 0036 1A64     		str	r2, [r3, #64]
3266:Drivers/STM32F4xx_HAL_Driver/Src/stm32f4xx_hal_uart.c **** 
3267:Drivers/STM32F4xx_HAL_Driver/Src/stm32f4xx_hal_uart.c ****   /* Set the DMA error callback */
3268:Drivers/STM32F4xx_HAL_Driver/Src/stm32f4xx_hal_uart.c ****   huart->hdmarx->XferErrorCallback = UART_DMAError;
 8153              		.loc 1 3268 8
 8154 0038 FB68     		ldr	r3, [r7, #12]
 8155 003a 9B6B     		ldr	r3, [r3, #56]
 8156              		.loc 1 3268 36
 8157 003c 3E4A     		ldr	r2, .L428+8
 8158 003e DA64     		str	r2, [r3, #76]
3269:Drivers/STM32F4xx_HAL_Driver/Src/stm32f4xx_hal_uart.c **** 
3270:Drivers/STM32F4xx_HAL_Driver/Src/stm32f4xx_hal_uart.c ****   /* Set the DMA abort callback */
3271:Drivers/STM32F4xx_HAL_Driver/Src/stm32f4xx_hal_uart.c ****   huart->hdmarx->XferAbortCallback = NULL;
 8159              		.loc 1 3271 8
 8160 0040 FB68     		ldr	r3, [r7, #12]
 8161 0042 9B6B     		ldr	r3, [r3, #56]
 8162              		.loc 1 3271 36
 8163 0044 0022     		movs	r2, #0
 8164 0046 1A65     		str	r2, [r3, #80]
3272:Drivers/STM32F4xx_HAL_Driver/Src/stm32f4xx_hal_uart.c **** 
3273:Drivers/STM32F4xx_HAL_Driver/Src/stm32f4xx_hal_uart.c ****   /* Enable the DMA stream */
3274:Drivers/STM32F4xx_HAL_Driver/Src/stm32f4xx_hal_uart.c ****   tmp = (uint32_t *)&pData;
 8165              		.loc 1 3274 7
 8166 0048 07F10803 		add	r3, r7, #8
 8167 004c FB65     		str	r3, [r7, #92]
3275:Drivers/STM32F4xx_HAL_Driver/Src/stm32f4xx_hal_uart.c ****   HAL_DMA_Start_IT(huart->hdmarx, (uint32_t)&huart->Instance->DR, *(uint32_t *)tmp, Size);
 8168              		.loc 1 3275 3
 8169 004e FB68     		ldr	r3, [r7, #12]
 8170 0050 986B     		ldr	r0, [r3, #56]
 8171              		.loc 1 3275 51
 8172 0052 FB68     		ldr	r3, [r7, #12]
 8173 0054 1B68     		ldr	r3, [r3]
 8174              		.loc 1 3275 45
 8175 0056 0433     		adds	r3, r3, #4
 8176              		.loc 1 3275 3
ARM GAS  /tmp/ccIpdX1g.s 			page 223


 8177 0058 1946     		mov	r1, r3
 8178 005a FB6D     		ldr	r3, [r7, #92]
 8179 005c 1A68     		ldr	r2, [r3]
 8180 005e FB88     		ldrh	r3, [r7, #6]
 8181 0060 FFF7FEFF 		bl	HAL_DMA_Start_IT
 8182              	.LBB599:
3276:Drivers/STM32F4xx_HAL_Driver/Src/stm32f4xx_hal_uart.c **** 
3277:Drivers/STM32F4xx_HAL_Driver/Src/stm32f4xx_hal_uart.c ****   /* Clear the Overrun flag just before enabling the DMA Rx request: can be mandatory for the secon
3278:Drivers/STM32F4xx_HAL_Driver/Src/stm32f4xx_hal_uart.c ****   __HAL_UART_CLEAR_OREFLAG(huart);
 8183              		.loc 1 3278 3
 8184 0064 0023     		movs	r3, #0
 8185 0066 3B61     		str	r3, [r7, #16]
 8186 0068 FB68     		ldr	r3, [r7, #12]
 8187 006a 1B68     		ldr	r3, [r3]
 8188 006c 1B68     		ldr	r3, [r3]
 8189 006e 3B61     		str	r3, [r7, #16]
 8190 0070 FB68     		ldr	r3, [r7, #12]
 8191 0072 1B68     		ldr	r3, [r3]
 8192 0074 5B68     		ldr	r3, [r3, #4]
 8193 0076 3B61     		str	r3, [r7, #16]
 8194 0078 3B69     		ldr	r3, [r7, #16]
 8195              	.LBE599:
3279:Drivers/STM32F4xx_HAL_Driver/Src/stm32f4xx_hal_uart.c **** 
3280:Drivers/STM32F4xx_HAL_Driver/Src/stm32f4xx_hal_uart.c ****   /* Process Unlocked */
3281:Drivers/STM32F4xx_HAL_Driver/Src/stm32f4xx_hal_uart.c ****   __HAL_UNLOCK(huart);
 8196              		.loc 1 3281 3
 8197 007a FB68     		ldr	r3, [r7, #12]
 8198 007c 0022     		movs	r2, #0
 8199 007e 83F83C20 		strb	r2, [r3, #60]
3282:Drivers/STM32F4xx_HAL_Driver/Src/stm32f4xx_hal_uart.c **** 
3283:Drivers/STM32F4xx_HAL_Driver/Src/stm32f4xx_hal_uart.c ****   if (huart->Init.Parity != UART_PARITY_NONE)
 8200              		.loc 1 3283 18
 8201 0082 FB68     		ldr	r3, [r7, #12]
 8202 0084 1B69     		ldr	r3, [r3, #16]
 8203              		.loc 1 3283 6
 8204 0086 002B     		cmp	r3, #0
 8205 0088 19D0     		beq	.L423
 8206              	.L420:
 8207              	.LBB600:
3284:Drivers/STM32F4xx_HAL_Driver/Src/stm32f4xx_hal_uart.c ****   {
3285:Drivers/STM32F4xx_HAL_Driver/Src/stm32f4xx_hal_uart.c ****     /* Enable the UART Parity Error Interrupt */
3286:Drivers/STM32F4xx_HAL_Driver/Src/stm32f4xx_hal_uart.c ****     ATOMIC_SET_BIT(huart->Instance->CR1, USART_CR1_PEIE);
 8208              		.loc 1 3286 5 discriminator 1
 8209 008a FB68     		ldr	r3, [r7, #12]
 8210 008c 1B68     		ldr	r3, [r3]
 8211 008e 0C33     		adds	r3, r3, #12
 8212 0090 3B64     		str	r3, [r7, #64]
 8213              	.LBB601:
 8214              	.LBB602:
1072:Drivers/CMSIS/Include/cmsis_gcc.h ****    return(result);
 8215              		.loc 2 1072 4 discriminator 1
 8216 0092 3B6C     		ldr	r3, [r7, #64]
 8217              		.syntax unified
 8218              	@ 1072 "Drivers/CMSIS/Include/cmsis_gcc.h" 1
 8219 0094 53E8003F 		ldrex r3, [r3]
 8220              	@ 0 "" 2
 8221              		.thumb
ARM GAS  /tmp/ccIpdX1g.s 			page 224


 8222              		.syntax unified
 8223 0098 FB63     		str	r3, [r7, #60]
1073:Drivers/CMSIS/Include/cmsis_gcc.h **** }
 8224              		.loc 2 1073 10 discriminator 1
 8225 009a FB6B     		ldr	r3, [r7, #60]
 8226              	.LBE602:
 8227              	.LBE601:
 8228              		.loc 1 3286 5 discriminator 1
 8229 009c 43F48073 		orr	r3, r3, #256
 8230 00a0 BB65     		str	r3, [r7, #88]
 8231 00a2 FB68     		ldr	r3, [r7, #12]
 8232 00a4 1B68     		ldr	r3, [r3]
 8233 00a6 0C33     		adds	r3, r3, #12
 8234 00a8 BA6D     		ldr	r2, [r7, #88]
 8235 00aa FA64     		str	r2, [r7, #76]
 8236 00ac BB64     		str	r3, [r7, #72]
 8237              	.LBB603:
 8238              	.LBB604:
1123:Drivers/CMSIS/Include/cmsis_gcc.h ****    return(result);
 8239              		.loc 2 1123 4 discriminator 1
 8240 00ae B96C     		ldr	r1, [r7, #72]
 8241 00b0 FA6C     		ldr	r2, [r7, #76]
 8242              		.syntax unified
 8243              	@ 1123 "Drivers/CMSIS/Include/cmsis_gcc.h" 1
 8244 00b2 41E80023 		strex r3, r2, [r1]
 8245              	@ 0 "" 2
 8246              		.thumb
 8247              		.syntax unified
 8248 00b6 7B64     		str	r3, [r7, #68]
 8249              		.loc 2 1124 10 discriminator 1
 8250 00b8 7B6C     		ldr	r3, [r7, #68]
 8251              	.LBE604:
 8252              	.LBE603:
 8253              		.loc 1 3286 5 discriminator 1
 8254 00ba 002B     		cmp	r3, #0
 8255 00bc E5D1     		bne	.L420
 8256              	.L423:
 8257              	.LBE600:
 8258              	.LBB605:
3287:Drivers/STM32F4xx_HAL_Driver/Src/stm32f4xx_hal_uart.c ****   }
3288:Drivers/STM32F4xx_HAL_Driver/Src/stm32f4xx_hal_uart.c **** 
3289:Drivers/STM32F4xx_HAL_Driver/Src/stm32f4xx_hal_uart.c ****   /* Enable the UART Error Interrupt: (Frame error, noise error, overrun error) */
3290:Drivers/STM32F4xx_HAL_Driver/Src/stm32f4xx_hal_uart.c ****   ATOMIC_SET_BIT(huart->Instance->CR3, USART_CR3_EIE);
 8259              		.loc 1 3290 3 discriminator 1
 8260 00be FB68     		ldr	r3, [r7, #12]
 8261 00c0 1B68     		ldr	r3, [r3]
 8262 00c2 1433     		adds	r3, r3, #20
 8263 00c4 FB62     		str	r3, [r7, #44]
 8264              	.LBB606:
 8265              	.LBB607:
1072:Drivers/CMSIS/Include/cmsis_gcc.h ****    return(result);
 8266              		.loc 2 1072 4 discriminator 1
 8267 00c6 FB6A     		ldr	r3, [r7, #44]
 8268              		.syntax unified
 8269              	@ 1072 "Drivers/CMSIS/Include/cmsis_gcc.h" 1
 8270 00c8 53E8003F 		ldrex r3, [r3]
 8271              	@ 0 "" 2
ARM GAS  /tmp/ccIpdX1g.s 			page 225


 8272              		.thumb
 8273              		.syntax unified
 8274 00cc BB62     		str	r3, [r7, #40]
1073:Drivers/CMSIS/Include/cmsis_gcc.h **** }
 8275              		.loc 2 1073 10 discriminator 1
 8276 00ce BB6A     		ldr	r3, [r7, #40]
 8277              	.LBE607:
 8278              	.LBE606:
 8279              		.loc 1 3290 3 discriminator 1
 8280 00d0 43F00103 		orr	r3, r3, #1
 8281 00d4 7B65     		str	r3, [r7, #84]
 8282 00d6 FB68     		ldr	r3, [r7, #12]
 8283 00d8 1B68     		ldr	r3, [r3]
 8284 00da 1433     		adds	r3, r3, #20
 8285 00dc 7A6D     		ldr	r2, [r7, #84]
 8286 00de BA63     		str	r2, [r7, #56]
 8287 00e0 7B63     		str	r3, [r7, #52]
 8288              	.LBB608:
 8289              	.LBB609:
1123:Drivers/CMSIS/Include/cmsis_gcc.h ****    return(result);
 8290              		.loc 2 1123 4 discriminator 1
 8291 00e2 796B     		ldr	r1, [r7, #52]
 8292 00e4 BA6B     		ldr	r2, [r7, #56]
 8293              		.syntax unified
 8294              	@ 1123 "Drivers/CMSIS/Include/cmsis_gcc.h" 1
 8295 00e6 41E80023 		strex r3, r2, [r1]
 8296              	@ 0 "" 2
 8297              		.thumb
 8298              		.syntax unified
 8299 00ea 3B63     		str	r3, [r7, #48]
 8300              		.loc 2 1124 10 discriminator 1
 8301 00ec 3B6B     		ldr	r3, [r7, #48]
 8302              	.LBE609:
 8303              	.LBE608:
 8304              		.loc 1 3290 3 discriminator 1
 8305 00ee 002B     		cmp	r3, #0
 8306 00f0 E5D1     		bne	.L423
 8307              	.L426:
 8308              	.LBE605:
 8309              	.LBB610:
3291:Drivers/STM32F4xx_HAL_Driver/Src/stm32f4xx_hal_uart.c **** 
3292:Drivers/STM32F4xx_HAL_Driver/Src/stm32f4xx_hal_uart.c ****   /* Enable the DMA transfer for the receiver request by setting the DMAR bit
3293:Drivers/STM32F4xx_HAL_Driver/Src/stm32f4xx_hal_uart.c ****   in the UART CR3 register */
3294:Drivers/STM32F4xx_HAL_Driver/Src/stm32f4xx_hal_uart.c ****   ATOMIC_SET_BIT(huart->Instance->CR3, USART_CR3_DMAR);
 8310              		.loc 1 3294 3 discriminator 1
 8311 00f2 FB68     		ldr	r3, [r7, #12]
 8312 00f4 1B68     		ldr	r3, [r3]
 8313 00f6 1433     		adds	r3, r3, #20
 8314 00f8 BB61     		str	r3, [r7, #24]
 8315              	.LBB611:
 8316              	.LBB612:
1072:Drivers/CMSIS/Include/cmsis_gcc.h ****    return(result);
 8317              		.loc 2 1072 4 discriminator 1
 8318 00fa BB69     		ldr	r3, [r7, #24]
 8319              		.syntax unified
 8320              	@ 1072 "Drivers/CMSIS/Include/cmsis_gcc.h" 1
 8321 00fc 53E8003F 		ldrex r3, [r3]
ARM GAS  /tmp/ccIpdX1g.s 			page 226


 8322              	@ 0 "" 2
 8323              		.thumb
 8324              		.syntax unified
 8325 0100 7B61     		str	r3, [r7, #20]
1073:Drivers/CMSIS/Include/cmsis_gcc.h **** }
 8326              		.loc 2 1073 10 discriminator 1
 8327 0102 7B69     		ldr	r3, [r7, #20]
 8328              	.LBE612:
 8329              	.LBE611:
 8330              		.loc 1 3294 3 discriminator 1
 8331 0104 43F04003 		orr	r3, r3, #64
 8332 0108 3B65     		str	r3, [r7, #80]
 8333 010a FB68     		ldr	r3, [r7, #12]
 8334 010c 1B68     		ldr	r3, [r3]
 8335 010e 1433     		adds	r3, r3, #20
 8336 0110 3A6D     		ldr	r2, [r7, #80]
 8337 0112 7A62     		str	r2, [r7, #36]
 8338 0114 3B62     		str	r3, [r7, #32]
 8339              	.LBB613:
 8340              	.LBB614:
1123:Drivers/CMSIS/Include/cmsis_gcc.h ****    return(result);
 8341              		.loc 2 1123 4 discriminator 1
 8342 0116 396A     		ldr	r1, [r7, #32]
 8343 0118 7A6A     		ldr	r2, [r7, #36]
 8344              		.syntax unified
 8345              	@ 1123 "Drivers/CMSIS/Include/cmsis_gcc.h" 1
 8346 011a 41E80023 		strex r3, r2, [r1]
 8347              	@ 0 "" 2
 8348              		.thumb
 8349              		.syntax unified
 8350 011e FB61     		str	r3, [r7, #28]
 8351              		.loc 2 1124 10 discriminator 1
 8352 0120 FB69     		ldr	r3, [r7, #28]
 8353              	.LBE614:
 8354              	.LBE613:
 8355              		.loc 1 3294 3 discriminator 1
 8356 0122 002B     		cmp	r3, #0
 8357 0124 E5D1     		bne	.L426
 8358              	.LBE610:
3295:Drivers/STM32F4xx_HAL_Driver/Src/stm32f4xx_hal_uart.c **** 
3296:Drivers/STM32F4xx_HAL_Driver/Src/stm32f4xx_hal_uart.c ****   return HAL_OK;
 8359              		.loc 1 3296 10
 8360 0126 0023     		movs	r3, #0
3297:Drivers/STM32F4xx_HAL_Driver/Src/stm32f4xx_hal_uart.c **** }
 8361              		.loc 1 3297 1
 8362 0128 1846     		mov	r0, r3
 8363 012a 6037     		adds	r7, r7, #96
 8364              	.LCFI270:
 8365              		.cfi_def_cfa_offset 8
 8366 012c BD46     		mov	sp, r7
 8367              	.LCFI271:
 8368              		.cfi_def_cfa_register 13
 8369              		@ sp needed
 8370 012e 80BD     		pop	{r7, pc}
 8371              	.L429:
 8372              		.align	2
 8373              	.L428:
ARM GAS  /tmp/ccIpdX1g.s 			page 227


 8374 0130 00000000 		.word	UART_DMAReceiveCplt
 8375 0134 00000000 		.word	UART_DMARxHalfCplt
 8376 0138 00000000 		.word	UART_DMAError
 8377              		.cfi_endproc
 8378              	.LFE265:
 8380              		.section	.text.UART_EndTxTransfer,"ax",%progbits
 8381              		.align	1
 8382              		.syntax unified
 8383              		.thumb
 8384              		.thumb_func
 8386              	UART_EndTxTransfer:
 8387              	.LFB266:
3298:Drivers/STM32F4xx_HAL_Driver/Src/stm32f4xx_hal_uart.c **** 
3299:Drivers/STM32F4xx_HAL_Driver/Src/stm32f4xx_hal_uart.c **** /**
3300:Drivers/STM32F4xx_HAL_Driver/Src/stm32f4xx_hal_uart.c ****   * @brief  End ongoing Tx transfer on UART peripheral (following error detection or Transmit compl
3301:Drivers/STM32F4xx_HAL_Driver/Src/stm32f4xx_hal_uart.c ****   * @param  huart UART handle.
3302:Drivers/STM32F4xx_HAL_Driver/Src/stm32f4xx_hal_uart.c ****   * @retval None
3303:Drivers/STM32F4xx_HAL_Driver/Src/stm32f4xx_hal_uart.c ****   */
3304:Drivers/STM32F4xx_HAL_Driver/Src/stm32f4xx_hal_uart.c **** static void UART_EndTxTransfer(UART_HandleTypeDef *huart)
3305:Drivers/STM32F4xx_HAL_Driver/Src/stm32f4xx_hal_uart.c **** {
 8388              		.loc 1 3305 1
 8389              		.cfi_startproc
 8390              		@ args = 0, pretend = 0, frame = 32
 8391              		@ frame_needed = 1, uses_anonymous_args = 0
 8392              		@ link register save eliminated.
 8393 0000 80B4     		push	{r7}
 8394              	.LCFI272:
 8395              		.cfi_def_cfa_offset 4
 8396              		.cfi_offset 7, -4
 8397 0002 89B0     		sub	sp, sp, #36
 8398              	.LCFI273:
 8399              		.cfi_def_cfa_offset 40
 8400 0004 00AF     		add	r7, sp, #0
 8401              	.LCFI274:
 8402              		.cfi_def_cfa_register 7
 8403 0006 7860     		str	r0, [r7, #4]
 8404              	.L433:
 8405              	.LBB615:
3306:Drivers/STM32F4xx_HAL_Driver/Src/stm32f4xx_hal_uart.c ****   /* Disable TXEIE and TCIE interrupts */
3307:Drivers/STM32F4xx_HAL_Driver/Src/stm32f4xx_hal_uart.c ****   ATOMIC_CLEAR_BIT(huart->Instance->CR1, (USART_CR1_TXEIE | USART_CR1_TCIE));
 8406              		.loc 1 3307 3 discriminator 1
 8407 0008 7B68     		ldr	r3, [r7, #4]
 8408 000a 1B68     		ldr	r3, [r3]
 8409 000c 0C33     		adds	r3, r3, #12
 8410 000e FB60     		str	r3, [r7, #12]
 8411              	.LBB616:
 8412              	.LBB617:
1072:Drivers/CMSIS/Include/cmsis_gcc.h ****    return(result);
 8413              		.loc 2 1072 4 discriminator 1
 8414 0010 FB68     		ldr	r3, [r7, #12]
 8415              		.syntax unified
 8416              	@ 1072 "Drivers/CMSIS/Include/cmsis_gcc.h" 1
 8417 0012 53E8003F 		ldrex r3, [r3]
 8418              	@ 0 "" 2
 8419              		.thumb
 8420              		.syntax unified
 8421 0016 BB60     		str	r3, [r7, #8]
ARM GAS  /tmp/ccIpdX1g.s 			page 228


1073:Drivers/CMSIS/Include/cmsis_gcc.h **** }
 8422              		.loc 2 1073 10 discriminator 1
 8423 0018 BB68     		ldr	r3, [r7, #8]
 8424              	.LBE617:
 8425              	.LBE616:
 8426              		.loc 1 3307 3 discriminator 1
 8427 001a 23F0C003 		bic	r3, r3, #192
 8428 001e FB61     		str	r3, [r7, #28]
 8429 0020 7B68     		ldr	r3, [r7, #4]
 8430 0022 1B68     		ldr	r3, [r3]
 8431 0024 0C33     		adds	r3, r3, #12
 8432 0026 FA69     		ldr	r2, [r7, #28]
 8433 0028 BA61     		str	r2, [r7, #24]
 8434 002a 7B61     		str	r3, [r7, #20]
 8435              	.LBB618:
 8436              	.LBB619:
1123:Drivers/CMSIS/Include/cmsis_gcc.h ****    return(result);
 8437              		.loc 2 1123 4 discriminator 1
 8438 002c 7969     		ldr	r1, [r7, #20]
 8439 002e BA69     		ldr	r2, [r7, #24]
 8440              		.syntax unified
 8441              	@ 1123 "Drivers/CMSIS/Include/cmsis_gcc.h" 1
 8442 0030 41E80023 		strex r3, r2, [r1]
 8443              	@ 0 "" 2
 8444              		.thumb
 8445              		.syntax unified
 8446 0034 3B61     		str	r3, [r7, #16]
 8447              		.loc 2 1124 10 discriminator 1
 8448 0036 3B69     		ldr	r3, [r7, #16]
 8449              	.LBE619:
 8450              	.LBE618:
 8451              		.loc 1 3307 3 discriminator 1
 8452 0038 002B     		cmp	r3, #0
 8453 003a E5D1     		bne	.L433
 8454              	.LBE615:
3308:Drivers/STM32F4xx_HAL_Driver/Src/stm32f4xx_hal_uart.c **** 
3309:Drivers/STM32F4xx_HAL_Driver/Src/stm32f4xx_hal_uart.c ****   /* At end of Tx process, restore huart->gState to Ready */
3310:Drivers/STM32F4xx_HAL_Driver/Src/stm32f4xx_hal_uart.c ****   huart->gState = HAL_UART_STATE_READY;
 8455              		.loc 1 3310 17
 8456 003c 7B68     		ldr	r3, [r7, #4]
 8457 003e 2022     		movs	r2, #32
 8458 0040 83F83D20 		strb	r2, [r3, #61]
3311:Drivers/STM32F4xx_HAL_Driver/Src/stm32f4xx_hal_uart.c **** }
 8459              		.loc 1 3311 1
 8460 0044 00BF     		nop
 8461 0046 2437     		adds	r7, r7, #36
 8462              	.LCFI275:
 8463              		.cfi_def_cfa_offset 4
 8464 0048 BD46     		mov	sp, r7
 8465              	.LCFI276:
 8466              		.cfi_def_cfa_register 13
 8467              		@ sp needed
 8468 004a 5DF8047B 		ldr	r7, [sp], #4
 8469              	.LCFI277:
 8470              		.cfi_restore 7
 8471              		.cfi_def_cfa_offset 0
 8472 004e 7047     		bx	lr
ARM GAS  /tmp/ccIpdX1g.s 			page 229


 8473              		.cfi_endproc
 8474              	.LFE266:
 8476              		.section	.text.UART_EndRxTransfer,"ax",%progbits
 8477              		.align	1
 8478              		.syntax unified
 8479              		.thumb
 8480              		.thumb_func
 8482              	UART_EndRxTransfer:
 8483              	.LFB267:
3312:Drivers/STM32F4xx_HAL_Driver/Src/stm32f4xx_hal_uart.c **** 
3313:Drivers/STM32F4xx_HAL_Driver/Src/stm32f4xx_hal_uart.c **** /**
3314:Drivers/STM32F4xx_HAL_Driver/Src/stm32f4xx_hal_uart.c ****   * @brief  End ongoing Rx transfer on UART peripheral (following error detection or Reception comp
3315:Drivers/STM32F4xx_HAL_Driver/Src/stm32f4xx_hal_uart.c ****   * @param  huart UART handle.
3316:Drivers/STM32F4xx_HAL_Driver/Src/stm32f4xx_hal_uart.c ****   * @retval None
3317:Drivers/STM32F4xx_HAL_Driver/Src/stm32f4xx_hal_uart.c ****   */
3318:Drivers/STM32F4xx_HAL_Driver/Src/stm32f4xx_hal_uart.c **** static void UART_EndRxTransfer(UART_HandleTypeDef *huart)
3319:Drivers/STM32F4xx_HAL_Driver/Src/stm32f4xx_hal_uart.c **** {
 8484              		.loc 1 3319 1
 8485              		.cfi_startproc
 8486              		@ args = 0, pretend = 0, frame = 80
 8487              		@ frame_needed = 1, uses_anonymous_args = 0
 8488              		@ link register save eliminated.
 8489 0000 80B4     		push	{r7}
 8490              	.LCFI278:
 8491              		.cfi_def_cfa_offset 4
 8492              		.cfi_offset 7, -4
 8493 0002 95B0     		sub	sp, sp, #84
 8494              	.LCFI279:
 8495              		.cfi_def_cfa_offset 88
 8496 0004 00AF     		add	r7, sp, #0
 8497              	.LCFI280:
 8498              		.cfi_def_cfa_register 7
 8499 0006 7860     		str	r0, [r7, #4]
 8500              	.L437:
 8501              	.LBB620:
3320:Drivers/STM32F4xx_HAL_Driver/Src/stm32f4xx_hal_uart.c ****   /* Disable RXNE, PE and ERR (Frame error, noise error, overrun error) interrupts */
3321:Drivers/STM32F4xx_HAL_Driver/Src/stm32f4xx_hal_uart.c ****   ATOMIC_CLEAR_BIT(huart->Instance->CR1, (USART_CR1_RXNEIE | USART_CR1_PEIE));
 8502              		.loc 1 3321 3 discriminator 1
 8503 0008 7B68     		ldr	r3, [r7, #4]
 8504 000a 1B68     		ldr	r3, [r3]
 8505 000c 0C33     		adds	r3, r3, #12
 8506 000e 7B63     		str	r3, [r7, #52]
 8507              	.LBB621:
 8508              	.LBB622:
1072:Drivers/CMSIS/Include/cmsis_gcc.h ****    return(result);
 8509              		.loc 2 1072 4 discriminator 1
 8510 0010 7B6B     		ldr	r3, [r7, #52]
 8511              		.syntax unified
 8512              	@ 1072 "Drivers/CMSIS/Include/cmsis_gcc.h" 1
 8513 0012 53E8003F 		ldrex r3, [r3]
 8514              	@ 0 "" 2
 8515              		.thumb
 8516              		.syntax unified
 8517 0016 3B63     		str	r3, [r7, #48]
1073:Drivers/CMSIS/Include/cmsis_gcc.h **** }
 8518              		.loc 2 1073 10 discriminator 1
 8519 0018 3B6B     		ldr	r3, [r7, #48]
ARM GAS  /tmp/ccIpdX1g.s 			page 230


 8520              	.LBE622:
 8521              	.LBE621:
 8522              		.loc 1 3321 3 discriminator 1
 8523 001a 23F49073 		bic	r3, r3, #288
 8524 001e FB64     		str	r3, [r7, #76]
 8525 0020 7B68     		ldr	r3, [r7, #4]
 8526 0022 1B68     		ldr	r3, [r3]
 8527 0024 0C33     		adds	r3, r3, #12
 8528 0026 FA6C     		ldr	r2, [r7, #76]
 8529 0028 3A64     		str	r2, [r7, #64]
 8530 002a FB63     		str	r3, [r7, #60]
 8531              	.LBB623:
 8532              	.LBB624:
1123:Drivers/CMSIS/Include/cmsis_gcc.h ****    return(result);
 8533              		.loc 2 1123 4 discriminator 1
 8534 002c F96B     		ldr	r1, [r7, #60]
 8535 002e 3A6C     		ldr	r2, [r7, #64]
 8536              		.syntax unified
 8537              	@ 1123 "Drivers/CMSIS/Include/cmsis_gcc.h" 1
 8538 0030 41E80023 		strex r3, r2, [r1]
 8539              	@ 0 "" 2
 8540              		.thumb
 8541              		.syntax unified
 8542 0034 BB63     		str	r3, [r7, #56]
 8543              		.loc 2 1124 10 discriminator 1
 8544 0036 BB6B     		ldr	r3, [r7, #56]
 8545              	.LBE624:
 8546              	.LBE623:
 8547              		.loc 1 3321 3 discriminator 1
 8548 0038 002B     		cmp	r3, #0
 8549 003a E5D1     		bne	.L437
 8550              	.L440:
 8551              	.LBE620:
 8552              	.LBB625:
3322:Drivers/STM32F4xx_HAL_Driver/Src/stm32f4xx_hal_uart.c ****   ATOMIC_CLEAR_BIT(huart->Instance->CR3, USART_CR3_EIE);
 8553              		.loc 1 3322 3 discriminator 1
 8554 003c 7B68     		ldr	r3, [r7, #4]
 8555 003e 1B68     		ldr	r3, [r3]
 8556 0040 1433     		adds	r3, r3, #20
 8557 0042 3B62     		str	r3, [r7, #32]
 8558              	.LBB626:
 8559              	.LBB627:
1072:Drivers/CMSIS/Include/cmsis_gcc.h ****    return(result);
 8560              		.loc 2 1072 4 discriminator 1
 8561 0044 3B6A     		ldr	r3, [r7, #32]
 8562              		.syntax unified
 8563              	@ 1072 "Drivers/CMSIS/Include/cmsis_gcc.h" 1
 8564 0046 53E8003F 		ldrex r3, [r3]
 8565              	@ 0 "" 2
 8566              		.thumb
 8567              		.syntax unified
 8568 004a FB61     		str	r3, [r7, #28]
1073:Drivers/CMSIS/Include/cmsis_gcc.h **** }
 8569              		.loc 2 1073 10 discriminator 1
 8570 004c FB69     		ldr	r3, [r7, #28]
 8571              	.LBE627:
 8572              	.LBE626:
ARM GAS  /tmp/ccIpdX1g.s 			page 231


 8573              		.loc 1 3322 3 discriminator 1
 8574 004e 23F00103 		bic	r3, r3, #1
 8575 0052 BB64     		str	r3, [r7, #72]
 8576 0054 7B68     		ldr	r3, [r7, #4]
 8577 0056 1B68     		ldr	r3, [r3]
 8578 0058 1433     		adds	r3, r3, #20
 8579 005a BA6C     		ldr	r2, [r7, #72]
 8580 005c FA62     		str	r2, [r7, #44]
 8581 005e BB62     		str	r3, [r7, #40]
 8582              	.LBB628:
 8583              	.LBB629:
1123:Drivers/CMSIS/Include/cmsis_gcc.h ****    return(result);
 8584              		.loc 2 1123 4 discriminator 1
 8585 0060 B96A     		ldr	r1, [r7, #40]
 8586 0062 FA6A     		ldr	r2, [r7, #44]
 8587              		.syntax unified
 8588              	@ 1123 "Drivers/CMSIS/Include/cmsis_gcc.h" 1
 8589 0064 41E80023 		strex r3, r2, [r1]
 8590              	@ 0 "" 2
 8591              		.thumb
 8592              		.syntax unified
 8593 0068 7B62     		str	r3, [r7, #36]
 8594              		.loc 2 1124 10 discriminator 1
 8595 006a 7B6A     		ldr	r3, [r7, #36]
 8596              	.LBE629:
 8597              	.LBE628:
 8598              		.loc 1 3322 3 discriminator 1
 8599 006c 002B     		cmp	r3, #0
 8600 006e E5D1     		bne	.L440
 8601              	.LBE625:
3323:Drivers/STM32F4xx_HAL_Driver/Src/stm32f4xx_hal_uart.c **** 
3324:Drivers/STM32F4xx_HAL_Driver/Src/stm32f4xx_hal_uart.c ****   /* In case of reception waiting for IDLE event, disable also the IDLE IE interrupt source */
3325:Drivers/STM32F4xx_HAL_Driver/Src/stm32f4xx_hal_uart.c ****   if (huart->ReceptionType == HAL_UART_RECEPTION_TOIDLE)
 8602              		.loc 1 3325 12
 8603 0070 7B68     		ldr	r3, [r7, #4]
 8604 0072 1B6B     		ldr	r3, [r3, #48]
 8605              		.loc 1 3325 6
 8606 0074 012B     		cmp	r3, #1
 8607 0076 19D1     		bne	.L441
 8608              	.L444:
 8609              	.LBB630:
3326:Drivers/STM32F4xx_HAL_Driver/Src/stm32f4xx_hal_uart.c ****   {
3327:Drivers/STM32F4xx_HAL_Driver/Src/stm32f4xx_hal_uart.c ****     ATOMIC_CLEAR_BIT(huart->Instance->CR1, USART_CR1_IDLEIE);
 8610              		.loc 1 3327 5 discriminator 1
 8611 0078 7B68     		ldr	r3, [r7, #4]
 8612 007a 1B68     		ldr	r3, [r3]
 8613 007c 0C33     		adds	r3, r3, #12
 8614 007e FB60     		str	r3, [r7, #12]
 8615              	.LBB631:
 8616              	.LBB632:
1072:Drivers/CMSIS/Include/cmsis_gcc.h ****    return(result);
 8617              		.loc 2 1072 4 discriminator 1
 8618 0080 FB68     		ldr	r3, [r7, #12]
 8619              		.syntax unified
 8620              	@ 1072 "Drivers/CMSIS/Include/cmsis_gcc.h" 1
 8621 0082 53E8003F 		ldrex r3, [r3]
 8622              	@ 0 "" 2
ARM GAS  /tmp/ccIpdX1g.s 			page 232


 8623              		.thumb
 8624              		.syntax unified
 8625 0086 BB60     		str	r3, [r7, #8]
1073:Drivers/CMSIS/Include/cmsis_gcc.h **** }
 8626              		.loc 2 1073 10 discriminator 1
 8627 0088 BB68     		ldr	r3, [r7, #8]
 8628              	.LBE632:
 8629              	.LBE631:
 8630              		.loc 1 3327 5 discriminator 1
 8631 008a 23F01003 		bic	r3, r3, #16
 8632 008e 7B64     		str	r3, [r7, #68]
 8633 0090 7B68     		ldr	r3, [r7, #4]
 8634 0092 1B68     		ldr	r3, [r3]
 8635 0094 0C33     		adds	r3, r3, #12
 8636 0096 7A6C     		ldr	r2, [r7, #68]
 8637 0098 BA61     		str	r2, [r7, #24]
 8638 009a 7B61     		str	r3, [r7, #20]
 8639              	.LBB633:
 8640              	.LBB634:
1123:Drivers/CMSIS/Include/cmsis_gcc.h ****    return(result);
 8641              		.loc 2 1123 4 discriminator 1
 8642 009c 7969     		ldr	r1, [r7, #20]
 8643 009e BA69     		ldr	r2, [r7, #24]
 8644              		.syntax unified
 8645              	@ 1123 "Drivers/CMSIS/Include/cmsis_gcc.h" 1
 8646 00a0 41E80023 		strex r3, r2, [r1]
 8647              	@ 0 "" 2
 8648              		.thumb
 8649              		.syntax unified
 8650 00a4 3B61     		str	r3, [r7, #16]
 8651              		.loc 2 1124 10 discriminator 1
 8652 00a6 3B69     		ldr	r3, [r7, #16]
 8653              	.LBE634:
 8654              	.LBE633:
 8655              		.loc 1 3327 5 discriminator 1
 8656 00a8 002B     		cmp	r3, #0
 8657 00aa E5D1     		bne	.L444
 8658              	.L441:
 8659              	.LBE630:
3328:Drivers/STM32F4xx_HAL_Driver/Src/stm32f4xx_hal_uart.c ****   }
3329:Drivers/STM32F4xx_HAL_Driver/Src/stm32f4xx_hal_uart.c **** 
3330:Drivers/STM32F4xx_HAL_Driver/Src/stm32f4xx_hal_uart.c ****   /* At end of Rx process, restore huart->RxState to Ready */
3331:Drivers/STM32F4xx_HAL_Driver/Src/stm32f4xx_hal_uart.c ****   huart->RxState = HAL_UART_STATE_READY;
 8660              		.loc 1 3331 18
 8661 00ac 7B68     		ldr	r3, [r7, #4]
 8662 00ae 2022     		movs	r2, #32
 8663 00b0 83F83E20 		strb	r2, [r3, #62]
3332:Drivers/STM32F4xx_HAL_Driver/Src/stm32f4xx_hal_uart.c ****   huart->ReceptionType = HAL_UART_RECEPTION_STANDARD;
 8664              		.loc 1 3332 24
 8665 00b4 7B68     		ldr	r3, [r7, #4]
 8666 00b6 0022     		movs	r2, #0
 8667 00b8 1A63     		str	r2, [r3, #48]
3333:Drivers/STM32F4xx_HAL_Driver/Src/stm32f4xx_hal_uart.c **** }
 8668              		.loc 1 3333 1
 8669 00ba 00BF     		nop
 8670 00bc 5437     		adds	r7, r7, #84
 8671              	.LCFI281:
ARM GAS  /tmp/ccIpdX1g.s 			page 233


 8672              		.cfi_def_cfa_offset 4
 8673 00be BD46     		mov	sp, r7
 8674              	.LCFI282:
 8675              		.cfi_def_cfa_register 13
 8676              		@ sp needed
 8677 00c0 5DF8047B 		ldr	r7, [sp], #4
 8678              	.LCFI283:
 8679              		.cfi_restore 7
 8680              		.cfi_def_cfa_offset 0
 8681 00c4 7047     		bx	lr
 8682              		.cfi_endproc
 8683              	.LFE267:
 8685              		.section	.text.UART_DMAAbortOnError,"ax",%progbits
 8686              		.align	1
 8687              		.syntax unified
 8688              		.thumb
 8689              		.thumb_func
 8691              	UART_DMAAbortOnError:
 8692              	.LFB268:
3334:Drivers/STM32F4xx_HAL_Driver/Src/stm32f4xx_hal_uart.c **** 
3335:Drivers/STM32F4xx_HAL_Driver/Src/stm32f4xx_hal_uart.c **** /**
3336:Drivers/STM32F4xx_HAL_Driver/Src/stm32f4xx_hal_uart.c ****   * @brief  DMA UART communication abort callback, when initiated by HAL services on Error
3337:Drivers/STM32F4xx_HAL_Driver/Src/stm32f4xx_hal_uart.c ****   *         (To be called at end of DMA Abort procedure following error occurrence).
3338:Drivers/STM32F4xx_HAL_Driver/Src/stm32f4xx_hal_uart.c ****   * @param  hdma  Pointer to a DMA_HandleTypeDef structure that contains
3339:Drivers/STM32F4xx_HAL_Driver/Src/stm32f4xx_hal_uart.c ****   *               the configuration information for the specified DMA module.
3340:Drivers/STM32F4xx_HAL_Driver/Src/stm32f4xx_hal_uart.c ****   * @retval None
3341:Drivers/STM32F4xx_HAL_Driver/Src/stm32f4xx_hal_uart.c ****   */
3342:Drivers/STM32F4xx_HAL_Driver/Src/stm32f4xx_hal_uart.c **** static void UART_DMAAbortOnError(DMA_HandleTypeDef *hdma)
3343:Drivers/STM32F4xx_HAL_Driver/Src/stm32f4xx_hal_uart.c **** {
 8693              		.loc 1 3343 1
 8694              		.cfi_startproc
 8695              		@ args = 0, pretend = 0, frame = 16
 8696              		@ frame_needed = 1, uses_anonymous_args = 0
 8697 0000 80B5     		push	{r7, lr}
 8698              	.LCFI284:
 8699              		.cfi_def_cfa_offset 8
 8700              		.cfi_offset 7, -8
 8701              		.cfi_offset 14, -4
 8702 0002 84B0     		sub	sp, sp, #16
 8703              	.LCFI285:
 8704              		.cfi_def_cfa_offset 24
 8705 0004 00AF     		add	r7, sp, #0
 8706              	.LCFI286:
 8707              		.cfi_def_cfa_register 7
 8708 0006 7860     		str	r0, [r7, #4]
3344:Drivers/STM32F4xx_HAL_Driver/Src/stm32f4xx_hal_uart.c ****   UART_HandleTypeDef *huart = (UART_HandleTypeDef *)((DMA_HandleTypeDef *)hdma)->Parent;
 8709              		.loc 1 3344 23
 8710 0008 7B68     		ldr	r3, [r7, #4]
 8711 000a 9B6B     		ldr	r3, [r3, #56]
 8712 000c FB60     		str	r3, [r7, #12]
3345:Drivers/STM32F4xx_HAL_Driver/Src/stm32f4xx_hal_uart.c ****   huart->RxXferCount = 0x00U;
 8713              		.loc 1 3345 22
 8714 000e FB68     		ldr	r3, [r7, #12]
 8715 0010 0022     		movs	r2, #0
 8716 0012 DA85     		strh	r2, [r3, #46]	@ movhi
3346:Drivers/STM32F4xx_HAL_Driver/Src/stm32f4xx_hal_uart.c ****   huart->TxXferCount = 0x00U;
 8717              		.loc 1 3346 22
ARM GAS  /tmp/ccIpdX1g.s 			page 234


 8718 0014 FB68     		ldr	r3, [r7, #12]
 8719 0016 0022     		movs	r2, #0
 8720 0018 DA84     		strh	r2, [r3, #38]	@ movhi
3347:Drivers/STM32F4xx_HAL_Driver/Src/stm32f4xx_hal_uart.c **** 
3348:Drivers/STM32F4xx_HAL_Driver/Src/stm32f4xx_hal_uart.c **** #if (USE_HAL_UART_REGISTER_CALLBACKS == 1)
3349:Drivers/STM32F4xx_HAL_Driver/Src/stm32f4xx_hal_uart.c ****   /*Call registered error callback*/
3350:Drivers/STM32F4xx_HAL_Driver/Src/stm32f4xx_hal_uart.c ****   huart->ErrorCallback(huart);
3351:Drivers/STM32F4xx_HAL_Driver/Src/stm32f4xx_hal_uart.c **** #else
3352:Drivers/STM32F4xx_HAL_Driver/Src/stm32f4xx_hal_uart.c ****   /*Call legacy weak error callback*/
3353:Drivers/STM32F4xx_HAL_Driver/Src/stm32f4xx_hal_uart.c ****   HAL_UART_ErrorCallback(huart);
 8721              		.loc 1 3353 3
 8722 001a F868     		ldr	r0, [r7, #12]
 8723 001c FFF7FEFF 		bl	HAL_UART_ErrorCallback
3354:Drivers/STM32F4xx_HAL_Driver/Src/stm32f4xx_hal_uart.c **** #endif /* USE_HAL_UART_REGISTER_CALLBACKS */
3355:Drivers/STM32F4xx_HAL_Driver/Src/stm32f4xx_hal_uart.c **** }
 8724              		.loc 1 3355 1
 8725 0020 00BF     		nop
 8726 0022 1037     		adds	r7, r7, #16
 8727              	.LCFI287:
 8728              		.cfi_def_cfa_offset 8
 8729 0024 BD46     		mov	sp, r7
 8730              	.LCFI288:
 8731              		.cfi_def_cfa_register 13
 8732              		@ sp needed
 8733 0026 80BD     		pop	{r7, pc}
 8734              		.cfi_endproc
 8735              	.LFE268:
 8737              		.section	.text.UART_DMATxAbortCallback,"ax",%progbits
 8738              		.align	1
 8739              		.syntax unified
 8740              		.thumb
 8741              		.thumb_func
 8743              	UART_DMATxAbortCallback:
 8744              	.LFB269:
3356:Drivers/STM32F4xx_HAL_Driver/Src/stm32f4xx_hal_uart.c **** 
3357:Drivers/STM32F4xx_HAL_Driver/Src/stm32f4xx_hal_uart.c **** /**
3358:Drivers/STM32F4xx_HAL_Driver/Src/stm32f4xx_hal_uart.c ****   * @brief  DMA UART Tx communication abort callback, when initiated by user
3359:Drivers/STM32F4xx_HAL_Driver/Src/stm32f4xx_hal_uart.c ****   *         (To be called at end of DMA Tx Abort procedure following user abort request).
3360:Drivers/STM32F4xx_HAL_Driver/Src/stm32f4xx_hal_uart.c ****   * @note   When this callback is executed, User Abort complete call back is called only if no
3361:Drivers/STM32F4xx_HAL_Driver/Src/stm32f4xx_hal_uart.c ****   *         Abort still ongoing for Rx DMA Handle.
3362:Drivers/STM32F4xx_HAL_Driver/Src/stm32f4xx_hal_uart.c ****   * @param  hdma  Pointer to a DMA_HandleTypeDef structure that contains
3363:Drivers/STM32F4xx_HAL_Driver/Src/stm32f4xx_hal_uart.c ****   *               the configuration information for the specified DMA module.
3364:Drivers/STM32F4xx_HAL_Driver/Src/stm32f4xx_hal_uart.c ****   * @retval None
3365:Drivers/STM32F4xx_HAL_Driver/Src/stm32f4xx_hal_uart.c ****   */
3366:Drivers/STM32F4xx_HAL_Driver/Src/stm32f4xx_hal_uart.c **** static void UART_DMATxAbortCallback(DMA_HandleTypeDef *hdma)
3367:Drivers/STM32F4xx_HAL_Driver/Src/stm32f4xx_hal_uart.c **** {
 8745              		.loc 1 3367 1
 8746              		.cfi_startproc
 8747              		@ args = 0, pretend = 0, frame = 16
 8748              		@ frame_needed = 1, uses_anonymous_args = 0
 8749 0000 80B5     		push	{r7, lr}
 8750              	.LCFI289:
 8751              		.cfi_def_cfa_offset 8
 8752              		.cfi_offset 7, -8
 8753              		.cfi_offset 14, -4
 8754 0002 84B0     		sub	sp, sp, #16
 8755              	.LCFI290:
ARM GAS  /tmp/ccIpdX1g.s 			page 235


 8756              		.cfi_def_cfa_offset 24
 8757 0004 00AF     		add	r7, sp, #0
 8758              	.LCFI291:
 8759              		.cfi_def_cfa_register 7
 8760 0006 7860     		str	r0, [r7, #4]
3368:Drivers/STM32F4xx_HAL_Driver/Src/stm32f4xx_hal_uart.c ****   UART_HandleTypeDef *huart = (UART_HandleTypeDef *)((DMA_HandleTypeDef *)hdma)->Parent;
 8761              		.loc 1 3368 23
 8762 0008 7B68     		ldr	r3, [r7, #4]
 8763 000a 9B6B     		ldr	r3, [r3, #56]
 8764 000c FB60     		str	r3, [r7, #12]
3369:Drivers/STM32F4xx_HAL_Driver/Src/stm32f4xx_hal_uart.c **** 
3370:Drivers/STM32F4xx_HAL_Driver/Src/stm32f4xx_hal_uart.c ****   huart->hdmatx->XferAbortCallback = NULL;
 8765              		.loc 1 3370 8
 8766 000e FB68     		ldr	r3, [r7, #12]
 8767 0010 5B6B     		ldr	r3, [r3, #52]
 8768              		.loc 1 3370 36
 8769 0012 0022     		movs	r2, #0
 8770 0014 1A65     		str	r2, [r3, #80]
3371:Drivers/STM32F4xx_HAL_Driver/Src/stm32f4xx_hal_uart.c **** 
3372:Drivers/STM32F4xx_HAL_Driver/Src/stm32f4xx_hal_uart.c ****   /* Check if an Abort process is still ongoing */
3373:Drivers/STM32F4xx_HAL_Driver/Src/stm32f4xx_hal_uart.c ****   if (huart->hdmarx != NULL)
 8771              		.loc 1 3373 12
 8772 0016 FB68     		ldr	r3, [r7, #12]
 8773 0018 9B6B     		ldr	r3, [r3, #56]
 8774              		.loc 1 3373 6
 8775 001a 002B     		cmp	r3, #0
 8776 001c 04D0     		beq	.L447
3374:Drivers/STM32F4xx_HAL_Driver/Src/stm32f4xx_hal_uart.c ****   {
3375:Drivers/STM32F4xx_HAL_Driver/Src/stm32f4xx_hal_uart.c ****     if (huart->hdmarx->XferAbortCallback != NULL)
 8777              		.loc 1 3375 14
 8778 001e FB68     		ldr	r3, [r7, #12]
 8779 0020 9B6B     		ldr	r3, [r3, #56]
 8780              		.loc 1 3375 22
 8781 0022 1B6D     		ldr	r3, [r3, #80]
 8782              		.loc 1 3375 8
 8783 0024 002B     		cmp	r3, #0
 8784 0026 17D1     		bne	.L449
 8785              	.L447:
3376:Drivers/STM32F4xx_HAL_Driver/Src/stm32f4xx_hal_uart.c ****     {
3377:Drivers/STM32F4xx_HAL_Driver/Src/stm32f4xx_hal_uart.c ****       return;
3378:Drivers/STM32F4xx_HAL_Driver/Src/stm32f4xx_hal_uart.c ****     }
3379:Drivers/STM32F4xx_HAL_Driver/Src/stm32f4xx_hal_uart.c ****   }
3380:Drivers/STM32F4xx_HAL_Driver/Src/stm32f4xx_hal_uart.c **** 
3381:Drivers/STM32F4xx_HAL_Driver/Src/stm32f4xx_hal_uart.c ****   /* No Abort process still ongoing : All DMA channels are aborted, call user Abort Complete callba
3382:Drivers/STM32F4xx_HAL_Driver/Src/stm32f4xx_hal_uart.c ****   huart->TxXferCount = 0x00U;
 8786              		.loc 1 3382 22
 8787 0028 FB68     		ldr	r3, [r7, #12]
 8788 002a 0022     		movs	r2, #0
 8789 002c DA84     		strh	r2, [r3, #38]	@ movhi
3383:Drivers/STM32F4xx_HAL_Driver/Src/stm32f4xx_hal_uart.c ****   huart->RxXferCount = 0x00U;
 8790              		.loc 1 3383 22
 8791 002e FB68     		ldr	r3, [r7, #12]
 8792 0030 0022     		movs	r2, #0
 8793 0032 DA85     		strh	r2, [r3, #46]	@ movhi
3384:Drivers/STM32F4xx_HAL_Driver/Src/stm32f4xx_hal_uart.c **** 
3385:Drivers/STM32F4xx_HAL_Driver/Src/stm32f4xx_hal_uart.c ****   /* Reset ErrorCode */
3386:Drivers/STM32F4xx_HAL_Driver/Src/stm32f4xx_hal_uart.c ****   huart->ErrorCode = HAL_UART_ERROR_NONE;
ARM GAS  /tmp/ccIpdX1g.s 			page 236


 8794              		.loc 1 3386 20
 8795 0034 FB68     		ldr	r3, [r7, #12]
 8796 0036 0022     		movs	r2, #0
 8797 0038 1A64     		str	r2, [r3, #64]
3387:Drivers/STM32F4xx_HAL_Driver/Src/stm32f4xx_hal_uart.c **** 
3388:Drivers/STM32F4xx_HAL_Driver/Src/stm32f4xx_hal_uart.c ****   /* Restore huart->gState and huart->RxState to Ready */
3389:Drivers/STM32F4xx_HAL_Driver/Src/stm32f4xx_hal_uart.c ****   huart->gState  = HAL_UART_STATE_READY;
 8798              		.loc 1 3389 18
 8799 003a FB68     		ldr	r3, [r7, #12]
 8800 003c 2022     		movs	r2, #32
 8801 003e 83F83D20 		strb	r2, [r3, #61]
3390:Drivers/STM32F4xx_HAL_Driver/Src/stm32f4xx_hal_uart.c ****   huart->RxState = HAL_UART_STATE_READY;
 8802              		.loc 1 3390 18
 8803 0042 FB68     		ldr	r3, [r7, #12]
 8804 0044 2022     		movs	r2, #32
 8805 0046 83F83E20 		strb	r2, [r3, #62]
3391:Drivers/STM32F4xx_HAL_Driver/Src/stm32f4xx_hal_uart.c ****   huart->ReceptionType = HAL_UART_RECEPTION_STANDARD;
 8806              		.loc 1 3391 24
 8807 004a FB68     		ldr	r3, [r7, #12]
 8808 004c 0022     		movs	r2, #0
 8809 004e 1A63     		str	r2, [r3, #48]
3392:Drivers/STM32F4xx_HAL_Driver/Src/stm32f4xx_hal_uart.c **** 
3393:Drivers/STM32F4xx_HAL_Driver/Src/stm32f4xx_hal_uart.c ****   /* Call user Abort complete callback */
3394:Drivers/STM32F4xx_HAL_Driver/Src/stm32f4xx_hal_uart.c **** #if (USE_HAL_UART_REGISTER_CALLBACKS == 1)
3395:Drivers/STM32F4xx_HAL_Driver/Src/stm32f4xx_hal_uart.c ****   /* Call registered Abort complete callback */
3396:Drivers/STM32F4xx_HAL_Driver/Src/stm32f4xx_hal_uart.c ****   huart->AbortCpltCallback(huart);
3397:Drivers/STM32F4xx_HAL_Driver/Src/stm32f4xx_hal_uart.c **** #else
3398:Drivers/STM32F4xx_HAL_Driver/Src/stm32f4xx_hal_uart.c ****   /* Call legacy weak Abort complete callback */
3399:Drivers/STM32F4xx_HAL_Driver/Src/stm32f4xx_hal_uart.c ****   HAL_UART_AbortCpltCallback(huart);
 8810              		.loc 1 3399 3
 8811 0050 F868     		ldr	r0, [r7, #12]
 8812 0052 FFF7FEFF 		bl	HAL_UART_AbortCpltCallback
 8813 0056 00E0     		b	.L446
 8814              	.L449:
3377:Drivers/STM32F4xx_HAL_Driver/Src/stm32f4xx_hal_uart.c ****     }
 8815              		.loc 1 3377 7
 8816 0058 00BF     		nop
 8817              	.L446:
3400:Drivers/STM32F4xx_HAL_Driver/Src/stm32f4xx_hal_uart.c **** #endif /* USE_HAL_UART_REGISTER_CALLBACKS */
3401:Drivers/STM32F4xx_HAL_Driver/Src/stm32f4xx_hal_uart.c **** }
 8818              		.loc 1 3401 1
 8819 005a 1037     		adds	r7, r7, #16
 8820              	.LCFI292:
 8821              		.cfi_def_cfa_offset 8
 8822 005c BD46     		mov	sp, r7
 8823              	.LCFI293:
 8824              		.cfi_def_cfa_register 13
 8825              		@ sp needed
 8826 005e 80BD     		pop	{r7, pc}
 8827              		.cfi_endproc
 8828              	.LFE269:
 8830              		.section	.text.UART_DMARxAbortCallback,"ax",%progbits
 8831              		.align	1
 8832              		.syntax unified
 8833              		.thumb
 8834              		.thumb_func
 8836              	UART_DMARxAbortCallback:
ARM GAS  /tmp/ccIpdX1g.s 			page 237


 8837              	.LFB270:
3402:Drivers/STM32F4xx_HAL_Driver/Src/stm32f4xx_hal_uart.c **** 
3403:Drivers/STM32F4xx_HAL_Driver/Src/stm32f4xx_hal_uart.c **** /**
3404:Drivers/STM32F4xx_HAL_Driver/Src/stm32f4xx_hal_uart.c ****   * @brief  DMA UART Rx communication abort callback, when initiated by user
3405:Drivers/STM32F4xx_HAL_Driver/Src/stm32f4xx_hal_uart.c ****   *         (To be called at end of DMA Rx Abort procedure following user abort request).
3406:Drivers/STM32F4xx_HAL_Driver/Src/stm32f4xx_hal_uart.c ****   * @note   When this callback is executed, User Abort complete call back is called only if no
3407:Drivers/STM32F4xx_HAL_Driver/Src/stm32f4xx_hal_uart.c ****   *         Abort still ongoing for Tx DMA Handle.
3408:Drivers/STM32F4xx_HAL_Driver/Src/stm32f4xx_hal_uart.c ****   * @param  hdma  Pointer to a DMA_HandleTypeDef structure that contains
3409:Drivers/STM32F4xx_HAL_Driver/Src/stm32f4xx_hal_uart.c ****   *               the configuration information for the specified DMA module.
3410:Drivers/STM32F4xx_HAL_Driver/Src/stm32f4xx_hal_uart.c ****   * @retval None
3411:Drivers/STM32F4xx_HAL_Driver/Src/stm32f4xx_hal_uart.c ****   */
3412:Drivers/STM32F4xx_HAL_Driver/Src/stm32f4xx_hal_uart.c **** static void UART_DMARxAbortCallback(DMA_HandleTypeDef *hdma)
3413:Drivers/STM32F4xx_HAL_Driver/Src/stm32f4xx_hal_uart.c **** {
 8838              		.loc 1 3413 1
 8839              		.cfi_startproc
 8840              		@ args = 0, pretend = 0, frame = 16
 8841              		@ frame_needed = 1, uses_anonymous_args = 0
 8842 0000 80B5     		push	{r7, lr}
 8843              	.LCFI294:
 8844              		.cfi_def_cfa_offset 8
 8845              		.cfi_offset 7, -8
 8846              		.cfi_offset 14, -4
 8847 0002 84B0     		sub	sp, sp, #16
 8848              	.LCFI295:
 8849              		.cfi_def_cfa_offset 24
 8850 0004 00AF     		add	r7, sp, #0
 8851              	.LCFI296:
 8852              		.cfi_def_cfa_register 7
 8853 0006 7860     		str	r0, [r7, #4]
3414:Drivers/STM32F4xx_HAL_Driver/Src/stm32f4xx_hal_uart.c ****   UART_HandleTypeDef *huart = (UART_HandleTypeDef *)((DMA_HandleTypeDef *)hdma)->Parent;
 8854              		.loc 1 3414 23
 8855 0008 7B68     		ldr	r3, [r7, #4]
 8856 000a 9B6B     		ldr	r3, [r3, #56]
 8857 000c FB60     		str	r3, [r7, #12]
3415:Drivers/STM32F4xx_HAL_Driver/Src/stm32f4xx_hal_uart.c **** 
3416:Drivers/STM32F4xx_HAL_Driver/Src/stm32f4xx_hal_uart.c ****   huart->hdmarx->XferAbortCallback = NULL;
 8858              		.loc 1 3416 8
 8859 000e FB68     		ldr	r3, [r7, #12]
 8860 0010 9B6B     		ldr	r3, [r3, #56]
 8861              		.loc 1 3416 36
 8862 0012 0022     		movs	r2, #0
 8863 0014 1A65     		str	r2, [r3, #80]
3417:Drivers/STM32F4xx_HAL_Driver/Src/stm32f4xx_hal_uart.c **** 
3418:Drivers/STM32F4xx_HAL_Driver/Src/stm32f4xx_hal_uart.c ****   /* Check if an Abort process is still ongoing */
3419:Drivers/STM32F4xx_HAL_Driver/Src/stm32f4xx_hal_uart.c ****   if (huart->hdmatx != NULL)
 8864              		.loc 1 3419 12
 8865 0016 FB68     		ldr	r3, [r7, #12]
 8866 0018 5B6B     		ldr	r3, [r3, #52]
 8867              		.loc 1 3419 6
 8868 001a 002B     		cmp	r3, #0
 8869 001c 04D0     		beq	.L451
3420:Drivers/STM32F4xx_HAL_Driver/Src/stm32f4xx_hal_uart.c ****   {
3421:Drivers/STM32F4xx_HAL_Driver/Src/stm32f4xx_hal_uart.c ****     if (huart->hdmatx->XferAbortCallback != NULL)
 8870              		.loc 1 3421 14
 8871 001e FB68     		ldr	r3, [r7, #12]
 8872 0020 5B6B     		ldr	r3, [r3, #52]
 8873              		.loc 1 3421 22
ARM GAS  /tmp/ccIpdX1g.s 			page 238


 8874 0022 1B6D     		ldr	r3, [r3, #80]
 8875              		.loc 1 3421 8
 8876 0024 002B     		cmp	r3, #0
 8877 0026 17D1     		bne	.L453
 8878              	.L451:
3422:Drivers/STM32F4xx_HAL_Driver/Src/stm32f4xx_hal_uart.c ****     {
3423:Drivers/STM32F4xx_HAL_Driver/Src/stm32f4xx_hal_uart.c ****       return;
3424:Drivers/STM32F4xx_HAL_Driver/Src/stm32f4xx_hal_uart.c ****     }
3425:Drivers/STM32F4xx_HAL_Driver/Src/stm32f4xx_hal_uart.c ****   }
3426:Drivers/STM32F4xx_HAL_Driver/Src/stm32f4xx_hal_uart.c **** 
3427:Drivers/STM32F4xx_HAL_Driver/Src/stm32f4xx_hal_uart.c ****   /* No Abort process still ongoing : All DMA channels are aborted, call user Abort Complete callba
3428:Drivers/STM32F4xx_HAL_Driver/Src/stm32f4xx_hal_uart.c ****   huart->TxXferCount = 0x00U;
 8879              		.loc 1 3428 22
 8880 0028 FB68     		ldr	r3, [r7, #12]
 8881 002a 0022     		movs	r2, #0
 8882 002c DA84     		strh	r2, [r3, #38]	@ movhi
3429:Drivers/STM32F4xx_HAL_Driver/Src/stm32f4xx_hal_uart.c ****   huart->RxXferCount = 0x00U;
 8883              		.loc 1 3429 22
 8884 002e FB68     		ldr	r3, [r7, #12]
 8885 0030 0022     		movs	r2, #0
 8886 0032 DA85     		strh	r2, [r3, #46]	@ movhi
3430:Drivers/STM32F4xx_HAL_Driver/Src/stm32f4xx_hal_uart.c **** 
3431:Drivers/STM32F4xx_HAL_Driver/Src/stm32f4xx_hal_uart.c ****   /* Reset ErrorCode */
3432:Drivers/STM32F4xx_HAL_Driver/Src/stm32f4xx_hal_uart.c ****   huart->ErrorCode = HAL_UART_ERROR_NONE;
 8887              		.loc 1 3432 20
 8888 0034 FB68     		ldr	r3, [r7, #12]
 8889 0036 0022     		movs	r2, #0
 8890 0038 1A64     		str	r2, [r3, #64]
3433:Drivers/STM32F4xx_HAL_Driver/Src/stm32f4xx_hal_uart.c **** 
3434:Drivers/STM32F4xx_HAL_Driver/Src/stm32f4xx_hal_uart.c ****   /* Restore huart->gState and huart->RxState to Ready */
3435:Drivers/STM32F4xx_HAL_Driver/Src/stm32f4xx_hal_uart.c ****   huart->gState  = HAL_UART_STATE_READY;
 8891              		.loc 1 3435 18
 8892 003a FB68     		ldr	r3, [r7, #12]
 8893 003c 2022     		movs	r2, #32
 8894 003e 83F83D20 		strb	r2, [r3, #61]
3436:Drivers/STM32F4xx_HAL_Driver/Src/stm32f4xx_hal_uart.c ****   huart->RxState = HAL_UART_STATE_READY;
 8895              		.loc 1 3436 18
 8896 0042 FB68     		ldr	r3, [r7, #12]
 8897 0044 2022     		movs	r2, #32
 8898 0046 83F83E20 		strb	r2, [r3, #62]
3437:Drivers/STM32F4xx_HAL_Driver/Src/stm32f4xx_hal_uart.c ****   huart->ReceptionType = HAL_UART_RECEPTION_STANDARD;
 8899              		.loc 1 3437 24
 8900 004a FB68     		ldr	r3, [r7, #12]
 8901 004c 0022     		movs	r2, #0
 8902 004e 1A63     		str	r2, [r3, #48]
3438:Drivers/STM32F4xx_HAL_Driver/Src/stm32f4xx_hal_uart.c **** 
3439:Drivers/STM32F4xx_HAL_Driver/Src/stm32f4xx_hal_uart.c ****   /* Call user Abort complete callback */
3440:Drivers/STM32F4xx_HAL_Driver/Src/stm32f4xx_hal_uart.c **** #if (USE_HAL_UART_REGISTER_CALLBACKS == 1)
3441:Drivers/STM32F4xx_HAL_Driver/Src/stm32f4xx_hal_uart.c ****   /* Call registered Abort complete callback */
3442:Drivers/STM32F4xx_HAL_Driver/Src/stm32f4xx_hal_uart.c ****   huart->AbortCpltCallback(huart);
3443:Drivers/STM32F4xx_HAL_Driver/Src/stm32f4xx_hal_uart.c **** #else
3444:Drivers/STM32F4xx_HAL_Driver/Src/stm32f4xx_hal_uart.c ****   /* Call legacy weak Abort complete callback */
3445:Drivers/STM32F4xx_HAL_Driver/Src/stm32f4xx_hal_uart.c ****   HAL_UART_AbortCpltCallback(huart);
 8903              		.loc 1 3445 3
 8904 0050 F868     		ldr	r0, [r7, #12]
 8905 0052 FFF7FEFF 		bl	HAL_UART_AbortCpltCallback
 8906 0056 00E0     		b	.L450
ARM GAS  /tmp/ccIpdX1g.s 			page 239


 8907              	.L453:
3423:Drivers/STM32F4xx_HAL_Driver/Src/stm32f4xx_hal_uart.c ****     }
 8908              		.loc 1 3423 7
 8909 0058 00BF     		nop
 8910              	.L450:
3446:Drivers/STM32F4xx_HAL_Driver/Src/stm32f4xx_hal_uart.c **** #endif /* USE_HAL_UART_REGISTER_CALLBACKS */
3447:Drivers/STM32F4xx_HAL_Driver/Src/stm32f4xx_hal_uart.c **** }
 8911              		.loc 1 3447 1
 8912 005a 1037     		adds	r7, r7, #16
 8913              	.LCFI297:
 8914              		.cfi_def_cfa_offset 8
 8915 005c BD46     		mov	sp, r7
 8916              	.LCFI298:
 8917              		.cfi_def_cfa_register 13
 8918              		@ sp needed
 8919 005e 80BD     		pop	{r7, pc}
 8920              		.cfi_endproc
 8921              	.LFE270:
 8923              		.section	.text.UART_DMATxOnlyAbortCallback,"ax",%progbits
 8924              		.align	1
 8925              		.syntax unified
 8926              		.thumb
 8927              		.thumb_func
 8929              	UART_DMATxOnlyAbortCallback:
 8930              	.LFB271:
3448:Drivers/STM32F4xx_HAL_Driver/Src/stm32f4xx_hal_uart.c **** 
3449:Drivers/STM32F4xx_HAL_Driver/Src/stm32f4xx_hal_uart.c **** /**
3450:Drivers/STM32F4xx_HAL_Driver/Src/stm32f4xx_hal_uart.c ****   * @brief  DMA UART Tx communication abort callback, when initiated by user by a call to
3451:Drivers/STM32F4xx_HAL_Driver/Src/stm32f4xx_hal_uart.c ****   *         HAL_UART_AbortTransmit_IT API (Abort only Tx transfer)
3452:Drivers/STM32F4xx_HAL_Driver/Src/stm32f4xx_hal_uart.c ****   *         (This callback is executed at end of DMA Tx Abort procedure following user abort reques
3453:Drivers/STM32F4xx_HAL_Driver/Src/stm32f4xx_hal_uart.c ****   *         and leads to user Tx Abort Complete callback execution).
3454:Drivers/STM32F4xx_HAL_Driver/Src/stm32f4xx_hal_uart.c ****   * @param  hdma  Pointer to a DMA_HandleTypeDef structure that contains
3455:Drivers/STM32F4xx_HAL_Driver/Src/stm32f4xx_hal_uart.c ****   *               the configuration information for the specified DMA module.
3456:Drivers/STM32F4xx_HAL_Driver/Src/stm32f4xx_hal_uart.c ****   * @retval None
3457:Drivers/STM32F4xx_HAL_Driver/Src/stm32f4xx_hal_uart.c ****   */
3458:Drivers/STM32F4xx_HAL_Driver/Src/stm32f4xx_hal_uart.c **** static void UART_DMATxOnlyAbortCallback(DMA_HandleTypeDef *hdma)
3459:Drivers/STM32F4xx_HAL_Driver/Src/stm32f4xx_hal_uart.c **** {
 8931              		.loc 1 3459 1
 8932              		.cfi_startproc
 8933              		@ args = 0, pretend = 0, frame = 16
 8934              		@ frame_needed = 1, uses_anonymous_args = 0
 8935 0000 80B5     		push	{r7, lr}
 8936              	.LCFI299:
 8937              		.cfi_def_cfa_offset 8
 8938              		.cfi_offset 7, -8
 8939              		.cfi_offset 14, -4
 8940 0002 84B0     		sub	sp, sp, #16
 8941              	.LCFI300:
 8942              		.cfi_def_cfa_offset 24
 8943 0004 00AF     		add	r7, sp, #0
 8944              	.LCFI301:
 8945              		.cfi_def_cfa_register 7
 8946 0006 7860     		str	r0, [r7, #4]
3460:Drivers/STM32F4xx_HAL_Driver/Src/stm32f4xx_hal_uart.c ****   UART_HandleTypeDef *huart = (UART_HandleTypeDef *)((DMA_HandleTypeDef *)hdma)->Parent;
 8947              		.loc 1 3460 23
 8948 0008 7B68     		ldr	r3, [r7, #4]
 8949 000a 9B6B     		ldr	r3, [r3, #56]
ARM GAS  /tmp/ccIpdX1g.s 			page 240


 8950 000c FB60     		str	r3, [r7, #12]
3461:Drivers/STM32F4xx_HAL_Driver/Src/stm32f4xx_hal_uart.c **** 
3462:Drivers/STM32F4xx_HAL_Driver/Src/stm32f4xx_hal_uart.c ****   huart->TxXferCount = 0x00U;
 8951              		.loc 1 3462 22
 8952 000e FB68     		ldr	r3, [r7, #12]
 8953 0010 0022     		movs	r2, #0
 8954 0012 DA84     		strh	r2, [r3, #38]	@ movhi
3463:Drivers/STM32F4xx_HAL_Driver/Src/stm32f4xx_hal_uart.c **** 
3464:Drivers/STM32F4xx_HAL_Driver/Src/stm32f4xx_hal_uart.c ****   /* Restore huart->gState to Ready */
3465:Drivers/STM32F4xx_HAL_Driver/Src/stm32f4xx_hal_uart.c ****   huart->gState = HAL_UART_STATE_READY;
 8955              		.loc 1 3465 17
 8956 0014 FB68     		ldr	r3, [r7, #12]
 8957 0016 2022     		movs	r2, #32
 8958 0018 83F83D20 		strb	r2, [r3, #61]
3466:Drivers/STM32F4xx_HAL_Driver/Src/stm32f4xx_hal_uart.c **** 
3467:Drivers/STM32F4xx_HAL_Driver/Src/stm32f4xx_hal_uart.c ****   /* Call user Abort complete callback */
3468:Drivers/STM32F4xx_HAL_Driver/Src/stm32f4xx_hal_uart.c **** #if (USE_HAL_UART_REGISTER_CALLBACKS == 1)
3469:Drivers/STM32F4xx_HAL_Driver/Src/stm32f4xx_hal_uart.c ****   /* Call registered Abort Transmit Complete Callback */
3470:Drivers/STM32F4xx_HAL_Driver/Src/stm32f4xx_hal_uart.c ****   huart->AbortTransmitCpltCallback(huart);
3471:Drivers/STM32F4xx_HAL_Driver/Src/stm32f4xx_hal_uart.c **** #else
3472:Drivers/STM32F4xx_HAL_Driver/Src/stm32f4xx_hal_uart.c ****   /* Call legacy weak Abort Transmit Complete Callback */
3473:Drivers/STM32F4xx_HAL_Driver/Src/stm32f4xx_hal_uart.c ****   HAL_UART_AbortTransmitCpltCallback(huart);
 8959              		.loc 1 3473 3
 8960 001c F868     		ldr	r0, [r7, #12]
 8961 001e FFF7FEFF 		bl	HAL_UART_AbortTransmitCpltCallback
3474:Drivers/STM32F4xx_HAL_Driver/Src/stm32f4xx_hal_uart.c **** #endif /* USE_HAL_UART_REGISTER_CALLBACKS */
3475:Drivers/STM32F4xx_HAL_Driver/Src/stm32f4xx_hal_uart.c **** }
 8962              		.loc 1 3475 1
 8963 0022 00BF     		nop
 8964 0024 1037     		adds	r7, r7, #16
 8965              	.LCFI302:
 8966              		.cfi_def_cfa_offset 8
 8967 0026 BD46     		mov	sp, r7
 8968              	.LCFI303:
 8969              		.cfi_def_cfa_register 13
 8970              		@ sp needed
 8971 0028 80BD     		pop	{r7, pc}
 8972              		.cfi_endproc
 8973              	.LFE271:
 8975              		.section	.text.UART_DMARxOnlyAbortCallback,"ax",%progbits
 8976              		.align	1
 8977              		.syntax unified
 8978              		.thumb
 8979              		.thumb_func
 8981              	UART_DMARxOnlyAbortCallback:
 8982              	.LFB272:
3476:Drivers/STM32F4xx_HAL_Driver/Src/stm32f4xx_hal_uart.c **** 
3477:Drivers/STM32F4xx_HAL_Driver/Src/stm32f4xx_hal_uart.c **** /**
3478:Drivers/STM32F4xx_HAL_Driver/Src/stm32f4xx_hal_uart.c ****   * @brief  DMA UART Rx communication abort callback, when initiated by user by a call to
3479:Drivers/STM32F4xx_HAL_Driver/Src/stm32f4xx_hal_uart.c ****   *         HAL_UART_AbortReceive_IT API (Abort only Rx transfer)
3480:Drivers/STM32F4xx_HAL_Driver/Src/stm32f4xx_hal_uart.c ****   *         (This callback is executed at end of DMA Rx Abort procedure following user abort reques
3481:Drivers/STM32F4xx_HAL_Driver/Src/stm32f4xx_hal_uart.c ****   *         and leads to user Rx Abort Complete callback execution).
3482:Drivers/STM32F4xx_HAL_Driver/Src/stm32f4xx_hal_uart.c ****   * @param  hdma  Pointer to a DMA_HandleTypeDef structure that contains
3483:Drivers/STM32F4xx_HAL_Driver/Src/stm32f4xx_hal_uart.c ****   *               the configuration information for the specified DMA module.
3484:Drivers/STM32F4xx_HAL_Driver/Src/stm32f4xx_hal_uart.c ****   * @retval None
3485:Drivers/STM32F4xx_HAL_Driver/Src/stm32f4xx_hal_uart.c ****   */
3486:Drivers/STM32F4xx_HAL_Driver/Src/stm32f4xx_hal_uart.c **** static void UART_DMARxOnlyAbortCallback(DMA_HandleTypeDef *hdma)
ARM GAS  /tmp/ccIpdX1g.s 			page 241


3487:Drivers/STM32F4xx_HAL_Driver/Src/stm32f4xx_hal_uart.c **** {
 8983              		.loc 1 3487 1
 8984              		.cfi_startproc
 8985              		@ args = 0, pretend = 0, frame = 16
 8986              		@ frame_needed = 1, uses_anonymous_args = 0
 8987 0000 80B5     		push	{r7, lr}
 8988              	.LCFI304:
 8989              		.cfi_def_cfa_offset 8
 8990              		.cfi_offset 7, -8
 8991              		.cfi_offset 14, -4
 8992 0002 84B0     		sub	sp, sp, #16
 8993              	.LCFI305:
 8994              		.cfi_def_cfa_offset 24
 8995 0004 00AF     		add	r7, sp, #0
 8996              	.LCFI306:
 8997              		.cfi_def_cfa_register 7
 8998 0006 7860     		str	r0, [r7, #4]
3488:Drivers/STM32F4xx_HAL_Driver/Src/stm32f4xx_hal_uart.c ****   UART_HandleTypeDef *huart = (UART_HandleTypeDef *)((DMA_HandleTypeDef *)hdma)->Parent;
 8999              		.loc 1 3488 23
 9000 0008 7B68     		ldr	r3, [r7, #4]
 9001 000a 9B6B     		ldr	r3, [r3, #56]
 9002 000c FB60     		str	r3, [r7, #12]
3489:Drivers/STM32F4xx_HAL_Driver/Src/stm32f4xx_hal_uart.c **** 
3490:Drivers/STM32F4xx_HAL_Driver/Src/stm32f4xx_hal_uart.c ****   huart->RxXferCount = 0x00U;
 9003              		.loc 1 3490 22
 9004 000e FB68     		ldr	r3, [r7, #12]
 9005 0010 0022     		movs	r2, #0
 9006 0012 DA85     		strh	r2, [r3, #46]	@ movhi
3491:Drivers/STM32F4xx_HAL_Driver/Src/stm32f4xx_hal_uart.c **** 
3492:Drivers/STM32F4xx_HAL_Driver/Src/stm32f4xx_hal_uart.c ****   /* Restore huart->RxState to Ready */
3493:Drivers/STM32F4xx_HAL_Driver/Src/stm32f4xx_hal_uart.c ****   huart->RxState = HAL_UART_STATE_READY;
 9007              		.loc 1 3493 18
 9008 0014 FB68     		ldr	r3, [r7, #12]
 9009 0016 2022     		movs	r2, #32
 9010 0018 83F83E20 		strb	r2, [r3, #62]
3494:Drivers/STM32F4xx_HAL_Driver/Src/stm32f4xx_hal_uart.c ****   huart->ReceptionType = HAL_UART_RECEPTION_STANDARD;
 9011              		.loc 1 3494 24
 9012 001c FB68     		ldr	r3, [r7, #12]
 9013 001e 0022     		movs	r2, #0
 9014 0020 1A63     		str	r2, [r3, #48]
3495:Drivers/STM32F4xx_HAL_Driver/Src/stm32f4xx_hal_uart.c **** 
3496:Drivers/STM32F4xx_HAL_Driver/Src/stm32f4xx_hal_uart.c ****   /* Call user Abort complete callback */
3497:Drivers/STM32F4xx_HAL_Driver/Src/stm32f4xx_hal_uart.c **** #if (USE_HAL_UART_REGISTER_CALLBACKS == 1)
3498:Drivers/STM32F4xx_HAL_Driver/Src/stm32f4xx_hal_uart.c ****   /* Call registered Abort Receive Complete Callback */
3499:Drivers/STM32F4xx_HAL_Driver/Src/stm32f4xx_hal_uart.c ****   huart->AbortReceiveCpltCallback(huart);
3500:Drivers/STM32F4xx_HAL_Driver/Src/stm32f4xx_hal_uart.c **** #else
3501:Drivers/STM32F4xx_HAL_Driver/Src/stm32f4xx_hal_uart.c ****   /* Call legacy weak Abort Receive Complete Callback */
3502:Drivers/STM32F4xx_HAL_Driver/Src/stm32f4xx_hal_uart.c ****   HAL_UART_AbortReceiveCpltCallback(huart);
 9015              		.loc 1 3502 3
 9016 0022 F868     		ldr	r0, [r7, #12]
 9017 0024 FFF7FEFF 		bl	HAL_UART_AbortReceiveCpltCallback
3503:Drivers/STM32F4xx_HAL_Driver/Src/stm32f4xx_hal_uart.c **** #endif /* USE_HAL_UART_REGISTER_CALLBACKS */
3504:Drivers/STM32F4xx_HAL_Driver/Src/stm32f4xx_hal_uart.c **** }
 9018              		.loc 1 3504 1
 9019 0028 00BF     		nop
 9020 002a 1037     		adds	r7, r7, #16
 9021              	.LCFI307:
ARM GAS  /tmp/ccIpdX1g.s 			page 242


 9022              		.cfi_def_cfa_offset 8
 9023 002c BD46     		mov	sp, r7
 9024              	.LCFI308:
 9025              		.cfi_def_cfa_register 13
 9026              		@ sp needed
 9027 002e 80BD     		pop	{r7, pc}
 9028              		.cfi_endproc
 9029              	.LFE272:
 9031              		.section	.text.UART_Transmit_IT,"ax",%progbits
 9032              		.align	1
 9033              		.syntax unified
 9034              		.thumb
 9035              		.thumb_func
 9037              	UART_Transmit_IT:
 9038              	.LFB273:
3505:Drivers/STM32F4xx_HAL_Driver/Src/stm32f4xx_hal_uart.c **** 
3506:Drivers/STM32F4xx_HAL_Driver/Src/stm32f4xx_hal_uart.c **** /**
3507:Drivers/STM32F4xx_HAL_Driver/Src/stm32f4xx_hal_uart.c ****   * @brief  Sends an amount of data in non blocking mode.
3508:Drivers/STM32F4xx_HAL_Driver/Src/stm32f4xx_hal_uart.c ****   * @param  huart  Pointer to a UART_HandleTypeDef structure that contains
3509:Drivers/STM32F4xx_HAL_Driver/Src/stm32f4xx_hal_uart.c ****   *                the configuration information for the specified UART module.
3510:Drivers/STM32F4xx_HAL_Driver/Src/stm32f4xx_hal_uart.c ****   * @retval HAL status
3511:Drivers/STM32F4xx_HAL_Driver/Src/stm32f4xx_hal_uart.c ****   */
3512:Drivers/STM32F4xx_HAL_Driver/Src/stm32f4xx_hal_uart.c **** static HAL_StatusTypeDef UART_Transmit_IT(UART_HandleTypeDef *huart)
3513:Drivers/STM32F4xx_HAL_Driver/Src/stm32f4xx_hal_uart.c **** {
 9039              		.loc 1 3513 1
 9040              		.cfi_startproc
 9041              		@ args = 0, pretend = 0, frame = 16
 9042              		@ frame_needed = 1, uses_anonymous_args = 0
 9043              		@ link register save eliminated.
 9044 0000 80B4     		push	{r7}
 9045              	.LCFI309:
 9046              		.cfi_def_cfa_offset 4
 9047              		.cfi_offset 7, -4
 9048 0002 85B0     		sub	sp, sp, #20
 9049              	.LCFI310:
 9050              		.cfi_def_cfa_offset 24
 9051 0004 00AF     		add	r7, sp, #0
 9052              	.LCFI311:
 9053              		.cfi_def_cfa_register 7
 9054 0006 7860     		str	r0, [r7, #4]
3514:Drivers/STM32F4xx_HAL_Driver/Src/stm32f4xx_hal_uart.c ****   const uint16_t *tmp;
3515:Drivers/STM32F4xx_HAL_Driver/Src/stm32f4xx_hal_uart.c **** 
3516:Drivers/STM32F4xx_HAL_Driver/Src/stm32f4xx_hal_uart.c ****   /* Check that a Tx process is ongoing */
3517:Drivers/STM32F4xx_HAL_Driver/Src/stm32f4xx_hal_uart.c ****   if (huart->gState == HAL_UART_STATE_BUSY_TX)
 9055              		.loc 1 3517 12
 9056 0008 7B68     		ldr	r3, [r7, #4]
 9057 000a 93F83D30 		ldrb	r3, [r3, #61]
 9058 000e DBB2     		uxtb	r3, r3
 9059              		.loc 1 3517 6
 9060 0010 212B     		cmp	r3, #33
 9061 0012 3ED1     		bne	.L457
3518:Drivers/STM32F4xx_HAL_Driver/Src/stm32f4xx_hal_uart.c ****   {
3519:Drivers/STM32F4xx_HAL_Driver/Src/stm32f4xx_hal_uart.c ****     if ((huart->Init.WordLength == UART_WORDLENGTH_9B) && (huart->Init.Parity == UART_PARITY_NONE))
 9062              		.loc 1 3519 21
 9063 0014 7B68     		ldr	r3, [r7, #4]
 9064 0016 9B68     		ldr	r3, [r3, #8]
 9065              		.loc 1 3519 8
ARM GAS  /tmp/ccIpdX1g.s 			page 243


 9066 0018 B3F5805F 		cmp	r3, #4096
 9067 001c 14D1     		bne	.L458
 9068              		.loc 1 3519 71 discriminator 1
 9069 001e 7B68     		ldr	r3, [r7, #4]
 9070 0020 1B69     		ldr	r3, [r3, #16]
 9071              		.loc 1 3519 56 discriminator 1
 9072 0022 002B     		cmp	r3, #0
 9073 0024 10D1     		bne	.L458
3520:Drivers/STM32F4xx_HAL_Driver/Src/stm32f4xx_hal_uart.c ****     {
3521:Drivers/STM32F4xx_HAL_Driver/Src/stm32f4xx_hal_uart.c ****       tmp = (const uint16_t *) huart->pTxBuffPtr;
 9074              		.loc 1 3521 11
 9075 0026 7B68     		ldr	r3, [r7, #4]
 9076 0028 1B6A     		ldr	r3, [r3, #32]
 9077 002a FB60     		str	r3, [r7, #12]
3522:Drivers/STM32F4xx_HAL_Driver/Src/stm32f4xx_hal_uart.c ****       huart->Instance->DR = (uint16_t)(*tmp & (uint16_t)0x01FF);
 9078              		.loc 1 3522 40
 9079 002c FB68     		ldr	r3, [r7, #12]
 9080 002e 1B88     		ldrh	r3, [r3]
 9081              		.loc 1 3522 29
 9082 0030 1A46     		mov	r2, r3
 9083              		.loc 1 3522 12
 9084 0032 7B68     		ldr	r3, [r7, #4]
 9085 0034 1B68     		ldr	r3, [r3]
 9086              		.loc 1 3522 29
 9087 0036 C2F30802 		ubfx	r2, r2, #0, #9
 9088              		.loc 1 3522 27
 9089 003a 5A60     		str	r2, [r3, #4]
3523:Drivers/STM32F4xx_HAL_Driver/Src/stm32f4xx_hal_uart.c ****       huart->pTxBuffPtr += 2U;
 9090              		.loc 1 3523 12
 9091 003c 7B68     		ldr	r3, [r7, #4]
 9092 003e 1B6A     		ldr	r3, [r3, #32]
 9093              		.loc 1 3523 25
 9094 0040 9A1C     		adds	r2, r3, #2
 9095 0042 7B68     		ldr	r3, [r7, #4]
 9096 0044 1A62     		str	r2, [r3, #32]
 9097 0046 08E0     		b	.L459
 9098              	.L458:
3524:Drivers/STM32F4xx_HAL_Driver/Src/stm32f4xx_hal_uart.c ****     }
3525:Drivers/STM32F4xx_HAL_Driver/Src/stm32f4xx_hal_uart.c ****     else
3526:Drivers/STM32F4xx_HAL_Driver/Src/stm32f4xx_hal_uart.c ****     {
3527:Drivers/STM32F4xx_HAL_Driver/Src/stm32f4xx_hal_uart.c ****       huart->Instance->DR = (uint8_t)(*huart->pTxBuffPtr++ & (uint8_t)0x00FF);
 9099              		.loc 1 3527 45
 9100 0048 7B68     		ldr	r3, [r7, #4]
 9101 004a 1B6A     		ldr	r3, [r3, #32]
 9102              		.loc 1 3527 57
 9103 004c 591C     		adds	r1, r3, #1
 9104 004e 7A68     		ldr	r2, [r7, #4]
 9105 0050 1162     		str	r1, [r2, #32]
 9106              		.loc 1 3527 39
 9107 0052 1A78     		ldrb	r2, [r3]	@ zero_extendqisi2
 9108              		.loc 1 3527 12
 9109 0054 7B68     		ldr	r3, [r7, #4]
 9110 0056 1B68     		ldr	r3, [r3]
 9111              		.loc 1 3527 27
 9112 0058 5A60     		str	r2, [r3, #4]
 9113              	.L459:
3528:Drivers/STM32F4xx_HAL_Driver/Src/stm32f4xx_hal_uart.c ****     }
ARM GAS  /tmp/ccIpdX1g.s 			page 244


3529:Drivers/STM32F4xx_HAL_Driver/Src/stm32f4xx_hal_uart.c **** 
3530:Drivers/STM32F4xx_HAL_Driver/Src/stm32f4xx_hal_uart.c ****     if (--huart->TxXferCount == 0U)
 9114              		.loc 1 3530 16
 9115 005a 7B68     		ldr	r3, [r7, #4]
 9116 005c DB8C     		ldrh	r3, [r3, #38]	@ movhi
 9117 005e 9BB2     		uxth	r3, r3
 9118              		.loc 1 3530 9
 9119 0060 013B     		subs	r3, r3, #1
 9120 0062 9BB2     		uxth	r3, r3
 9121              		.loc 1 3530 8
 9122 0064 7A68     		ldr	r2, [r7, #4]
 9123 0066 1946     		mov	r1, r3	@ movhi
 9124 0068 D184     		strh	r1, [r2, #38]	@ movhi
 9125 006a 002B     		cmp	r3, #0
 9126 006c 0FD1     		bne	.L460
3531:Drivers/STM32F4xx_HAL_Driver/Src/stm32f4xx_hal_uart.c ****     {
3532:Drivers/STM32F4xx_HAL_Driver/Src/stm32f4xx_hal_uart.c ****       /* Disable the UART Transmit Data Register Empty Interrupt */
3533:Drivers/STM32F4xx_HAL_Driver/Src/stm32f4xx_hal_uart.c ****       __HAL_UART_DISABLE_IT(huart, UART_IT_TXE);
 9127              		.loc 1 3533 7
 9128 006e 7B68     		ldr	r3, [r7, #4]
 9129 0070 1B68     		ldr	r3, [r3]
 9130 0072 DA68     		ldr	r2, [r3, #12]
 9131 0074 7B68     		ldr	r3, [r7, #4]
 9132 0076 1B68     		ldr	r3, [r3]
 9133 0078 22F08002 		bic	r2, r2, #128
 9134 007c DA60     		str	r2, [r3, #12]
3534:Drivers/STM32F4xx_HAL_Driver/Src/stm32f4xx_hal_uart.c **** 
3535:Drivers/STM32F4xx_HAL_Driver/Src/stm32f4xx_hal_uart.c ****       /* Enable the UART Transmit Complete Interrupt */
3536:Drivers/STM32F4xx_HAL_Driver/Src/stm32f4xx_hal_uart.c ****       __HAL_UART_ENABLE_IT(huart, UART_IT_TC);
 9135              		.loc 1 3536 7
 9136 007e 7B68     		ldr	r3, [r7, #4]
 9137 0080 1B68     		ldr	r3, [r3]
 9138 0082 DA68     		ldr	r2, [r3, #12]
 9139 0084 7B68     		ldr	r3, [r7, #4]
 9140 0086 1B68     		ldr	r3, [r3]
 9141 0088 42F04002 		orr	r2, r2, #64
 9142 008c DA60     		str	r2, [r3, #12]
 9143              	.L460:
3537:Drivers/STM32F4xx_HAL_Driver/Src/stm32f4xx_hal_uart.c ****     }
3538:Drivers/STM32F4xx_HAL_Driver/Src/stm32f4xx_hal_uart.c ****     return HAL_OK;
 9144              		.loc 1 3538 12
 9145 008e 0023     		movs	r3, #0
 9146 0090 00E0     		b	.L461
 9147              	.L457:
3539:Drivers/STM32F4xx_HAL_Driver/Src/stm32f4xx_hal_uart.c ****   }
3540:Drivers/STM32F4xx_HAL_Driver/Src/stm32f4xx_hal_uart.c ****   else
3541:Drivers/STM32F4xx_HAL_Driver/Src/stm32f4xx_hal_uart.c ****   {
3542:Drivers/STM32F4xx_HAL_Driver/Src/stm32f4xx_hal_uart.c ****     return HAL_BUSY;
 9148              		.loc 1 3542 12
 9149 0092 0223     		movs	r3, #2
 9150              	.L461:
3543:Drivers/STM32F4xx_HAL_Driver/Src/stm32f4xx_hal_uart.c ****   }
3544:Drivers/STM32F4xx_HAL_Driver/Src/stm32f4xx_hal_uart.c **** }
 9151              		.loc 1 3544 1
 9152 0094 1846     		mov	r0, r3
 9153 0096 1437     		adds	r7, r7, #20
 9154              	.LCFI312:
ARM GAS  /tmp/ccIpdX1g.s 			page 245


 9155              		.cfi_def_cfa_offset 4
 9156 0098 BD46     		mov	sp, r7
 9157              	.LCFI313:
 9158              		.cfi_def_cfa_register 13
 9159              		@ sp needed
 9160 009a 5DF8047B 		ldr	r7, [sp], #4
 9161              	.LCFI314:
 9162              		.cfi_restore 7
 9163              		.cfi_def_cfa_offset 0
 9164 009e 7047     		bx	lr
 9165              		.cfi_endproc
 9166              	.LFE273:
 9168              		.section	.text.UART_EndTransmit_IT,"ax",%progbits
 9169              		.align	1
 9170              		.syntax unified
 9171              		.thumb
 9172              		.thumb_func
 9174              	UART_EndTransmit_IT:
 9175              	.LFB274:
3545:Drivers/STM32F4xx_HAL_Driver/Src/stm32f4xx_hal_uart.c **** 
3546:Drivers/STM32F4xx_HAL_Driver/Src/stm32f4xx_hal_uart.c **** /**
3547:Drivers/STM32F4xx_HAL_Driver/Src/stm32f4xx_hal_uart.c ****   * @brief  Wraps up transmission in non blocking mode.
3548:Drivers/STM32F4xx_HAL_Driver/Src/stm32f4xx_hal_uart.c ****   * @param  huart  Pointer to a UART_HandleTypeDef structure that contains
3549:Drivers/STM32F4xx_HAL_Driver/Src/stm32f4xx_hal_uart.c ****   *                the configuration information for the specified UART module.
3550:Drivers/STM32F4xx_HAL_Driver/Src/stm32f4xx_hal_uart.c ****   * @retval HAL status
3551:Drivers/STM32F4xx_HAL_Driver/Src/stm32f4xx_hal_uart.c ****   */
3552:Drivers/STM32F4xx_HAL_Driver/Src/stm32f4xx_hal_uart.c **** static HAL_StatusTypeDef UART_EndTransmit_IT(UART_HandleTypeDef *huart)
3553:Drivers/STM32F4xx_HAL_Driver/Src/stm32f4xx_hal_uart.c **** {
 9176              		.loc 1 3553 1
 9177              		.cfi_startproc
 9178              		@ args = 0, pretend = 0, frame = 8
 9179              		@ frame_needed = 1, uses_anonymous_args = 0
 9180 0000 80B5     		push	{r7, lr}
 9181              	.LCFI315:
 9182              		.cfi_def_cfa_offset 8
 9183              		.cfi_offset 7, -8
 9184              		.cfi_offset 14, -4
 9185 0002 82B0     		sub	sp, sp, #8
 9186              	.LCFI316:
 9187              		.cfi_def_cfa_offset 16
 9188 0004 00AF     		add	r7, sp, #0
 9189              	.LCFI317:
 9190              		.cfi_def_cfa_register 7
 9191 0006 7860     		str	r0, [r7, #4]
3554:Drivers/STM32F4xx_HAL_Driver/Src/stm32f4xx_hal_uart.c ****   /* Disable the UART Transmit Complete Interrupt */
3555:Drivers/STM32F4xx_HAL_Driver/Src/stm32f4xx_hal_uart.c ****   __HAL_UART_DISABLE_IT(huart, UART_IT_TC);
 9192              		.loc 1 3555 3
 9193 0008 7B68     		ldr	r3, [r7, #4]
 9194 000a 1B68     		ldr	r3, [r3]
 9195 000c DA68     		ldr	r2, [r3, #12]
 9196 000e 7B68     		ldr	r3, [r7, #4]
 9197 0010 1B68     		ldr	r3, [r3]
 9198 0012 22F04002 		bic	r2, r2, #64
 9199 0016 DA60     		str	r2, [r3, #12]
3556:Drivers/STM32F4xx_HAL_Driver/Src/stm32f4xx_hal_uart.c **** 
3557:Drivers/STM32F4xx_HAL_Driver/Src/stm32f4xx_hal_uart.c ****   /* Tx process is ended, restore huart->gState to Ready */
3558:Drivers/STM32F4xx_HAL_Driver/Src/stm32f4xx_hal_uart.c ****   huart->gState = HAL_UART_STATE_READY;
ARM GAS  /tmp/ccIpdX1g.s 			page 246


 9200              		.loc 1 3558 17
 9201 0018 7B68     		ldr	r3, [r7, #4]
 9202 001a 2022     		movs	r2, #32
 9203 001c 83F83D20 		strb	r2, [r3, #61]
3559:Drivers/STM32F4xx_HAL_Driver/Src/stm32f4xx_hal_uart.c **** 
3560:Drivers/STM32F4xx_HAL_Driver/Src/stm32f4xx_hal_uart.c **** #if (USE_HAL_UART_REGISTER_CALLBACKS == 1)
3561:Drivers/STM32F4xx_HAL_Driver/Src/stm32f4xx_hal_uart.c ****   /*Call registered Tx complete callback*/
3562:Drivers/STM32F4xx_HAL_Driver/Src/stm32f4xx_hal_uart.c ****   huart->TxCpltCallback(huart);
3563:Drivers/STM32F4xx_HAL_Driver/Src/stm32f4xx_hal_uart.c **** #else
3564:Drivers/STM32F4xx_HAL_Driver/Src/stm32f4xx_hal_uart.c ****   /*Call legacy weak Tx complete callback*/
3565:Drivers/STM32F4xx_HAL_Driver/Src/stm32f4xx_hal_uart.c ****   HAL_UART_TxCpltCallback(huart);
 9204              		.loc 1 3565 3
 9205 0020 7868     		ldr	r0, [r7, #4]
 9206 0022 FFF7FEFF 		bl	HAL_UART_TxCpltCallback
3566:Drivers/STM32F4xx_HAL_Driver/Src/stm32f4xx_hal_uart.c **** #endif /* USE_HAL_UART_REGISTER_CALLBACKS */
3567:Drivers/STM32F4xx_HAL_Driver/Src/stm32f4xx_hal_uart.c **** 
3568:Drivers/STM32F4xx_HAL_Driver/Src/stm32f4xx_hal_uart.c ****   return HAL_OK;
 9207              		.loc 1 3568 10
 9208 0026 0023     		movs	r3, #0
3569:Drivers/STM32F4xx_HAL_Driver/Src/stm32f4xx_hal_uart.c **** }
 9209              		.loc 1 3569 1
 9210 0028 1846     		mov	r0, r3
 9211 002a 0837     		adds	r7, r7, #8
 9212              	.LCFI318:
 9213              		.cfi_def_cfa_offset 8
 9214 002c BD46     		mov	sp, r7
 9215              	.LCFI319:
 9216              		.cfi_def_cfa_register 13
 9217              		@ sp needed
 9218 002e 80BD     		pop	{r7, pc}
 9219              		.cfi_endproc
 9220              	.LFE274:
 9222              		.section	.text.UART_Receive_IT,"ax",%progbits
 9223              		.align	1
 9224              		.syntax unified
 9225              		.thumb
 9226              		.thumb_func
 9228              	UART_Receive_IT:
 9229              	.LFB275:
3570:Drivers/STM32F4xx_HAL_Driver/Src/stm32f4xx_hal_uart.c **** 
3571:Drivers/STM32F4xx_HAL_Driver/Src/stm32f4xx_hal_uart.c **** /**
3572:Drivers/STM32F4xx_HAL_Driver/Src/stm32f4xx_hal_uart.c ****   * @brief  Receives an amount of data in non blocking mode
3573:Drivers/STM32F4xx_HAL_Driver/Src/stm32f4xx_hal_uart.c ****   * @param  huart  Pointer to a UART_HandleTypeDef structure that contains
3574:Drivers/STM32F4xx_HAL_Driver/Src/stm32f4xx_hal_uart.c ****   *                the configuration information for the specified UART module.
3575:Drivers/STM32F4xx_HAL_Driver/Src/stm32f4xx_hal_uart.c ****   * @retval HAL status
3576:Drivers/STM32F4xx_HAL_Driver/Src/stm32f4xx_hal_uart.c ****   */
3577:Drivers/STM32F4xx_HAL_Driver/Src/stm32f4xx_hal_uart.c **** static HAL_StatusTypeDef UART_Receive_IT(UART_HandleTypeDef *huart)
3578:Drivers/STM32F4xx_HAL_Driver/Src/stm32f4xx_hal_uart.c **** {
 9230              		.loc 1 3578 1
 9231              		.cfi_startproc
 9232              		@ args = 0, pretend = 0, frame = 48
 9233              		@ frame_needed = 1, uses_anonymous_args = 0
 9234 0000 80B5     		push	{r7, lr}
 9235              	.LCFI320:
 9236              		.cfi_def_cfa_offset 8
 9237              		.cfi_offset 7, -8
 9238              		.cfi_offset 14, -4
ARM GAS  /tmp/ccIpdX1g.s 			page 247


 9239 0002 8CB0     		sub	sp, sp, #48
 9240              	.LCFI321:
 9241              		.cfi_def_cfa_offset 56
 9242 0004 00AF     		add	r7, sp, #0
 9243              	.LCFI322:
 9244              		.cfi_def_cfa_register 7
 9245 0006 7860     		str	r0, [r7, #4]
3579:Drivers/STM32F4xx_HAL_Driver/Src/stm32f4xx_hal_uart.c ****   uint8_t  *pdata8bits;
3580:Drivers/STM32F4xx_HAL_Driver/Src/stm32f4xx_hal_uart.c ****   uint16_t *pdata16bits;
3581:Drivers/STM32F4xx_HAL_Driver/Src/stm32f4xx_hal_uart.c **** 
3582:Drivers/STM32F4xx_HAL_Driver/Src/stm32f4xx_hal_uart.c ****   /* Check that a Rx process is ongoing */
3583:Drivers/STM32F4xx_HAL_Driver/Src/stm32f4xx_hal_uart.c ****   if (huart->RxState == HAL_UART_STATE_BUSY_RX)
 9246              		.loc 1 3583 12
 9247 0008 7B68     		ldr	r3, [r7, #4]
 9248 000a 93F83E30 		ldrb	r3, [r3, #62]
 9249 000e DBB2     		uxtb	r3, r3
 9250              		.loc 1 3583 6
 9251 0010 222B     		cmp	r3, #34
 9252 0012 40F0AB80 		bne	.L465
3584:Drivers/STM32F4xx_HAL_Driver/Src/stm32f4xx_hal_uart.c ****   {
3585:Drivers/STM32F4xx_HAL_Driver/Src/stm32f4xx_hal_uart.c ****     if ((huart->Init.WordLength == UART_WORDLENGTH_9B) && (huart->Init.Parity == UART_PARITY_NONE))
 9253              		.loc 1 3585 21
 9254 0016 7B68     		ldr	r3, [r7, #4]
 9255 0018 9B68     		ldr	r3, [r3, #8]
 9256              		.loc 1 3585 8
 9257 001a B3F5805F 		cmp	r3, #4096
 9258 001e 17D1     		bne	.L466
 9259              		.loc 1 3585 71 discriminator 1
 9260 0020 7B68     		ldr	r3, [r7, #4]
 9261 0022 1B69     		ldr	r3, [r3, #16]
 9262              		.loc 1 3585 56 discriminator 1
 9263 0024 002B     		cmp	r3, #0
 9264 0026 13D1     		bne	.L466
3586:Drivers/STM32F4xx_HAL_Driver/Src/stm32f4xx_hal_uart.c ****     {
3587:Drivers/STM32F4xx_HAL_Driver/Src/stm32f4xx_hal_uart.c ****       pdata8bits  = NULL;
 9265              		.loc 1 3587 19
 9266 0028 0023     		movs	r3, #0
 9267 002a FB62     		str	r3, [r7, #44]
3588:Drivers/STM32F4xx_HAL_Driver/Src/stm32f4xx_hal_uart.c ****       pdata16bits = (uint16_t *) huart->pRxBuffPtr;
 9268              		.loc 1 3588 19
 9269 002c 7B68     		ldr	r3, [r7, #4]
 9270 002e 9B6A     		ldr	r3, [r3, #40]
 9271 0030 BB62     		str	r3, [r7, #40]
3589:Drivers/STM32F4xx_HAL_Driver/Src/stm32f4xx_hal_uart.c ****       *pdata16bits = (uint16_t)(huart->Instance->DR & (uint16_t)0x01FF);
 9272              		.loc 1 3589 38
 9273 0032 7B68     		ldr	r3, [r7, #4]
 9274 0034 1B68     		ldr	r3, [r3]
 9275              		.loc 1 3589 48
 9276 0036 5B68     		ldr	r3, [r3, #4]
 9277              		.loc 1 3589 22
 9278 0038 9BB2     		uxth	r3, r3
 9279 003a C3F30803 		ubfx	r3, r3, #0, #9
 9280 003e 9AB2     		uxth	r2, r3
 9281              		.loc 1 3589 20
 9282 0040 BB6A     		ldr	r3, [r7, #40]
 9283 0042 1A80     		strh	r2, [r3]	@ movhi
3590:Drivers/STM32F4xx_HAL_Driver/Src/stm32f4xx_hal_uart.c ****       huart->pRxBuffPtr += 2U;
ARM GAS  /tmp/ccIpdX1g.s 			page 248


 9284              		.loc 1 3590 12
 9285 0044 7B68     		ldr	r3, [r7, #4]
 9286 0046 9B6A     		ldr	r3, [r3, #40]
 9287              		.loc 1 3590 25
 9288 0048 9A1C     		adds	r2, r3, #2
 9289 004a 7B68     		ldr	r3, [r7, #4]
 9290 004c 9A62     		str	r2, [r3, #40]
 9291 004e 26E0     		b	.L467
 9292              	.L466:
3591:Drivers/STM32F4xx_HAL_Driver/Src/stm32f4xx_hal_uart.c ****     }
3592:Drivers/STM32F4xx_HAL_Driver/Src/stm32f4xx_hal_uart.c ****     else
3593:Drivers/STM32F4xx_HAL_Driver/Src/stm32f4xx_hal_uart.c ****     {
3594:Drivers/STM32F4xx_HAL_Driver/Src/stm32f4xx_hal_uart.c ****       pdata8bits = (uint8_t *) huart->pRxBuffPtr;
 9293              		.loc 1 3594 18
 9294 0050 7B68     		ldr	r3, [r7, #4]
 9295 0052 9B6A     		ldr	r3, [r3, #40]
 9296 0054 FB62     		str	r3, [r7, #44]
3595:Drivers/STM32F4xx_HAL_Driver/Src/stm32f4xx_hal_uart.c ****       pdata16bits  = NULL;
 9297              		.loc 1 3595 20
 9298 0056 0023     		movs	r3, #0
 9299 0058 BB62     		str	r3, [r7, #40]
3596:Drivers/STM32F4xx_HAL_Driver/Src/stm32f4xx_hal_uart.c **** 
3597:Drivers/STM32F4xx_HAL_Driver/Src/stm32f4xx_hal_uart.c ****       if ((huart->Init.WordLength == UART_WORDLENGTH_9B) || ((huart->Init.WordLength == UART_WORDLE
 9300              		.loc 1 3597 23
 9301 005a 7B68     		ldr	r3, [r7, #4]
 9302 005c 9B68     		ldr	r3, [r3, #8]
 9303              		.loc 1 3597 10
 9304 005e B3F5805F 		cmp	r3, #4096
 9305 0062 07D0     		beq	.L468
 9306              		.loc 1 3597 74 discriminator 1
 9307 0064 7B68     		ldr	r3, [r7, #4]
 9308 0066 9B68     		ldr	r3, [r3, #8]
 9309              		.loc 1 3597 58 discriminator 1
 9310 0068 002B     		cmp	r3, #0
 9311 006a 0AD1     		bne	.L469
 9312              		.loc 1 3597 124 discriminator 2
 9313 006c 7B68     		ldr	r3, [r7, #4]
 9314 006e 1B69     		ldr	r3, [r3, #16]
 9315              		.loc 1 3597 109 discriminator 2
 9316 0070 002B     		cmp	r3, #0
 9317 0072 06D1     		bne	.L469
 9318              	.L468:
3598:Drivers/STM32F4xx_HAL_Driver/Src/stm32f4xx_hal_uart.c ****       {
3599:Drivers/STM32F4xx_HAL_Driver/Src/stm32f4xx_hal_uart.c ****         *pdata8bits = (uint8_t)(huart->Instance->DR & (uint8_t)0x00FF);
 9319              		.loc 1 3599 38
 9320 0074 7B68     		ldr	r3, [r7, #4]
 9321 0076 1B68     		ldr	r3, [r3]
 9322              		.loc 1 3599 48
 9323 0078 5B68     		ldr	r3, [r3, #4]
 9324              		.loc 1 3599 23
 9325 007a DAB2     		uxtb	r2, r3
 9326              		.loc 1 3599 21
 9327 007c FB6A     		ldr	r3, [r7, #44]
 9328 007e 1A70     		strb	r2, [r3]
 9329 0080 08E0     		b	.L470
 9330              	.L469:
3600:Drivers/STM32F4xx_HAL_Driver/Src/stm32f4xx_hal_uart.c ****       }
ARM GAS  /tmp/ccIpdX1g.s 			page 249


3601:Drivers/STM32F4xx_HAL_Driver/Src/stm32f4xx_hal_uart.c ****       else
3602:Drivers/STM32F4xx_HAL_Driver/Src/stm32f4xx_hal_uart.c ****       {
3603:Drivers/STM32F4xx_HAL_Driver/Src/stm32f4xx_hal_uart.c ****         *pdata8bits = (uint8_t)(huart->Instance->DR & (uint8_t)0x007F);
 9331              		.loc 1 3603 38
 9332 0082 7B68     		ldr	r3, [r7, #4]
 9333 0084 1B68     		ldr	r3, [r3]
 9334              		.loc 1 3603 48
 9335 0086 5B68     		ldr	r3, [r3, #4]
 9336              		.loc 1 3603 23
 9337 0088 DBB2     		uxtb	r3, r3
 9338 008a 03F07F03 		and	r3, r3, #127
 9339 008e DAB2     		uxtb	r2, r3
 9340              		.loc 1 3603 21
 9341 0090 FB6A     		ldr	r3, [r7, #44]
 9342 0092 1A70     		strb	r2, [r3]
 9343              	.L470:
3604:Drivers/STM32F4xx_HAL_Driver/Src/stm32f4xx_hal_uart.c ****       }
3605:Drivers/STM32F4xx_HAL_Driver/Src/stm32f4xx_hal_uart.c ****       huart->pRxBuffPtr += 1U;
 9344              		.loc 1 3605 12
 9345 0094 7B68     		ldr	r3, [r7, #4]
 9346 0096 9B6A     		ldr	r3, [r3, #40]
 9347              		.loc 1 3605 25
 9348 0098 5A1C     		adds	r2, r3, #1
 9349 009a 7B68     		ldr	r3, [r7, #4]
 9350 009c 9A62     		str	r2, [r3, #40]
 9351              	.L467:
3606:Drivers/STM32F4xx_HAL_Driver/Src/stm32f4xx_hal_uart.c ****     }
3607:Drivers/STM32F4xx_HAL_Driver/Src/stm32f4xx_hal_uart.c **** 
3608:Drivers/STM32F4xx_HAL_Driver/Src/stm32f4xx_hal_uart.c ****     if (--huart->RxXferCount == 0U)
 9352              		.loc 1 3608 16
 9353 009e 7B68     		ldr	r3, [r7, #4]
 9354 00a0 DB8D     		ldrh	r3, [r3, #46]	@ movhi
 9355 00a2 9BB2     		uxth	r3, r3
 9356              		.loc 1 3608 9
 9357 00a4 013B     		subs	r3, r3, #1
 9358 00a6 9BB2     		uxth	r3, r3
 9359              		.loc 1 3608 8
 9360 00a8 7A68     		ldr	r2, [r7, #4]
 9361 00aa 1946     		mov	r1, r3	@ movhi
 9362 00ac D185     		strh	r1, [r2, #46]	@ movhi
 9363 00ae 002B     		cmp	r3, #0
 9364 00b0 5AD1     		bne	.L471
3609:Drivers/STM32F4xx_HAL_Driver/Src/stm32f4xx_hal_uart.c ****     {
3610:Drivers/STM32F4xx_HAL_Driver/Src/stm32f4xx_hal_uart.c ****       /* Disable the UART Data Register not empty Interrupt */
3611:Drivers/STM32F4xx_HAL_Driver/Src/stm32f4xx_hal_uart.c ****       __HAL_UART_DISABLE_IT(huart, UART_IT_RXNE);
 9365              		.loc 1 3611 7
 9366 00b2 7B68     		ldr	r3, [r7, #4]
 9367 00b4 1B68     		ldr	r3, [r3]
 9368 00b6 DA68     		ldr	r2, [r3, #12]
 9369 00b8 7B68     		ldr	r3, [r7, #4]
 9370 00ba 1B68     		ldr	r3, [r3]
 9371 00bc 22F02002 		bic	r2, r2, #32
 9372 00c0 DA60     		str	r2, [r3, #12]
3612:Drivers/STM32F4xx_HAL_Driver/Src/stm32f4xx_hal_uart.c **** 
3613:Drivers/STM32F4xx_HAL_Driver/Src/stm32f4xx_hal_uart.c ****       /* Disable the UART Parity Error Interrupt */
3614:Drivers/STM32F4xx_HAL_Driver/Src/stm32f4xx_hal_uart.c ****       __HAL_UART_DISABLE_IT(huart, UART_IT_PE);
 9373              		.loc 1 3614 7
ARM GAS  /tmp/ccIpdX1g.s 			page 250


 9374 00c2 7B68     		ldr	r3, [r7, #4]
 9375 00c4 1B68     		ldr	r3, [r3]
 9376 00c6 DA68     		ldr	r2, [r3, #12]
 9377 00c8 7B68     		ldr	r3, [r7, #4]
 9378 00ca 1B68     		ldr	r3, [r3]
 9379 00cc 22F48072 		bic	r2, r2, #256
 9380 00d0 DA60     		str	r2, [r3, #12]
3615:Drivers/STM32F4xx_HAL_Driver/Src/stm32f4xx_hal_uart.c **** 
3616:Drivers/STM32F4xx_HAL_Driver/Src/stm32f4xx_hal_uart.c ****       /* Disable the UART Error Interrupt: (Frame error, noise error, overrun error) */
3617:Drivers/STM32F4xx_HAL_Driver/Src/stm32f4xx_hal_uart.c ****       __HAL_UART_DISABLE_IT(huart, UART_IT_ERR);
 9381              		.loc 1 3617 7
 9382 00d2 7B68     		ldr	r3, [r7, #4]
 9383 00d4 1B68     		ldr	r3, [r3]
 9384 00d6 5A69     		ldr	r2, [r3, #20]
 9385 00d8 7B68     		ldr	r3, [r7, #4]
 9386 00da 1B68     		ldr	r3, [r3]
 9387 00dc 22F00102 		bic	r2, r2, #1
 9388 00e0 5A61     		str	r2, [r3, #20]
3618:Drivers/STM32F4xx_HAL_Driver/Src/stm32f4xx_hal_uart.c **** 
3619:Drivers/STM32F4xx_HAL_Driver/Src/stm32f4xx_hal_uart.c ****       /* Rx process is completed, restore huart->RxState to Ready */
3620:Drivers/STM32F4xx_HAL_Driver/Src/stm32f4xx_hal_uart.c ****       huart->RxState = HAL_UART_STATE_READY;
 9389              		.loc 1 3620 22
 9390 00e2 7B68     		ldr	r3, [r7, #4]
 9391 00e4 2022     		movs	r2, #32
 9392 00e6 83F83E20 		strb	r2, [r3, #62]
3621:Drivers/STM32F4xx_HAL_Driver/Src/stm32f4xx_hal_uart.c **** 
3622:Drivers/STM32F4xx_HAL_Driver/Src/stm32f4xx_hal_uart.c ****       /* Check current reception Mode :
3623:Drivers/STM32F4xx_HAL_Driver/Src/stm32f4xx_hal_uart.c ****          If Reception till IDLE event has been selected : */
3624:Drivers/STM32F4xx_HAL_Driver/Src/stm32f4xx_hal_uart.c ****       if (huart->ReceptionType == HAL_UART_RECEPTION_TOIDLE)
 9393              		.loc 1 3624 16
 9394 00ea 7B68     		ldr	r3, [r7, #4]
 9395 00ec 1B6B     		ldr	r3, [r3, #48]
 9396              		.loc 1 3624 10
 9397 00ee 012B     		cmp	r3, #1
 9398 00f0 35D1     		bne	.L472
3625:Drivers/STM32F4xx_HAL_Driver/Src/stm32f4xx_hal_uart.c ****       {
3626:Drivers/STM32F4xx_HAL_Driver/Src/stm32f4xx_hal_uart.c ****         /* Set reception type to Standard */
3627:Drivers/STM32F4xx_HAL_Driver/Src/stm32f4xx_hal_uart.c ****         huart->ReceptionType = HAL_UART_RECEPTION_STANDARD;
 9399              		.loc 1 3627 30
 9400 00f2 7B68     		ldr	r3, [r7, #4]
 9401 00f4 0022     		movs	r2, #0
 9402 00f6 1A63     		str	r2, [r3, #48]
 9403              	.L475:
 9404              	.LBB635:
3628:Drivers/STM32F4xx_HAL_Driver/Src/stm32f4xx_hal_uart.c **** 
3629:Drivers/STM32F4xx_HAL_Driver/Src/stm32f4xx_hal_uart.c ****         /* Disable IDLE interrupt */
3630:Drivers/STM32F4xx_HAL_Driver/Src/stm32f4xx_hal_uart.c ****         ATOMIC_CLEAR_BIT(huart->Instance->CR1, USART_CR1_IDLEIE);
 9405              		.loc 1 3630 9 discriminator 1
 9406 00f8 7B68     		ldr	r3, [r7, #4]
 9407 00fa 1B68     		ldr	r3, [r3]
 9408 00fc 0C33     		adds	r3, r3, #12
 9409 00fe 7B61     		str	r3, [r7, #20]
 9410              	.LBB636:
 9411              	.LBB637:
1072:Drivers/CMSIS/Include/cmsis_gcc.h ****    return(result);
 9412              		.loc 2 1072 4 discriminator 1
 9413 0100 7B69     		ldr	r3, [r7, #20]
ARM GAS  /tmp/ccIpdX1g.s 			page 251


 9414              		.syntax unified
 9415              	@ 1072 "Drivers/CMSIS/Include/cmsis_gcc.h" 1
 9416 0102 53E8003F 		ldrex r3, [r3]
 9417              	@ 0 "" 2
 9418              		.thumb
 9419              		.syntax unified
 9420 0106 3B61     		str	r3, [r7, #16]
1073:Drivers/CMSIS/Include/cmsis_gcc.h **** }
 9421              		.loc 2 1073 10 discriminator 1
 9422 0108 3B69     		ldr	r3, [r7, #16]
 9423              	.LBE637:
 9424              	.LBE636:
 9425              		.loc 1 3630 9 discriminator 1
 9426 010a 23F01003 		bic	r3, r3, #16
 9427 010e 7B62     		str	r3, [r7, #36]
 9428 0110 7B68     		ldr	r3, [r7, #4]
 9429 0112 1B68     		ldr	r3, [r3]
 9430 0114 0C33     		adds	r3, r3, #12
 9431 0116 7A6A     		ldr	r2, [r7, #36]
 9432 0118 3A62     		str	r2, [r7, #32]
 9433 011a FB61     		str	r3, [r7, #28]
 9434              	.LBB638:
 9435              	.LBB639:
1123:Drivers/CMSIS/Include/cmsis_gcc.h ****    return(result);
 9436              		.loc 2 1123 4 discriminator 1
 9437 011c F969     		ldr	r1, [r7, #28]
 9438 011e 3A6A     		ldr	r2, [r7, #32]
 9439              		.syntax unified
 9440              	@ 1123 "Drivers/CMSIS/Include/cmsis_gcc.h" 1
 9441 0120 41E80023 		strex r3, r2, [r1]
 9442              	@ 0 "" 2
 9443              		.thumb
 9444              		.syntax unified
 9445 0124 BB61     		str	r3, [r7, #24]
 9446              		.loc 2 1124 10 discriminator 1
 9447 0126 BB69     		ldr	r3, [r7, #24]
 9448              	.LBE639:
 9449              	.LBE638:
 9450              		.loc 1 3630 9 discriminator 1
 9451 0128 002B     		cmp	r3, #0
 9452 012a E5D1     		bne	.L475
 9453              	.LBE635:
3631:Drivers/STM32F4xx_HAL_Driver/Src/stm32f4xx_hal_uart.c **** 
3632:Drivers/STM32F4xx_HAL_Driver/Src/stm32f4xx_hal_uart.c ****         /* Check if IDLE flag is set */
3633:Drivers/STM32F4xx_HAL_Driver/Src/stm32f4xx_hal_uart.c ****         if (__HAL_UART_GET_FLAG(huart, UART_FLAG_IDLE))
 9454              		.loc 1 3633 13
 9455 012c 7B68     		ldr	r3, [r7, #4]
 9456 012e 1B68     		ldr	r3, [r3]
 9457 0130 1B68     		ldr	r3, [r3]
 9458 0132 03F01003 		and	r3, r3, #16
 9459              		.loc 1 3633 12
 9460 0136 102B     		cmp	r3, #16
 9461 0138 0AD1     		bne	.L476
 9462              	.LBB640:
3634:Drivers/STM32F4xx_HAL_Driver/Src/stm32f4xx_hal_uart.c ****         {
3635:Drivers/STM32F4xx_HAL_Driver/Src/stm32f4xx_hal_uart.c ****           /* Clear IDLE flag in ISR */
3636:Drivers/STM32F4xx_HAL_Driver/Src/stm32f4xx_hal_uart.c ****           __HAL_UART_CLEAR_IDLEFLAG(huart);
ARM GAS  /tmp/ccIpdX1g.s 			page 252


 9463              		.loc 1 3636 11
 9464 013a 0023     		movs	r3, #0
 9465 013c FB60     		str	r3, [r7, #12]
 9466 013e 7B68     		ldr	r3, [r7, #4]
 9467 0140 1B68     		ldr	r3, [r3]
 9468 0142 1B68     		ldr	r3, [r3]
 9469 0144 FB60     		str	r3, [r7, #12]
 9470 0146 7B68     		ldr	r3, [r7, #4]
 9471 0148 1B68     		ldr	r3, [r3]
 9472 014a 5B68     		ldr	r3, [r3, #4]
 9473 014c FB60     		str	r3, [r7, #12]
 9474 014e FB68     		ldr	r3, [r7, #12]
 9475              	.L476:
 9476              	.LBE640:
3637:Drivers/STM32F4xx_HAL_Driver/Src/stm32f4xx_hal_uart.c ****         }
3638:Drivers/STM32F4xx_HAL_Driver/Src/stm32f4xx_hal_uart.c **** 
3639:Drivers/STM32F4xx_HAL_Driver/Src/stm32f4xx_hal_uart.c **** #if (USE_HAL_UART_REGISTER_CALLBACKS == 1)
3640:Drivers/STM32F4xx_HAL_Driver/Src/stm32f4xx_hal_uart.c ****         /*Call registered Rx Event callback*/
3641:Drivers/STM32F4xx_HAL_Driver/Src/stm32f4xx_hal_uart.c ****         huart->RxEventCallback(huart, huart->RxXferSize);
3642:Drivers/STM32F4xx_HAL_Driver/Src/stm32f4xx_hal_uart.c **** #else
3643:Drivers/STM32F4xx_HAL_Driver/Src/stm32f4xx_hal_uart.c ****         /*Call legacy weak Rx Event callback*/
3644:Drivers/STM32F4xx_HAL_Driver/Src/stm32f4xx_hal_uart.c ****         HAL_UARTEx_RxEventCallback(huart, huart->RxXferSize);
 9477              		.loc 1 3644 9
 9478 0150 7B68     		ldr	r3, [r7, #4]
 9479 0152 9B8D     		ldrh	r3, [r3, #44]
 9480 0154 1946     		mov	r1, r3
 9481 0156 7868     		ldr	r0, [r7, #4]
 9482 0158 FFF7FEFF 		bl	HAL_UARTEx_RxEventCallback
 9483 015c 02E0     		b	.L477
 9484              	.L472:
3645:Drivers/STM32F4xx_HAL_Driver/Src/stm32f4xx_hal_uart.c **** #endif /* USE_HAL_UART_REGISTER_CALLBACKS */
3646:Drivers/STM32F4xx_HAL_Driver/Src/stm32f4xx_hal_uart.c ****       }
3647:Drivers/STM32F4xx_HAL_Driver/Src/stm32f4xx_hal_uart.c ****       else
3648:Drivers/STM32F4xx_HAL_Driver/Src/stm32f4xx_hal_uart.c ****       {
3649:Drivers/STM32F4xx_HAL_Driver/Src/stm32f4xx_hal_uart.c ****         /* Standard reception API called */
3650:Drivers/STM32F4xx_HAL_Driver/Src/stm32f4xx_hal_uart.c **** #if (USE_HAL_UART_REGISTER_CALLBACKS == 1)
3651:Drivers/STM32F4xx_HAL_Driver/Src/stm32f4xx_hal_uart.c ****         /*Call registered Rx complete callback*/
3652:Drivers/STM32F4xx_HAL_Driver/Src/stm32f4xx_hal_uart.c ****         huart->RxCpltCallback(huart);
3653:Drivers/STM32F4xx_HAL_Driver/Src/stm32f4xx_hal_uart.c **** #else
3654:Drivers/STM32F4xx_HAL_Driver/Src/stm32f4xx_hal_uart.c ****         /*Call legacy weak Rx complete callback*/
3655:Drivers/STM32F4xx_HAL_Driver/Src/stm32f4xx_hal_uart.c ****         HAL_UART_RxCpltCallback(huart);
 9485              		.loc 1 3655 9
 9486 015e 7868     		ldr	r0, [r7, #4]
 9487 0160 FFF7FEFF 		bl	HAL_UART_RxCpltCallback
 9488              	.L477:
3656:Drivers/STM32F4xx_HAL_Driver/Src/stm32f4xx_hal_uart.c **** #endif /* USE_HAL_UART_REGISTER_CALLBACKS */
3657:Drivers/STM32F4xx_HAL_Driver/Src/stm32f4xx_hal_uart.c ****       }
3658:Drivers/STM32F4xx_HAL_Driver/Src/stm32f4xx_hal_uart.c **** 
3659:Drivers/STM32F4xx_HAL_Driver/Src/stm32f4xx_hal_uart.c ****       return HAL_OK;
 9489              		.loc 1 3659 14
 9490 0164 0023     		movs	r3, #0
 9491 0166 02E0     		b	.L478
 9492              	.L471:
3660:Drivers/STM32F4xx_HAL_Driver/Src/stm32f4xx_hal_uart.c ****     }
3661:Drivers/STM32F4xx_HAL_Driver/Src/stm32f4xx_hal_uart.c ****     return HAL_OK;
 9493              		.loc 1 3661 12
 9494 0168 0023     		movs	r3, #0
ARM GAS  /tmp/ccIpdX1g.s 			page 253


 9495 016a 00E0     		b	.L478
 9496              	.L465:
3662:Drivers/STM32F4xx_HAL_Driver/Src/stm32f4xx_hal_uart.c ****   }
3663:Drivers/STM32F4xx_HAL_Driver/Src/stm32f4xx_hal_uart.c ****   else
3664:Drivers/STM32F4xx_HAL_Driver/Src/stm32f4xx_hal_uart.c ****   {
3665:Drivers/STM32F4xx_HAL_Driver/Src/stm32f4xx_hal_uart.c ****     return HAL_BUSY;
 9497              		.loc 1 3665 12
 9498 016c 0223     		movs	r3, #2
 9499              	.L478:
3666:Drivers/STM32F4xx_HAL_Driver/Src/stm32f4xx_hal_uart.c ****   }
3667:Drivers/STM32F4xx_HAL_Driver/Src/stm32f4xx_hal_uart.c **** }
 9500              		.loc 1 3667 1
 9501 016e 1846     		mov	r0, r3
 9502 0170 3037     		adds	r7, r7, #48
 9503              	.LCFI323:
 9504              		.cfi_def_cfa_offset 8
 9505 0172 BD46     		mov	sp, r7
 9506              	.LCFI324:
 9507              		.cfi_def_cfa_register 13
 9508              		@ sp needed
 9509 0174 80BD     		pop	{r7, pc}
 9510              		.cfi_endproc
 9511              	.LFE275:
 9513              		.global	__aeabi_uldivmod
 9514              		.section	.text.UART_SetConfig,"ax",%progbits
 9515              		.align	1
 9516              		.syntax unified
 9517              		.thumb
 9518              		.thumb_func
 9520              	UART_SetConfig:
 9521              	.LFB276:
3668:Drivers/STM32F4xx_HAL_Driver/Src/stm32f4xx_hal_uart.c **** 
3669:Drivers/STM32F4xx_HAL_Driver/Src/stm32f4xx_hal_uart.c **** /**
3670:Drivers/STM32F4xx_HAL_Driver/Src/stm32f4xx_hal_uart.c ****   * @brief  Configures the UART peripheral.
3671:Drivers/STM32F4xx_HAL_Driver/Src/stm32f4xx_hal_uart.c ****   * @param  huart  Pointer to a UART_HandleTypeDef structure that contains
3672:Drivers/STM32F4xx_HAL_Driver/Src/stm32f4xx_hal_uart.c ****   *                the configuration information for the specified UART module.
3673:Drivers/STM32F4xx_HAL_Driver/Src/stm32f4xx_hal_uart.c ****   * @retval None
3674:Drivers/STM32F4xx_HAL_Driver/Src/stm32f4xx_hal_uart.c ****   */
3675:Drivers/STM32F4xx_HAL_Driver/Src/stm32f4xx_hal_uart.c **** static void UART_SetConfig(UART_HandleTypeDef *huart)
3676:Drivers/STM32F4xx_HAL_Driver/Src/stm32f4xx_hal_uart.c **** {
 9522              		.loc 1 3676 1
 9523              		.cfi_startproc
 9524              		@ args = 0, pretend = 0, frame = 256
 9525              		@ frame_needed = 1, uses_anonymous_args = 0
 9526 0000 2DE9B04F 		push	{r4, r5, r7, r8, r9, r10, fp, lr}
 9527              	.LCFI325:
 9528              		.cfi_def_cfa_offset 32
 9529              		.cfi_offset 4, -32
 9530              		.cfi_offset 5, -28
 9531              		.cfi_offset 7, -24
 9532              		.cfi_offset 8, -20
 9533              		.cfi_offset 9, -16
 9534              		.cfi_offset 10, -12
 9535              		.cfi_offset 11, -8
 9536              		.cfi_offset 14, -4
 9537 0004 C0B0     		sub	sp, sp, #256
 9538              	.LCFI326:
ARM GAS  /tmp/ccIpdX1g.s 			page 254


 9539              		.cfi_def_cfa_offset 288
 9540 0006 00AF     		add	r7, sp, #0
 9541              	.LCFI327:
 9542              		.cfi_def_cfa_register 7
 9543 0008 C7F8F400 		str	r0, [r7, #244]
3677:Drivers/STM32F4xx_HAL_Driver/Src/stm32f4xx_hal_uart.c ****   uint32_t tmpreg;
3678:Drivers/STM32F4xx_HAL_Driver/Src/stm32f4xx_hal_uart.c ****   uint32_t pclk;
3679:Drivers/STM32F4xx_HAL_Driver/Src/stm32f4xx_hal_uart.c **** 
3680:Drivers/STM32F4xx_HAL_Driver/Src/stm32f4xx_hal_uart.c ****   /* Check the parameters */
3681:Drivers/STM32F4xx_HAL_Driver/Src/stm32f4xx_hal_uart.c ****   assert_param(IS_UART_BAUDRATE(huart->Init.BaudRate));
3682:Drivers/STM32F4xx_HAL_Driver/Src/stm32f4xx_hal_uart.c ****   assert_param(IS_UART_STOPBITS(huart->Init.StopBits));
3683:Drivers/STM32F4xx_HAL_Driver/Src/stm32f4xx_hal_uart.c ****   assert_param(IS_UART_PARITY(huart->Init.Parity));
3684:Drivers/STM32F4xx_HAL_Driver/Src/stm32f4xx_hal_uart.c ****   assert_param(IS_UART_MODE(huart->Init.Mode));
3685:Drivers/STM32F4xx_HAL_Driver/Src/stm32f4xx_hal_uart.c **** 
3686:Drivers/STM32F4xx_HAL_Driver/Src/stm32f4xx_hal_uart.c ****   /*-------------------------- USART CR2 Configuration -----------------------*/
3687:Drivers/STM32F4xx_HAL_Driver/Src/stm32f4xx_hal_uart.c ****   /* Configure the UART Stop Bits: Set STOP[13:12] bits
3688:Drivers/STM32F4xx_HAL_Driver/Src/stm32f4xx_hal_uart.c ****      according to huart->Init.StopBits value */
3689:Drivers/STM32F4xx_HAL_Driver/Src/stm32f4xx_hal_uart.c ****   MODIFY_REG(huart->Instance->CR2, USART_CR2_STOP, huart->Init.StopBits);
 9544              		.loc 1 3689 3
 9545 000c D7F8F430 		ldr	r3, [r7, #244]
 9546 0010 1B68     		ldr	r3, [r3]
 9547 0012 1B69     		ldr	r3, [r3, #16]
 9548 0014 23F44050 		bic	r0, r3, #12288
 9549 0018 D7F8F430 		ldr	r3, [r7, #244]
 9550 001c D968     		ldr	r1, [r3, #12]
 9551 001e D7F8F430 		ldr	r3, [r7, #244]
 9552 0022 1A68     		ldr	r2, [r3]
 9553 0024 40EA0103 		orr	r3, r0, r1
 9554 0028 1361     		str	r3, [r2, #16]
3690:Drivers/STM32F4xx_HAL_Driver/Src/stm32f4xx_hal_uart.c **** 
3691:Drivers/STM32F4xx_HAL_Driver/Src/stm32f4xx_hal_uart.c ****   /*-------------------------- USART CR1 Configuration -----------------------*/
3692:Drivers/STM32F4xx_HAL_Driver/Src/stm32f4xx_hal_uart.c ****   /* Configure the UART Word Length, Parity and mode:
3693:Drivers/STM32F4xx_HAL_Driver/Src/stm32f4xx_hal_uart.c ****      Set the M bits according to huart->Init.WordLength value
3694:Drivers/STM32F4xx_HAL_Driver/Src/stm32f4xx_hal_uart.c ****      Set PCE and PS bits according to huart->Init.Parity value
3695:Drivers/STM32F4xx_HAL_Driver/Src/stm32f4xx_hal_uart.c ****      Set TE and RE bits according to huart->Init.Mode value
3696:Drivers/STM32F4xx_HAL_Driver/Src/stm32f4xx_hal_uart.c ****      Set OVER8 bit according to huart->Init.OverSampling value */
3697:Drivers/STM32F4xx_HAL_Driver/Src/stm32f4xx_hal_uart.c **** 
3698:Drivers/STM32F4xx_HAL_Driver/Src/stm32f4xx_hal_uart.c ****   tmpreg = (uint32_t)huart->Init.WordLength | huart->Init.Parity | huart->Init.Mode | huart->Init.O
 9555              		.loc 1 3698 33
 9556 002a D7F8F430 		ldr	r3, [r7, #244]
 9557 002e 9A68     		ldr	r2, [r3, #8]
 9558              		.loc 1 3698 58
 9559 0030 D7F8F430 		ldr	r3, [r7, #244]
 9560 0034 1B69     		ldr	r3, [r3, #16]
 9561              		.loc 1 3698 45
 9562 0036 1A43     		orrs	r2, r2, r3
 9563              		.loc 1 3698 79
 9564 0038 D7F8F430 		ldr	r3, [r7, #244]
 9565 003c 5B69     		ldr	r3, [r3, #20]
 9566              		.loc 1 3698 66
 9567 003e 1A43     		orrs	r2, r2, r3
 9568              		.loc 1 3698 98
 9569 0040 D7F8F430 		ldr	r3, [r7, #244]
 9570 0044 DB69     		ldr	r3, [r3, #28]
 9571              		.loc 1 3698 10
 9572 0046 1343     		orrs	r3, r3, r2
 9573 0048 C7F8F830 		str	r3, [r7, #248]
ARM GAS  /tmp/ccIpdX1g.s 			page 255


3699:Drivers/STM32F4xx_HAL_Driver/Src/stm32f4xx_hal_uart.c ****   MODIFY_REG(huart->Instance->CR1,
 9574              		.loc 1 3699 3
 9575 004c D7F8F430 		ldr	r3, [r7, #244]
 9576 0050 1B68     		ldr	r3, [r3]
 9577 0052 DB68     		ldr	r3, [r3, #12]
 9578 0054 23F41641 		bic	r1, r3, #38400
 9579 0058 21F00C01 		bic	r1, r1, #12
 9580 005c D7F8F430 		ldr	r3, [r7, #244]
 9581 0060 1A68     		ldr	r2, [r3]
 9582 0062 D7F8F830 		ldr	r3, [r7, #248]
 9583 0066 0B43     		orrs	r3, r3, r1
 9584 0068 D360     		str	r3, [r2, #12]
3700:Drivers/STM32F4xx_HAL_Driver/Src/stm32f4xx_hal_uart.c ****              (uint32_t)(USART_CR1_M | USART_CR1_PCE | USART_CR1_PS | USART_CR1_TE | USART_CR1_RE | 
3701:Drivers/STM32F4xx_HAL_Driver/Src/stm32f4xx_hal_uart.c ****              tmpreg);
3702:Drivers/STM32F4xx_HAL_Driver/Src/stm32f4xx_hal_uart.c **** 
3703:Drivers/STM32F4xx_HAL_Driver/Src/stm32f4xx_hal_uart.c ****   /*-------------------------- USART CR3 Configuration -----------------------*/
3704:Drivers/STM32F4xx_HAL_Driver/Src/stm32f4xx_hal_uart.c ****   /* Configure the UART HFC: Set CTSE and RTSE bits according to huart->Init.HwFlowCtl value */
3705:Drivers/STM32F4xx_HAL_Driver/Src/stm32f4xx_hal_uart.c ****   MODIFY_REG(huart->Instance->CR3, (USART_CR3_RTSE | USART_CR3_CTSE), huart->Init.HwFlowCtl);
 9585              		.loc 1 3705 3
 9586 006a D7F8F430 		ldr	r3, [r7, #244]
 9587 006e 1B68     		ldr	r3, [r3]
 9588 0070 5B69     		ldr	r3, [r3, #20]
 9589 0072 23F44070 		bic	r0, r3, #768
 9590 0076 D7F8F430 		ldr	r3, [r7, #244]
 9591 007a 9969     		ldr	r1, [r3, #24]
 9592 007c D7F8F430 		ldr	r3, [r7, #244]
 9593 0080 1A68     		ldr	r2, [r3]
 9594 0082 40EA0103 		orr	r3, r0, r1
 9595 0086 5361     		str	r3, [r2, #20]
3706:Drivers/STM32F4xx_HAL_Driver/Src/stm32f4xx_hal_uart.c **** 
3707:Drivers/STM32F4xx_HAL_Driver/Src/stm32f4xx_hal_uart.c **** 
3708:Drivers/STM32F4xx_HAL_Driver/Src/stm32f4xx_hal_uart.c **** #if defined(USART6) && defined(UART9) && defined(UART10)
3709:Drivers/STM32F4xx_HAL_Driver/Src/stm32f4xx_hal_uart.c ****     if ((huart->Instance == USART1) || (huart->Instance == USART6) || (huart->Instance == UART9) ||
3710:Drivers/STM32F4xx_HAL_Driver/Src/stm32f4xx_hal_uart.c ****     {
3711:Drivers/STM32F4xx_HAL_Driver/Src/stm32f4xx_hal_uart.c ****       pclk = HAL_RCC_GetPCLK2Freq();
3712:Drivers/STM32F4xx_HAL_Driver/Src/stm32f4xx_hal_uart.c ****     }
3713:Drivers/STM32F4xx_HAL_Driver/Src/stm32f4xx_hal_uart.c **** #elif defined(USART6)
3714:Drivers/STM32F4xx_HAL_Driver/Src/stm32f4xx_hal_uart.c ****     if ((huart->Instance == USART1) || (huart->Instance == USART6))
 9596              		.loc 1 3714 15
 9597 0088 D7F8F430 		ldr	r3, [r7, #244]
 9598 008c 1A68     		ldr	r2, [r3]
 9599              		.loc 1 3714 8
 9600 008e 8F4B     		ldr	r3, .L486
 9601 0090 9A42     		cmp	r2, r3
 9602 0092 05D0     		beq	.L480
 9603              		.loc 1 3714 46 discriminator 1
 9604 0094 D7F8F430 		ldr	r3, [r7, #244]
 9605 0098 1A68     		ldr	r2, [r3]
 9606              		.loc 1 3714 37 discriminator 1
 9607 009a 8D4B     		ldr	r3, .L486+4
 9608 009c 9A42     		cmp	r2, r3
 9609 009e 04D1     		bne	.L481
 9610              	.L480:
3715:Drivers/STM32F4xx_HAL_Driver/Src/stm32f4xx_hal_uart.c ****     {
3716:Drivers/STM32F4xx_HAL_Driver/Src/stm32f4xx_hal_uart.c ****       pclk = HAL_RCC_GetPCLK2Freq();
 9611              		.loc 1 3716 14
 9612 00a0 FFF7FEFF 		bl	HAL_RCC_GetPCLK2Freq
ARM GAS  /tmp/ccIpdX1g.s 			page 256


 9613 00a4 C7F8FC00 		str	r0, [r7, #252]
 9614              		.loc 1 3716 12
 9615 00a8 03E0     		b	.L482
 9616              	.L481:
3717:Drivers/STM32F4xx_HAL_Driver/Src/stm32f4xx_hal_uart.c ****     }
3718:Drivers/STM32F4xx_HAL_Driver/Src/stm32f4xx_hal_uart.c **** #else
3719:Drivers/STM32F4xx_HAL_Driver/Src/stm32f4xx_hal_uart.c ****     if (huart->Instance == USART1)
3720:Drivers/STM32F4xx_HAL_Driver/Src/stm32f4xx_hal_uart.c ****     {
3721:Drivers/STM32F4xx_HAL_Driver/Src/stm32f4xx_hal_uart.c ****       pclk = HAL_RCC_GetPCLK2Freq();
3722:Drivers/STM32F4xx_HAL_Driver/Src/stm32f4xx_hal_uart.c ****     }
3723:Drivers/STM32F4xx_HAL_Driver/Src/stm32f4xx_hal_uart.c **** #endif /* USART6 */
3724:Drivers/STM32F4xx_HAL_Driver/Src/stm32f4xx_hal_uart.c ****     else
3725:Drivers/STM32F4xx_HAL_Driver/Src/stm32f4xx_hal_uart.c ****     {
3726:Drivers/STM32F4xx_HAL_Driver/Src/stm32f4xx_hal_uart.c ****       pclk = HAL_RCC_GetPCLK1Freq();
 9617              		.loc 1 3726 14
 9618 00aa FFF7FEFF 		bl	HAL_RCC_GetPCLK1Freq
 9619 00ae C7F8FC00 		str	r0, [r7, #252]
 9620              	.L482:
3727:Drivers/STM32F4xx_HAL_Driver/Src/stm32f4xx_hal_uart.c ****     }
3728:Drivers/STM32F4xx_HAL_Driver/Src/stm32f4xx_hal_uart.c ****   /*-------------------------- USART BRR Configuration ---------------------*/
3729:Drivers/STM32F4xx_HAL_Driver/Src/stm32f4xx_hal_uart.c ****   if (huart->Init.OverSampling == UART_OVERSAMPLING_8)
 9621              		.loc 1 3729 18
 9622 00b2 D7F8F430 		ldr	r3, [r7, #244]
 9623 00b6 DB69     		ldr	r3, [r3, #28]
 9624              		.loc 1 3729 6
 9625 00b8 B3F5004F 		cmp	r3, #32768
 9626 00bc 40F00C81 		bne	.L483
3730:Drivers/STM32F4xx_HAL_Driver/Src/stm32f4xx_hal_uart.c ****   {
3731:Drivers/STM32F4xx_HAL_Driver/Src/stm32f4xx_hal_uart.c ****     huart->Instance->BRR = UART_BRR_SAMPLING8(pclk, huart->Init.BaudRate);
 9627              		.loc 1 3731 28
 9628 00c0 D7F8FC30 		ldr	r3, [r7, #252]
 9629 00c4 0022     		movs	r2, #0
 9630 00c6 C7F8E830 		str	r3, [r7, #232]
 9631 00ca C7F8EC20 		str	r2, [r7, #236]
 9632 00ce D7E93A45 		ldrd	r4, [r7, #232]
 9633 00d2 2246     		mov	r2, r4
 9634 00d4 2B46     		mov	r3, r5
 9635 00d6 9118     		adds	r1, r2, r2
 9636 00d8 B965     		str	r1, [r7, #88]
 9637 00da 5B41     		adcs	r3, r3, r3
 9638 00dc FB65     		str	r3, [r7, #92]
 9639 00de D7E91623 		ldrd	r2, [r7, #88]
 9640 00e2 2146     		mov	r1, r4
 9641 00e4 12EB0108 		adds	r8, r2, r1
 9642 00e8 2946     		mov	r1, r5
 9643 00ea 43EB0109 		adc	r9, r3, r1
 9644 00ee 4FF00002 		mov	r2, #0
 9645 00f2 4FF00003 		mov	r3, #0
 9646 00f6 4FEAC903 		lsl	r3, r9, #3
 9647 00fa 43EA5873 		orr	r3, r3, r8, lsr #29
 9648 00fe 4FEAC802 		lsl	r2, r8, #3
 9649 0102 9046     		mov	r8, r2
 9650 0104 9946     		mov	r9, r3
 9651 0106 2346     		mov	r3, r4
 9652 0108 18EB0303 		adds	r3, r8, r3
 9653 010c C7F8E030 		str	r3, [r7, #224]
 9654 0110 2B46     		mov	r3, r5
ARM GAS  /tmp/ccIpdX1g.s 			page 257


 9655 0112 49EB0303 		adc	r3, r9, r3
 9656 0116 C7F8E430 		str	r3, [r7, #228]
 9657 011a D7F8F430 		ldr	r3, [r7, #244]
 9658 011e 5B68     		ldr	r3, [r3, #4]
 9659 0120 0022     		movs	r2, #0
 9660 0122 C7F8D830 		str	r3, [r7, #216]
 9661 0126 C7F8DC20 		str	r2, [r7, #220]
 9662 012a D7E93612 		ldrd	r1, [r7, #216]
 9663 012e 0B46     		mov	r3, r1
 9664 0130 DB18     		adds	r3, r3, r3
 9665 0132 3B65     		str	r3, [r7, #80]
 9666 0134 1346     		mov	r3, r2
 9667 0136 42EB0303 		adc	r3, r2, r3
 9668 013a 7B65     		str	r3, [r7, #84]
 9669 013c D7E91423 		ldrd	r2, [r7, #80]
 9670 0140 D7E93801 		ldrd	r0, [r7, #224]
 9671 0144 FFF7FEFF 		bl	__aeabi_uldivmod
 9672 0148 0246     		mov	r2, r0
 9673 014a 0B46     		mov	r3, r1
 9674 014c 614B     		ldr	r3, .L486+8
 9675 014e A3FB0223 		umull	r2, r3, r3, r2
 9676 0152 5B09     		lsrs	r3, r3, #5
 9677 0154 1C01     		lsls	r4, r3, #4
 9678 0156 D7F8FC30 		ldr	r3, [r7, #252]
 9679 015a 0022     		movs	r2, #0
 9680 015c C7F8D030 		str	r3, [r7, #208]
 9681 0160 C7F8D420 		str	r2, [r7, #212]
 9682 0164 D7E93489 		ldrd	r8, [r7, #208]
 9683 0168 4246     		mov	r2, r8
 9684 016a 4B46     		mov	r3, r9
 9685 016c 9118     		adds	r1, r2, r2
 9686 016e B964     		str	r1, [r7, #72]
 9687 0170 5B41     		adcs	r3, r3, r3
 9688 0172 FB64     		str	r3, [r7, #76]
 9689 0174 D7E91223 		ldrd	r2, [r7, #72]
 9690 0178 4146     		mov	r1, r8
 9691 017a 12EB010A 		adds	r10, r2, r1
 9692 017e 4946     		mov	r1, r9
 9693 0180 43EB010B 		adc	fp, r3, r1
 9694 0184 4FF00002 		mov	r2, #0
 9695 0188 4FF00003 		mov	r3, #0
 9696 018c 4FEACB03 		lsl	r3, fp, #3
 9697 0190 43EA5A73 		orr	r3, r3, r10, lsr #29
 9698 0194 4FEACA02 		lsl	r2, r10, #3
 9699 0198 9246     		mov	r10, r2
 9700 019a 9B46     		mov	fp, r3
 9701 019c 4346     		mov	r3, r8
 9702 019e 1AEB0303 		adds	r3, r10, r3
 9703 01a2 C7F8C830 		str	r3, [r7, #200]
 9704 01a6 4B46     		mov	r3, r9
 9705 01a8 4BEB0303 		adc	r3, fp, r3
 9706 01ac C7F8CC30 		str	r3, [r7, #204]
 9707 01b0 D7F8F430 		ldr	r3, [r7, #244]
 9708 01b4 5B68     		ldr	r3, [r3, #4]
 9709 01b6 0022     		movs	r2, #0
 9710 01b8 C7F8C030 		str	r3, [r7, #192]
 9711 01bc C7F8C420 		str	r2, [r7, #196]
ARM GAS  /tmp/ccIpdX1g.s 			page 258


 9712 01c0 D7E93012 		ldrd	r1, [r7, #192]
 9713 01c4 0B46     		mov	r3, r1
 9714 01c6 DB18     		adds	r3, r3, r3
 9715 01c8 3B64     		str	r3, [r7, #64]
 9716 01ca 1346     		mov	r3, r2
 9717 01cc 42EB0303 		adc	r3, r2, r3
 9718 01d0 7B64     		str	r3, [r7, #68]
 9719 01d2 D7E91023 		ldrd	r2, [r7, #64]
 9720 01d6 D7E93201 		ldrd	r0, [r7, #200]
 9721 01da FFF7FEFF 		bl	__aeabi_uldivmod
 9722 01de 0246     		mov	r2, r0
 9723 01e0 0B46     		mov	r3, r1
 9724 01e2 1146     		mov	r1, r2
 9725 01e4 3B4B     		ldr	r3, .L486+8
 9726 01e6 A3FB0123 		umull	r2, r3, r3, r1
 9727 01ea 5B09     		lsrs	r3, r3, #5
 9728 01ec 6422     		movs	r2, #100
 9729 01ee 02FB03F3 		mul	r3, r2, r3
 9730 01f2 CB1A     		subs	r3, r1, r3
 9731 01f4 DB00     		lsls	r3, r3, #3
 9732 01f6 03F13202 		add	r2, r3, #50
 9733 01fa 364B     		ldr	r3, .L486+8
 9734 01fc A3FB0223 		umull	r2, r3, r3, r2
 9735 0200 5B09     		lsrs	r3, r3, #5
 9736 0202 5B00     		lsls	r3, r3, #1
 9737 0204 03F4F873 		and	r3, r3, #496
 9738 0208 1C44     		add	r4, r4, r3
 9739 020a D7F8FC30 		ldr	r3, [r7, #252]
 9740 020e 0022     		movs	r2, #0
 9741 0210 C7F8B830 		str	r3, [r7, #184]
 9742 0214 C7F8BC20 		str	r2, [r7, #188]
 9743 0218 D7E92E89 		ldrd	r8, [r7, #184]
 9744 021c 4246     		mov	r2, r8
 9745 021e 4B46     		mov	r3, r9
 9746 0220 9118     		adds	r1, r2, r2
 9747 0222 B963     		str	r1, [r7, #56]
 9748 0224 5B41     		adcs	r3, r3, r3
 9749 0226 FB63     		str	r3, [r7, #60]
 9750 0228 D7E90E23 		ldrd	r2, [r7, #56]
 9751 022c 4146     		mov	r1, r8
 9752 022e 5118     		adds	r1, r2, r1
 9753 0230 3963     		str	r1, [r7, #48]
 9754 0232 4946     		mov	r1, r9
 9755 0234 4B41     		adcs	r3, r3, r1
 9756 0236 7B63     		str	r3, [r7, #52]
 9757 0238 4FF00002 		mov	r2, #0
 9758 023c 4FF00003 		mov	r3, #0
 9759 0240 D7E90CAB 		ldrd	r10, [r7, #48]
 9760 0244 5946     		mov	r1, fp
 9761 0246 CB00     		lsls	r3, r1, #3
 9762 0248 5146     		mov	r1, r10
 9763 024a 43EA5173 		orr	r3, r3, r1, lsr #29
 9764 024e 5146     		mov	r1, r10
 9765 0250 CA00     		lsls	r2, r1, #3
 9766 0252 1046     		mov	r0, r2
 9767 0254 1946     		mov	r1, r3
 9768 0256 0346     		mov	r3, r0
ARM GAS  /tmp/ccIpdX1g.s 			page 259


 9769 0258 4246     		mov	r2, r8
 9770 025a 9B18     		adds	r3, r3, r2
 9771 025c C7F8B030 		str	r3, [r7, #176]
 9772 0260 4B46     		mov	r3, r9
 9773 0262 0A46     		mov	r2, r1
 9774 0264 42EB0303 		adc	r3, r2, r3
 9775 0268 C7F8B430 		str	r3, [r7, #180]
 9776 026c D7F8F430 		ldr	r3, [r7, #244]
 9777 0270 5B68     		ldr	r3, [r3, #4]
 9778 0272 0022     		movs	r2, #0
 9779 0274 C7F8A830 		str	r3, [r7, #168]
 9780 0278 C7F8AC20 		str	r2, [r7, #172]
 9781 027c D7E92A12 		ldrd	r1, [r7, #168]
 9782 0280 0B46     		mov	r3, r1
 9783 0282 DB18     		adds	r3, r3, r3
 9784 0284 BB62     		str	r3, [r7, #40]
 9785 0286 1346     		mov	r3, r2
 9786 0288 42EB0303 		adc	r3, r2, r3
 9787 028c FB62     		str	r3, [r7, #44]
 9788 028e D7E90A23 		ldrd	r2, [r7, #40]
 9789 0292 D7E92C01 		ldrd	r0, [r7, #176]
 9790 0296 FFF7FEFF 		bl	__aeabi_uldivmod
 9791 029a 0246     		mov	r2, r0
 9792 029c 0B46     		mov	r3, r1
 9793 029e 0D4B     		ldr	r3, .L486+8
 9794 02a0 A3FB0213 		umull	r1, r3, r3, r2
 9795 02a4 5B09     		lsrs	r3, r3, #5
 9796 02a6 6421     		movs	r1, #100
 9797 02a8 01FB03F3 		mul	r3, r1, r3
 9798 02ac D31A     		subs	r3, r2, r3
 9799 02ae DB00     		lsls	r3, r3, #3
 9800 02b0 3233     		adds	r3, r3, #50
 9801 02b2 084A     		ldr	r2, .L486+8
 9802 02b4 A2FB0323 		umull	r2, r3, r2, r3
 9803 02b8 5B09     		lsrs	r3, r3, #5
 9804 02ba 03F00702 		and	r2, r3, #7
 9805              		.loc 1 3731 10
 9806 02be D7F8F430 		ldr	r3, [r7, #244]
 9807 02c2 1B68     		ldr	r3, [r3]
 9808              		.loc 1 3731 28
 9809 02c4 2244     		add	r2, r2, r4
 9810              		.loc 1 3731 26
 9811 02c6 9A60     		str	r2, [r3, #8]
3732:Drivers/STM32F4xx_HAL_Driver/Src/stm32f4xx_hal_uart.c ****   }
3733:Drivers/STM32F4xx_HAL_Driver/Src/stm32f4xx_hal_uart.c ****   else
3734:Drivers/STM32F4xx_HAL_Driver/Src/stm32f4xx_hal_uart.c ****   {
3735:Drivers/STM32F4xx_HAL_Driver/Src/stm32f4xx_hal_uart.c ****     huart->Instance->BRR = UART_BRR_SAMPLING16(pclk, huart->Init.BaudRate);
3736:Drivers/STM32F4xx_HAL_Driver/Src/stm32f4xx_hal_uart.c ****   }
3737:Drivers/STM32F4xx_HAL_Driver/Src/stm32f4xx_hal_uart.c **** }
 9812              		.loc 1 3737 1
 9813 02c8 06E1     		b	.L485
 9814              	.L487:
 9815 02ca 00BF     		.align	2
 9816              	.L486:
 9817 02cc 00100140 		.word	1073811456
 9818 02d0 00140140 		.word	1073812480
 9819 02d4 1F85EB51 		.word	1374389535
ARM GAS  /tmp/ccIpdX1g.s 			page 260


 9820              	.L483:
3735:Drivers/STM32F4xx_HAL_Driver/Src/stm32f4xx_hal_uart.c ****   }
 9821              		.loc 1 3735 28
 9822 02d8 D7F8FC30 		ldr	r3, [r7, #252]
 9823 02dc 0022     		movs	r2, #0
 9824 02de C7F8A030 		str	r3, [r7, #160]
 9825 02e2 C7F8A420 		str	r2, [r7, #164]
 9826 02e6 D7E92889 		ldrd	r8, [r7, #160]
 9827 02ea 4246     		mov	r2, r8
 9828 02ec 4B46     		mov	r3, r9
 9829 02ee 9118     		adds	r1, r2, r2
 9830 02f0 3962     		str	r1, [r7, #32]
 9831 02f2 5B41     		adcs	r3, r3, r3
 9832 02f4 7B62     		str	r3, [r7, #36]
 9833 02f6 D7E90823 		ldrd	r2, [r7, #32]
 9834 02fa 4146     		mov	r1, r8
 9835 02fc 5418     		adds	r4, r2, r1
 9836 02fe 4946     		mov	r1, r9
 9837 0300 43EB0105 		adc	r5, r3, r1
 9838 0304 4FF00002 		mov	r2, #0
 9839 0308 4FF00003 		mov	r3, #0
 9840 030c EB00     		lsls	r3, r5, #3
 9841 030e 43EA5473 		orr	r3, r3, r4, lsr #29
 9842 0312 E200     		lsls	r2, r4, #3
 9843 0314 1446     		mov	r4, r2
 9844 0316 1D46     		mov	r5, r3
 9845 0318 4346     		mov	r3, r8
 9846 031a E318     		adds	r3, r4, r3
 9847 031c C7F89830 		str	r3, [r7, #152]
 9848 0320 4B46     		mov	r3, r9
 9849 0322 45EB0303 		adc	r3, r5, r3
 9850 0326 C7F89C30 		str	r3, [r7, #156]
 9851 032a D7F8F430 		ldr	r3, [r7, #244]
 9852 032e 5B68     		ldr	r3, [r3, #4]
 9853 0330 0022     		movs	r2, #0
 9854 0332 C7F89030 		str	r3, [r7, #144]
 9855 0336 C7F89420 		str	r2, [r7, #148]
 9856 033a 4FF00002 		mov	r2, #0
 9857 033e 4FF00003 		mov	r3, #0
 9858 0342 D7E92445 		ldrd	r4, [r7, #144]
 9859 0346 2946     		mov	r1, r5
 9860 0348 8B00     		lsls	r3, r1, #2
 9861 034a 2146     		mov	r1, r4
 9862 034c 43EA9173 		orr	r3, r3, r1, lsr #30
 9863 0350 2146     		mov	r1, r4
 9864 0352 8A00     		lsls	r2, r1, #2
 9865 0354 D7E92601 		ldrd	r0, [r7, #152]
 9866 0358 FFF7FEFF 		bl	__aeabi_uldivmod
 9867 035c 0246     		mov	r2, r0
 9868 035e 0B46     		mov	r3, r1
 9869 0360 604B     		ldr	r3, .L488
 9870 0362 A3FB0223 		umull	r2, r3, r3, r2
 9871 0366 5B09     		lsrs	r3, r3, #5
 9872 0368 1C01     		lsls	r4, r3, #4
 9873 036a D7F8FC30 		ldr	r3, [r7, #252]
 9874 036e 0022     		movs	r2, #0
 9875 0370 C7F88830 		str	r3, [r7, #136]
ARM GAS  /tmp/ccIpdX1g.s 			page 261


 9876 0374 C7F88C20 		str	r2, [r7, #140]
 9877 0378 D7E92289 		ldrd	r8, [r7, #136]
 9878 037c 4246     		mov	r2, r8
 9879 037e 4B46     		mov	r3, r9
 9880 0380 9118     		adds	r1, r2, r2
 9881 0382 B961     		str	r1, [r7, #24]
 9882 0384 5B41     		adcs	r3, r3, r3
 9883 0386 FB61     		str	r3, [r7, #28]
 9884 0388 D7E90623 		ldrd	r2, [r7, #24]
 9885 038c 4146     		mov	r1, r8
 9886 038e 5118     		adds	r1, r2, r1
 9887 0390 3961     		str	r1, [r7, #16]
 9888 0392 4946     		mov	r1, r9
 9889 0394 4B41     		adcs	r3, r3, r1
 9890 0396 7B61     		str	r3, [r7, #20]
 9891 0398 4FF00002 		mov	r2, #0
 9892 039c 4FF00003 		mov	r3, #0
 9893 03a0 D7E904AB 		ldrd	r10, [r7, #16]
 9894 03a4 5946     		mov	r1, fp
 9895 03a6 CB00     		lsls	r3, r1, #3
 9896 03a8 5146     		mov	r1, r10
 9897 03aa 43EA5173 		orr	r3, r3, r1, lsr #29
 9898 03ae 5146     		mov	r1, r10
 9899 03b0 CA00     		lsls	r2, r1, #3
 9900 03b2 1046     		mov	r0, r2
 9901 03b4 1946     		mov	r1, r3
 9902 03b6 0346     		mov	r3, r0
 9903 03b8 4246     		mov	r2, r8
 9904 03ba 9B18     		adds	r3, r3, r2
 9905 03bc C7F88030 		str	r3, [r7, #128]
 9906 03c0 4B46     		mov	r3, r9
 9907 03c2 0A46     		mov	r2, r1
 9908 03c4 42EB0303 		adc	r3, r2, r3
 9909 03c8 C7F88430 		str	r3, [r7, #132]
 9910 03cc D7F8F430 		ldr	r3, [r7, #244]
 9911 03d0 5B68     		ldr	r3, [r3, #4]
 9912 03d2 0022     		movs	r2, #0
 9913 03d4 BB67     		str	r3, [r7, #120]
 9914 03d6 FA67     		str	r2, [r7, #124]
 9915 03d8 4FF00002 		mov	r2, #0
 9916 03dc 4FF00003 		mov	r3, #0
 9917 03e0 D7E91E89 		ldrd	r8, [r7, #120]
 9918 03e4 4946     		mov	r1, r9
 9919 03e6 8B00     		lsls	r3, r1, #2
 9920 03e8 4146     		mov	r1, r8
 9921 03ea 43EA9173 		orr	r3, r3, r1, lsr #30
 9922 03ee 4146     		mov	r1, r8
 9923 03f0 8A00     		lsls	r2, r1, #2
 9924 03f2 D7E92001 		ldrd	r0, [r7, #128]
 9925 03f6 FFF7FEFF 		bl	__aeabi_uldivmod
 9926 03fa 0246     		mov	r2, r0
 9927 03fc 0B46     		mov	r3, r1
 9928 03fe 1146     		mov	r1, r2
 9929 0400 384B     		ldr	r3, .L488
 9930 0402 A3FB0123 		umull	r2, r3, r3, r1
 9931 0406 5B09     		lsrs	r3, r3, #5
 9932 0408 6422     		movs	r2, #100
ARM GAS  /tmp/ccIpdX1g.s 			page 262


 9933 040a 02FB03F3 		mul	r3, r2, r3
 9934 040e CB1A     		subs	r3, r1, r3
 9935 0410 1B01     		lsls	r3, r3, #4
 9936 0412 3233     		adds	r3, r3, #50
 9937 0414 334A     		ldr	r2, .L488
 9938 0416 A2FB0323 		umull	r2, r3, r2, r3
 9939 041a 5B09     		lsrs	r3, r3, #5
 9940 041c 03F0F003 		and	r3, r3, #240
 9941 0420 1C44     		add	r4, r4, r3
 9942 0422 D7F8FC30 		ldr	r3, [r7, #252]
 9943 0426 0022     		movs	r2, #0
 9944 0428 3B67     		str	r3, [r7, #112]
 9945 042a 7A67     		str	r2, [r7, #116]
 9946 042c D7E91C89 		ldrd	r8, [r7, #112]
 9947 0430 4246     		mov	r2, r8
 9948 0432 4B46     		mov	r3, r9
 9949 0434 9118     		adds	r1, r2, r2
 9950 0436 B960     		str	r1, [r7, #8]
 9951 0438 5B41     		adcs	r3, r3, r3
 9952 043a FB60     		str	r3, [r7, #12]
 9953 043c D7E90223 		ldrd	r2, [r7, #8]
 9954 0440 4146     		mov	r1, r8
 9955 0442 5118     		adds	r1, r2, r1
 9956 0444 3960     		str	r1, [r7]
 9957 0446 4946     		mov	r1, r9
 9958 0448 4B41     		adcs	r3, r3, r1
 9959 044a 7B60     		str	r3, [r7, #4]
 9960 044c 4FF00002 		mov	r2, #0
 9961 0450 4FF00003 		mov	r3, #0
 9962 0454 D7E900AB 		ldrd	r10, [r7]
 9963 0458 5946     		mov	r1, fp
 9964 045a CB00     		lsls	r3, r1, #3
 9965 045c 5146     		mov	r1, r10
 9966 045e 43EA5173 		orr	r3, r3, r1, lsr #29
 9967 0462 5146     		mov	r1, r10
 9968 0464 CA00     		lsls	r2, r1, #3
 9969 0466 1046     		mov	r0, r2
 9970 0468 1946     		mov	r1, r3
 9971 046a 0346     		mov	r3, r0
 9972 046c 4246     		mov	r2, r8
 9973 046e 9B18     		adds	r3, r3, r2
 9974 0470 BB66     		str	r3, [r7, #104]
 9975 0472 4B46     		mov	r3, r9
 9976 0474 0A46     		mov	r2, r1
 9977 0476 42EB0303 		adc	r3, r2, r3
 9978 047a FB66     		str	r3, [r7, #108]
 9979 047c D7F8F430 		ldr	r3, [r7, #244]
 9980 0480 5B68     		ldr	r3, [r3, #4]
 9981 0482 0022     		movs	r2, #0
 9982 0484 3B66     		str	r3, [r7, #96]
 9983 0486 7A66     		str	r2, [r7, #100]
 9984 0488 4FF00002 		mov	r2, #0
 9985 048c 4FF00003 		mov	r3, #0
 9986 0490 D7E91889 		ldrd	r8, [r7, #96]
 9987 0494 4946     		mov	r1, r9
 9988 0496 8B00     		lsls	r3, r1, #2
 9989 0498 4146     		mov	r1, r8
ARM GAS  /tmp/ccIpdX1g.s 			page 263


 9990 049a 43EA9173 		orr	r3, r3, r1, lsr #30
 9991 049e 4146     		mov	r1, r8
 9992 04a0 8A00     		lsls	r2, r1, #2
 9993 04a2 D7E91A01 		ldrd	r0, [r7, #104]
 9994 04a6 FFF7FEFF 		bl	__aeabi_uldivmod
 9995 04aa 0246     		mov	r2, r0
 9996 04ac 0B46     		mov	r3, r1
 9997 04ae 0D4B     		ldr	r3, .L488
 9998 04b0 A3FB0213 		umull	r1, r3, r3, r2
 9999 04b4 5B09     		lsrs	r3, r3, #5
 10000 04b6 6421     		movs	r1, #100
 10001 04b8 01FB03F3 		mul	r3, r1, r3
 10002 04bc D31A     		subs	r3, r2, r3
 10003 04be 1B01     		lsls	r3, r3, #4
 10004 04c0 3233     		adds	r3, r3, #50
 10005 04c2 084A     		ldr	r2, .L488
 10006 04c4 A2FB0323 		umull	r2, r3, r2, r3
 10007 04c8 5B09     		lsrs	r3, r3, #5
 10008 04ca 03F00F02 		and	r2, r3, #15
3735:Drivers/STM32F4xx_HAL_Driver/Src/stm32f4xx_hal_uart.c ****   }
 10009              		.loc 1 3735 10
 10010 04ce D7F8F430 		ldr	r3, [r7, #244]
 10011 04d2 1B68     		ldr	r3, [r3]
3735:Drivers/STM32F4xx_HAL_Driver/Src/stm32f4xx_hal_uart.c ****   }
 10012              		.loc 1 3735 28
 10013 04d4 2244     		add	r2, r2, r4
3735:Drivers/STM32F4xx_HAL_Driver/Src/stm32f4xx_hal_uart.c ****   }
 10014              		.loc 1 3735 26
 10015 04d6 9A60     		str	r2, [r3, #8]
 10016              	.L485:
 10017              		.loc 1 3737 1
 10018 04d8 00BF     		nop
 10019 04da 07F58077 		add	r7, r7, #256
 10020              	.LCFI328:
 10021              		.cfi_def_cfa_offset 32
 10022 04de BD46     		mov	sp, r7
 10023              	.LCFI329:
 10024              		.cfi_def_cfa_register 13
 10025              		@ sp needed
 10026 04e0 BDE8B08F 		pop	{r4, r5, r7, r8, r9, r10, fp, pc}
 10027              	.L489:
 10028              		.align	2
 10029              	.L488:
 10030 04e4 1F85EB51 		.word	1374389535
 10031              		.cfi_endproc
 10032              	.LFE276:
 10034              		.text
 10035              	.Letext0:
 10036              		.file 3 "/opt/arm-gnu-toolchain-12.2.rel1-x86_64-arm-none-eabi/arm-none-eabi/include/machine/_defa
 10037              		.file 4 "/opt/arm-gnu-toolchain-12.2.rel1-x86_64-arm-none-eabi/arm-none-eabi/include/sys/_stdint.h
 10038              		.file 5 "Drivers/CMSIS/Device/ST/STM32F4xx/Include/stm32f411xe.h"
 10039              		.file 6 "Drivers/CMSIS/Device/ST/STM32F4xx/Include/stm32f4xx.h"
 10040              		.file 7 "Drivers/STM32F4xx_HAL_Driver/Inc/stm32f4xx_hal_def.h"
 10041              		.file 8 "Drivers/STM32F4xx_HAL_Driver/Inc/stm32f4xx_hal_dma.h"
 10042              		.file 9 "Drivers/STM32F4xx_HAL_Driver/Inc/stm32f4xx_hal_uart.h"
 10043              		.file 10 "Drivers/STM32F4xx_HAL_Driver/Inc/stm32f4xx_hal_rcc.h"
 10044              		.file 11 "Drivers/STM32F4xx_HAL_Driver/Inc/stm32f4xx_hal.h"
ARM GAS  /tmp/ccIpdX1g.s 			page 264


ARM GAS  /tmp/ccIpdX1g.s 			page 265


DEFINED SYMBOLS
                            *ABS*:0000000000000000 stm32f4xx_hal_uart.c
     /tmp/ccIpdX1g.s:21     .text.HAL_UART_Init:0000000000000000 $t
     /tmp/ccIpdX1g.s:27     .text.HAL_UART_Init:0000000000000000 HAL_UART_Init
     /tmp/ccIpdX1g.s:642    .text.HAL_UART_MspInit:0000000000000000 HAL_UART_MspInit
     /tmp/ccIpdX1g.s:9520   .text.UART_SetConfig:0000000000000000 UART_SetConfig
     /tmp/ccIpdX1g.s:136    .text.HAL_HalfDuplex_Init:0000000000000000 $t
     /tmp/ccIpdX1g.s:142    .text.HAL_HalfDuplex_Init:0000000000000000 HAL_HalfDuplex_Init
     /tmp/ccIpdX1g.s:259    .text.HAL_LIN_Init:0000000000000000 $t
     /tmp/ccIpdX1g.s:265    .text.HAL_LIN_Init:0000000000000000 HAL_LIN_Init
     /tmp/ccIpdX1g.s:400    .text.HAL_MultiProcessor_Init:0000000000000000 $t
     /tmp/ccIpdX1g.s:406    .text.HAL_MultiProcessor_Init:0000000000000000 HAL_MultiProcessor_Init
     /tmp/ccIpdX1g.s:552    .text.HAL_UART_DeInit:0000000000000000 $t
     /tmp/ccIpdX1g.s:558    .text.HAL_UART_DeInit:0000000000000000 HAL_UART_DeInit
     /tmp/ccIpdX1g.s:684    .text.HAL_UART_MspDeInit:0000000000000000 HAL_UART_MspDeInit
     /tmp/ccIpdX1g.s:636    .text.HAL_UART_MspInit:0000000000000000 $t
     /tmp/ccIpdX1g.s:678    .text.HAL_UART_MspDeInit:0000000000000000 $t
     /tmp/ccIpdX1g.s:720    .text.HAL_UART_Transmit:0000000000000000 $t
     /tmp/ccIpdX1g.s:726    .text.HAL_UART_Transmit:0000000000000000 HAL_UART_Transmit
     /tmp/ccIpdX1g.s:7800   .text.UART_WaitOnFlagUntilTimeout:0000000000000000 UART_WaitOnFlagUntilTimeout
     /tmp/ccIpdX1g.s:946    .text.HAL_UART_Receive:0000000000000000 $t
     /tmp/ccIpdX1g.s:952    .text.HAL_UART_Receive:0000000000000000 HAL_UART_Receive
     /tmp/ccIpdX1g.s:1196   .text.HAL_UART_Transmit_IT:0000000000000000 $t
     /tmp/ccIpdX1g.s:1202   .text.HAL_UART_Transmit_IT:0000000000000000 HAL_UART_Transmit_IT
     /tmp/ccIpdX1g.s:1313   .text.HAL_UART_Receive_IT:0000000000000000 $t
     /tmp/ccIpdX1g.s:1319   .text.HAL_UART_Receive_IT:0000000000000000 HAL_UART_Receive_IT
     /tmp/ccIpdX1g.s:8002   .text.UART_Start_Receive_IT:0000000000000000 UART_Start_Receive_IT
     /tmp/ccIpdX1g.s:1403   .text.HAL_UART_Transmit_DMA:0000000000000000 $t
     /tmp/ccIpdX1g.s:1409   .text.HAL_UART_Transmit_DMA:0000000000000000 HAL_UART_Transmit_DMA
     /tmp/ccIpdX1g.s:1606   .text.HAL_UART_Transmit_DMA:00000000000000f0 $d
     /tmp/ccIpdX1g.s:7124   .text.UART_DMATransmitCplt:0000000000000000 UART_DMATransmitCplt
     /tmp/ccIpdX1g.s:7288   .text.UART_DMATxHalfCplt:0000000000000000 UART_DMATxHalfCplt
     /tmp/ccIpdX1g.s:7684   .text.UART_DMAError:0000000000000000 UART_DMAError
     /tmp/ccIpdX1g.s:1613   .text.HAL_UART_Receive_DMA:0000000000000000 $t
     /tmp/ccIpdX1g.s:1619   .text.HAL_UART_Receive_DMA:0000000000000000 HAL_UART_Receive_DMA
     /tmp/ccIpdX1g.s:8104   .text.UART_Start_Receive_DMA:0000000000000000 UART_Start_Receive_DMA
     /tmp/ccIpdX1g.s:1703   .text.HAL_UART_DMAPause:0000000000000000 $t
     /tmp/ccIpdX1g.s:1709   .text.HAL_UART_DMAPause:0000000000000000 HAL_UART_DMAPause
     /tmp/ccIpdX1g.s:2020   .text.HAL_UART_DMAResume:0000000000000000 $t
     /tmp/ccIpdX1g.s:2026   .text.HAL_UART_DMAResume:0000000000000000 HAL_UART_DMAResume
     /tmp/ccIpdX1g.s:2322   .text.HAL_UART_DMAStop:0000000000000000 $t
     /tmp/ccIpdX1g.s:2328   .text.HAL_UART_DMAStop:0000000000000000 HAL_UART_DMAStop
     /tmp/ccIpdX1g.s:8386   .text.UART_EndTxTransfer:0000000000000000 UART_EndTxTransfer
     /tmp/ccIpdX1g.s:8482   .text.UART_EndRxTransfer:0000000000000000 UART_EndRxTransfer
     /tmp/ccIpdX1g.s:2545   .text.HAL_UARTEx_ReceiveToIdle:0000000000000000 $t
     /tmp/ccIpdX1g.s:2551   .text.HAL_UARTEx_ReceiveToIdle:0000000000000000 HAL_UARTEx_ReceiveToIdle
     /tmp/ccIpdX1g.s:2872   .text.HAL_UARTEx_ReceiveToIdle_IT:0000000000000000 $t
     /tmp/ccIpdX1g.s:2878   .text.HAL_UARTEx_ReceiveToIdle_IT:0000000000000000 HAL_UARTEx_ReceiveToIdle_IT
     /tmp/ccIpdX1g.s:3046   .text.HAL_UARTEx_ReceiveToIdle_DMA:0000000000000000 $t
     /tmp/ccIpdX1g.s:3052   .text.HAL_UARTEx_ReceiveToIdle_DMA:0000000000000000 HAL_UARTEx_ReceiveToIdle_DMA
     /tmp/ccIpdX1g.s:3220   .text.HAL_UART_Abort:0000000000000000 $t
     /tmp/ccIpdX1g.s:3226   .text.HAL_UART_Abort:0000000000000000 HAL_UART_Abort
     /tmp/ccIpdX1g.s:3639   .text.HAL_UART_AbortTransmit:0000000000000000 $t
     /tmp/ccIpdX1g.s:3645   .text.HAL_UART_AbortTransmit:0000000000000000 HAL_UART_AbortTransmit
     /tmp/ccIpdX1g.s:3836   .text.HAL_UART_AbortReceive:0000000000000000 $t
     /tmp/ccIpdX1g.s:3842   .text.HAL_UART_AbortReceive:0000000000000000 HAL_UART_AbortReceive
     /tmp/ccIpdX1g.s:4146   .text.HAL_UART_Abort_IT:0000000000000000 $t
ARM GAS  /tmp/ccIpdX1g.s 			page 266


     /tmp/ccIpdX1g.s:4152   .text.HAL_UART_Abort_IT:0000000000000000 HAL_UART_Abort_IT
     /tmp/ccIpdX1g.s:6296   .text.HAL_UART_AbortCpltCallback:0000000000000000 HAL_UART_AbortCpltCallback
     /tmp/ccIpdX1g.s:4613   .text.HAL_UART_Abort_IT:0000000000000220 $d
     /tmp/ccIpdX1g.s:8743   .text.UART_DMATxAbortCallback:0000000000000000 UART_DMATxAbortCallback
     /tmp/ccIpdX1g.s:8836   .text.UART_DMARxAbortCallback:0000000000000000 UART_DMARxAbortCallback
     /tmp/ccIpdX1g.s:4619   .text.HAL_UART_AbortTransmit_IT:0000000000000000 $t
     /tmp/ccIpdX1g.s:4625   .text.HAL_UART_AbortTransmit_IT:0000000000000000 HAL_UART_AbortTransmit_IT
     /tmp/ccIpdX1g.s:6338   .text.HAL_UART_AbortTransmitCpltCallback:0000000000000000 HAL_UART_AbortTransmitCpltCallback
     /tmp/ccIpdX1g.s:4828   .text.HAL_UART_AbortTransmit_IT:00000000000000e4 $d
     /tmp/ccIpdX1g.s:8929   .text.UART_DMATxOnlyAbortCallback:0000000000000000 UART_DMATxOnlyAbortCallback
     /tmp/ccIpdX1g.s:4833   .text.HAL_UART_AbortReceive_IT:0000000000000000 $t
     /tmp/ccIpdX1g.s:4839   .text.HAL_UART_AbortReceive_IT:0000000000000000 HAL_UART_AbortReceive_IT
     /tmp/ccIpdX1g.s:6380   .text.HAL_UART_AbortReceiveCpltCallback:0000000000000000 HAL_UART_AbortReceiveCpltCallback
     /tmp/ccIpdX1g.s:5159   .text.HAL_UART_AbortReceive_IT:0000000000000160 $d
     /tmp/ccIpdX1g.s:8981   .text.UART_DMARxOnlyAbortCallback:0000000000000000 UART_DMARxOnlyAbortCallback
     /tmp/ccIpdX1g.s:5164   .text.HAL_UART_IRQHandler:0000000000000000 $t
     /tmp/ccIpdX1g.s:5170   .text.HAL_UART_IRQHandler:0000000000000000 HAL_UART_IRQHandler
     /tmp/ccIpdX1g.s:9228   .text.UART_Receive_IT:0000000000000000 UART_Receive_IT
     /tmp/ccIpdX1g.s:6254   .text.HAL_UART_ErrorCallback:0000000000000000 HAL_UART_ErrorCallback
     /tmp/ccIpdX1g.s:6422   .text.HAL_UARTEx_RxEventCallback:0000000000000000 HAL_UARTEx_RxEventCallback
     /tmp/ccIpdX1g.s:5821   .text.HAL_UART_IRQHandler:00000000000003dc $d
     /tmp/ccIpdX1g.s:8691   .text.UART_DMAAbortOnError:0000000000000000 UART_DMAAbortOnError
     /tmp/ccIpdX1g.s:5826   .text.HAL_UART_IRQHandler:00000000000003e0 $t
     /tmp/ccIpdX1g.s:9037   .text.UART_Transmit_IT:0000000000000000 UART_Transmit_IT
     /tmp/ccIpdX1g.s:9174   .text.UART_EndTransmit_IT:0000000000000000 UART_EndTransmit_IT
     /tmp/ccIpdX1g.s:6080   .text.HAL_UART_TxCpltCallback:0000000000000000 $t
     /tmp/ccIpdX1g.s:6086   .text.HAL_UART_TxCpltCallback:0000000000000000 HAL_UART_TxCpltCallback
     /tmp/ccIpdX1g.s:6122   .text.HAL_UART_TxHalfCpltCallback:0000000000000000 $t
     /tmp/ccIpdX1g.s:6128   .text.HAL_UART_TxHalfCpltCallback:0000000000000000 HAL_UART_TxHalfCpltCallback
     /tmp/ccIpdX1g.s:6164   .text.HAL_UART_RxCpltCallback:0000000000000000 $t
     /tmp/ccIpdX1g.s:6170   .text.HAL_UART_RxCpltCallback:0000000000000000 HAL_UART_RxCpltCallback
     /tmp/ccIpdX1g.s:6206   .text.HAL_UART_RxHalfCpltCallback:0000000000000000 $t
     /tmp/ccIpdX1g.s:6212   .text.HAL_UART_RxHalfCpltCallback:0000000000000000 HAL_UART_RxHalfCpltCallback
     /tmp/ccIpdX1g.s:6248   .text.HAL_UART_ErrorCallback:0000000000000000 $t
     /tmp/ccIpdX1g.s:6290   .text.HAL_UART_AbortCpltCallback:0000000000000000 $t
     /tmp/ccIpdX1g.s:6332   .text.HAL_UART_AbortTransmitCpltCallback:0000000000000000 $t
     /tmp/ccIpdX1g.s:6374   .text.HAL_UART_AbortReceiveCpltCallback:0000000000000000 $t
     /tmp/ccIpdX1g.s:6416   .text.HAL_UARTEx_RxEventCallback:0000000000000000 $t
     /tmp/ccIpdX1g.s:6460   .text.HAL_LIN_SendBreak:0000000000000000 $t
     /tmp/ccIpdX1g.s:6466   .text.HAL_LIN_SendBreak:0000000000000000 HAL_LIN_SendBreak
     /tmp/ccIpdX1g.s:6581   .text.HAL_MultiProcessor_EnterMuteMode:0000000000000000 $t
     /tmp/ccIpdX1g.s:6587   .text.HAL_MultiProcessor_EnterMuteMode:0000000000000000 HAL_MultiProcessor_EnterMuteMode
     /tmp/ccIpdX1g.s:6702   .text.HAL_MultiProcessor_ExitMuteMode:0000000000000000 $t
     /tmp/ccIpdX1g.s:6708   .text.HAL_MultiProcessor_ExitMuteMode:0000000000000000 HAL_MultiProcessor_ExitMuteMode
     /tmp/ccIpdX1g.s:6823   .text.HAL_HalfDuplex_EnableTransmitter:0000000000000000 $t
     /tmp/ccIpdX1g.s:6829   .text.HAL_HalfDuplex_EnableTransmitter:0000000000000000 HAL_HalfDuplex_EnableTransmitter
     /tmp/ccIpdX1g.s:6915   .text.HAL_HalfDuplex_EnableReceiver:0000000000000000 $t
     /tmp/ccIpdX1g.s:6921   .text.HAL_HalfDuplex_EnableReceiver:0000000000000000 HAL_HalfDuplex_EnableReceiver
     /tmp/ccIpdX1g.s:7007   .text.HAL_UART_GetState:0000000000000000 $t
     /tmp/ccIpdX1g.s:7013   .text.HAL_UART_GetState:0000000000000000 HAL_UART_GetState
     /tmp/ccIpdX1g.s:7074   .text.HAL_UART_GetError:0000000000000000 $t
     /tmp/ccIpdX1g.s:7080   .text.HAL_UART_GetError:0000000000000000 HAL_UART_GetError
     /tmp/ccIpdX1g.s:7119   .text.UART_DMATransmitCplt:0000000000000000 $t
     /tmp/ccIpdX1g.s:7283   .text.UART_DMATxHalfCplt:0000000000000000 $t
     /tmp/ccIpdX1g.s:7327   .text.UART_DMAReceiveCplt:0000000000000000 $t
     /tmp/ccIpdX1g.s:7332   .text.UART_DMAReceiveCplt:0000000000000000 UART_DMAReceiveCplt
     /tmp/ccIpdX1g.s:7616   .text.UART_DMARxHalfCplt:0000000000000000 $t
ARM GAS  /tmp/ccIpdX1g.s 			page 267


     /tmp/ccIpdX1g.s:7621   .text.UART_DMARxHalfCplt:0000000000000000 UART_DMARxHalfCplt
     /tmp/ccIpdX1g.s:7679   .text.UART_DMAError:0000000000000000 $t
     /tmp/ccIpdX1g.s:7795   .text.UART_WaitOnFlagUntilTimeout:0000000000000000 $t
     /tmp/ccIpdX1g.s:7996   .text.UART_Start_Receive_IT:0000000000000000 $t
     /tmp/ccIpdX1g.s:8098   .text.UART_Start_Receive_DMA:0000000000000000 $t
     /tmp/ccIpdX1g.s:8374   .text.UART_Start_Receive_DMA:0000000000000130 $d
     /tmp/ccIpdX1g.s:8381   .text.UART_EndTxTransfer:0000000000000000 $t
     /tmp/ccIpdX1g.s:8477   .text.UART_EndRxTransfer:0000000000000000 $t
     /tmp/ccIpdX1g.s:8686   .text.UART_DMAAbortOnError:0000000000000000 $t
     /tmp/ccIpdX1g.s:8738   .text.UART_DMATxAbortCallback:0000000000000000 $t
     /tmp/ccIpdX1g.s:8831   .text.UART_DMARxAbortCallback:0000000000000000 $t
     /tmp/ccIpdX1g.s:8924   .text.UART_DMATxOnlyAbortCallback:0000000000000000 $t
     /tmp/ccIpdX1g.s:8976   .text.UART_DMARxOnlyAbortCallback:0000000000000000 $t
     /tmp/ccIpdX1g.s:9032   .text.UART_Transmit_IT:0000000000000000 $t
     /tmp/ccIpdX1g.s:9169   .text.UART_EndTransmit_IT:0000000000000000 $t
     /tmp/ccIpdX1g.s:9223   .text.UART_Receive_IT:0000000000000000 $t
     /tmp/ccIpdX1g.s:9515   .text.UART_SetConfig:0000000000000000 $t
     /tmp/ccIpdX1g.s:9817   .text.UART_SetConfig:00000000000002cc $d
     /tmp/ccIpdX1g.s:9822   .text.UART_SetConfig:00000000000002d8 $t
     /tmp/ccIpdX1g.s:10030  .text.UART_SetConfig:00000000000004e4 $d

UNDEFINED SYMBOLS
HAL_GetTick
HAL_DMA_Start_IT
HAL_DMA_Abort
HAL_DMA_GetError
HAL_DMA_Abort_IT
__aeabi_uldivmod
HAL_RCC_GetPCLK2Freq
HAL_RCC_GetPCLK1Freq
