ARM GAS  /tmp/ccL5e6Lm.s 			page 1


   1              		.cpu cortex-m4
   2              		.arch armv7e-m
   3              		.fpu fpv4-sp-d16
   4              		.eabi_attribute 27, 1
   5              		.eabi_attribute 28, 1
   6              		.eabi_attribute 20, 1
   7              		.eabi_attribute 21, 1
   8              		.eabi_attribute 23, 3
   9              		.eabi_attribute 24, 1
  10              		.eabi_attribute 25, 1
  11              		.eabi_attribute 26, 1
  12              		.eabi_attribute 30, 6
  13              		.eabi_attribute 34, 1
  14              		.eabi_attribute 18, 4
  15              		.file	"stm32f4xx_hal_tim.c"
  16              		.text
  17              	.Ltext0:
  18              		.cfi_sections	.debug_frame
  19              		.file 1 "Drivers/STM32F4xx_HAL_Driver/Src/stm32f4xx_hal_tim.c"
  20              		.section	.text.HAL_TIM_Base_Init,"ax",%progbits
  21              		.align	1
  22              		.global	HAL_TIM_Base_Init
  23              		.syntax unified
  24              		.thumb
  25              		.thumb_func
  27              	HAL_TIM_Base_Init:
  28              	.LFB216:
   1:Drivers/STM32F4xx_HAL_Driver/Src/stm32f4xx_hal_tim.c **** /**
   2:Drivers/STM32F4xx_HAL_Driver/Src/stm32f4xx_hal_tim.c ****   ******************************************************************************
   3:Drivers/STM32F4xx_HAL_Driver/Src/stm32f4xx_hal_tim.c ****   * @file    stm32f4xx_hal_tim.c
   4:Drivers/STM32F4xx_HAL_Driver/Src/stm32f4xx_hal_tim.c ****   * @author  MCD Application Team
   5:Drivers/STM32F4xx_HAL_Driver/Src/stm32f4xx_hal_tim.c ****   * @brief   TIM HAL module driver.
   6:Drivers/STM32F4xx_HAL_Driver/Src/stm32f4xx_hal_tim.c ****   *          This file provides firmware functions to manage the following
   7:Drivers/STM32F4xx_HAL_Driver/Src/stm32f4xx_hal_tim.c ****   *          functionalities of the Timer (TIM) peripheral:
   8:Drivers/STM32F4xx_HAL_Driver/Src/stm32f4xx_hal_tim.c ****   *           + TIM Time Base Initialization
   9:Drivers/STM32F4xx_HAL_Driver/Src/stm32f4xx_hal_tim.c ****   *           + TIM Time Base Start
  10:Drivers/STM32F4xx_HAL_Driver/Src/stm32f4xx_hal_tim.c ****   *           + TIM Time Base Start Interruption
  11:Drivers/STM32F4xx_HAL_Driver/Src/stm32f4xx_hal_tim.c ****   *           + TIM Time Base Start DMA
  12:Drivers/STM32F4xx_HAL_Driver/Src/stm32f4xx_hal_tim.c ****   *           + TIM Output Compare/PWM Initialization
  13:Drivers/STM32F4xx_HAL_Driver/Src/stm32f4xx_hal_tim.c ****   *           + TIM Output Compare/PWM Channel Configuration
  14:Drivers/STM32F4xx_HAL_Driver/Src/stm32f4xx_hal_tim.c ****   *           + TIM Output Compare/PWM  Start
  15:Drivers/STM32F4xx_HAL_Driver/Src/stm32f4xx_hal_tim.c ****   *           + TIM Output Compare/PWM  Start Interruption
  16:Drivers/STM32F4xx_HAL_Driver/Src/stm32f4xx_hal_tim.c ****   *           + TIM Output Compare/PWM Start DMA
  17:Drivers/STM32F4xx_HAL_Driver/Src/stm32f4xx_hal_tim.c ****   *           + TIM Input Capture Initialization
  18:Drivers/STM32F4xx_HAL_Driver/Src/stm32f4xx_hal_tim.c ****   *           + TIM Input Capture Channel Configuration
  19:Drivers/STM32F4xx_HAL_Driver/Src/stm32f4xx_hal_tim.c ****   *           + TIM Input Capture Start
  20:Drivers/STM32F4xx_HAL_Driver/Src/stm32f4xx_hal_tim.c ****   *           + TIM Input Capture Start Interruption
  21:Drivers/STM32F4xx_HAL_Driver/Src/stm32f4xx_hal_tim.c ****   *           + TIM Input Capture Start DMA
  22:Drivers/STM32F4xx_HAL_Driver/Src/stm32f4xx_hal_tim.c ****   *           + TIM One Pulse Initialization
  23:Drivers/STM32F4xx_HAL_Driver/Src/stm32f4xx_hal_tim.c ****   *           + TIM One Pulse Channel Configuration
  24:Drivers/STM32F4xx_HAL_Driver/Src/stm32f4xx_hal_tim.c ****   *           + TIM One Pulse Start
  25:Drivers/STM32F4xx_HAL_Driver/Src/stm32f4xx_hal_tim.c ****   *           + TIM Encoder Interface Initialization
  26:Drivers/STM32F4xx_HAL_Driver/Src/stm32f4xx_hal_tim.c ****   *           + TIM Encoder Interface Start
  27:Drivers/STM32F4xx_HAL_Driver/Src/stm32f4xx_hal_tim.c ****   *           + TIM Encoder Interface Start Interruption
  28:Drivers/STM32F4xx_HAL_Driver/Src/stm32f4xx_hal_tim.c ****   *           + TIM Encoder Interface Start DMA
  29:Drivers/STM32F4xx_HAL_Driver/Src/stm32f4xx_hal_tim.c ****   *           + Commutation Event configuration with Interruption and DMA
  30:Drivers/STM32F4xx_HAL_Driver/Src/stm32f4xx_hal_tim.c ****   *           + TIM OCRef clear configuration
ARM GAS  /tmp/ccL5e6Lm.s 			page 2


  31:Drivers/STM32F4xx_HAL_Driver/Src/stm32f4xx_hal_tim.c ****   *           + TIM External Clock configuration
  32:Drivers/STM32F4xx_HAL_Driver/Src/stm32f4xx_hal_tim.c ****   ******************************************************************************
  33:Drivers/STM32F4xx_HAL_Driver/Src/stm32f4xx_hal_tim.c ****   * @attention
  34:Drivers/STM32F4xx_HAL_Driver/Src/stm32f4xx_hal_tim.c ****   *
  35:Drivers/STM32F4xx_HAL_Driver/Src/stm32f4xx_hal_tim.c ****   * Copyright (c) 2016 STMicroelectronics.
  36:Drivers/STM32F4xx_HAL_Driver/Src/stm32f4xx_hal_tim.c ****   * All rights reserved.
  37:Drivers/STM32F4xx_HAL_Driver/Src/stm32f4xx_hal_tim.c ****   *
  38:Drivers/STM32F4xx_HAL_Driver/Src/stm32f4xx_hal_tim.c ****   * This software is licensed under terms that can be found in the LICENSE file
  39:Drivers/STM32F4xx_HAL_Driver/Src/stm32f4xx_hal_tim.c ****   * in the root directory of this software component.
  40:Drivers/STM32F4xx_HAL_Driver/Src/stm32f4xx_hal_tim.c ****   * If no LICENSE file comes with this software, it is provided AS-IS.
  41:Drivers/STM32F4xx_HAL_Driver/Src/stm32f4xx_hal_tim.c ****   *
  42:Drivers/STM32F4xx_HAL_Driver/Src/stm32f4xx_hal_tim.c ****   ******************************************************************************
  43:Drivers/STM32F4xx_HAL_Driver/Src/stm32f4xx_hal_tim.c ****   @verbatim
  44:Drivers/STM32F4xx_HAL_Driver/Src/stm32f4xx_hal_tim.c ****   ==============================================================================
  45:Drivers/STM32F4xx_HAL_Driver/Src/stm32f4xx_hal_tim.c ****                       ##### TIMER Generic features #####
  46:Drivers/STM32F4xx_HAL_Driver/Src/stm32f4xx_hal_tim.c ****   ==============================================================================
  47:Drivers/STM32F4xx_HAL_Driver/Src/stm32f4xx_hal_tim.c ****   [..] The Timer features include:
  48:Drivers/STM32F4xx_HAL_Driver/Src/stm32f4xx_hal_tim.c ****        (#) 16-bit up, down, up/down auto-reload counter.
  49:Drivers/STM32F4xx_HAL_Driver/Src/stm32f4xx_hal_tim.c ****        (#) 16-bit programmable prescaler allowing dividing (also on the fly) the
  50:Drivers/STM32F4xx_HAL_Driver/Src/stm32f4xx_hal_tim.c ****            counter clock frequency either by any factor between 1 and 65536.
  51:Drivers/STM32F4xx_HAL_Driver/Src/stm32f4xx_hal_tim.c ****        (#) Up to 4 independent channels for:
  52:Drivers/STM32F4xx_HAL_Driver/Src/stm32f4xx_hal_tim.c ****            (++) Input Capture
  53:Drivers/STM32F4xx_HAL_Driver/Src/stm32f4xx_hal_tim.c ****            (++) Output Compare
  54:Drivers/STM32F4xx_HAL_Driver/Src/stm32f4xx_hal_tim.c ****            (++) PWM generation (Edge and Center-aligned Mode)
  55:Drivers/STM32F4xx_HAL_Driver/Src/stm32f4xx_hal_tim.c ****            (++) One-pulse mode output
  56:Drivers/STM32F4xx_HAL_Driver/Src/stm32f4xx_hal_tim.c ****        (#) Synchronization circuit to control the timer with external signals and to interconnect
  57:Drivers/STM32F4xx_HAL_Driver/Src/stm32f4xx_hal_tim.c ****             several timers together.
  58:Drivers/STM32F4xx_HAL_Driver/Src/stm32f4xx_hal_tim.c ****        (#) Supports incremental encoder for positioning purposes
  59:Drivers/STM32F4xx_HAL_Driver/Src/stm32f4xx_hal_tim.c **** 
  60:Drivers/STM32F4xx_HAL_Driver/Src/stm32f4xx_hal_tim.c ****             ##### How to use this driver #####
  61:Drivers/STM32F4xx_HAL_Driver/Src/stm32f4xx_hal_tim.c ****   ==============================================================================
  62:Drivers/STM32F4xx_HAL_Driver/Src/stm32f4xx_hal_tim.c ****     [..]
  63:Drivers/STM32F4xx_HAL_Driver/Src/stm32f4xx_hal_tim.c ****      (#) Initialize the TIM low level resources by implementing the following functions
  64:Drivers/STM32F4xx_HAL_Driver/Src/stm32f4xx_hal_tim.c ****          depending on the selected feature:
  65:Drivers/STM32F4xx_HAL_Driver/Src/stm32f4xx_hal_tim.c ****            (++) Time Base : HAL_TIM_Base_MspInit()
  66:Drivers/STM32F4xx_HAL_Driver/Src/stm32f4xx_hal_tim.c ****            (++) Input Capture : HAL_TIM_IC_MspInit()
  67:Drivers/STM32F4xx_HAL_Driver/Src/stm32f4xx_hal_tim.c ****            (++) Output Compare : HAL_TIM_OC_MspInit()
  68:Drivers/STM32F4xx_HAL_Driver/Src/stm32f4xx_hal_tim.c ****            (++) PWM generation : HAL_TIM_PWM_MspInit()
  69:Drivers/STM32F4xx_HAL_Driver/Src/stm32f4xx_hal_tim.c ****            (++) One-pulse mode output : HAL_TIM_OnePulse_MspInit()
  70:Drivers/STM32F4xx_HAL_Driver/Src/stm32f4xx_hal_tim.c ****            (++) Encoder mode output : HAL_TIM_Encoder_MspInit()
  71:Drivers/STM32F4xx_HAL_Driver/Src/stm32f4xx_hal_tim.c **** 
  72:Drivers/STM32F4xx_HAL_Driver/Src/stm32f4xx_hal_tim.c ****      (#) Initialize the TIM low level resources :
  73:Drivers/STM32F4xx_HAL_Driver/Src/stm32f4xx_hal_tim.c ****         (##) Enable the TIM interface clock using __HAL_RCC_TIMx_CLK_ENABLE();
  74:Drivers/STM32F4xx_HAL_Driver/Src/stm32f4xx_hal_tim.c ****         (##) TIM pins configuration
  75:Drivers/STM32F4xx_HAL_Driver/Src/stm32f4xx_hal_tim.c ****             (+++) Enable the clock for the TIM GPIOs using the following function:
  76:Drivers/STM32F4xx_HAL_Driver/Src/stm32f4xx_hal_tim.c ****              __HAL_RCC_GPIOx_CLK_ENABLE();
  77:Drivers/STM32F4xx_HAL_Driver/Src/stm32f4xx_hal_tim.c ****             (+++) Configure these TIM pins in Alternate function mode using HAL_GPIO_Init();
  78:Drivers/STM32F4xx_HAL_Driver/Src/stm32f4xx_hal_tim.c **** 
  79:Drivers/STM32F4xx_HAL_Driver/Src/stm32f4xx_hal_tim.c ****      (#) The external Clock can be configured, if needed (the default clock is the
  80:Drivers/STM32F4xx_HAL_Driver/Src/stm32f4xx_hal_tim.c ****          internal clock from the APBx), using the following function:
  81:Drivers/STM32F4xx_HAL_Driver/Src/stm32f4xx_hal_tim.c ****          HAL_TIM_ConfigClockSource, the clock configuration should be done before
  82:Drivers/STM32F4xx_HAL_Driver/Src/stm32f4xx_hal_tim.c ****          any start function.
  83:Drivers/STM32F4xx_HAL_Driver/Src/stm32f4xx_hal_tim.c **** 
  84:Drivers/STM32F4xx_HAL_Driver/Src/stm32f4xx_hal_tim.c ****      (#) Configure the TIM in the desired functioning mode using one of the
  85:Drivers/STM32F4xx_HAL_Driver/Src/stm32f4xx_hal_tim.c ****        Initialization function of this driver:
  86:Drivers/STM32F4xx_HAL_Driver/Src/stm32f4xx_hal_tim.c ****        (++) HAL_TIM_Base_Init: to use the Timer to generate a simple time base
  87:Drivers/STM32F4xx_HAL_Driver/Src/stm32f4xx_hal_tim.c ****        (++) HAL_TIM_OC_Init and HAL_TIM_OC_ConfigChannel: to use the Timer to generate an
ARM GAS  /tmp/ccL5e6Lm.s 			page 3


  88:Drivers/STM32F4xx_HAL_Driver/Src/stm32f4xx_hal_tim.c ****             Output Compare signal.
  89:Drivers/STM32F4xx_HAL_Driver/Src/stm32f4xx_hal_tim.c ****        (++) HAL_TIM_PWM_Init and HAL_TIM_PWM_ConfigChannel: to use the Timer to generate a
  90:Drivers/STM32F4xx_HAL_Driver/Src/stm32f4xx_hal_tim.c ****             PWM signal.
  91:Drivers/STM32F4xx_HAL_Driver/Src/stm32f4xx_hal_tim.c ****        (++) HAL_TIM_IC_Init and HAL_TIM_IC_ConfigChannel: to use the Timer to measure an
  92:Drivers/STM32F4xx_HAL_Driver/Src/stm32f4xx_hal_tim.c ****             external signal.
  93:Drivers/STM32F4xx_HAL_Driver/Src/stm32f4xx_hal_tim.c ****        (++) HAL_TIM_OnePulse_Init and HAL_TIM_OnePulse_ConfigChannel: to use the Timer
  94:Drivers/STM32F4xx_HAL_Driver/Src/stm32f4xx_hal_tim.c ****             in One Pulse Mode.
  95:Drivers/STM32F4xx_HAL_Driver/Src/stm32f4xx_hal_tim.c ****        (++) HAL_TIM_Encoder_Init: to use the Timer Encoder Interface.
  96:Drivers/STM32F4xx_HAL_Driver/Src/stm32f4xx_hal_tim.c **** 
  97:Drivers/STM32F4xx_HAL_Driver/Src/stm32f4xx_hal_tim.c ****      (#) Activate the TIM peripheral using one of the start functions depending from the feature us
  98:Drivers/STM32F4xx_HAL_Driver/Src/stm32f4xx_hal_tim.c ****            (++) Time Base : HAL_TIM_Base_Start(), HAL_TIM_Base_Start_DMA(), HAL_TIM_Base_Start_IT()
  99:Drivers/STM32F4xx_HAL_Driver/Src/stm32f4xx_hal_tim.c ****            (++) Input Capture :  HAL_TIM_IC_Start(), HAL_TIM_IC_Start_DMA(), HAL_TIM_IC_Start_IT()
 100:Drivers/STM32F4xx_HAL_Driver/Src/stm32f4xx_hal_tim.c ****            (++) Output Compare : HAL_TIM_OC_Start(), HAL_TIM_OC_Start_DMA(), HAL_TIM_OC_Start_IT()
 101:Drivers/STM32F4xx_HAL_Driver/Src/stm32f4xx_hal_tim.c ****            (++) PWM generation : HAL_TIM_PWM_Start(), HAL_TIM_PWM_Start_DMA(), HAL_TIM_PWM_Start_IT
 102:Drivers/STM32F4xx_HAL_Driver/Src/stm32f4xx_hal_tim.c ****            (++) One-pulse mode output : HAL_TIM_OnePulse_Start(), HAL_TIM_OnePulse_Start_IT()
 103:Drivers/STM32F4xx_HAL_Driver/Src/stm32f4xx_hal_tim.c ****            (++) Encoder mode output : HAL_TIM_Encoder_Start(), HAL_TIM_Encoder_Start_DMA(), HAL_TIM
 104:Drivers/STM32F4xx_HAL_Driver/Src/stm32f4xx_hal_tim.c **** 
 105:Drivers/STM32F4xx_HAL_Driver/Src/stm32f4xx_hal_tim.c ****      (#) The DMA Burst is managed with the two following functions:
 106:Drivers/STM32F4xx_HAL_Driver/Src/stm32f4xx_hal_tim.c ****          HAL_TIM_DMABurst_WriteStart()
 107:Drivers/STM32F4xx_HAL_Driver/Src/stm32f4xx_hal_tim.c ****          HAL_TIM_DMABurst_ReadStart()
 108:Drivers/STM32F4xx_HAL_Driver/Src/stm32f4xx_hal_tim.c **** 
 109:Drivers/STM32F4xx_HAL_Driver/Src/stm32f4xx_hal_tim.c ****     *** Callback registration ***
 110:Drivers/STM32F4xx_HAL_Driver/Src/stm32f4xx_hal_tim.c ****   =============================================
 111:Drivers/STM32F4xx_HAL_Driver/Src/stm32f4xx_hal_tim.c **** 
 112:Drivers/STM32F4xx_HAL_Driver/Src/stm32f4xx_hal_tim.c ****   [..]
 113:Drivers/STM32F4xx_HAL_Driver/Src/stm32f4xx_hal_tim.c ****   The compilation define  USE_HAL_TIM_REGISTER_CALLBACKS when set to 1
 114:Drivers/STM32F4xx_HAL_Driver/Src/stm32f4xx_hal_tim.c ****   allows the user to configure dynamically the driver callbacks.
 115:Drivers/STM32F4xx_HAL_Driver/Src/stm32f4xx_hal_tim.c **** 
 116:Drivers/STM32F4xx_HAL_Driver/Src/stm32f4xx_hal_tim.c ****   [..]
 117:Drivers/STM32F4xx_HAL_Driver/Src/stm32f4xx_hal_tim.c ****   Use Function HAL_TIM_RegisterCallback() to register a callback.
 118:Drivers/STM32F4xx_HAL_Driver/Src/stm32f4xx_hal_tim.c ****   HAL_TIM_RegisterCallback() takes as parameters the HAL peripheral handle,
 119:Drivers/STM32F4xx_HAL_Driver/Src/stm32f4xx_hal_tim.c ****   the Callback ID and a pointer to the user callback function.
 120:Drivers/STM32F4xx_HAL_Driver/Src/stm32f4xx_hal_tim.c **** 
 121:Drivers/STM32F4xx_HAL_Driver/Src/stm32f4xx_hal_tim.c ****   [..]
 122:Drivers/STM32F4xx_HAL_Driver/Src/stm32f4xx_hal_tim.c ****   Use function HAL_TIM_UnRegisterCallback() to reset a callback to the default
 123:Drivers/STM32F4xx_HAL_Driver/Src/stm32f4xx_hal_tim.c ****   weak function.
 124:Drivers/STM32F4xx_HAL_Driver/Src/stm32f4xx_hal_tim.c ****   HAL_TIM_UnRegisterCallback takes as parameters the HAL peripheral handle,
 125:Drivers/STM32F4xx_HAL_Driver/Src/stm32f4xx_hal_tim.c ****   and the Callback ID.
 126:Drivers/STM32F4xx_HAL_Driver/Src/stm32f4xx_hal_tim.c **** 
 127:Drivers/STM32F4xx_HAL_Driver/Src/stm32f4xx_hal_tim.c ****   [..]
 128:Drivers/STM32F4xx_HAL_Driver/Src/stm32f4xx_hal_tim.c ****   These functions allow to register/unregister following callbacks:
 129:Drivers/STM32F4xx_HAL_Driver/Src/stm32f4xx_hal_tim.c ****     (+) Base_MspInitCallback              : TIM Base Msp Init Callback.
 130:Drivers/STM32F4xx_HAL_Driver/Src/stm32f4xx_hal_tim.c ****     (+) Base_MspDeInitCallback            : TIM Base Msp DeInit Callback.
 131:Drivers/STM32F4xx_HAL_Driver/Src/stm32f4xx_hal_tim.c ****     (+) IC_MspInitCallback                : TIM IC Msp Init Callback.
 132:Drivers/STM32F4xx_HAL_Driver/Src/stm32f4xx_hal_tim.c ****     (+) IC_MspDeInitCallback              : TIM IC Msp DeInit Callback.
 133:Drivers/STM32F4xx_HAL_Driver/Src/stm32f4xx_hal_tim.c ****     (+) OC_MspInitCallback                : TIM OC Msp Init Callback.
 134:Drivers/STM32F4xx_HAL_Driver/Src/stm32f4xx_hal_tim.c ****     (+) OC_MspDeInitCallback              : TIM OC Msp DeInit Callback.
 135:Drivers/STM32F4xx_HAL_Driver/Src/stm32f4xx_hal_tim.c ****     (+) PWM_MspInitCallback               : TIM PWM Msp Init Callback.
 136:Drivers/STM32F4xx_HAL_Driver/Src/stm32f4xx_hal_tim.c ****     (+) PWM_MspDeInitCallback             : TIM PWM Msp DeInit Callback.
 137:Drivers/STM32F4xx_HAL_Driver/Src/stm32f4xx_hal_tim.c ****     (+) OnePulse_MspInitCallback          : TIM One Pulse Msp Init Callback.
 138:Drivers/STM32F4xx_HAL_Driver/Src/stm32f4xx_hal_tim.c ****     (+) OnePulse_MspDeInitCallback        : TIM One Pulse Msp DeInit Callback.
 139:Drivers/STM32F4xx_HAL_Driver/Src/stm32f4xx_hal_tim.c ****     (+) Encoder_MspInitCallback           : TIM Encoder Msp Init Callback.
 140:Drivers/STM32F4xx_HAL_Driver/Src/stm32f4xx_hal_tim.c ****     (+) Encoder_MspDeInitCallback         : TIM Encoder Msp DeInit Callback.
 141:Drivers/STM32F4xx_HAL_Driver/Src/stm32f4xx_hal_tim.c ****     (+) HallSensor_MspInitCallback        : TIM Hall Sensor Msp Init Callback.
 142:Drivers/STM32F4xx_HAL_Driver/Src/stm32f4xx_hal_tim.c ****     (+) HallSensor_MspDeInitCallback      : TIM Hall Sensor Msp DeInit Callback.
 143:Drivers/STM32F4xx_HAL_Driver/Src/stm32f4xx_hal_tim.c ****     (+) PeriodElapsedCallback             : TIM Period Elapsed Callback.
 144:Drivers/STM32F4xx_HAL_Driver/Src/stm32f4xx_hal_tim.c ****     (+) PeriodElapsedHalfCpltCallback     : TIM Period Elapsed half complete Callback.
ARM GAS  /tmp/ccL5e6Lm.s 			page 4


 145:Drivers/STM32F4xx_HAL_Driver/Src/stm32f4xx_hal_tim.c ****     (+) TriggerCallback                   : TIM Trigger Callback.
 146:Drivers/STM32F4xx_HAL_Driver/Src/stm32f4xx_hal_tim.c ****     (+) TriggerHalfCpltCallback           : TIM Trigger half complete Callback.
 147:Drivers/STM32F4xx_HAL_Driver/Src/stm32f4xx_hal_tim.c ****     (+) IC_CaptureCallback                : TIM Input Capture Callback.
 148:Drivers/STM32F4xx_HAL_Driver/Src/stm32f4xx_hal_tim.c ****     (+) IC_CaptureHalfCpltCallback        : TIM Input Capture half complete Callback.
 149:Drivers/STM32F4xx_HAL_Driver/Src/stm32f4xx_hal_tim.c ****     (+) OC_DelayElapsedCallback           : TIM Output Compare Delay Elapsed Callback.
 150:Drivers/STM32F4xx_HAL_Driver/Src/stm32f4xx_hal_tim.c ****     (+) PWM_PulseFinishedCallback         : TIM PWM Pulse Finished Callback.
 151:Drivers/STM32F4xx_HAL_Driver/Src/stm32f4xx_hal_tim.c ****     (+) PWM_PulseFinishedHalfCpltCallback : TIM PWM Pulse Finished half complete Callback.
 152:Drivers/STM32F4xx_HAL_Driver/Src/stm32f4xx_hal_tim.c ****     (+) ErrorCallback                     : TIM Error Callback.
 153:Drivers/STM32F4xx_HAL_Driver/Src/stm32f4xx_hal_tim.c ****     (+) CommutationCallback               : TIM Commutation Callback.
 154:Drivers/STM32F4xx_HAL_Driver/Src/stm32f4xx_hal_tim.c ****     (+) CommutationHalfCpltCallback       : TIM Commutation half complete Callback.
 155:Drivers/STM32F4xx_HAL_Driver/Src/stm32f4xx_hal_tim.c ****     (+) BreakCallback                     : TIM Break Callback.
 156:Drivers/STM32F4xx_HAL_Driver/Src/stm32f4xx_hal_tim.c **** 
 157:Drivers/STM32F4xx_HAL_Driver/Src/stm32f4xx_hal_tim.c ****   [..]
 158:Drivers/STM32F4xx_HAL_Driver/Src/stm32f4xx_hal_tim.c **** By default, after the Init and when the state is HAL_TIM_STATE_RESET
 159:Drivers/STM32F4xx_HAL_Driver/Src/stm32f4xx_hal_tim.c **** all interrupt callbacks are set to the corresponding weak functions:
 160:Drivers/STM32F4xx_HAL_Driver/Src/stm32f4xx_hal_tim.c ****   examples HAL_TIM_TriggerCallback(), HAL_TIM_ErrorCallback().
 161:Drivers/STM32F4xx_HAL_Driver/Src/stm32f4xx_hal_tim.c **** 
 162:Drivers/STM32F4xx_HAL_Driver/Src/stm32f4xx_hal_tim.c ****   [..]
 163:Drivers/STM32F4xx_HAL_Driver/Src/stm32f4xx_hal_tim.c ****   Exception done for MspInit and MspDeInit functions that are reset to the legacy weak
 164:Drivers/STM32F4xx_HAL_Driver/Src/stm32f4xx_hal_tim.c ****   functionalities in the Init / DeInit only when these callbacks are null
 165:Drivers/STM32F4xx_HAL_Driver/Src/stm32f4xx_hal_tim.c ****   (not registered beforehand). If not, MspInit or MspDeInit are not null, the Init / DeInit
 166:Drivers/STM32F4xx_HAL_Driver/Src/stm32f4xx_hal_tim.c ****     keep and use the user MspInit / MspDeInit callbacks(registered beforehand)
 167:Drivers/STM32F4xx_HAL_Driver/Src/stm32f4xx_hal_tim.c **** 
 168:Drivers/STM32F4xx_HAL_Driver/Src/stm32f4xx_hal_tim.c ****   [..]
 169:Drivers/STM32F4xx_HAL_Driver/Src/stm32f4xx_hal_tim.c ****     Callbacks can be registered / unregistered in HAL_TIM_STATE_READY state only.
 170:Drivers/STM32F4xx_HAL_Driver/Src/stm32f4xx_hal_tim.c ****     Exception done MspInit / MspDeInit that can be registered / unregistered
 171:Drivers/STM32F4xx_HAL_Driver/Src/stm32f4xx_hal_tim.c ****     in HAL_TIM_STATE_READY or HAL_TIM_STATE_RESET state,
 172:Drivers/STM32F4xx_HAL_Driver/Src/stm32f4xx_hal_tim.c ****     thus registered(user) MspInit / DeInit callbacks can be used during the Init / DeInit.
 173:Drivers/STM32F4xx_HAL_Driver/Src/stm32f4xx_hal_tim.c ****   In that case first register the MspInit/MspDeInit user callbacks
 174:Drivers/STM32F4xx_HAL_Driver/Src/stm32f4xx_hal_tim.c ****       using HAL_TIM_RegisterCallback() before calling DeInit or Init function.
 175:Drivers/STM32F4xx_HAL_Driver/Src/stm32f4xx_hal_tim.c **** 
 176:Drivers/STM32F4xx_HAL_Driver/Src/stm32f4xx_hal_tim.c ****   [..]
 177:Drivers/STM32F4xx_HAL_Driver/Src/stm32f4xx_hal_tim.c ****       When The compilation define USE_HAL_TIM_REGISTER_CALLBACKS is set to 0 or
 178:Drivers/STM32F4xx_HAL_Driver/Src/stm32f4xx_hal_tim.c ****       not defined, the callback registration feature is not available and all callbacks
 179:Drivers/STM32F4xx_HAL_Driver/Src/stm32f4xx_hal_tim.c ****       are set to the corresponding weak functions.
 180:Drivers/STM32F4xx_HAL_Driver/Src/stm32f4xx_hal_tim.c **** 
 181:Drivers/STM32F4xx_HAL_Driver/Src/stm32f4xx_hal_tim.c ****   @endverbatim
 182:Drivers/STM32F4xx_HAL_Driver/Src/stm32f4xx_hal_tim.c ****   ******************************************************************************
 183:Drivers/STM32F4xx_HAL_Driver/Src/stm32f4xx_hal_tim.c ****   */
 184:Drivers/STM32F4xx_HAL_Driver/Src/stm32f4xx_hal_tim.c **** 
 185:Drivers/STM32F4xx_HAL_Driver/Src/stm32f4xx_hal_tim.c **** /* Includes ------------------------------------------------------------------*/
 186:Drivers/STM32F4xx_HAL_Driver/Src/stm32f4xx_hal_tim.c **** #include "stm32f4xx_hal.h"
 187:Drivers/STM32F4xx_HAL_Driver/Src/stm32f4xx_hal_tim.c **** 
 188:Drivers/STM32F4xx_HAL_Driver/Src/stm32f4xx_hal_tim.c **** /** @addtogroup STM32F4xx_HAL_Driver
 189:Drivers/STM32F4xx_HAL_Driver/Src/stm32f4xx_hal_tim.c ****   * @{
 190:Drivers/STM32F4xx_HAL_Driver/Src/stm32f4xx_hal_tim.c ****   */
 191:Drivers/STM32F4xx_HAL_Driver/Src/stm32f4xx_hal_tim.c **** 
 192:Drivers/STM32F4xx_HAL_Driver/Src/stm32f4xx_hal_tim.c **** /** @defgroup TIM TIM
 193:Drivers/STM32F4xx_HAL_Driver/Src/stm32f4xx_hal_tim.c ****   * @brief TIM HAL module driver
 194:Drivers/STM32F4xx_HAL_Driver/Src/stm32f4xx_hal_tim.c ****   * @{
 195:Drivers/STM32F4xx_HAL_Driver/Src/stm32f4xx_hal_tim.c ****   */
 196:Drivers/STM32F4xx_HAL_Driver/Src/stm32f4xx_hal_tim.c **** 
 197:Drivers/STM32F4xx_HAL_Driver/Src/stm32f4xx_hal_tim.c **** #ifdef HAL_TIM_MODULE_ENABLED
 198:Drivers/STM32F4xx_HAL_Driver/Src/stm32f4xx_hal_tim.c **** 
 199:Drivers/STM32F4xx_HAL_Driver/Src/stm32f4xx_hal_tim.c **** /* Private typedef -----------------------------------------------------------*/
 200:Drivers/STM32F4xx_HAL_Driver/Src/stm32f4xx_hal_tim.c **** /* Private define ------------------------------------------------------------*/
 201:Drivers/STM32F4xx_HAL_Driver/Src/stm32f4xx_hal_tim.c **** /* Private macros ------------------------------------------------------------*/
ARM GAS  /tmp/ccL5e6Lm.s 			page 5


 202:Drivers/STM32F4xx_HAL_Driver/Src/stm32f4xx_hal_tim.c **** /* Private variables ---------------------------------------------------------*/
 203:Drivers/STM32F4xx_HAL_Driver/Src/stm32f4xx_hal_tim.c **** /* Private function prototypes -----------------------------------------------*/
 204:Drivers/STM32F4xx_HAL_Driver/Src/stm32f4xx_hal_tim.c **** /** @addtogroup TIM_Private_Functions
 205:Drivers/STM32F4xx_HAL_Driver/Src/stm32f4xx_hal_tim.c ****   * @{
 206:Drivers/STM32F4xx_HAL_Driver/Src/stm32f4xx_hal_tim.c ****   */
 207:Drivers/STM32F4xx_HAL_Driver/Src/stm32f4xx_hal_tim.c **** static void TIM_OC1_SetConfig(TIM_TypeDef *TIMx, TIM_OC_InitTypeDef *OC_Config);
 208:Drivers/STM32F4xx_HAL_Driver/Src/stm32f4xx_hal_tim.c **** static void TIM_OC3_SetConfig(TIM_TypeDef *TIMx, TIM_OC_InitTypeDef *OC_Config);
 209:Drivers/STM32F4xx_HAL_Driver/Src/stm32f4xx_hal_tim.c **** static void TIM_OC4_SetConfig(TIM_TypeDef *TIMx, TIM_OC_InitTypeDef *OC_Config);
 210:Drivers/STM32F4xx_HAL_Driver/Src/stm32f4xx_hal_tim.c **** static void TIM_TI1_ConfigInputStage(TIM_TypeDef *TIMx, uint32_t TIM_ICPolarity, uint32_t TIM_ICFil
 211:Drivers/STM32F4xx_HAL_Driver/Src/stm32f4xx_hal_tim.c **** static void TIM_TI2_SetConfig(TIM_TypeDef *TIMx, uint32_t TIM_ICPolarity, uint32_t TIM_ICSelection,
 212:Drivers/STM32F4xx_HAL_Driver/Src/stm32f4xx_hal_tim.c ****                               uint32_t TIM_ICFilter);
 213:Drivers/STM32F4xx_HAL_Driver/Src/stm32f4xx_hal_tim.c **** static void TIM_TI2_ConfigInputStage(TIM_TypeDef *TIMx, uint32_t TIM_ICPolarity, uint32_t TIM_ICFil
 214:Drivers/STM32F4xx_HAL_Driver/Src/stm32f4xx_hal_tim.c **** static void TIM_TI3_SetConfig(TIM_TypeDef *TIMx, uint32_t TIM_ICPolarity, uint32_t TIM_ICSelection,
 215:Drivers/STM32F4xx_HAL_Driver/Src/stm32f4xx_hal_tim.c ****                               uint32_t TIM_ICFilter);
 216:Drivers/STM32F4xx_HAL_Driver/Src/stm32f4xx_hal_tim.c **** static void TIM_TI4_SetConfig(TIM_TypeDef *TIMx, uint32_t TIM_ICPolarity, uint32_t TIM_ICSelection,
 217:Drivers/STM32F4xx_HAL_Driver/Src/stm32f4xx_hal_tim.c ****                               uint32_t TIM_ICFilter);
 218:Drivers/STM32F4xx_HAL_Driver/Src/stm32f4xx_hal_tim.c **** static void TIM_ITRx_SetConfig(TIM_TypeDef *TIMx, uint32_t InputTriggerSource);
 219:Drivers/STM32F4xx_HAL_Driver/Src/stm32f4xx_hal_tim.c **** static void TIM_DMAPeriodElapsedCplt(DMA_HandleTypeDef *hdma);
 220:Drivers/STM32F4xx_HAL_Driver/Src/stm32f4xx_hal_tim.c **** static void TIM_DMAPeriodElapsedHalfCplt(DMA_HandleTypeDef *hdma);
 221:Drivers/STM32F4xx_HAL_Driver/Src/stm32f4xx_hal_tim.c **** static void TIM_DMADelayPulseCplt(DMA_HandleTypeDef *hdma);
 222:Drivers/STM32F4xx_HAL_Driver/Src/stm32f4xx_hal_tim.c **** static void TIM_DMATriggerCplt(DMA_HandleTypeDef *hdma);
 223:Drivers/STM32F4xx_HAL_Driver/Src/stm32f4xx_hal_tim.c **** static void TIM_DMATriggerHalfCplt(DMA_HandleTypeDef *hdma);
 224:Drivers/STM32F4xx_HAL_Driver/Src/stm32f4xx_hal_tim.c **** static HAL_StatusTypeDef TIM_SlaveTimer_SetConfig(TIM_HandleTypeDef *htim,
 225:Drivers/STM32F4xx_HAL_Driver/Src/stm32f4xx_hal_tim.c ****                                                   TIM_SlaveConfigTypeDef *sSlaveConfig);
 226:Drivers/STM32F4xx_HAL_Driver/Src/stm32f4xx_hal_tim.c **** /**
 227:Drivers/STM32F4xx_HAL_Driver/Src/stm32f4xx_hal_tim.c ****   * @}
 228:Drivers/STM32F4xx_HAL_Driver/Src/stm32f4xx_hal_tim.c ****   */
 229:Drivers/STM32F4xx_HAL_Driver/Src/stm32f4xx_hal_tim.c **** /* Exported functions --------------------------------------------------------*/
 230:Drivers/STM32F4xx_HAL_Driver/Src/stm32f4xx_hal_tim.c **** 
 231:Drivers/STM32F4xx_HAL_Driver/Src/stm32f4xx_hal_tim.c **** /** @defgroup TIM_Exported_Functions TIM Exported Functions
 232:Drivers/STM32F4xx_HAL_Driver/Src/stm32f4xx_hal_tim.c ****   * @{
 233:Drivers/STM32F4xx_HAL_Driver/Src/stm32f4xx_hal_tim.c ****   */
 234:Drivers/STM32F4xx_HAL_Driver/Src/stm32f4xx_hal_tim.c **** 
 235:Drivers/STM32F4xx_HAL_Driver/Src/stm32f4xx_hal_tim.c **** /** @defgroup TIM_Exported_Functions_Group1 TIM Time Base functions
 236:Drivers/STM32F4xx_HAL_Driver/Src/stm32f4xx_hal_tim.c ****   *  @brief    Time Base functions
 237:Drivers/STM32F4xx_HAL_Driver/Src/stm32f4xx_hal_tim.c ****   *
 238:Drivers/STM32F4xx_HAL_Driver/Src/stm32f4xx_hal_tim.c **** @verbatim
 239:Drivers/STM32F4xx_HAL_Driver/Src/stm32f4xx_hal_tim.c ****   ==============================================================================
 240:Drivers/STM32F4xx_HAL_Driver/Src/stm32f4xx_hal_tim.c ****               ##### Time Base functions #####
 241:Drivers/STM32F4xx_HAL_Driver/Src/stm32f4xx_hal_tim.c ****   ==============================================================================
 242:Drivers/STM32F4xx_HAL_Driver/Src/stm32f4xx_hal_tim.c ****   [..]
 243:Drivers/STM32F4xx_HAL_Driver/Src/stm32f4xx_hal_tim.c ****     This section provides functions allowing to:
 244:Drivers/STM32F4xx_HAL_Driver/Src/stm32f4xx_hal_tim.c ****     (+) Initialize and configure the TIM base.
 245:Drivers/STM32F4xx_HAL_Driver/Src/stm32f4xx_hal_tim.c ****     (+) De-initialize the TIM base.
 246:Drivers/STM32F4xx_HAL_Driver/Src/stm32f4xx_hal_tim.c ****     (+) Start the Time Base.
 247:Drivers/STM32F4xx_HAL_Driver/Src/stm32f4xx_hal_tim.c ****     (+) Stop the Time Base.
 248:Drivers/STM32F4xx_HAL_Driver/Src/stm32f4xx_hal_tim.c ****     (+) Start the Time Base and enable interrupt.
 249:Drivers/STM32F4xx_HAL_Driver/Src/stm32f4xx_hal_tim.c ****     (+) Stop the Time Base and disable interrupt.
 250:Drivers/STM32F4xx_HAL_Driver/Src/stm32f4xx_hal_tim.c ****     (+) Start the Time Base and enable DMA transfer.
 251:Drivers/STM32F4xx_HAL_Driver/Src/stm32f4xx_hal_tim.c ****     (+) Stop the Time Base and disable DMA transfer.
 252:Drivers/STM32F4xx_HAL_Driver/Src/stm32f4xx_hal_tim.c **** 
 253:Drivers/STM32F4xx_HAL_Driver/Src/stm32f4xx_hal_tim.c **** @endverbatim
 254:Drivers/STM32F4xx_HAL_Driver/Src/stm32f4xx_hal_tim.c ****   * @{
 255:Drivers/STM32F4xx_HAL_Driver/Src/stm32f4xx_hal_tim.c ****   */
 256:Drivers/STM32F4xx_HAL_Driver/Src/stm32f4xx_hal_tim.c **** /**
 257:Drivers/STM32F4xx_HAL_Driver/Src/stm32f4xx_hal_tim.c ****   * @brief  Initializes the TIM Time base Unit according to the specified
 258:Drivers/STM32F4xx_HAL_Driver/Src/stm32f4xx_hal_tim.c ****   *         parameters in the TIM_HandleTypeDef and initialize the associated handle.
ARM GAS  /tmp/ccL5e6Lm.s 			page 6


 259:Drivers/STM32F4xx_HAL_Driver/Src/stm32f4xx_hal_tim.c ****   * @note   Switching from Center Aligned counter mode to Edge counter mode (or reverse)
 260:Drivers/STM32F4xx_HAL_Driver/Src/stm32f4xx_hal_tim.c ****   *         requires a timer reset to avoid unexpected direction
 261:Drivers/STM32F4xx_HAL_Driver/Src/stm32f4xx_hal_tim.c ****   *         due to DIR bit readonly in center aligned mode.
 262:Drivers/STM32F4xx_HAL_Driver/Src/stm32f4xx_hal_tim.c ****   *         Ex: call @ref HAL_TIM_Base_DeInit() before HAL_TIM_Base_Init()
 263:Drivers/STM32F4xx_HAL_Driver/Src/stm32f4xx_hal_tim.c ****   * @param  htim TIM Base handle
 264:Drivers/STM32F4xx_HAL_Driver/Src/stm32f4xx_hal_tim.c ****   * @retval HAL status
 265:Drivers/STM32F4xx_HAL_Driver/Src/stm32f4xx_hal_tim.c ****   */
 266:Drivers/STM32F4xx_HAL_Driver/Src/stm32f4xx_hal_tim.c **** HAL_StatusTypeDef HAL_TIM_Base_Init(TIM_HandleTypeDef *htim)
 267:Drivers/STM32F4xx_HAL_Driver/Src/stm32f4xx_hal_tim.c **** {
  29              		.loc 1 267 1
  30              		.cfi_startproc
  31              		@ args = 0, pretend = 0, frame = 8
  32              		@ frame_needed = 1, uses_anonymous_args = 0
  33 0000 80B5     		push	{r7, lr}
  34              	.LCFI0:
  35              		.cfi_def_cfa_offset 8
  36              		.cfi_offset 7, -8
  37              		.cfi_offset 14, -4
  38 0002 82B0     		sub	sp, sp, #8
  39              	.LCFI1:
  40              		.cfi_def_cfa_offset 16
  41 0004 00AF     		add	r7, sp, #0
  42              	.LCFI2:
  43              		.cfi_def_cfa_register 7
  44 0006 7860     		str	r0, [r7, #4]
 268:Drivers/STM32F4xx_HAL_Driver/Src/stm32f4xx_hal_tim.c ****   /* Check the TIM handle allocation */
 269:Drivers/STM32F4xx_HAL_Driver/Src/stm32f4xx_hal_tim.c ****   if (htim == NULL)
  45              		.loc 1 269 6
  46 0008 7B68     		ldr	r3, [r7, #4]
  47 000a 002B     		cmp	r3, #0
  48 000c 01D1     		bne	.L2
 270:Drivers/STM32F4xx_HAL_Driver/Src/stm32f4xx_hal_tim.c ****   {
 271:Drivers/STM32F4xx_HAL_Driver/Src/stm32f4xx_hal_tim.c ****     return HAL_ERROR;
  49              		.loc 1 271 12
  50 000e 0123     		movs	r3, #1
  51 0010 41E0     		b	.L3
  52              	.L2:
 272:Drivers/STM32F4xx_HAL_Driver/Src/stm32f4xx_hal_tim.c ****   }
 273:Drivers/STM32F4xx_HAL_Driver/Src/stm32f4xx_hal_tim.c **** 
 274:Drivers/STM32F4xx_HAL_Driver/Src/stm32f4xx_hal_tim.c ****   /* Check the parameters */
 275:Drivers/STM32F4xx_HAL_Driver/Src/stm32f4xx_hal_tim.c ****   assert_param(IS_TIM_INSTANCE(htim->Instance));
 276:Drivers/STM32F4xx_HAL_Driver/Src/stm32f4xx_hal_tim.c ****   assert_param(IS_TIM_COUNTER_MODE(htim->Init.CounterMode));
 277:Drivers/STM32F4xx_HAL_Driver/Src/stm32f4xx_hal_tim.c ****   assert_param(IS_TIM_CLOCKDIVISION_DIV(htim->Init.ClockDivision));
 278:Drivers/STM32F4xx_HAL_Driver/Src/stm32f4xx_hal_tim.c ****   assert_param(IS_TIM_AUTORELOAD_PRELOAD(htim->Init.AutoReloadPreload));
 279:Drivers/STM32F4xx_HAL_Driver/Src/stm32f4xx_hal_tim.c **** 
 280:Drivers/STM32F4xx_HAL_Driver/Src/stm32f4xx_hal_tim.c ****   if (htim->State == HAL_TIM_STATE_RESET)
  53              		.loc 1 280 11
  54 0012 7B68     		ldr	r3, [r7, #4]
  55 0014 93F83D30 		ldrb	r3, [r3, #61]
  56 0018 DBB2     		uxtb	r3, r3
  57              		.loc 1 280 6
  58 001a 002B     		cmp	r3, #0
  59 001c 06D1     		bne	.L4
 281:Drivers/STM32F4xx_HAL_Driver/Src/stm32f4xx_hal_tim.c ****   {
 282:Drivers/STM32F4xx_HAL_Driver/Src/stm32f4xx_hal_tim.c ****     /* Allocate lock resource and initialize it */
 283:Drivers/STM32F4xx_HAL_Driver/Src/stm32f4xx_hal_tim.c ****     htim->Lock = HAL_UNLOCKED;
  60              		.loc 1 283 16
ARM GAS  /tmp/ccL5e6Lm.s 			page 7


  61 001e 7B68     		ldr	r3, [r7, #4]
  62 0020 0022     		movs	r2, #0
  63 0022 83F83C20 		strb	r2, [r3, #60]
 284:Drivers/STM32F4xx_HAL_Driver/Src/stm32f4xx_hal_tim.c **** 
 285:Drivers/STM32F4xx_HAL_Driver/Src/stm32f4xx_hal_tim.c **** #if (USE_HAL_TIM_REGISTER_CALLBACKS == 1)
 286:Drivers/STM32F4xx_HAL_Driver/Src/stm32f4xx_hal_tim.c ****     /* Reset interrupt callbacks to legacy weak callbacks */
 287:Drivers/STM32F4xx_HAL_Driver/Src/stm32f4xx_hal_tim.c ****     TIM_ResetCallback(htim);
 288:Drivers/STM32F4xx_HAL_Driver/Src/stm32f4xx_hal_tim.c **** 
 289:Drivers/STM32F4xx_HAL_Driver/Src/stm32f4xx_hal_tim.c ****     if (htim->Base_MspInitCallback == NULL)
 290:Drivers/STM32F4xx_HAL_Driver/Src/stm32f4xx_hal_tim.c ****     {
 291:Drivers/STM32F4xx_HAL_Driver/Src/stm32f4xx_hal_tim.c ****       htim->Base_MspInitCallback = HAL_TIM_Base_MspInit;
 292:Drivers/STM32F4xx_HAL_Driver/Src/stm32f4xx_hal_tim.c ****     }
 293:Drivers/STM32F4xx_HAL_Driver/Src/stm32f4xx_hal_tim.c ****     /* Init the low level hardware : GPIO, CLOCK, NVIC */
 294:Drivers/STM32F4xx_HAL_Driver/Src/stm32f4xx_hal_tim.c ****     htim->Base_MspInitCallback(htim);
 295:Drivers/STM32F4xx_HAL_Driver/Src/stm32f4xx_hal_tim.c **** #else
 296:Drivers/STM32F4xx_HAL_Driver/Src/stm32f4xx_hal_tim.c ****     /* Init the low level hardware : GPIO, CLOCK, NVIC */
 297:Drivers/STM32F4xx_HAL_Driver/Src/stm32f4xx_hal_tim.c ****     HAL_TIM_Base_MspInit(htim);
  64              		.loc 1 297 5
  65 0026 7868     		ldr	r0, [r7, #4]
  66 0028 FFF7FEFF 		bl	HAL_TIM_Base_MspInit
  67              	.L4:
 298:Drivers/STM32F4xx_HAL_Driver/Src/stm32f4xx_hal_tim.c **** #endif /* USE_HAL_TIM_REGISTER_CALLBACKS */
 299:Drivers/STM32F4xx_HAL_Driver/Src/stm32f4xx_hal_tim.c ****   }
 300:Drivers/STM32F4xx_HAL_Driver/Src/stm32f4xx_hal_tim.c **** 
 301:Drivers/STM32F4xx_HAL_Driver/Src/stm32f4xx_hal_tim.c ****   /* Set the TIM state */
 302:Drivers/STM32F4xx_HAL_Driver/Src/stm32f4xx_hal_tim.c ****   htim->State = HAL_TIM_STATE_BUSY;
  68              		.loc 1 302 15
  69 002c 7B68     		ldr	r3, [r7, #4]
  70 002e 0222     		movs	r2, #2
  71 0030 83F83D20 		strb	r2, [r3, #61]
 303:Drivers/STM32F4xx_HAL_Driver/Src/stm32f4xx_hal_tim.c **** 
 304:Drivers/STM32F4xx_HAL_Driver/Src/stm32f4xx_hal_tim.c ****   /* Set the Time Base configuration */
 305:Drivers/STM32F4xx_HAL_Driver/Src/stm32f4xx_hal_tim.c ****   TIM_Base_SetConfig(htim->Instance, &htim->Init);
  72              		.loc 1 305 3
  73 0034 7B68     		ldr	r3, [r7, #4]
  74 0036 1A68     		ldr	r2, [r3]
  75 0038 7B68     		ldr	r3, [r7, #4]
  76 003a 0433     		adds	r3, r3, #4
  77 003c 1946     		mov	r1, r3
  78 003e 1046     		mov	r0, r2
  79 0040 FFF7FEFF 		bl	TIM_Base_SetConfig
 306:Drivers/STM32F4xx_HAL_Driver/Src/stm32f4xx_hal_tim.c **** 
 307:Drivers/STM32F4xx_HAL_Driver/Src/stm32f4xx_hal_tim.c ****   /* Initialize the DMA burst operation state */
 308:Drivers/STM32F4xx_HAL_Driver/Src/stm32f4xx_hal_tim.c ****   htim->DMABurstState = HAL_DMA_BURST_STATE_READY;
  80              		.loc 1 308 23
  81 0044 7B68     		ldr	r3, [r7, #4]
  82 0046 0122     		movs	r2, #1
  83 0048 83F84620 		strb	r2, [r3, #70]
 309:Drivers/STM32F4xx_HAL_Driver/Src/stm32f4xx_hal_tim.c **** 
 310:Drivers/STM32F4xx_HAL_Driver/Src/stm32f4xx_hal_tim.c ****   /* Initialize the TIM channels state */
 311:Drivers/STM32F4xx_HAL_Driver/Src/stm32f4xx_hal_tim.c ****   TIM_CHANNEL_STATE_SET_ALL(htim, HAL_TIM_CHANNEL_STATE_READY);
  84              		.loc 1 311 3
  85 004c 7B68     		ldr	r3, [r7, #4]
  86 004e 0122     		movs	r2, #1
  87 0050 83F83E20 		strb	r2, [r3, #62]
  88 0054 7B68     		ldr	r3, [r7, #4]
  89 0056 0122     		movs	r2, #1
ARM GAS  /tmp/ccL5e6Lm.s 			page 8


  90 0058 83F83F20 		strb	r2, [r3, #63]
  91 005c 7B68     		ldr	r3, [r7, #4]
  92 005e 0122     		movs	r2, #1
  93 0060 83F84020 		strb	r2, [r3, #64]
  94 0064 7B68     		ldr	r3, [r7, #4]
  95 0066 0122     		movs	r2, #1
  96 0068 83F84120 		strb	r2, [r3, #65]
 312:Drivers/STM32F4xx_HAL_Driver/Src/stm32f4xx_hal_tim.c ****   TIM_CHANNEL_N_STATE_SET_ALL(htim, HAL_TIM_CHANNEL_STATE_READY);
  97              		.loc 1 312 3
  98 006c 7B68     		ldr	r3, [r7, #4]
  99 006e 0122     		movs	r2, #1
 100 0070 83F84220 		strb	r2, [r3, #66]
 101 0074 7B68     		ldr	r3, [r7, #4]
 102 0076 0122     		movs	r2, #1
 103 0078 83F84320 		strb	r2, [r3, #67]
 104 007c 7B68     		ldr	r3, [r7, #4]
 105 007e 0122     		movs	r2, #1
 106 0080 83F84420 		strb	r2, [r3, #68]
 107 0084 7B68     		ldr	r3, [r7, #4]
 108 0086 0122     		movs	r2, #1
 109 0088 83F84520 		strb	r2, [r3, #69]
 313:Drivers/STM32F4xx_HAL_Driver/Src/stm32f4xx_hal_tim.c **** 
 314:Drivers/STM32F4xx_HAL_Driver/Src/stm32f4xx_hal_tim.c ****   /* Initialize the TIM state*/
 315:Drivers/STM32F4xx_HAL_Driver/Src/stm32f4xx_hal_tim.c ****   htim->State = HAL_TIM_STATE_READY;
 110              		.loc 1 315 15
 111 008c 7B68     		ldr	r3, [r7, #4]
 112 008e 0122     		movs	r2, #1
 113 0090 83F83D20 		strb	r2, [r3, #61]
 316:Drivers/STM32F4xx_HAL_Driver/Src/stm32f4xx_hal_tim.c **** 
 317:Drivers/STM32F4xx_HAL_Driver/Src/stm32f4xx_hal_tim.c ****   return HAL_OK;
 114              		.loc 1 317 10
 115 0094 0023     		movs	r3, #0
 116              	.L3:
 318:Drivers/STM32F4xx_HAL_Driver/Src/stm32f4xx_hal_tim.c **** }
 117              		.loc 1 318 1
 118 0096 1846     		mov	r0, r3
 119 0098 0837     		adds	r7, r7, #8
 120              	.LCFI3:
 121              		.cfi_def_cfa_offset 8
 122 009a BD46     		mov	sp, r7
 123              	.LCFI4:
 124              		.cfi_def_cfa_register 13
 125              		@ sp needed
 126 009c 80BD     		pop	{r7, pc}
 127              		.cfi_endproc
 128              	.LFE216:
 130              		.section	.text.HAL_TIM_Base_DeInit,"ax",%progbits
 131              		.align	1
 132              		.global	HAL_TIM_Base_DeInit
 133              		.syntax unified
 134              		.thumb
 135              		.thumb_func
 137              	HAL_TIM_Base_DeInit:
 138              	.LFB217:
 319:Drivers/STM32F4xx_HAL_Driver/Src/stm32f4xx_hal_tim.c **** 
 320:Drivers/STM32F4xx_HAL_Driver/Src/stm32f4xx_hal_tim.c **** /**
 321:Drivers/STM32F4xx_HAL_Driver/Src/stm32f4xx_hal_tim.c ****   * @brief  DeInitializes the TIM Base peripheral
ARM GAS  /tmp/ccL5e6Lm.s 			page 9


 322:Drivers/STM32F4xx_HAL_Driver/Src/stm32f4xx_hal_tim.c ****   * @param  htim TIM Base handle
 323:Drivers/STM32F4xx_HAL_Driver/Src/stm32f4xx_hal_tim.c ****   * @retval HAL status
 324:Drivers/STM32F4xx_HAL_Driver/Src/stm32f4xx_hal_tim.c ****   */
 325:Drivers/STM32F4xx_HAL_Driver/Src/stm32f4xx_hal_tim.c **** HAL_StatusTypeDef HAL_TIM_Base_DeInit(TIM_HandleTypeDef *htim)
 326:Drivers/STM32F4xx_HAL_Driver/Src/stm32f4xx_hal_tim.c **** {
 139              		.loc 1 326 1
 140              		.cfi_startproc
 141              		@ args = 0, pretend = 0, frame = 8
 142              		@ frame_needed = 1, uses_anonymous_args = 0
 143 0000 80B5     		push	{r7, lr}
 144              	.LCFI5:
 145              		.cfi_def_cfa_offset 8
 146              		.cfi_offset 7, -8
 147              		.cfi_offset 14, -4
 148 0002 82B0     		sub	sp, sp, #8
 149              	.LCFI6:
 150              		.cfi_def_cfa_offset 16
 151 0004 00AF     		add	r7, sp, #0
 152              	.LCFI7:
 153              		.cfi_def_cfa_register 7
 154 0006 7860     		str	r0, [r7, #4]
 327:Drivers/STM32F4xx_HAL_Driver/Src/stm32f4xx_hal_tim.c ****   /* Check the parameters */
 328:Drivers/STM32F4xx_HAL_Driver/Src/stm32f4xx_hal_tim.c ****   assert_param(IS_TIM_INSTANCE(htim->Instance));
 329:Drivers/STM32F4xx_HAL_Driver/Src/stm32f4xx_hal_tim.c **** 
 330:Drivers/STM32F4xx_HAL_Driver/Src/stm32f4xx_hal_tim.c ****   htim->State = HAL_TIM_STATE_BUSY;
 155              		.loc 1 330 15
 156 0008 7B68     		ldr	r3, [r7, #4]
 157 000a 0222     		movs	r2, #2
 158 000c 83F83D20 		strb	r2, [r3, #61]
 331:Drivers/STM32F4xx_HAL_Driver/Src/stm32f4xx_hal_tim.c **** 
 332:Drivers/STM32F4xx_HAL_Driver/Src/stm32f4xx_hal_tim.c ****   /* Disable the TIM Peripheral Clock */
 333:Drivers/STM32F4xx_HAL_Driver/Src/stm32f4xx_hal_tim.c ****   __HAL_TIM_DISABLE(htim);
 159              		.loc 1 333 3
 160 0010 7B68     		ldr	r3, [r7, #4]
 161 0012 1B68     		ldr	r3, [r3]
 162 0014 1A6A     		ldr	r2, [r3, #32]
 163 0016 41F21113 		movw	r3, #4369
 164 001a 1340     		ands	r3, r3, r2
 165 001c 002B     		cmp	r3, #0
 166 001e 0FD1     		bne	.L6
 167              		.loc 1 333 3 is_stmt 0 discriminator 1
 168 0020 7B68     		ldr	r3, [r7, #4]
 169 0022 1B68     		ldr	r3, [r3]
 170 0024 1A6A     		ldr	r2, [r3, #32]
 171 0026 40F24443 		movw	r3, #1092
 172 002a 1340     		ands	r3, r3, r2
 173 002c 002B     		cmp	r3, #0
 174 002e 07D1     		bne	.L6
 175              		.loc 1 333 3 discriminator 2
 176 0030 7B68     		ldr	r3, [r7, #4]
 177 0032 1B68     		ldr	r3, [r3]
 178 0034 1A68     		ldr	r2, [r3]
 179 0036 7B68     		ldr	r3, [r7, #4]
 180 0038 1B68     		ldr	r3, [r3]
 181 003a 22F00102 		bic	r2, r2, #1
 182 003e 1A60     		str	r2, [r3]
 183              	.L6:
ARM GAS  /tmp/ccL5e6Lm.s 			page 10


 334:Drivers/STM32F4xx_HAL_Driver/Src/stm32f4xx_hal_tim.c **** 
 335:Drivers/STM32F4xx_HAL_Driver/Src/stm32f4xx_hal_tim.c **** #if (USE_HAL_TIM_REGISTER_CALLBACKS == 1)
 336:Drivers/STM32F4xx_HAL_Driver/Src/stm32f4xx_hal_tim.c ****   if (htim->Base_MspDeInitCallback == NULL)
 337:Drivers/STM32F4xx_HAL_Driver/Src/stm32f4xx_hal_tim.c ****   {
 338:Drivers/STM32F4xx_HAL_Driver/Src/stm32f4xx_hal_tim.c ****     htim->Base_MspDeInitCallback = HAL_TIM_Base_MspDeInit;
 339:Drivers/STM32F4xx_HAL_Driver/Src/stm32f4xx_hal_tim.c ****   }
 340:Drivers/STM32F4xx_HAL_Driver/Src/stm32f4xx_hal_tim.c ****   /* DeInit the low level hardware */
 341:Drivers/STM32F4xx_HAL_Driver/Src/stm32f4xx_hal_tim.c ****   htim->Base_MspDeInitCallback(htim);
 342:Drivers/STM32F4xx_HAL_Driver/Src/stm32f4xx_hal_tim.c **** #else
 343:Drivers/STM32F4xx_HAL_Driver/Src/stm32f4xx_hal_tim.c ****   /* DeInit the low level hardware: GPIO, CLOCK, NVIC */
 344:Drivers/STM32F4xx_HAL_Driver/Src/stm32f4xx_hal_tim.c ****   HAL_TIM_Base_MspDeInit(htim);
 184              		.loc 1 344 3 is_stmt 1
 185 0040 7868     		ldr	r0, [r7, #4]
 186 0042 FFF7FEFF 		bl	HAL_TIM_Base_MspDeInit
 345:Drivers/STM32F4xx_HAL_Driver/Src/stm32f4xx_hal_tim.c **** #endif /* USE_HAL_TIM_REGISTER_CALLBACKS */
 346:Drivers/STM32F4xx_HAL_Driver/Src/stm32f4xx_hal_tim.c **** 
 347:Drivers/STM32F4xx_HAL_Driver/Src/stm32f4xx_hal_tim.c ****   /* Change the DMA burst operation state */
 348:Drivers/STM32F4xx_HAL_Driver/Src/stm32f4xx_hal_tim.c ****   htim->DMABurstState = HAL_DMA_BURST_STATE_RESET;
 187              		.loc 1 348 23
 188 0046 7B68     		ldr	r3, [r7, #4]
 189 0048 0022     		movs	r2, #0
 190 004a 83F84620 		strb	r2, [r3, #70]
 349:Drivers/STM32F4xx_HAL_Driver/Src/stm32f4xx_hal_tim.c **** 
 350:Drivers/STM32F4xx_HAL_Driver/Src/stm32f4xx_hal_tim.c ****   /* Change the TIM channels state */
 351:Drivers/STM32F4xx_HAL_Driver/Src/stm32f4xx_hal_tim.c ****   TIM_CHANNEL_STATE_SET_ALL(htim, HAL_TIM_CHANNEL_STATE_RESET);
 191              		.loc 1 351 3
 192 004e 7B68     		ldr	r3, [r7, #4]
 193 0050 0022     		movs	r2, #0
 194 0052 83F83E20 		strb	r2, [r3, #62]
 195 0056 7B68     		ldr	r3, [r7, #4]
 196 0058 0022     		movs	r2, #0
 197 005a 83F83F20 		strb	r2, [r3, #63]
 198 005e 7B68     		ldr	r3, [r7, #4]
 199 0060 0022     		movs	r2, #0
 200 0062 83F84020 		strb	r2, [r3, #64]
 201 0066 7B68     		ldr	r3, [r7, #4]
 202 0068 0022     		movs	r2, #0
 203 006a 83F84120 		strb	r2, [r3, #65]
 352:Drivers/STM32F4xx_HAL_Driver/Src/stm32f4xx_hal_tim.c ****   TIM_CHANNEL_N_STATE_SET_ALL(htim, HAL_TIM_CHANNEL_STATE_RESET);
 204              		.loc 1 352 3
 205 006e 7B68     		ldr	r3, [r7, #4]
 206 0070 0022     		movs	r2, #0
 207 0072 83F84220 		strb	r2, [r3, #66]
 208 0076 7B68     		ldr	r3, [r7, #4]
 209 0078 0022     		movs	r2, #0
 210 007a 83F84320 		strb	r2, [r3, #67]
 211 007e 7B68     		ldr	r3, [r7, #4]
 212 0080 0022     		movs	r2, #0
 213 0082 83F84420 		strb	r2, [r3, #68]
 214 0086 7B68     		ldr	r3, [r7, #4]
 215 0088 0022     		movs	r2, #0
 216 008a 83F84520 		strb	r2, [r3, #69]
 353:Drivers/STM32F4xx_HAL_Driver/Src/stm32f4xx_hal_tim.c **** 
 354:Drivers/STM32F4xx_HAL_Driver/Src/stm32f4xx_hal_tim.c ****   /* Change TIM state */
 355:Drivers/STM32F4xx_HAL_Driver/Src/stm32f4xx_hal_tim.c ****   htim->State = HAL_TIM_STATE_RESET;
 217              		.loc 1 355 15
 218 008e 7B68     		ldr	r3, [r7, #4]
ARM GAS  /tmp/ccL5e6Lm.s 			page 11


 219 0090 0022     		movs	r2, #0
 220 0092 83F83D20 		strb	r2, [r3, #61]
 356:Drivers/STM32F4xx_HAL_Driver/Src/stm32f4xx_hal_tim.c **** 
 357:Drivers/STM32F4xx_HAL_Driver/Src/stm32f4xx_hal_tim.c ****   /* Release Lock */
 358:Drivers/STM32F4xx_HAL_Driver/Src/stm32f4xx_hal_tim.c ****   __HAL_UNLOCK(htim);
 221              		.loc 1 358 3
 222 0096 7B68     		ldr	r3, [r7, #4]
 223 0098 0022     		movs	r2, #0
 224 009a 83F83C20 		strb	r2, [r3, #60]
 359:Drivers/STM32F4xx_HAL_Driver/Src/stm32f4xx_hal_tim.c **** 
 360:Drivers/STM32F4xx_HAL_Driver/Src/stm32f4xx_hal_tim.c ****   return HAL_OK;
 225              		.loc 1 360 10
 226 009e 0023     		movs	r3, #0
 361:Drivers/STM32F4xx_HAL_Driver/Src/stm32f4xx_hal_tim.c **** }
 227              		.loc 1 361 1
 228 00a0 1846     		mov	r0, r3
 229 00a2 0837     		adds	r7, r7, #8
 230              	.LCFI8:
 231              		.cfi_def_cfa_offset 8
 232 00a4 BD46     		mov	sp, r7
 233              	.LCFI9:
 234              		.cfi_def_cfa_register 13
 235              		@ sp needed
 236 00a6 80BD     		pop	{r7, pc}
 237              		.cfi_endproc
 238              	.LFE217:
 240              		.section	.text.HAL_TIM_Base_MspInit,"ax",%progbits
 241              		.align	1
 242              		.weak	HAL_TIM_Base_MspInit
 243              		.syntax unified
 244              		.thumb
 245              		.thumb_func
 247              	HAL_TIM_Base_MspInit:
 248              	.LFB218:
 362:Drivers/STM32F4xx_HAL_Driver/Src/stm32f4xx_hal_tim.c **** 
 363:Drivers/STM32F4xx_HAL_Driver/Src/stm32f4xx_hal_tim.c **** /**
 364:Drivers/STM32F4xx_HAL_Driver/Src/stm32f4xx_hal_tim.c ****   * @brief  Initializes the TIM Base MSP.
 365:Drivers/STM32F4xx_HAL_Driver/Src/stm32f4xx_hal_tim.c ****   * @param  htim TIM Base handle
 366:Drivers/STM32F4xx_HAL_Driver/Src/stm32f4xx_hal_tim.c ****   * @retval None
 367:Drivers/STM32F4xx_HAL_Driver/Src/stm32f4xx_hal_tim.c ****   */
 368:Drivers/STM32F4xx_HAL_Driver/Src/stm32f4xx_hal_tim.c **** __weak void HAL_TIM_Base_MspInit(TIM_HandleTypeDef *htim)
 369:Drivers/STM32F4xx_HAL_Driver/Src/stm32f4xx_hal_tim.c **** {
 249              		.loc 1 369 1
 250              		.cfi_startproc
 251              		@ args = 0, pretend = 0, frame = 8
 252              		@ frame_needed = 1, uses_anonymous_args = 0
 253              		@ link register save eliminated.
 254 0000 80B4     		push	{r7}
 255              	.LCFI10:
 256              		.cfi_def_cfa_offset 4
 257              		.cfi_offset 7, -4
 258 0002 83B0     		sub	sp, sp, #12
 259              	.LCFI11:
 260              		.cfi_def_cfa_offset 16
 261 0004 00AF     		add	r7, sp, #0
 262              	.LCFI12:
 263              		.cfi_def_cfa_register 7
ARM GAS  /tmp/ccL5e6Lm.s 			page 12


 264 0006 7860     		str	r0, [r7, #4]
 370:Drivers/STM32F4xx_HAL_Driver/Src/stm32f4xx_hal_tim.c ****   /* Prevent unused argument(s) compilation warning */
 371:Drivers/STM32F4xx_HAL_Driver/Src/stm32f4xx_hal_tim.c ****   UNUSED(htim);
 372:Drivers/STM32F4xx_HAL_Driver/Src/stm32f4xx_hal_tim.c **** 
 373:Drivers/STM32F4xx_HAL_Driver/Src/stm32f4xx_hal_tim.c ****   /* NOTE : This function should not be modified, when the callback is needed,
 374:Drivers/STM32F4xx_HAL_Driver/Src/stm32f4xx_hal_tim.c ****             the HAL_TIM_Base_MspInit could be implemented in the user file
 375:Drivers/STM32F4xx_HAL_Driver/Src/stm32f4xx_hal_tim.c ****    */
 376:Drivers/STM32F4xx_HAL_Driver/Src/stm32f4xx_hal_tim.c **** }
 265              		.loc 1 376 1
 266 0008 00BF     		nop
 267 000a 0C37     		adds	r7, r7, #12
 268              	.LCFI13:
 269              		.cfi_def_cfa_offset 4
 270 000c BD46     		mov	sp, r7
 271              	.LCFI14:
 272              		.cfi_def_cfa_register 13
 273              		@ sp needed
 274 000e 5DF8047B 		ldr	r7, [sp], #4
 275              	.LCFI15:
 276              		.cfi_restore 7
 277              		.cfi_def_cfa_offset 0
 278 0012 7047     		bx	lr
 279              		.cfi_endproc
 280              	.LFE218:
 282              		.section	.text.HAL_TIM_Base_MspDeInit,"ax",%progbits
 283              		.align	1
 284              		.weak	HAL_TIM_Base_MspDeInit
 285              		.syntax unified
 286              		.thumb
 287              		.thumb_func
 289              	HAL_TIM_Base_MspDeInit:
 290              	.LFB219:
 377:Drivers/STM32F4xx_HAL_Driver/Src/stm32f4xx_hal_tim.c **** 
 378:Drivers/STM32F4xx_HAL_Driver/Src/stm32f4xx_hal_tim.c **** /**
 379:Drivers/STM32F4xx_HAL_Driver/Src/stm32f4xx_hal_tim.c ****   * @brief  DeInitializes TIM Base MSP.
 380:Drivers/STM32F4xx_HAL_Driver/Src/stm32f4xx_hal_tim.c ****   * @param  htim TIM Base handle
 381:Drivers/STM32F4xx_HAL_Driver/Src/stm32f4xx_hal_tim.c ****   * @retval None
 382:Drivers/STM32F4xx_HAL_Driver/Src/stm32f4xx_hal_tim.c ****   */
 383:Drivers/STM32F4xx_HAL_Driver/Src/stm32f4xx_hal_tim.c **** __weak void HAL_TIM_Base_MspDeInit(TIM_HandleTypeDef *htim)
 384:Drivers/STM32F4xx_HAL_Driver/Src/stm32f4xx_hal_tim.c **** {
 291              		.loc 1 384 1
 292              		.cfi_startproc
 293              		@ args = 0, pretend = 0, frame = 8
 294              		@ frame_needed = 1, uses_anonymous_args = 0
 295              		@ link register save eliminated.
 296 0000 80B4     		push	{r7}
 297              	.LCFI16:
 298              		.cfi_def_cfa_offset 4
 299              		.cfi_offset 7, -4
 300 0002 83B0     		sub	sp, sp, #12
 301              	.LCFI17:
 302              		.cfi_def_cfa_offset 16
 303 0004 00AF     		add	r7, sp, #0
 304              	.LCFI18:
 305              		.cfi_def_cfa_register 7
 306 0006 7860     		str	r0, [r7, #4]
 385:Drivers/STM32F4xx_HAL_Driver/Src/stm32f4xx_hal_tim.c ****   /* Prevent unused argument(s) compilation warning */
ARM GAS  /tmp/ccL5e6Lm.s 			page 13


 386:Drivers/STM32F4xx_HAL_Driver/Src/stm32f4xx_hal_tim.c ****   UNUSED(htim);
 387:Drivers/STM32F4xx_HAL_Driver/Src/stm32f4xx_hal_tim.c **** 
 388:Drivers/STM32F4xx_HAL_Driver/Src/stm32f4xx_hal_tim.c ****   /* NOTE : This function should not be modified, when the callback is needed,
 389:Drivers/STM32F4xx_HAL_Driver/Src/stm32f4xx_hal_tim.c ****             the HAL_TIM_Base_MspDeInit could be implemented in the user file
 390:Drivers/STM32F4xx_HAL_Driver/Src/stm32f4xx_hal_tim.c ****    */
 391:Drivers/STM32F4xx_HAL_Driver/Src/stm32f4xx_hal_tim.c **** }
 307              		.loc 1 391 1
 308 0008 00BF     		nop
 309 000a 0C37     		adds	r7, r7, #12
 310              	.LCFI19:
 311              		.cfi_def_cfa_offset 4
 312 000c BD46     		mov	sp, r7
 313              	.LCFI20:
 314              		.cfi_def_cfa_register 13
 315              		@ sp needed
 316 000e 5DF8047B 		ldr	r7, [sp], #4
 317              	.LCFI21:
 318              		.cfi_restore 7
 319              		.cfi_def_cfa_offset 0
 320 0012 7047     		bx	lr
 321              		.cfi_endproc
 322              	.LFE219:
 324              		.section	.text.HAL_TIM_Base_Start,"ax",%progbits
 325              		.align	1
 326              		.global	HAL_TIM_Base_Start
 327              		.syntax unified
 328              		.thumb
 329              		.thumb_func
 331              	HAL_TIM_Base_Start:
 332              	.LFB220:
 392:Drivers/STM32F4xx_HAL_Driver/Src/stm32f4xx_hal_tim.c **** 
 393:Drivers/STM32F4xx_HAL_Driver/Src/stm32f4xx_hal_tim.c **** 
 394:Drivers/STM32F4xx_HAL_Driver/Src/stm32f4xx_hal_tim.c **** /**
 395:Drivers/STM32F4xx_HAL_Driver/Src/stm32f4xx_hal_tim.c ****   * @brief  Starts the TIM Base generation.
 396:Drivers/STM32F4xx_HAL_Driver/Src/stm32f4xx_hal_tim.c ****   * @param  htim TIM Base handle
 397:Drivers/STM32F4xx_HAL_Driver/Src/stm32f4xx_hal_tim.c ****   * @retval HAL status
 398:Drivers/STM32F4xx_HAL_Driver/Src/stm32f4xx_hal_tim.c ****   */
 399:Drivers/STM32F4xx_HAL_Driver/Src/stm32f4xx_hal_tim.c **** HAL_StatusTypeDef HAL_TIM_Base_Start(TIM_HandleTypeDef *htim)
 400:Drivers/STM32F4xx_HAL_Driver/Src/stm32f4xx_hal_tim.c **** {
 333              		.loc 1 400 1
 334              		.cfi_startproc
 335              		@ args = 0, pretend = 0, frame = 16
 336              		@ frame_needed = 1, uses_anonymous_args = 0
 337              		@ link register save eliminated.
 338 0000 80B4     		push	{r7}
 339              	.LCFI22:
 340              		.cfi_def_cfa_offset 4
 341              		.cfi_offset 7, -4
 342 0002 85B0     		sub	sp, sp, #20
 343              	.LCFI23:
 344              		.cfi_def_cfa_offset 24
 345 0004 00AF     		add	r7, sp, #0
 346              	.LCFI24:
 347              		.cfi_def_cfa_register 7
 348 0006 7860     		str	r0, [r7, #4]
 401:Drivers/STM32F4xx_HAL_Driver/Src/stm32f4xx_hal_tim.c ****   uint32_t tmpsmcr;
 402:Drivers/STM32F4xx_HAL_Driver/Src/stm32f4xx_hal_tim.c **** 
ARM GAS  /tmp/ccL5e6Lm.s 			page 14


 403:Drivers/STM32F4xx_HAL_Driver/Src/stm32f4xx_hal_tim.c ****   /* Check the parameters */
 404:Drivers/STM32F4xx_HAL_Driver/Src/stm32f4xx_hal_tim.c ****   assert_param(IS_TIM_INSTANCE(htim->Instance));
 405:Drivers/STM32F4xx_HAL_Driver/Src/stm32f4xx_hal_tim.c **** 
 406:Drivers/STM32F4xx_HAL_Driver/Src/stm32f4xx_hal_tim.c ****   /* Check the TIM state */
 407:Drivers/STM32F4xx_HAL_Driver/Src/stm32f4xx_hal_tim.c ****   if (htim->State != HAL_TIM_STATE_READY)
 349              		.loc 1 407 11
 350 0008 7B68     		ldr	r3, [r7, #4]
 351 000a 93F83D30 		ldrb	r3, [r3, #61]
 352 000e DBB2     		uxtb	r3, r3
 353              		.loc 1 407 6
 354 0010 012B     		cmp	r3, #1
 355 0012 01D0     		beq	.L11
 408:Drivers/STM32F4xx_HAL_Driver/Src/stm32f4xx_hal_tim.c ****   {
 409:Drivers/STM32F4xx_HAL_Driver/Src/stm32f4xx_hal_tim.c ****     return HAL_ERROR;
 356              		.loc 1 409 12
 357 0014 0123     		movs	r3, #1
 358 0016 3CE0     		b	.L12
 359              	.L11:
 410:Drivers/STM32F4xx_HAL_Driver/Src/stm32f4xx_hal_tim.c ****   }
 411:Drivers/STM32F4xx_HAL_Driver/Src/stm32f4xx_hal_tim.c **** 
 412:Drivers/STM32F4xx_HAL_Driver/Src/stm32f4xx_hal_tim.c ****   /* Set the TIM state */
 413:Drivers/STM32F4xx_HAL_Driver/Src/stm32f4xx_hal_tim.c ****   htim->State = HAL_TIM_STATE_BUSY;
 360              		.loc 1 413 15
 361 0018 7B68     		ldr	r3, [r7, #4]
 362 001a 0222     		movs	r2, #2
 363 001c 83F83D20 		strb	r2, [r3, #61]
 414:Drivers/STM32F4xx_HAL_Driver/Src/stm32f4xx_hal_tim.c **** 
 415:Drivers/STM32F4xx_HAL_Driver/Src/stm32f4xx_hal_tim.c ****   /* Enable the Peripheral, except in trigger mode where enable is automatically done with trigger 
 416:Drivers/STM32F4xx_HAL_Driver/Src/stm32f4xx_hal_tim.c ****   if (IS_TIM_SLAVE_INSTANCE(htim->Instance))
 364              		.loc 1 416 7
 365 0020 7B68     		ldr	r3, [r7, #4]
 366 0022 1B68     		ldr	r3, [r3]
 367              		.loc 1 416 6
 368 0024 1E4A     		ldr	r2, .L17
 369 0026 9342     		cmp	r3, r2
 370 0028 18D0     		beq	.L13
 371              		.loc 1 416 7 discriminator 1
 372 002a 7B68     		ldr	r3, [r7, #4]
 373 002c 1B68     		ldr	r3, [r3]
 374 002e B3F1804F 		cmp	r3, #1073741824
 375 0032 13D0     		beq	.L13
 376              		.loc 1 416 7 is_stmt 0 discriminator 2
 377 0034 7B68     		ldr	r3, [r7, #4]
 378 0036 1B68     		ldr	r3, [r3]
 379 0038 1A4A     		ldr	r2, .L17+4
 380 003a 9342     		cmp	r3, r2
 381 003c 0ED0     		beq	.L13
 382              		.loc 1 416 7 discriminator 3
 383 003e 7B68     		ldr	r3, [r7, #4]
 384 0040 1B68     		ldr	r3, [r3]
 385 0042 194A     		ldr	r2, .L17+8
 386 0044 9342     		cmp	r3, r2
 387 0046 09D0     		beq	.L13
 388              		.loc 1 416 7 discriminator 4
 389 0048 7B68     		ldr	r3, [r7, #4]
 390 004a 1B68     		ldr	r3, [r3]
 391 004c 174A     		ldr	r2, .L17+12
ARM GAS  /tmp/ccL5e6Lm.s 			page 15


 392 004e 9342     		cmp	r3, r2
 393 0050 04D0     		beq	.L13
 394              		.loc 1 416 7 discriminator 5
 395 0052 7B68     		ldr	r3, [r7, #4]
 396 0054 1B68     		ldr	r3, [r3]
 397 0056 164A     		ldr	r2, .L17+16
 398 0058 9342     		cmp	r3, r2
 399 005a 11D1     		bne	.L14
 400              	.L13:
 417:Drivers/STM32F4xx_HAL_Driver/Src/stm32f4xx_hal_tim.c ****   {
 418:Drivers/STM32F4xx_HAL_Driver/Src/stm32f4xx_hal_tim.c ****     tmpsmcr = htim->Instance->SMCR & TIM_SMCR_SMS;
 401              		.loc 1 418 19 is_stmt 1
 402 005c 7B68     		ldr	r3, [r7, #4]
 403 005e 1B68     		ldr	r3, [r3]
 404              		.loc 1 418 29
 405 0060 9B68     		ldr	r3, [r3, #8]
 406              		.loc 1 418 13
 407 0062 03F00703 		and	r3, r3, #7
 408 0066 FB60     		str	r3, [r7, #12]
 419:Drivers/STM32F4xx_HAL_Driver/Src/stm32f4xx_hal_tim.c ****     if (!IS_TIM_SLAVEMODE_TRIGGER_ENABLED(tmpsmcr))
 409              		.loc 1 419 8
 410 0068 FB68     		ldr	r3, [r7, #12]
 411 006a 062B     		cmp	r3, #6
 412 006c 10D0     		beq	.L16
 420:Drivers/STM32F4xx_HAL_Driver/Src/stm32f4xx_hal_tim.c ****     {
 421:Drivers/STM32F4xx_HAL_Driver/Src/stm32f4xx_hal_tim.c ****       __HAL_TIM_ENABLE(htim);
 413              		.loc 1 421 7
 414 006e 7B68     		ldr	r3, [r7, #4]
 415 0070 1B68     		ldr	r3, [r3]
 416 0072 1A68     		ldr	r2, [r3]
 417 0074 7B68     		ldr	r3, [r7, #4]
 418 0076 1B68     		ldr	r3, [r3]
 419 0078 42F00102 		orr	r2, r2, #1
 420 007c 1A60     		str	r2, [r3]
 419:Drivers/STM32F4xx_HAL_Driver/Src/stm32f4xx_hal_tim.c ****     if (!IS_TIM_SLAVEMODE_TRIGGER_ENABLED(tmpsmcr))
 421              		.loc 1 419 8
 422 007e 07E0     		b	.L16
 423              	.L14:
 422:Drivers/STM32F4xx_HAL_Driver/Src/stm32f4xx_hal_tim.c ****     }
 423:Drivers/STM32F4xx_HAL_Driver/Src/stm32f4xx_hal_tim.c ****   }
 424:Drivers/STM32F4xx_HAL_Driver/Src/stm32f4xx_hal_tim.c ****   else
 425:Drivers/STM32F4xx_HAL_Driver/Src/stm32f4xx_hal_tim.c ****   {
 426:Drivers/STM32F4xx_HAL_Driver/Src/stm32f4xx_hal_tim.c ****     __HAL_TIM_ENABLE(htim);
 424              		.loc 1 426 5
 425 0080 7B68     		ldr	r3, [r7, #4]
 426 0082 1B68     		ldr	r3, [r3]
 427 0084 1A68     		ldr	r2, [r3]
 428 0086 7B68     		ldr	r3, [r7, #4]
 429 0088 1B68     		ldr	r3, [r3]
 430 008a 42F00102 		orr	r2, r2, #1
 431 008e 1A60     		str	r2, [r3]
 432              	.L16:
 427:Drivers/STM32F4xx_HAL_Driver/Src/stm32f4xx_hal_tim.c ****   }
 428:Drivers/STM32F4xx_HAL_Driver/Src/stm32f4xx_hal_tim.c **** 
 429:Drivers/STM32F4xx_HAL_Driver/Src/stm32f4xx_hal_tim.c ****   /* Return function status */
 430:Drivers/STM32F4xx_HAL_Driver/Src/stm32f4xx_hal_tim.c ****   return HAL_OK;
 433              		.loc 1 430 10
ARM GAS  /tmp/ccL5e6Lm.s 			page 16


 434 0090 0023     		movs	r3, #0
 435              	.L12:
 431:Drivers/STM32F4xx_HAL_Driver/Src/stm32f4xx_hal_tim.c **** }
 436              		.loc 1 431 1
 437 0092 1846     		mov	r0, r3
 438 0094 1437     		adds	r7, r7, #20
 439              	.LCFI25:
 440              		.cfi_def_cfa_offset 4
 441 0096 BD46     		mov	sp, r7
 442              	.LCFI26:
 443              		.cfi_def_cfa_register 13
 444              		@ sp needed
 445 0098 5DF8047B 		ldr	r7, [sp], #4
 446              	.LCFI27:
 447              		.cfi_restore 7
 448              		.cfi_def_cfa_offset 0
 449 009c 7047     		bx	lr
 450              	.L18:
 451 009e 00BF     		.align	2
 452              	.L17:
 453 00a0 00000140 		.word	1073807360
 454 00a4 00040040 		.word	1073742848
 455 00a8 00080040 		.word	1073743872
 456 00ac 000C0040 		.word	1073744896
 457 00b0 00400140 		.word	1073823744
 458              		.cfi_endproc
 459              	.LFE220:
 461              		.section	.text.HAL_TIM_Base_Stop,"ax",%progbits
 462              		.align	1
 463              		.global	HAL_TIM_Base_Stop
 464              		.syntax unified
 465              		.thumb
 466              		.thumb_func
 468              	HAL_TIM_Base_Stop:
 469              	.LFB221:
 432:Drivers/STM32F4xx_HAL_Driver/Src/stm32f4xx_hal_tim.c **** 
 433:Drivers/STM32F4xx_HAL_Driver/Src/stm32f4xx_hal_tim.c **** /**
 434:Drivers/STM32F4xx_HAL_Driver/Src/stm32f4xx_hal_tim.c ****   * @brief  Stops the TIM Base generation.
 435:Drivers/STM32F4xx_HAL_Driver/Src/stm32f4xx_hal_tim.c ****   * @param  htim TIM Base handle
 436:Drivers/STM32F4xx_HAL_Driver/Src/stm32f4xx_hal_tim.c ****   * @retval HAL status
 437:Drivers/STM32F4xx_HAL_Driver/Src/stm32f4xx_hal_tim.c ****   */
 438:Drivers/STM32F4xx_HAL_Driver/Src/stm32f4xx_hal_tim.c **** HAL_StatusTypeDef HAL_TIM_Base_Stop(TIM_HandleTypeDef *htim)
 439:Drivers/STM32F4xx_HAL_Driver/Src/stm32f4xx_hal_tim.c **** {
 470              		.loc 1 439 1
 471              		.cfi_startproc
 472              		@ args = 0, pretend = 0, frame = 8
 473              		@ frame_needed = 1, uses_anonymous_args = 0
 474              		@ link register save eliminated.
 475 0000 80B4     		push	{r7}
 476              	.LCFI28:
 477              		.cfi_def_cfa_offset 4
 478              		.cfi_offset 7, -4
 479 0002 83B0     		sub	sp, sp, #12
 480              	.LCFI29:
 481              		.cfi_def_cfa_offset 16
 482 0004 00AF     		add	r7, sp, #0
 483              	.LCFI30:
ARM GAS  /tmp/ccL5e6Lm.s 			page 17


 484              		.cfi_def_cfa_register 7
 485 0006 7860     		str	r0, [r7, #4]
 440:Drivers/STM32F4xx_HAL_Driver/Src/stm32f4xx_hal_tim.c ****   /* Check the parameters */
 441:Drivers/STM32F4xx_HAL_Driver/Src/stm32f4xx_hal_tim.c ****   assert_param(IS_TIM_INSTANCE(htim->Instance));
 442:Drivers/STM32F4xx_HAL_Driver/Src/stm32f4xx_hal_tim.c **** 
 443:Drivers/STM32F4xx_HAL_Driver/Src/stm32f4xx_hal_tim.c ****   /* Disable the Peripheral */
 444:Drivers/STM32F4xx_HAL_Driver/Src/stm32f4xx_hal_tim.c ****   __HAL_TIM_DISABLE(htim);
 486              		.loc 1 444 3
 487 0008 7B68     		ldr	r3, [r7, #4]
 488 000a 1B68     		ldr	r3, [r3]
 489 000c 1A6A     		ldr	r2, [r3, #32]
 490 000e 41F21113 		movw	r3, #4369
 491 0012 1340     		ands	r3, r3, r2
 492 0014 002B     		cmp	r3, #0
 493 0016 0FD1     		bne	.L20
 494              		.loc 1 444 3 is_stmt 0 discriminator 1
 495 0018 7B68     		ldr	r3, [r7, #4]
 496 001a 1B68     		ldr	r3, [r3]
 497 001c 1A6A     		ldr	r2, [r3, #32]
 498 001e 40F24443 		movw	r3, #1092
 499 0022 1340     		ands	r3, r3, r2
 500 0024 002B     		cmp	r3, #0
 501 0026 07D1     		bne	.L20
 502              		.loc 1 444 3 discriminator 2
 503 0028 7B68     		ldr	r3, [r7, #4]
 504 002a 1B68     		ldr	r3, [r3]
 505 002c 1A68     		ldr	r2, [r3]
 506 002e 7B68     		ldr	r3, [r7, #4]
 507 0030 1B68     		ldr	r3, [r3]
 508 0032 22F00102 		bic	r2, r2, #1
 509 0036 1A60     		str	r2, [r3]
 510              	.L20:
 445:Drivers/STM32F4xx_HAL_Driver/Src/stm32f4xx_hal_tim.c **** 
 446:Drivers/STM32F4xx_HAL_Driver/Src/stm32f4xx_hal_tim.c ****   /* Set the TIM state */
 447:Drivers/STM32F4xx_HAL_Driver/Src/stm32f4xx_hal_tim.c ****   htim->State = HAL_TIM_STATE_READY;
 511              		.loc 1 447 15 is_stmt 1
 512 0038 7B68     		ldr	r3, [r7, #4]
 513 003a 0122     		movs	r2, #1
 514 003c 83F83D20 		strb	r2, [r3, #61]
 448:Drivers/STM32F4xx_HAL_Driver/Src/stm32f4xx_hal_tim.c **** 
 449:Drivers/STM32F4xx_HAL_Driver/Src/stm32f4xx_hal_tim.c ****   /* Return function status */
 450:Drivers/STM32F4xx_HAL_Driver/Src/stm32f4xx_hal_tim.c ****   return HAL_OK;
 515              		.loc 1 450 10
 516 0040 0023     		movs	r3, #0
 451:Drivers/STM32F4xx_HAL_Driver/Src/stm32f4xx_hal_tim.c **** }
 517              		.loc 1 451 1
 518 0042 1846     		mov	r0, r3
 519 0044 0C37     		adds	r7, r7, #12
 520              	.LCFI31:
 521              		.cfi_def_cfa_offset 4
 522 0046 BD46     		mov	sp, r7
 523              	.LCFI32:
 524              		.cfi_def_cfa_register 13
 525              		@ sp needed
 526 0048 5DF8047B 		ldr	r7, [sp], #4
 527              	.LCFI33:
 528              		.cfi_restore 7
ARM GAS  /tmp/ccL5e6Lm.s 			page 18


 529              		.cfi_def_cfa_offset 0
 530 004c 7047     		bx	lr
 531              		.cfi_endproc
 532              	.LFE221:
 534              		.section	.text.HAL_TIM_Base_Start_IT,"ax",%progbits
 535              		.align	1
 536              		.global	HAL_TIM_Base_Start_IT
 537              		.syntax unified
 538              		.thumb
 539              		.thumb_func
 541              	HAL_TIM_Base_Start_IT:
 542              	.LFB222:
 452:Drivers/STM32F4xx_HAL_Driver/Src/stm32f4xx_hal_tim.c **** 
 453:Drivers/STM32F4xx_HAL_Driver/Src/stm32f4xx_hal_tim.c **** /**
 454:Drivers/STM32F4xx_HAL_Driver/Src/stm32f4xx_hal_tim.c ****   * @brief  Starts the TIM Base generation in interrupt mode.
 455:Drivers/STM32F4xx_HAL_Driver/Src/stm32f4xx_hal_tim.c ****   * @param  htim TIM Base handle
 456:Drivers/STM32F4xx_HAL_Driver/Src/stm32f4xx_hal_tim.c ****   * @retval HAL status
 457:Drivers/STM32F4xx_HAL_Driver/Src/stm32f4xx_hal_tim.c ****   */
 458:Drivers/STM32F4xx_HAL_Driver/Src/stm32f4xx_hal_tim.c **** HAL_StatusTypeDef HAL_TIM_Base_Start_IT(TIM_HandleTypeDef *htim)
 459:Drivers/STM32F4xx_HAL_Driver/Src/stm32f4xx_hal_tim.c **** {
 543              		.loc 1 459 1
 544              		.cfi_startproc
 545              		@ args = 0, pretend = 0, frame = 16
 546              		@ frame_needed = 1, uses_anonymous_args = 0
 547              		@ link register save eliminated.
 548 0000 80B4     		push	{r7}
 549              	.LCFI34:
 550              		.cfi_def_cfa_offset 4
 551              		.cfi_offset 7, -4
 552 0002 85B0     		sub	sp, sp, #20
 553              	.LCFI35:
 554              		.cfi_def_cfa_offset 24
 555 0004 00AF     		add	r7, sp, #0
 556              	.LCFI36:
 557              		.cfi_def_cfa_register 7
 558 0006 7860     		str	r0, [r7, #4]
 460:Drivers/STM32F4xx_HAL_Driver/Src/stm32f4xx_hal_tim.c ****   uint32_t tmpsmcr;
 461:Drivers/STM32F4xx_HAL_Driver/Src/stm32f4xx_hal_tim.c **** 
 462:Drivers/STM32F4xx_HAL_Driver/Src/stm32f4xx_hal_tim.c ****   /* Check the parameters */
 463:Drivers/STM32F4xx_HAL_Driver/Src/stm32f4xx_hal_tim.c ****   assert_param(IS_TIM_INSTANCE(htim->Instance));
 464:Drivers/STM32F4xx_HAL_Driver/Src/stm32f4xx_hal_tim.c **** 
 465:Drivers/STM32F4xx_HAL_Driver/Src/stm32f4xx_hal_tim.c ****   /* Check the TIM state */
 466:Drivers/STM32F4xx_HAL_Driver/Src/stm32f4xx_hal_tim.c ****   if (htim->State != HAL_TIM_STATE_READY)
 559              		.loc 1 466 11
 560 0008 7B68     		ldr	r3, [r7, #4]
 561 000a 93F83D30 		ldrb	r3, [r3, #61]
 562 000e DBB2     		uxtb	r3, r3
 563              		.loc 1 466 6
 564 0010 012B     		cmp	r3, #1
 565 0012 01D0     		beq	.L23
 467:Drivers/STM32F4xx_HAL_Driver/Src/stm32f4xx_hal_tim.c ****   {
 468:Drivers/STM32F4xx_HAL_Driver/Src/stm32f4xx_hal_tim.c ****     return HAL_ERROR;
 566              		.loc 1 468 12
 567 0014 0123     		movs	r3, #1
 568 0016 44E0     		b	.L24
 569              	.L23:
 469:Drivers/STM32F4xx_HAL_Driver/Src/stm32f4xx_hal_tim.c ****   }
ARM GAS  /tmp/ccL5e6Lm.s 			page 19


 470:Drivers/STM32F4xx_HAL_Driver/Src/stm32f4xx_hal_tim.c **** 
 471:Drivers/STM32F4xx_HAL_Driver/Src/stm32f4xx_hal_tim.c ****   /* Set the TIM state */
 472:Drivers/STM32F4xx_HAL_Driver/Src/stm32f4xx_hal_tim.c ****   htim->State = HAL_TIM_STATE_BUSY;
 570              		.loc 1 472 15
 571 0018 7B68     		ldr	r3, [r7, #4]
 572 001a 0222     		movs	r2, #2
 573 001c 83F83D20 		strb	r2, [r3, #61]
 473:Drivers/STM32F4xx_HAL_Driver/Src/stm32f4xx_hal_tim.c **** 
 474:Drivers/STM32F4xx_HAL_Driver/Src/stm32f4xx_hal_tim.c ****   /* Enable the TIM Update interrupt */
 475:Drivers/STM32F4xx_HAL_Driver/Src/stm32f4xx_hal_tim.c ****   __HAL_TIM_ENABLE_IT(htim, TIM_IT_UPDATE);
 574              		.loc 1 475 3
 575 0020 7B68     		ldr	r3, [r7, #4]
 576 0022 1B68     		ldr	r3, [r3]
 577 0024 DA68     		ldr	r2, [r3, #12]
 578 0026 7B68     		ldr	r3, [r7, #4]
 579 0028 1B68     		ldr	r3, [r3]
 580 002a 42F00102 		orr	r2, r2, #1
 581 002e DA60     		str	r2, [r3, #12]
 476:Drivers/STM32F4xx_HAL_Driver/Src/stm32f4xx_hal_tim.c **** 
 477:Drivers/STM32F4xx_HAL_Driver/Src/stm32f4xx_hal_tim.c ****   /* Enable the Peripheral, except in trigger mode where enable is automatically done with trigger 
 478:Drivers/STM32F4xx_HAL_Driver/Src/stm32f4xx_hal_tim.c ****   if (IS_TIM_SLAVE_INSTANCE(htim->Instance))
 582              		.loc 1 478 7
 583 0030 7B68     		ldr	r3, [r7, #4]
 584 0032 1B68     		ldr	r3, [r3]
 585              		.loc 1 478 6
 586 0034 1E4A     		ldr	r2, .L29
 587 0036 9342     		cmp	r3, r2
 588 0038 18D0     		beq	.L25
 589              		.loc 1 478 7 discriminator 1
 590 003a 7B68     		ldr	r3, [r7, #4]
 591 003c 1B68     		ldr	r3, [r3]
 592 003e B3F1804F 		cmp	r3, #1073741824
 593 0042 13D0     		beq	.L25
 594              		.loc 1 478 7 is_stmt 0 discriminator 2
 595 0044 7B68     		ldr	r3, [r7, #4]
 596 0046 1B68     		ldr	r3, [r3]
 597 0048 1A4A     		ldr	r2, .L29+4
 598 004a 9342     		cmp	r3, r2
 599 004c 0ED0     		beq	.L25
 600              		.loc 1 478 7 discriminator 3
 601 004e 7B68     		ldr	r3, [r7, #4]
 602 0050 1B68     		ldr	r3, [r3]
 603 0052 194A     		ldr	r2, .L29+8
 604 0054 9342     		cmp	r3, r2
 605 0056 09D0     		beq	.L25
 606              		.loc 1 478 7 discriminator 4
 607 0058 7B68     		ldr	r3, [r7, #4]
 608 005a 1B68     		ldr	r3, [r3]
 609 005c 174A     		ldr	r2, .L29+12
 610 005e 9342     		cmp	r3, r2
 611 0060 04D0     		beq	.L25
 612              		.loc 1 478 7 discriminator 5
 613 0062 7B68     		ldr	r3, [r7, #4]
 614 0064 1B68     		ldr	r3, [r3]
 615 0066 164A     		ldr	r2, .L29+16
 616 0068 9342     		cmp	r3, r2
 617 006a 11D1     		bne	.L26
ARM GAS  /tmp/ccL5e6Lm.s 			page 20


 618              	.L25:
 479:Drivers/STM32F4xx_HAL_Driver/Src/stm32f4xx_hal_tim.c ****   {
 480:Drivers/STM32F4xx_HAL_Driver/Src/stm32f4xx_hal_tim.c ****     tmpsmcr = htim->Instance->SMCR & TIM_SMCR_SMS;
 619              		.loc 1 480 19 is_stmt 1
 620 006c 7B68     		ldr	r3, [r7, #4]
 621 006e 1B68     		ldr	r3, [r3]
 622              		.loc 1 480 29
 623 0070 9B68     		ldr	r3, [r3, #8]
 624              		.loc 1 480 13
 625 0072 03F00703 		and	r3, r3, #7
 626 0076 FB60     		str	r3, [r7, #12]
 481:Drivers/STM32F4xx_HAL_Driver/Src/stm32f4xx_hal_tim.c ****     if (!IS_TIM_SLAVEMODE_TRIGGER_ENABLED(tmpsmcr))
 627              		.loc 1 481 8
 628 0078 FB68     		ldr	r3, [r7, #12]
 629 007a 062B     		cmp	r3, #6
 630 007c 10D0     		beq	.L28
 482:Drivers/STM32F4xx_HAL_Driver/Src/stm32f4xx_hal_tim.c ****     {
 483:Drivers/STM32F4xx_HAL_Driver/Src/stm32f4xx_hal_tim.c ****       __HAL_TIM_ENABLE(htim);
 631              		.loc 1 483 7
 632 007e 7B68     		ldr	r3, [r7, #4]
 633 0080 1B68     		ldr	r3, [r3]
 634 0082 1A68     		ldr	r2, [r3]
 635 0084 7B68     		ldr	r3, [r7, #4]
 636 0086 1B68     		ldr	r3, [r3]
 637 0088 42F00102 		orr	r2, r2, #1
 638 008c 1A60     		str	r2, [r3]
 481:Drivers/STM32F4xx_HAL_Driver/Src/stm32f4xx_hal_tim.c ****     if (!IS_TIM_SLAVEMODE_TRIGGER_ENABLED(tmpsmcr))
 639              		.loc 1 481 8
 640 008e 07E0     		b	.L28
 641              	.L26:
 484:Drivers/STM32F4xx_HAL_Driver/Src/stm32f4xx_hal_tim.c ****     }
 485:Drivers/STM32F4xx_HAL_Driver/Src/stm32f4xx_hal_tim.c ****   }
 486:Drivers/STM32F4xx_HAL_Driver/Src/stm32f4xx_hal_tim.c ****   else
 487:Drivers/STM32F4xx_HAL_Driver/Src/stm32f4xx_hal_tim.c ****   {
 488:Drivers/STM32F4xx_HAL_Driver/Src/stm32f4xx_hal_tim.c ****     __HAL_TIM_ENABLE(htim);
 642              		.loc 1 488 5
 643 0090 7B68     		ldr	r3, [r7, #4]
 644 0092 1B68     		ldr	r3, [r3]
 645 0094 1A68     		ldr	r2, [r3]
 646 0096 7B68     		ldr	r3, [r7, #4]
 647 0098 1B68     		ldr	r3, [r3]
 648 009a 42F00102 		orr	r2, r2, #1
 649 009e 1A60     		str	r2, [r3]
 650              	.L28:
 489:Drivers/STM32F4xx_HAL_Driver/Src/stm32f4xx_hal_tim.c ****   }
 490:Drivers/STM32F4xx_HAL_Driver/Src/stm32f4xx_hal_tim.c **** 
 491:Drivers/STM32F4xx_HAL_Driver/Src/stm32f4xx_hal_tim.c ****   /* Return function status */
 492:Drivers/STM32F4xx_HAL_Driver/Src/stm32f4xx_hal_tim.c ****   return HAL_OK;
 651              		.loc 1 492 10
 652 00a0 0023     		movs	r3, #0
 653              	.L24:
 493:Drivers/STM32F4xx_HAL_Driver/Src/stm32f4xx_hal_tim.c **** }
 654              		.loc 1 493 1
 655 00a2 1846     		mov	r0, r3
 656 00a4 1437     		adds	r7, r7, #20
 657              	.LCFI37:
 658              		.cfi_def_cfa_offset 4
ARM GAS  /tmp/ccL5e6Lm.s 			page 21


 659 00a6 BD46     		mov	sp, r7
 660              	.LCFI38:
 661              		.cfi_def_cfa_register 13
 662              		@ sp needed
 663 00a8 5DF8047B 		ldr	r7, [sp], #4
 664              	.LCFI39:
 665              		.cfi_restore 7
 666              		.cfi_def_cfa_offset 0
 667 00ac 7047     		bx	lr
 668              	.L30:
 669 00ae 00BF     		.align	2
 670              	.L29:
 671 00b0 00000140 		.word	1073807360
 672 00b4 00040040 		.word	1073742848
 673 00b8 00080040 		.word	1073743872
 674 00bc 000C0040 		.word	1073744896
 675 00c0 00400140 		.word	1073823744
 676              		.cfi_endproc
 677              	.LFE222:
 679              		.section	.text.HAL_TIM_Base_Stop_IT,"ax",%progbits
 680              		.align	1
 681              		.global	HAL_TIM_Base_Stop_IT
 682              		.syntax unified
 683              		.thumb
 684              		.thumb_func
 686              	HAL_TIM_Base_Stop_IT:
 687              	.LFB223:
 494:Drivers/STM32F4xx_HAL_Driver/Src/stm32f4xx_hal_tim.c **** 
 495:Drivers/STM32F4xx_HAL_Driver/Src/stm32f4xx_hal_tim.c **** /**
 496:Drivers/STM32F4xx_HAL_Driver/Src/stm32f4xx_hal_tim.c ****   * @brief  Stops the TIM Base generation in interrupt mode.
 497:Drivers/STM32F4xx_HAL_Driver/Src/stm32f4xx_hal_tim.c ****   * @param  htim TIM Base handle
 498:Drivers/STM32F4xx_HAL_Driver/Src/stm32f4xx_hal_tim.c ****   * @retval HAL status
 499:Drivers/STM32F4xx_HAL_Driver/Src/stm32f4xx_hal_tim.c ****   */
 500:Drivers/STM32F4xx_HAL_Driver/Src/stm32f4xx_hal_tim.c **** HAL_StatusTypeDef HAL_TIM_Base_Stop_IT(TIM_HandleTypeDef *htim)
 501:Drivers/STM32F4xx_HAL_Driver/Src/stm32f4xx_hal_tim.c **** {
 688              		.loc 1 501 1
 689              		.cfi_startproc
 690              		@ args = 0, pretend = 0, frame = 8
 691              		@ frame_needed = 1, uses_anonymous_args = 0
 692              		@ link register save eliminated.
 693 0000 80B4     		push	{r7}
 694              	.LCFI40:
 695              		.cfi_def_cfa_offset 4
 696              		.cfi_offset 7, -4
 697 0002 83B0     		sub	sp, sp, #12
 698              	.LCFI41:
 699              		.cfi_def_cfa_offset 16
 700 0004 00AF     		add	r7, sp, #0
 701              	.LCFI42:
 702              		.cfi_def_cfa_register 7
 703 0006 7860     		str	r0, [r7, #4]
 502:Drivers/STM32F4xx_HAL_Driver/Src/stm32f4xx_hal_tim.c ****   /* Check the parameters */
 503:Drivers/STM32F4xx_HAL_Driver/Src/stm32f4xx_hal_tim.c ****   assert_param(IS_TIM_INSTANCE(htim->Instance));
 504:Drivers/STM32F4xx_HAL_Driver/Src/stm32f4xx_hal_tim.c **** 
 505:Drivers/STM32F4xx_HAL_Driver/Src/stm32f4xx_hal_tim.c ****   /* Disable the TIM Update interrupt */
 506:Drivers/STM32F4xx_HAL_Driver/Src/stm32f4xx_hal_tim.c ****   __HAL_TIM_DISABLE_IT(htim, TIM_IT_UPDATE);
 704              		.loc 1 506 3
ARM GAS  /tmp/ccL5e6Lm.s 			page 22


 705 0008 7B68     		ldr	r3, [r7, #4]
 706 000a 1B68     		ldr	r3, [r3]
 707 000c DA68     		ldr	r2, [r3, #12]
 708 000e 7B68     		ldr	r3, [r7, #4]
 709 0010 1B68     		ldr	r3, [r3]
 710 0012 22F00102 		bic	r2, r2, #1
 711 0016 DA60     		str	r2, [r3, #12]
 507:Drivers/STM32F4xx_HAL_Driver/Src/stm32f4xx_hal_tim.c **** 
 508:Drivers/STM32F4xx_HAL_Driver/Src/stm32f4xx_hal_tim.c ****   /* Disable the Peripheral */
 509:Drivers/STM32F4xx_HAL_Driver/Src/stm32f4xx_hal_tim.c ****   __HAL_TIM_DISABLE(htim);
 712              		.loc 1 509 3
 713 0018 7B68     		ldr	r3, [r7, #4]
 714 001a 1B68     		ldr	r3, [r3]
 715 001c 1A6A     		ldr	r2, [r3, #32]
 716 001e 41F21113 		movw	r3, #4369
 717 0022 1340     		ands	r3, r3, r2
 718 0024 002B     		cmp	r3, #0
 719 0026 0FD1     		bne	.L32
 720              		.loc 1 509 3 is_stmt 0 discriminator 1
 721 0028 7B68     		ldr	r3, [r7, #4]
 722 002a 1B68     		ldr	r3, [r3]
 723 002c 1A6A     		ldr	r2, [r3, #32]
 724 002e 40F24443 		movw	r3, #1092
 725 0032 1340     		ands	r3, r3, r2
 726 0034 002B     		cmp	r3, #0
 727 0036 07D1     		bne	.L32
 728              		.loc 1 509 3 discriminator 2
 729 0038 7B68     		ldr	r3, [r7, #4]
 730 003a 1B68     		ldr	r3, [r3]
 731 003c 1A68     		ldr	r2, [r3]
 732 003e 7B68     		ldr	r3, [r7, #4]
 733 0040 1B68     		ldr	r3, [r3]
 734 0042 22F00102 		bic	r2, r2, #1
 735 0046 1A60     		str	r2, [r3]
 736              	.L32:
 510:Drivers/STM32F4xx_HAL_Driver/Src/stm32f4xx_hal_tim.c **** 
 511:Drivers/STM32F4xx_HAL_Driver/Src/stm32f4xx_hal_tim.c ****   /* Set the TIM state */
 512:Drivers/STM32F4xx_HAL_Driver/Src/stm32f4xx_hal_tim.c ****   htim->State = HAL_TIM_STATE_READY;
 737              		.loc 1 512 15 is_stmt 1
 738 0048 7B68     		ldr	r3, [r7, #4]
 739 004a 0122     		movs	r2, #1
 740 004c 83F83D20 		strb	r2, [r3, #61]
 513:Drivers/STM32F4xx_HAL_Driver/Src/stm32f4xx_hal_tim.c **** 
 514:Drivers/STM32F4xx_HAL_Driver/Src/stm32f4xx_hal_tim.c ****   /* Return function status */
 515:Drivers/STM32F4xx_HAL_Driver/Src/stm32f4xx_hal_tim.c ****   return HAL_OK;
 741              		.loc 1 515 10
 742 0050 0023     		movs	r3, #0
 516:Drivers/STM32F4xx_HAL_Driver/Src/stm32f4xx_hal_tim.c **** }
 743              		.loc 1 516 1
 744 0052 1846     		mov	r0, r3
 745 0054 0C37     		adds	r7, r7, #12
 746              	.LCFI43:
 747              		.cfi_def_cfa_offset 4
 748 0056 BD46     		mov	sp, r7
 749              	.LCFI44:
 750              		.cfi_def_cfa_register 13
 751              		@ sp needed
ARM GAS  /tmp/ccL5e6Lm.s 			page 23


 752 0058 5DF8047B 		ldr	r7, [sp], #4
 753              	.LCFI45:
 754              		.cfi_restore 7
 755              		.cfi_def_cfa_offset 0
 756 005c 7047     		bx	lr
 757              		.cfi_endproc
 758              	.LFE223:
 760              		.section	.text.HAL_TIM_Base_Start_DMA,"ax",%progbits
 761              		.align	1
 762              		.global	HAL_TIM_Base_Start_DMA
 763              		.syntax unified
 764              		.thumb
 765              		.thumb_func
 767              	HAL_TIM_Base_Start_DMA:
 768              	.LFB224:
 517:Drivers/STM32F4xx_HAL_Driver/Src/stm32f4xx_hal_tim.c **** 
 518:Drivers/STM32F4xx_HAL_Driver/Src/stm32f4xx_hal_tim.c **** /**
 519:Drivers/STM32F4xx_HAL_Driver/Src/stm32f4xx_hal_tim.c ****   * @brief  Starts the TIM Base generation in DMA mode.
 520:Drivers/STM32F4xx_HAL_Driver/Src/stm32f4xx_hal_tim.c ****   * @param  htim TIM Base handle
 521:Drivers/STM32F4xx_HAL_Driver/Src/stm32f4xx_hal_tim.c ****   * @param  pData The source Buffer address.
 522:Drivers/STM32F4xx_HAL_Driver/Src/stm32f4xx_hal_tim.c ****   * @param  Length The length of data to be transferred from memory to peripheral.
 523:Drivers/STM32F4xx_HAL_Driver/Src/stm32f4xx_hal_tim.c ****   * @retval HAL status
 524:Drivers/STM32F4xx_HAL_Driver/Src/stm32f4xx_hal_tim.c ****   */
 525:Drivers/STM32F4xx_HAL_Driver/Src/stm32f4xx_hal_tim.c **** HAL_StatusTypeDef HAL_TIM_Base_Start_DMA(TIM_HandleTypeDef *htim, uint32_t *pData, uint16_t Length)
 526:Drivers/STM32F4xx_HAL_Driver/Src/stm32f4xx_hal_tim.c **** {
 769              		.loc 1 526 1
 770              		.cfi_startproc
 771              		@ args = 0, pretend = 0, frame = 24
 772              		@ frame_needed = 1, uses_anonymous_args = 0
 773 0000 80B5     		push	{r7, lr}
 774              	.LCFI46:
 775              		.cfi_def_cfa_offset 8
 776              		.cfi_offset 7, -8
 777              		.cfi_offset 14, -4
 778 0002 86B0     		sub	sp, sp, #24
 779              	.LCFI47:
 780              		.cfi_def_cfa_offset 32
 781 0004 00AF     		add	r7, sp, #0
 782              	.LCFI48:
 783              		.cfi_def_cfa_register 7
 784 0006 F860     		str	r0, [r7, #12]
 785 0008 B960     		str	r1, [r7, #8]
 786 000a 1346     		mov	r3, r2
 787 000c FB80     		strh	r3, [r7, #6]	@ movhi
 527:Drivers/STM32F4xx_HAL_Driver/Src/stm32f4xx_hal_tim.c ****   uint32_t tmpsmcr;
 528:Drivers/STM32F4xx_HAL_Driver/Src/stm32f4xx_hal_tim.c **** 
 529:Drivers/STM32F4xx_HAL_Driver/Src/stm32f4xx_hal_tim.c ****   /* Check the parameters */
 530:Drivers/STM32F4xx_HAL_Driver/Src/stm32f4xx_hal_tim.c ****   assert_param(IS_TIM_DMA_INSTANCE(htim->Instance));
 531:Drivers/STM32F4xx_HAL_Driver/Src/stm32f4xx_hal_tim.c **** 
 532:Drivers/STM32F4xx_HAL_Driver/Src/stm32f4xx_hal_tim.c ****   /* Set the TIM state */
 533:Drivers/STM32F4xx_HAL_Driver/Src/stm32f4xx_hal_tim.c ****   if (htim->State == HAL_TIM_STATE_BUSY)
 788              		.loc 1 533 11
 789 000e FB68     		ldr	r3, [r7, #12]
 790 0010 93F83D30 		ldrb	r3, [r3, #61]
 791 0014 DBB2     		uxtb	r3, r3
 792              		.loc 1 533 6
 793 0016 022B     		cmp	r3, #2
ARM GAS  /tmp/ccL5e6Lm.s 			page 24


 794 0018 01D1     		bne	.L35
 534:Drivers/STM32F4xx_HAL_Driver/Src/stm32f4xx_hal_tim.c ****   {
 535:Drivers/STM32F4xx_HAL_Driver/Src/stm32f4xx_hal_tim.c ****     return HAL_BUSY;
 795              		.loc 1 535 12
 796 001a 0223     		movs	r3, #2
 797 001c 70E0     		b	.L36
 798              	.L35:
 536:Drivers/STM32F4xx_HAL_Driver/Src/stm32f4xx_hal_tim.c ****   }
 537:Drivers/STM32F4xx_HAL_Driver/Src/stm32f4xx_hal_tim.c ****   else if (htim->State == HAL_TIM_STATE_READY)
 799              		.loc 1 537 16
 800 001e FB68     		ldr	r3, [r7, #12]
 801 0020 93F83D30 		ldrb	r3, [r3, #61]
 802 0024 DBB2     		uxtb	r3, r3
 803              		.loc 1 537 11
 804 0026 012B     		cmp	r3, #1
 805 0028 25D1     		bne	.L37
 538:Drivers/STM32F4xx_HAL_Driver/Src/stm32f4xx_hal_tim.c ****   {
 539:Drivers/STM32F4xx_HAL_Driver/Src/stm32f4xx_hal_tim.c ****     if ((pData == NULL) && (Length > 0U))
 806              		.loc 1 539 8
 807 002a BB68     		ldr	r3, [r7, #8]
 808 002c 002B     		cmp	r3, #0
 809 002e 04D1     		bne	.L38
 810              		.loc 1 539 25 discriminator 1
 811 0030 FB88     		ldrh	r3, [r7, #6]
 812 0032 002B     		cmp	r3, #0
 813 0034 01D0     		beq	.L38
 540:Drivers/STM32F4xx_HAL_Driver/Src/stm32f4xx_hal_tim.c ****     {
 541:Drivers/STM32F4xx_HAL_Driver/Src/stm32f4xx_hal_tim.c ****       return HAL_ERROR;
 814              		.loc 1 541 14
 815 0036 0123     		movs	r3, #1
 816 0038 62E0     		b	.L36
 817              	.L38:
 542:Drivers/STM32F4xx_HAL_Driver/Src/stm32f4xx_hal_tim.c ****     }
 543:Drivers/STM32F4xx_HAL_Driver/Src/stm32f4xx_hal_tim.c ****     else
 544:Drivers/STM32F4xx_HAL_Driver/Src/stm32f4xx_hal_tim.c ****     {
 545:Drivers/STM32F4xx_HAL_Driver/Src/stm32f4xx_hal_tim.c ****       htim->State = HAL_TIM_STATE_BUSY;
 818              		.loc 1 545 19
 819 003a FB68     		ldr	r3, [r7, #12]
 820 003c 0222     		movs	r2, #2
 821 003e 83F83D20 		strb	r2, [r3, #61]
 546:Drivers/STM32F4xx_HAL_Driver/Src/stm32f4xx_hal_tim.c ****     }
 547:Drivers/STM32F4xx_HAL_Driver/Src/stm32f4xx_hal_tim.c ****   }
 548:Drivers/STM32F4xx_HAL_Driver/Src/stm32f4xx_hal_tim.c ****   else
 549:Drivers/STM32F4xx_HAL_Driver/Src/stm32f4xx_hal_tim.c ****   {
 550:Drivers/STM32F4xx_HAL_Driver/Src/stm32f4xx_hal_tim.c ****     return HAL_ERROR;
 551:Drivers/STM32F4xx_HAL_Driver/Src/stm32f4xx_hal_tim.c ****   }
 552:Drivers/STM32F4xx_HAL_Driver/Src/stm32f4xx_hal_tim.c **** 
 553:Drivers/STM32F4xx_HAL_Driver/Src/stm32f4xx_hal_tim.c ****   /* Set the DMA Period elapsed callbacks */
 554:Drivers/STM32F4xx_HAL_Driver/Src/stm32f4xx_hal_tim.c ****   htim->hdma[TIM_DMA_ID_UPDATE]->XferCpltCallback = TIM_DMAPeriodElapsedCplt;
 822              		.loc 1 554 13
 823 0042 FB68     		ldr	r3, [r7, #12]
 824 0044 1B6A     		ldr	r3, [r3, #32]
 825              		.loc 1 554 51
 826 0046 304A     		ldr	r2, .L46
 827 0048 DA63     		str	r2, [r3, #60]
 555:Drivers/STM32F4xx_HAL_Driver/Src/stm32f4xx_hal_tim.c ****   htim->hdma[TIM_DMA_ID_UPDATE]->XferHalfCpltCallback = TIM_DMAPeriodElapsedHalfCplt;
 828              		.loc 1 555 13
ARM GAS  /tmp/ccL5e6Lm.s 			page 25


 829 004a FB68     		ldr	r3, [r7, #12]
 830 004c 1B6A     		ldr	r3, [r3, #32]
 831              		.loc 1 555 55
 832 004e 2F4A     		ldr	r2, .L46+4
 833 0050 1A64     		str	r2, [r3, #64]
 556:Drivers/STM32F4xx_HAL_Driver/Src/stm32f4xx_hal_tim.c **** 
 557:Drivers/STM32F4xx_HAL_Driver/Src/stm32f4xx_hal_tim.c ****   /* Set the DMA error callback */
 558:Drivers/STM32F4xx_HAL_Driver/Src/stm32f4xx_hal_tim.c ****   htim->hdma[TIM_DMA_ID_UPDATE]->XferErrorCallback = TIM_DMAError ;
 834              		.loc 1 558 13
 835 0052 FB68     		ldr	r3, [r7, #12]
 836 0054 1B6A     		ldr	r3, [r3, #32]
 837              		.loc 1 558 52
 838 0056 2E4A     		ldr	r2, .L46+8
 839 0058 DA64     		str	r2, [r3, #76]
 559:Drivers/STM32F4xx_HAL_Driver/Src/stm32f4xx_hal_tim.c **** 
 560:Drivers/STM32F4xx_HAL_Driver/Src/stm32f4xx_hal_tim.c ****   /* Enable the DMA stream */
 561:Drivers/STM32F4xx_HAL_Driver/Src/stm32f4xx_hal_tim.c ****   if (HAL_DMA_Start_IT(htim->hdma[TIM_DMA_ID_UPDATE], (uint32_t)pData, (uint32_t)&htim->Instance->A
 840              		.loc 1 561 7
 841 005a FB68     		ldr	r3, [r7, #12]
 842 005c 186A     		ldr	r0, [r3, #32]
 843 005e B968     		ldr	r1, [r7, #8]
 844              		.loc 1 561 87
 845 0060 FB68     		ldr	r3, [r7, #12]
 846 0062 1B68     		ldr	r3, [r3]
 847              		.loc 1 561 82
 848 0064 2C33     		adds	r3, r3, #44
 849              		.loc 1 561 7
 850 0066 1A46     		mov	r2, r3
 851 0068 FB88     		ldrh	r3, [r7, #6]
 852 006a FFF7FEFF 		bl	HAL_DMA_Start_IT
 853 006e 0346     		mov	r3, r0
 854              		.loc 1 561 6
 855 0070 002B     		cmp	r3, #0
 856 0072 04D0     		beq	.L40
 857 0074 01E0     		b	.L45
 858              	.L37:
 550:Drivers/STM32F4xx_HAL_Driver/Src/stm32f4xx_hal_tim.c ****   }
 859              		.loc 1 550 12
 860 0076 0123     		movs	r3, #1
 861 0078 42E0     		b	.L36
 862              	.L45:
 562:Drivers/STM32F4xx_HAL_Driver/Src/stm32f4xx_hal_tim.c ****                        Length) != HAL_OK)
 563:Drivers/STM32F4xx_HAL_Driver/Src/stm32f4xx_hal_tim.c ****   {
 564:Drivers/STM32F4xx_HAL_Driver/Src/stm32f4xx_hal_tim.c ****     /* Return error status */
 565:Drivers/STM32F4xx_HAL_Driver/Src/stm32f4xx_hal_tim.c ****     return HAL_ERROR;
 863              		.loc 1 565 12
 864 007a 0123     		movs	r3, #1
 865 007c 40E0     		b	.L36
 866              	.L40:
 566:Drivers/STM32F4xx_HAL_Driver/Src/stm32f4xx_hal_tim.c ****   }
 567:Drivers/STM32F4xx_HAL_Driver/Src/stm32f4xx_hal_tim.c **** 
 568:Drivers/STM32F4xx_HAL_Driver/Src/stm32f4xx_hal_tim.c ****   /* Enable the TIM Update DMA request */
 569:Drivers/STM32F4xx_HAL_Driver/Src/stm32f4xx_hal_tim.c ****   __HAL_TIM_ENABLE_DMA(htim, TIM_DMA_UPDATE);
 867              		.loc 1 569 3
 868 007e FB68     		ldr	r3, [r7, #12]
 869 0080 1B68     		ldr	r3, [r3]
 870 0082 DA68     		ldr	r2, [r3, #12]
ARM GAS  /tmp/ccL5e6Lm.s 			page 26


 871 0084 FB68     		ldr	r3, [r7, #12]
 872 0086 1B68     		ldr	r3, [r3]
 873 0088 42F48072 		orr	r2, r2, #256
 874 008c DA60     		str	r2, [r3, #12]
 570:Drivers/STM32F4xx_HAL_Driver/Src/stm32f4xx_hal_tim.c **** 
 571:Drivers/STM32F4xx_HAL_Driver/Src/stm32f4xx_hal_tim.c ****   /* Enable the Peripheral, except in trigger mode where enable is automatically done with trigger 
 572:Drivers/STM32F4xx_HAL_Driver/Src/stm32f4xx_hal_tim.c ****   if (IS_TIM_SLAVE_INSTANCE(htim->Instance))
 875              		.loc 1 572 7
 876 008e FB68     		ldr	r3, [r7, #12]
 877 0090 1B68     		ldr	r3, [r3]
 878              		.loc 1 572 6
 879 0092 204A     		ldr	r2, .L46+12
 880 0094 9342     		cmp	r3, r2
 881 0096 18D0     		beq	.L41
 882              		.loc 1 572 7 discriminator 1
 883 0098 FB68     		ldr	r3, [r7, #12]
 884 009a 1B68     		ldr	r3, [r3]
 885 009c B3F1804F 		cmp	r3, #1073741824
 886 00a0 13D0     		beq	.L41
 887              		.loc 1 572 7 is_stmt 0 discriminator 2
 888 00a2 FB68     		ldr	r3, [r7, #12]
 889 00a4 1B68     		ldr	r3, [r3]
 890 00a6 1C4A     		ldr	r2, .L46+16
 891 00a8 9342     		cmp	r3, r2
 892 00aa 0ED0     		beq	.L41
 893              		.loc 1 572 7 discriminator 3
 894 00ac FB68     		ldr	r3, [r7, #12]
 895 00ae 1B68     		ldr	r3, [r3]
 896 00b0 1A4A     		ldr	r2, .L46+20
 897 00b2 9342     		cmp	r3, r2
 898 00b4 09D0     		beq	.L41
 899              		.loc 1 572 7 discriminator 4
 900 00b6 FB68     		ldr	r3, [r7, #12]
 901 00b8 1B68     		ldr	r3, [r3]
 902 00ba 194A     		ldr	r2, .L46+24
 903 00bc 9342     		cmp	r3, r2
 904 00be 04D0     		beq	.L41
 905              		.loc 1 572 7 discriminator 5
 906 00c0 FB68     		ldr	r3, [r7, #12]
 907 00c2 1B68     		ldr	r3, [r3]
 908 00c4 174A     		ldr	r2, .L46+28
 909 00c6 9342     		cmp	r3, r2
 910 00c8 11D1     		bne	.L42
 911              	.L41:
 573:Drivers/STM32F4xx_HAL_Driver/Src/stm32f4xx_hal_tim.c ****   {
 574:Drivers/STM32F4xx_HAL_Driver/Src/stm32f4xx_hal_tim.c ****     tmpsmcr = htim->Instance->SMCR & TIM_SMCR_SMS;
 912              		.loc 1 574 19 is_stmt 1
 913 00ca FB68     		ldr	r3, [r7, #12]
 914 00cc 1B68     		ldr	r3, [r3]
 915              		.loc 1 574 29
 916 00ce 9B68     		ldr	r3, [r3, #8]
 917              		.loc 1 574 13
 918 00d0 03F00703 		and	r3, r3, #7
 919 00d4 7B61     		str	r3, [r7, #20]
 575:Drivers/STM32F4xx_HAL_Driver/Src/stm32f4xx_hal_tim.c ****     if (!IS_TIM_SLAVEMODE_TRIGGER_ENABLED(tmpsmcr))
 920              		.loc 1 575 8
 921 00d6 7B69     		ldr	r3, [r7, #20]
ARM GAS  /tmp/ccL5e6Lm.s 			page 27


 922 00d8 062B     		cmp	r3, #6
 923 00da 10D0     		beq	.L44
 576:Drivers/STM32F4xx_HAL_Driver/Src/stm32f4xx_hal_tim.c ****     {
 577:Drivers/STM32F4xx_HAL_Driver/Src/stm32f4xx_hal_tim.c ****       __HAL_TIM_ENABLE(htim);
 924              		.loc 1 577 7
 925 00dc FB68     		ldr	r3, [r7, #12]
 926 00de 1B68     		ldr	r3, [r3]
 927 00e0 1A68     		ldr	r2, [r3]
 928 00e2 FB68     		ldr	r3, [r7, #12]
 929 00e4 1B68     		ldr	r3, [r3]
 930 00e6 42F00102 		orr	r2, r2, #1
 931 00ea 1A60     		str	r2, [r3]
 575:Drivers/STM32F4xx_HAL_Driver/Src/stm32f4xx_hal_tim.c ****     if (!IS_TIM_SLAVEMODE_TRIGGER_ENABLED(tmpsmcr))
 932              		.loc 1 575 8
 933 00ec 07E0     		b	.L44
 934              	.L42:
 578:Drivers/STM32F4xx_HAL_Driver/Src/stm32f4xx_hal_tim.c ****     }
 579:Drivers/STM32F4xx_HAL_Driver/Src/stm32f4xx_hal_tim.c ****   }
 580:Drivers/STM32F4xx_HAL_Driver/Src/stm32f4xx_hal_tim.c ****   else
 581:Drivers/STM32F4xx_HAL_Driver/Src/stm32f4xx_hal_tim.c ****   {
 582:Drivers/STM32F4xx_HAL_Driver/Src/stm32f4xx_hal_tim.c ****     __HAL_TIM_ENABLE(htim);
 935              		.loc 1 582 5
 936 00ee FB68     		ldr	r3, [r7, #12]
 937 00f0 1B68     		ldr	r3, [r3]
 938 00f2 1A68     		ldr	r2, [r3]
 939 00f4 FB68     		ldr	r3, [r7, #12]
 940 00f6 1B68     		ldr	r3, [r3]
 941 00f8 42F00102 		orr	r2, r2, #1
 942 00fc 1A60     		str	r2, [r3]
 943              	.L44:
 583:Drivers/STM32F4xx_HAL_Driver/Src/stm32f4xx_hal_tim.c ****   }
 584:Drivers/STM32F4xx_HAL_Driver/Src/stm32f4xx_hal_tim.c **** 
 585:Drivers/STM32F4xx_HAL_Driver/Src/stm32f4xx_hal_tim.c ****   /* Return function status */
 586:Drivers/STM32F4xx_HAL_Driver/Src/stm32f4xx_hal_tim.c ****   return HAL_OK;
 944              		.loc 1 586 10
 945 00fe 0023     		movs	r3, #0
 946              	.L36:
 587:Drivers/STM32F4xx_HAL_Driver/Src/stm32f4xx_hal_tim.c **** }
 947              		.loc 1 587 1
 948 0100 1846     		mov	r0, r3
 949 0102 1837     		adds	r7, r7, #24
 950              	.LCFI49:
 951              		.cfi_def_cfa_offset 8
 952 0104 BD46     		mov	sp, r7
 953              	.LCFI50:
 954              		.cfi_def_cfa_register 13
 955              		@ sp needed
 956 0106 80BD     		pop	{r7, pc}
 957              	.L47:
 958              		.align	2
 959              	.L46:
 960 0108 00000000 		.word	TIM_DMAPeriodElapsedCplt
 961 010c 00000000 		.word	TIM_DMAPeriodElapsedHalfCplt
 962 0110 00000000 		.word	TIM_DMAError
 963 0114 00000140 		.word	1073807360
 964 0118 00040040 		.word	1073742848
 965 011c 00080040 		.word	1073743872
ARM GAS  /tmp/ccL5e6Lm.s 			page 28


 966 0120 000C0040 		.word	1073744896
 967 0124 00400140 		.word	1073823744
 968              		.cfi_endproc
 969              	.LFE224:
 971              		.section	.text.HAL_TIM_Base_Stop_DMA,"ax",%progbits
 972              		.align	1
 973              		.global	HAL_TIM_Base_Stop_DMA
 974              		.syntax unified
 975              		.thumb
 976              		.thumb_func
 978              	HAL_TIM_Base_Stop_DMA:
 979              	.LFB225:
 588:Drivers/STM32F4xx_HAL_Driver/Src/stm32f4xx_hal_tim.c **** 
 589:Drivers/STM32F4xx_HAL_Driver/Src/stm32f4xx_hal_tim.c **** /**
 590:Drivers/STM32F4xx_HAL_Driver/Src/stm32f4xx_hal_tim.c ****   * @brief  Stops the TIM Base generation in DMA mode.
 591:Drivers/STM32F4xx_HAL_Driver/Src/stm32f4xx_hal_tim.c ****   * @param  htim TIM Base handle
 592:Drivers/STM32F4xx_HAL_Driver/Src/stm32f4xx_hal_tim.c ****   * @retval HAL status
 593:Drivers/STM32F4xx_HAL_Driver/Src/stm32f4xx_hal_tim.c ****   */
 594:Drivers/STM32F4xx_HAL_Driver/Src/stm32f4xx_hal_tim.c **** HAL_StatusTypeDef HAL_TIM_Base_Stop_DMA(TIM_HandleTypeDef *htim)
 595:Drivers/STM32F4xx_HAL_Driver/Src/stm32f4xx_hal_tim.c **** {
 980              		.loc 1 595 1
 981              		.cfi_startproc
 982              		@ args = 0, pretend = 0, frame = 8
 983              		@ frame_needed = 1, uses_anonymous_args = 0
 984 0000 80B5     		push	{r7, lr}
 985              	.LCFI51:
 986              		.cfi_def_cfa_offset 8
 987              		.cfi_offset 7, -8
 988              		.cfi_offset 14, -4
 989 0002 82B0     		sub	sp, sp, #8
 990              	.LCFI52:
 991              		.cfi_def_cfa_offset 16
 992 0004 00AF     		add	r7, sp, #0
 993              	.LCFI53:
 994              		.cfi_def_cfa_register 7
 995 0006 7860     		str	r0, [r7, #4]
 596:Drivers/STM32F4xx_HAL_Driver/Src/stm32f4xx_hal_tim.c ****   /* Check the parameters */
 597:Drivers/STM32F4xx_HAL_Driver/Src/stm32f4xx_hal_tim.c ****   assert_param(IS_TIM_DMA_INSTANCE(htim->Instance));
 598:Drivers/STM32F4xx_HAL_Driver/Src/stm32f4xx_hal_tim.c **** 
 599:Drivers/STM32F4xx_HAL_Driver/Src/stm32f4xx_hal_tim.c ****   /* Disable the TIM Update DMA request */
 600:Drivers/STM32F4xx_HAL_Driver/Src/stm32f4xx_hal_tim.c ****   __HAL_TIM_DISABLE_DMA(htim, TIM_DMA_UPDATE);
 996              		.loc 1 600 3
 997 0008 7B68     		ldr	r3, [r7, #4]
 998 000a 1B68     		ldr	r3, [r3]
 999 000c DA68     		ldr	r2, [r3, #12]
 1000 000e 7B68     		ldr	r3, [r7, #4]
 1001 0010 1B68     		ldr	r3, [r3]
 1002 0012 22F48072 		bic	r2, r2, #256
 1003 0016 DA60     		str	r2, [r3, #12]
 601:Drivers/STM32F4xx_HAL_Driver/Src/stm32f4xx_hal_tim.c **** 
 602:Drivers/STM32F4xx_HAL_Driver/Src/stm32f4xx_hal_tim.c ****   (void)HAL_DMA_Abort_IT(htim->hdma[TIM_DMA_ID_UPDATE]);
 1004              		.loc 1 602 9
 1005 0018 7B68     		ldr	r3, [r7, #4]
 1006 001a 1B6A     		ldr	r3, [r3, #32]
 1007 001c 1846     		mov	r0, r3
 1008 001e FFF7FEFF 		bl	HAL_DMA_Abort_IT
 603:Drivers/STM32F4xx_HAL_Driver/Src/stm32f4xx_hal_tim.c **** 
ARM GAS  /tmp/ccL5e6Lm.s 			page 29


 604:Drivers/STM32F4xx_HAL_Driver/Src/stm32f4xx_hal_tim.c ****   /* Disable the Peripheral */
 605:Drivers/STM32F4xx_HAL_Driver/Src/stm32f4xx_hal_tim.c ****   __HAL_TIM_DISABLE(htim);
 1009              		.loc 1 605 3
 1010 0022 7B68     		ldr	r3, [r7, #4]
 1011 0024 1B68     		ldr	r3, [r3]
 1012 0026 1A6A     		ldr	r2, [r3, #32]
 1013 0028 41F21113 		movw	r3, #4369
 1014 002c 1340     		ands	r3, r3, r2
 1015 002e 002B     		cmp	r3, #0
 1016 0030 0FD1     		bne	.L49
 1017              		.loc 1 605 3 is_stmt 0 discriminator 1
 1018 0032 7B68     		ldr	r3, [r7, #4]
 1019 0034 1B68     		ldr	r3, [r3]
 1020 0036 1A6A     		ldr	r2, [r3, #32]
 1021 0038 40F24443 		movw	r3, #1092
 1022 003c 1340     		ands	r3, r3, r2
 1023 003e 002B     		cmp	r3, #0
 1024 0040 07D1     		bne	.L49
 1025              		.loc 1 605 3 discriminator 2
 1026 0042 7B68     		ldr	r3, [r7, #4]
 1027 0044 1B68     		ldr	r3, [r3]
 1028 0046 1A68     		ldr	r2, [r3]
 1029 0048 7B68     		ldr	r3, [r7, #4]
 1030 004a 1B68     		ldr	r3, [r3]
 1031 004c 22F00102 		bic	r2, r2, #1
 1032 0050 1A60     		str	r2, [r3]
 1033              	.L49:
 606:Drivers/STM32F4xx_HAL_Driver/Src/stm32f4xx_hal_tim.c **** 
 607:Drivers/STM32F4xx_HAL_Driver/Src/stm32f4xx_hal_tim.c ****   /* Set the TIM state */
 608:Drivers/STM32F4xx_HAL_Driver/Src/stm32f4xx_hal_tim.c ****   htim->State = HAL_TIM_STATE_READY;
 1034              		.loc 1 608 15 is_stmt 1
 1035 0052 7B68     		ldr	r3, [r7, #4]
 1036 0054 0122     		movs	r2, #1
 1037 0056 83F83D20 		strb	r2, [r3, #61]
 609:Drivers/STM32F4xx_HAL_Driver/Src/stm32f4xx_hal_tim.c **** 
 610:Drivers/STM32F4xx_HAL_Driver/Src/stm32f4xx_hal_tim.c ****   /* Return function status */
 611:Drivers/STM32F4xx_HAL_Driver/Src/stm32f4xx_hal_tim.c ****   return HAL_OK;
 1038              		.loc 1 611 10
 1039 005a 0023     		movs	r3, #0
 612:Drivers/STM32F4xx_HAL_Driver/Src/stm32f4xx_hal_tim.c **** }
 1040              		.loc 1 612 1
 1041 005c 1846     		mov	r0, r3
 1042 005e 0837     		adds	r7, r7, #8
 1043              	.LCFI54:
 1044              		.cfi_def_cfa_offset 8
 1045 0060 BD46     		mov	sp, r7
 1046              	.LCFI55:
 1047              		.cfi_def_cfa_register 13
 1048              		@ sp needed
 1049 0062 80BD     		pop	{r7, pc}
 1050              		.cfi_endproc
 1051              	.LFE225:
 1053              		.section	.text.HAL_TIM_OC_Init,"ax",%progbits
 1054              		.align	1
 1055              		.global	HAL_TIM_OC_Init
 1056              		.syntax unified
 1057              		.thumb
ARM GAS  /tmp/ccL5e6Lm.s 			page 30


 1058              		.thumb_func
 1060              	HAL_TIM_OC_Init:
 1061              	.LFB226:
 613:Drivers/STM32F4xx_HAL_Driver/Src/stm32f4xx_hal_tim.c **** 
 614:Drivers/STM32F4xx_HAL_Driver/Src/stm32f4xx_hal_tim.c **** /**
 615:Drivers/STM32F4xx_HAL_Driver/Src/stm32f4xx_hal_tim.c ****   * @}
 616:Drivers/STM32F4xx_HAL_Driver/Src/stm32f4xx_hal_tim.c ****   */
 617:Drivers/STM32F4xx_HAL_Driver/Src/stm32f4xx_hal_tim.c **** 
 618:Drivers/STM32F4xx_HAL_Driver/Src/stm32f4xx_hal_tim.c **** /** @defgroup TIM_Exported_Functions_Group2 TIM Output Compare functions
 619:Drivers/STM32F4xx_HAL_Driver/Src/stm32f4xx_hal_tim.c ****   *  @brief    TIM Output Compare functions
 620:Drivers/STM32F4xx_HAL_Driver/Src/stm32f4xx_hal_tim.c ****   *
 621:Drivers/STM32F4xx_HAL_Driver/Src/stm32f4xx_hal_tim.c **** @verbatim
 622:Drivers/STM32F4xx_HAL_Driver/Src/stm32f4xx_hal_tim.c ****   ==============================================================================
 623:Drivers/STM32F4xx_HAL_Driver/Src/stm32f4xx_hal_tim.c ****                   ##### TIM Output Compare functions #####
 624:Drivers/STM32F4xx_HAL_Driver/Src/stm32f4xx_hal_tim.c ****   ==============================================================================
 625:Drivers/STM32F4xx_HAL_Driver/Src/stm32f4xx_hal_tim.c ****   [..]
 626:Drivers/STM32F4xx_HAL_Driver/Src/stm32f4xx_hal_tim.c ****     This section provides functions allowing to:
 627:Drivers/STM32F4xx_HAL_Driver/Src/stm32f4xx_hal_tim.c ****     (+) Initialize and configure the TIM Output Compare.
 628:Drivers/STM32F4xx_HAL_Driver/Src/stm32f4xx_hal_tim.c ****     (+) De-initialize the TIM Output Compare.
 629:Drivers/STM32F4xx_HAL_Driver/Src/stm32f4xx_hal_tim.c ****     (+) Start the TIM Output Compare.
 630:Drivers/STM32F4xx_HAL_Driver/Src/stm32f4xx_hal_tim.c ****     (+) Stop the TIM Output Compare.
 631:Drivers/STM32F4xx_HAL_Driver/Src/stm32f4xx_hal_tim.c ****     (+) Start the TIM Output Compare and enable interrupt.
 632:Drivers/STM32F4xx_HAL_Driver/Src/stm32f4xx_hal_tim.c ****     (+) Stop the TIM Output Compare and disable interrupt.
 633:Drivers/STM32F4xx_HAL_Driver/Src/stm32f4xx_hal_tim.c ****     (+) Start the TIM Output Compare and enable DMA transfer.
 634:Drivers/STM32F4xx_HAL_Driver/Src/stm32f4xx_hal_tim.c ****     (+) Stop the TIM Output Compare and disable DMA transfer.
 635:Drivers/STM32F4xx_HAL_Driver/Src/stm32f4xx_hal_tim.c **** 
 636:Drivers/STM32F4xx_HAL_Driver/Src/stm32f4xx_hal_tim.c **** @endverbatim
 637:Drivers/STM32F4xx_HAL_Driver/Src/stm32f4xx_hal_tim.c ****   * @{
 638:Drivers/STM32F4xx_HAL_Driver/Src/stm32f4xx_hal_tim.c ****   */
 639:Drivers/STM32F4xx_HAL_Driver/Src/stm32f4xx_hal_tim.c **** /**
 640:Drivers/STM32F4xx_HAL_Driver/Src/stm32f4xx_hal_tim.c ****   * @brief  Initializes the TIM Output Compare according to the specified
 641:Drivers/STM32F4xx_HAL_Driver/Src/stm32f4xx_hal_tim.c ****   *         parameters in the TIM_HandleTypeDef and initializes the associated handle.
 642:Drivers/STM32F4xx_HAL_Driver/Src/stm32f4xx_hal_tim.c ****   * @note   Switching from Center Aligned counter mode to Edge counter mode (or reverse)
 643:Drivers/STM32F4xx_HAL_Driver/Src/stm32f4xx_hal_tim.c ****   *         requires a timer reset to avoid unexpected direction
 644:Drivers/STM32F4xx_HAL_Driver/Src/stm32f4xx_hal_tim.c ****   *         due to DIR bit readonly in center aligned mode.
 645:Drivers/STM32F4xx_HAL_Driver/Src/stm32f4xx_hal_tim.c ****   *         Ex: call @ref HAL_TIM_OC_DeInit() before HAL_TIM_OC_Init()
 646:Drivers/STM32F4xx_HAL_Driver/Src/stm32f4xx_hal_tim.c ****   * @param  htim TIM Output Compare handle
 647:Drivers/STM32F4xx_HAL_Driver/Src/stm32f4xx_hal_tim.c ****   * @retval HAL status
 648:Drivers/STM32F4xx_HAL_Driver/Src/stm32f4xx_hal_tim.c ****   */
 649:Drivers/STM32F4xx_HAL_Driver/Src/stm32f4xx_hal_tim.c **** HAL_StatusTypeDef HAL_TIM_OC_Init(TIM_HandleTypeDef *htim)
 650:Drivers/STM32F4xx_HAL_Driver/Src/stm32f4xx_hal_tim.c **** {
 1062              		.loc 1 650 1
 1063              		.cfi_startproc
 1064              		@ args = 0, pretend = 0, frame = 8
 1065              		@ frame_needed = 1, uses_anonymous_args = 0
 1066 0000 80B5     		push	{r7, lr}
 1067              	.LCFI56:
 1068              		.cfi_def_cfa_offset 8
 1069              		.cfi_offset 7, -8
 1070              		.cfi_offset 14, -4
 1071 0002 82B0     		sub	sp, sp, #8
 1072              	.LCFI57:
 1073              		.cfi_def_cfa_offset 16
 1074 0004 00AF     		add	r7, sp, #0
 1075              	.LCFI58:
 1076              		.cfi_def_cfa_register 7
 1077 0006 7860     		str	r0, [r7, #4]
ARM GAS  /tmp/ccL5e6Lm.s 			page 31


 651:Drivers/STM32F4xx_HAL_Driver/Src/stm32f4xx_hal_tim.c ****   /* Check the TIM handle allocation */
 652:Drivers/STM32F4xx_HAL_Driver/Src/stm32f4xx_hal_tim.c ****   if (htim == NULL)
 1078              		.loc 1 652 6
 1079 0008 7B68     		ldr	r3, [r7, #4]
 1080 000a 002B     		cmp	r3, #0
 1081 000c 01D1     		bne	.L52
 653:Drivers/STM32F4xx_HAL_Driver/Src/stm32f4xx_hal_tim.c ****   {
 654:Drivers/STM32F4xx_HAL_Driver/Src/stm32f4xx_hal_tim.c ****     return HAL_ERROR;
 1082              		.loc 1 654 12
 1083 000e 0123     		movs	r3, #1
 1084 0010 41E0     		b	.L53
 1085              	.L52:
 655:Drivers/STM32F4xx_HAL_Driver/Src/stm32f4xx_hal_tim.c ****   }
 656:Drivers/STM32F4xx_HAL_Driver/Src/stm32f4xx_hal_tim.c **** 
 657:Drivers/STM32F4xx_HAL_Driver/Src/stm32f4xx_hal_tim.c ****   /* Check the parameters */
 658:Drivers/STM32F4xx_HAL_Driver/Src/stm32f4xx_hal_tim.c ****   assert_param(IS_TIM_INSTANCE(htim->Instance));
 659:Drivers/STM32F4xx_HAL_Driver/Src/stm32f4xx_hal_tim.c ****   assert_param(IS_TIM_COUNTER_MODE(htim->Init.CounterMode));
 660:Drivers/STM32F4xx_HAL_Driver/Src/stm32f4xx_hal_tim.c ****   assert_param(IS_TIM_CLOCKDIVISION_DIV(htim->Init.ClockDivision));
 661:Drivers/STM32F4xx_HAL_Driver/Src/stm32f4xx_hal_tim.c ****   assert_param(IS_TIM_AUTORELOAD_PRELOAD(htim->Init.AutoReloadPreload));
 662:Drivers/STM32F4xx_HAL_Driver/Src/stm32f4xx_hal_tim.c **** 
 663:Drivers/STM32F4xx_HAL_Driver/Src/stm32f4xx_hal_tim.c ****   if (htim->State == HAL_TIM_STATE_RESET)
 1086              		.loc 1 663 11
 1087 0012 7B68     		ldr	r3, [r7, #4]
 1088 0014 93F83D30 		ldrb	r3, [r3, #61]
 1089 0018 DBB2     		uxtb	r3, r3
 1090              		.loc 1 663 6
 1091 001a 002B     		cmp	r3, #0
 1092 001c 06D1     		bne	.L54
 664:Drivers/STM32F4xx_HAL_Driver/Src/stm32f4xx_hal_tim.c ****   {
 665:Drivers/STM32F4xx_HAL_Driver/Src/stm32f4xx_hal_tim.c ****     /* Allocate lock resource and initialize it */
 666:Drivers/STM32F4xx_HAL_Driver/Src/stm32f4xx_hal_tim.c ****     htim->Lock = HAL_UNLOCKED;
 1093              		.loc 1 666 16
 1094 001e 7B68     		ldr	r3, [r7, #4]
 1095 0020 0022     		movs	r2, #0
 1096 0022 83F83C20 		strb	r2, [r3, #60]
 667:Drivers/STM32F4xx_HAL_Driver/Src/stm32f4xx_hal_tim.c **** 
 668:Drivers/STM32F4xx_HAL_Driver/Src/stm32f4xx_hal_tim.c **** #if (USE_HAL_TIM_REGISTER_CALLBACKS == 1)
 669:Drivers/STM32F4xx_HAL_Driver/Src/stm32f4xx_hal_tim.c ****     /* Reset interrupt callbacks to legacy weak callbacks */
 670:Drivers/STM32F4xx_HAL_Driver/Src/stm32f4xx_hal_tim.c ****     TIM_ResetCallback(htim);
 671:Drivers/STM32F4xx_HAL_Driver/Src/stm32f4xx_hal_tim.c **** 
 672:Drivers/STM32F4xx_HAL_Driver/Src/stm32f4xx_hal_tim.c ****     if (htim->OC_MspInitCallback == NULL)
 673:Drivers/STM32F4xx_HAL_Driver/Src/stm32f4xx_hal_tim.c ****     {
 674:Drivers/STM32F4xx_HAL_Driver/Src/stm32f4xx_hal_tim.c ****       htim->OC_MspInitCallback = HAL_TIM_OC_MspInit;
 675:Drivers/STM32F4xx_HAL_Driver/Src/stm32f4xx_hal_tim.c ****     }
 676:Drivers/STM32F4xx_HAL_Driver/Src/stm32f4xx_hal_tim.c ****     /* Init the low level hardware : GPIO, CLOCK, NVIC */
 677:Drivers/STM32F4xx_HAL_Driver/Src/stm32f4xx_hal_tim.c ****     htim->OC_MspInitCallback(htim);
 678:Drivers/STM32F4xx_HAL_Driver/Src/stm32f4xx_hal_tim.c **** #else
 679:Drivers/STM32F4xx_HAL_Driver/Src/stm32f4xx_hal_tim.c ****     /* Init the low level hardware : GPIO, CLOCK, NVIC and DMA */
 680:Drivers/STM32F4xx_HAL_Driver/Src/stm32f4xx_hal_tim.c ****     HAL_TIM_OC_MspInit(htim);
 1097              		.loc 1 680 5
 1098 0026 7868     		ldr	r0, [r7, #4]
 1099 0028 FFF7FEFF 		bl	HAL_TIM_OC_MspInit
 1100              	.L54:
 681:Drivers/STM32F4xx_HAL_Driver/Src/stm32f4xx_hal_tim.c **** #endif /* USE_HAL_TIM_REGISTER_CALLBACKS */
 682:Drivers/STM32F4xx_HAL_Driver/Src/stm32f4xx_hal_tim.c ****   }
 683:Drivers/STM32F4xx_HAL_Driver/Src/stm32f4xx_hal_tim.c **** 
 684:Drivers/STM32F4xx_HAL_Driver/Src/stm32f4xx_hal_tim.c ****   /* Set the TIM state */
ARM GAS  /tmp/ccL5e6Lm.s 			page 32


 685:Drivers/STM32F4xx_HAL_Driver/Src/stm32f4xx_hal_tim.c ****   htim->State = HAL_TIM_STATE_BUSY;
 1101              		.loc 1 685 15
 1102 002c 7B68     		ldr	r3, [r7, #4]
 1103 002e 0222     		movs	r2, #2
 1104 0030 83F83D20 		strb	r2, [r3, #61]
 686:Drivers/STM32F4xx_HAL_Driver/Src/stm32f4xx_hal_tim.c **** 
 687:Drivers/STM32F4xx_HAL_Driver/Src/stm32f4xx_hal_tim.c ****   /* Init the base time for the Output Compare */
 688:Drivers/STM32F4xx_HAL_Driver/Src/stm32f4xx_hal_tim.c ****   TIM_Base_SetConfig(htim->Instance,  &htim->Init);
 1105              		.loc 1 688 3
 1106 0034 7B68     		ldr	r3, [r7, #4]
 1107 0036 1A68     		ldr	r2, [r3]
 1108 0038 7B68     		ldr	r3, [r7, #4]
 1109 003a 0433     		adds	r3, r3, #4
 1110 003c 1946     		mov	r1, r3
 1111 003e 1046     		mov	r0, r2
 1112 0040 FFF7FEFF 		bl	TIM_Base_SetConfig
 689:Drivers/STM32F4xx_HAL_Driver/Src/stm32f4xx_hal_tim.c **** 
 690:Drivers/STM32F4xx_HAL_Driver/Src/stm32f4xx_hal_tim.c ****   /* Initialize the DMA burst operation state */
 691:Drivers/STM32F4xx_HAL_Driver/Src/stm32f4xx_hal_tim.c ****   htim->DMABurstState = HAL_DMA_BURST_STATE_READY;
 1113              		.loc 1 691 23
 1114 0044 7B68     		ldr	r3, [r7, #4]
 1115 0046 0122     		movs	r2, #1
 1116 0048 83F84620 		strb	r2, [r3, #70]
 692:Drivers/STM32F4xx_HAL_Driver/Src/stm32f4xx_hal_tim.c **** 
 693:Drivers/STM32F4xx_HAL_Driver/Src/stm32f4xx_hal_tim.c ****   /* Initialize the TIM channels state */
 694:Drivers/STM32F4xx_HAL_Driver/Src/stm32f4xx_hal_tim.c ****   TIM_CHANNEL_STATE_SET_ALL(htim, HAL_TIM_CHANNEL_STATE_READY);
 1117              		.loc 1 694 3
 1118 004c 7B68     		ldr	r3, [r7, #4]
 1119 004e 0122     		movs	r2, #1
 1120 0050 83F83E20 		strb	r2, [r3, #62]
 1121 0054 7B68     		ldr	r3, [r7, #4]
 1122 0056 0122     		movs	r2, #1
 1123 0058 83F83F20 		strb	r2, [r3, #63]
 1124 005c 7B68     		ldr	r3, [r7, #4]
 1125 005e 0122     		movs	r2, #1
 1126 0060 83F84020 		strb	r2, [r3, #64]
 1127 0064 7B68     		ldr	r3, [r7, #4]
 1128 0066 0122     		movs	r2, #1
 1129 0068 83F84120 		strb	r2, [r3, #65]
 695:Drivers/STM32F4xx_HAL_Driver/Src/stm32f4xx_hal_tim.c ****   TIM_CHANNEL_N_STATE_SET_ALL(htim, HAL_TIM_CHANNEL_STATE_READY);
 1130              		.loc 1 695 3
 1131 006c 7B68     		ldr	r3, [r7, #4]
 1132 006e 0122     		movs	r2, #1
 1133 0070 83F84220 		strb	r2, [r3, #66]
 1134 0074 7B68     		ldr	r3, [r7, #4]
 1135 0076 0122     		movs	r2, #1
 1136 0078 83F84320 		strb	r2, [r3, #67]
 1137 007c 7B68     		ldr	r3, [r7, #4]
 1138 007e 0122     		movs	r2, #1
 1139 0080 83F84420 		strb	r2, [r3, #68]
 1140 0084 7B68     		ldr	r3, [r7, #4]
 1141 0086 0122     		movs	r2, #1
 1142 0088 83F84520 		strb	r2, [r3, #69]
 696:Drivers/STM32F4xx_HAL_Driver/Src/stm32f4xx_hal_tim.c **** 
 697:Drivers/STM32F4xx_HAL_Driver/Src/stm32f4xx_hal_tim.c ****   /* Initialize the TIM state*/
 698:Drivers/STM32F4xx_HAL_Driver/Src/stm32f4xx_hal_tim.c ****   htim->State = HAL_TIM_STATE_READY;
 1143              		.loc 1 698 15
ARM GAS  /tmp/ccL5e6Lm.s 			page 33


 1144 008c 7B68     		ldr	r3, [r7, #4]
 1145 008e 0122     		movs	r2, #1
 1146 0090 83F83D20 		strb	r2, [r3, #61]
 699:Drivers/STM32F4xx_HAL_Driver/Src/stm32f4xx_hal_tim.c **** 
 700:Drivers/STM32F4xx_HAL_Driver/Src/stm32f4xx_hal_tim.c ****   return HAL_OK;
 1147              		.loc 1 700 10
 1148 0094 0023     		movs	r3, #0
 1149              	.L53:
 701:Drivers/STM32F4xx_HAL_Driver/Src/stm32f4xx_hal_tim.c **** }
 1150              		.loc 1 701 1
 1151 0096 1846     		mov	r0, r3
 1152 0098 0837     		adds	r7, r7, #8
 1153              	.LCFI59:
 1154              		.cfi_def_cfa_offset 8
 1155 009a BD46     		mov	sp, r7
 1156              	.LCFI60:
 1157              		.cfi_def_cfa_register 13
 1158              		@ sp needed
 1159 009c 80BD     		pop	{r7, pc}
 1160              		.cfi_endproc
 1161              	.LFE226:
 1163              		.section	.text.HAL_TIM_OC_DeInit,"ax",%progbits
 1164              		.align	1
 1165              		.global	HAL_TIM_OC_DeInit
 1166              		.syntax unified
 1167              		.thumb
 1168              		.thumb_func
 1170              	HAL_TIM_OC_DeInit:
 1171              	.LFB227:
 702:Drivers/STM32F4xx_HAL_Driver/Src/stm32f4xx_hal_tim.c **** 
 703:Drivers/STM32F4xx_HAL_Driver/Src/stm32f4xx_hal_tim.c **** /**
 704:Drivers/STM32F4xx_HAL_Driver/Src/stm32f4xx_hal_tim.c ****   * @brief  DeInitializes the TIM peripheral
 705:Drivers/STM32F4xx_HAL_Driver/Src/stm32f4xx_hal_tim.c ****   * @param  htim TIM Output Compare handle
 706:Drivers/STM32F4xx_HAL_Driver/Src/stm32f4xx_hal_tim.c ****   * @retval HAL status
 707:Drivers/STM32F4xx_HAL_Driver/Src/stm32f4xx_hal_tim.c ****   */
 708:Drivers/STM32F4xx_HAL_Driver/Src/stm32f4xx_hal_tim.c **** HAL_StatusTypeDef HAL_TIM_OC_DeInit(TIM_HandleTypeDef *htim)
 709:Drivers/STM32F4xx_HAL_Driver/Src/stm32f4xx_hal_tim.c **** {
 1172              		.loc 1 709 1
 1173              		.cfi_startproc
 1174              		@ args = 0, pretend = 0, frame = 8
 1175              		@ frame_needed = 1, uses_anonymous_args = 0
 1176 0000 80B5     		push	{r7, lr}
 1177              	.LCFI61:
 1178              		.cfi_def_cfa_offset 8
 1179              		.cfi_offset 7, -8
 1180              		.cfi_offset 14, -4
 1181 0002 82B0     		sub	sp, sp, #8
 1182              	.LCFI62:
 1183              		.cfi_def_cfa_offset 16
 1184 0004 00AF     		add	r7, sp, #0
 1185              	.LCFI63:
 1186              		.cfi_def_cfa_register 7
 1187 0006 7860     		str	r0, [r7, #4]
 710:Drivers/STM32F4xx_HAL_Driver/Src/stm32f4xx_hal_tim.c ****   /* Check the parameters */
 711:Drivers/STM32F4xx_HAL_Driver/Src/stm32f4xx_hal_tim.c ****   assert_param(IS_TIM_INSTANCE(htim->Instance));
 712:Drivers/STM32F4xx_HAL_Driver/Src/stm32f4xx_hal_tim.c **** 
 713:Drivers/STM32F4xx_HAL_Driver/Src/stm32f4xx_hal_tim.c ****   htim->State = HAL_TIM_STATE_BUSY;
ARM GAS  /tmp/ccL5e6Lm.s 			page 34


 1188              		.loc 1 713 15
 1189 0008 7B68     		ldr	r3, [r7, #4]
 1190 000a 0222     		movs	r2, #2
 1191 000c 83F83D20 		strb	r2, [r3, #61]
 714:Drivers/STM32F4xx_HAL_Driver/Src/stm32f4xx_hal_tim.c **** 
 715:Drivers/STM32F4xx_HAL_Driver/Src/stm32f4xx_hal_tim.c ****   /* Disable the TIM Peripheral Clock */
 716:Drivers/STM32F4xx_HAL_Driver/Src/stm32f4xx_hal_tim.c ****   __HAL_TIM_DISABLE(htim);
 1192              		.loc 1 716 3
 1193 0010 7B68     		ldr	r3, [r7, #4]
 1194 0012 1B68     		ldr	r3, [r3]
 1195 0014 1A6A     		ldr	r2, [r3, #32]
 1196 0016 41F21113 		movw	r3, #4369
 1197 001a 1340     		ands	r3, r3, r2
 1198 001c 002B     		cmp	r3, #0
 1199 001e 0FD1     		bne	.L56
 1200              		.loc 1 716 3 is_stmt 0 discriminator 1
 1201 0020 7B68     		ldr	r3, [r7, #4]
 1202 0022 1B68     		ldr	r3, [r3]
 1203 0024 1A6A     		ldr	r2, [r3, #32]
 1204 0026 40F24443 		movw	r3, #1092
 1205 002a 1340     		ands	r3, r3, r2
 1206 002c 002B     		cmp	r3, #0
 1207 002e 07D1     		bne	.L56
 1208              		.loc 1 716 3 discriminator 2
 1209 0030 7B68     		ldr	r3, [r7, #4]
 1210 0032 1B68     		ldr	r3, [r3]
 1211 0034 1A68     		ldr	r2, [r3]
 1212 0036 7B68     		ldr	r3, [r7, #4]
 1213 0038 1B68     		ldr	r3, [r3]
 1214 003a 22F00102 		bic	r2, r2, #1
 1215 003e 1A60     		str	r2, [r3]
 1216              	.L56:
 717:Drivers/STM32F4xx_HAL_Driver/Src/stm32f4xx_hal_tim.c **** 
 718:Drivers/STM32F4xx_HAL_Driver/Src/stm32f4xx_hal_tim.c **** #if (USE_HAL_TIM_REGISTER_CALLBACKS == 1)
 719:Drivers/STM32F4xx_HAL_Driver/Src/stm32f4xx_hal_tim.c ****   if (htim->OC_MspDeInitCallback == NULL)
 720:Drivers/STM32F4xx_HAL_Driver/Src/stm32f4xx_hal_tim.c ****   {
 721:Drivers/STM32F4xx_HAL_Driver/Src/stm32f4xx_hal_tim.c ****     htim->OC_MspDeInitCallback = HAL_TIM_OC_MspDeInit;
 722:Drivers/STM32F4xx_HAL_Driver/Src/stm32f4xx_hal_tim.c ****   }
 723:Drivers/STM32F4xx_HAL_Driver/Src/stm32f4xx_hal_tim.c ****   /* DeInit the low level hardware */
 724:Drivers/STM32F4xx_HAL_Driver/Src/stm32f4xx_hal_tim.c ****   htim->OC_MspDeInitCallback(htim);
 725:Drivers/STM32F4xx_HAL_Driver/Src/stm32f4xx_hal_tim.c **** #else
 726:Drivers/STM32F4xx_HAL_Driver/Src/stm32f4xx_hal_tim.c ****   /* DeInit the low level hardware: GPIO, CLOCK, NVIC and DMA */
 727:Drivers/STM32F4xx_HAL_Driver/Src/stm32f4xx_hal_tim.c ****   HAL_TIM_OC_MspDeInit(htim);
 1217              		.loc 1 727 3 is_stmt 1
 1218 0040 7868     		ldr	r0, [r7, #4]
 1219 0042 FFF7FEFF 		bl	HAL_TIM_OC_MspDeInit
 728:Drivers/STM32F4xx_HAL_Driver/Src/stm32f4xx_hal_tim.c **** #endif /* USE_HAL_TIM_REGISTER_CALLBACKS */
 729:Drivers/STM32F4xx_HAL_Driver/Src/stm32f4xx_hal_tim.c **** 
 730:Drivers/STM32F4xx_HAL_Driver/Src/stm32f4xx_hal_tim.c ****   /* Change the DMA burst operation state */
 731:Drivers/STM32F4xx_HAL_Driver/Src/stm32f4xx_hal_tim.c ****   htim->DMABurstState = HAL_DMA_BURST_STATE_RESET;
 1220              		.loc 1 731 23
 1221 0046 7B68     		ldr	r3, [r7, #4]
 1222 0048 0022     		movs	r2, #0
 1223 004a 83F84620 		strb	r2, [r3, #70]
 732:Drivers/STM32F4xx_HAL_Driver/Src/stm32f4xx_hal_tim.c **** 
 733:Drivers/STM32F4xx_HAL_Driver/Src/stm32f4xx_hal_tim.c ****   /* Change the TIM channels state */
 734:Drivers/STM32F4xx_HAL_Driver/Src/stm32f4xx_hal_tim.c ****   TIM_CHANNEL_STATE_SET_ALL(htim, HAL_TIM_CHANNEL_STATE_RESET);
ARM GAS  /tmp/ccL5e6Lm.s 			page 35


 1224              		.loc 1 734 3
 1225 004e 7B68     		ldr	r3, [r7, #4]
 1226 0050 0022     		movs	r2, #0
 1227 0052 83F83E20 		strb	r2, [r3, #62]
 1228 0056 7B68     		ldr	r3, [r7, #4]
 1229 0058 0022     		movs	r2, #0
 1230 005a 83F83F20 		strb	r2, [r3, #63]
 1231 005e 7B68     		ldr	r3, [r7, #4]
 1232 0060 0022     		movs	r2, #0
 1233 0062 83F84020 		strb	r2, [r3, #64]
 1234 0066 7B68     		ldr	r3, [r7, #4]
 1235 0068 0022     		movs	r2, #0
 1236 006a 83F84120 		strb	r2, [r3, #65]
 735:Drivers/STM32F4xx_HAL_Driver/Src/stm32f4xx_hal_tim.c ****   TIM_CHANNEL_N_STATE_SET_ALL(htim, HAL_TIM_CHANNEL_STATE_RESET);
 1237              		.loc 1 735 3
 1238 006e 7B68     		ldr	r3, [r7, #4]
 1239 0070 0022     		movs	r2, #0
 1240 0072 83F84220 		strb	r2, [r3, #66]
 1241 0076 7B68     		ldr	r3, [r7, #4]
 1242 0078 0022     		movs	r2, #0
 1243 007a 83F84320 		strb	r2, [r3, #67]
 1244 007e 7B68     		ldr	r3, [r7, #4]
 1245 0080 0022     		movs	r2, #0
 1246 0082 83F84420 		strb	r2, [r3, #68]
 1247 0086 7B68     		ldr	r3, [r7, #4]
 1248 0088 0022     		movs	r2, #0
 1249 008a 83F84520 		strb	r2, [r3, #69]
 736:Drivers/STM32F4xx_HAL_Driver/Src/stm32f4xx_hal_tim.c **** 
 737:Drivers/STM32F4xx_HAL_Driver/Src/stm32f4xx_hal_tim.c ****   /* Change TIM state */
 738:Drivers/STM32F4xx_HAL_Driver/Src/stm32f4xx_hal_tim.c ****   htim->State = HAL_TIM_STATE_RESET;
 1250              		.loc 1 738 15
 1251 008e 7B68     		ldr	r3, [r7, #4]
 1252 0090 0022     		movs	r2, #0
 1253 0092 83F83D20 		strb	r2, [r3, #61]
 739:Drivers/STM32F4xx_HAL_Driver/Src/stm32f4xx_hal_tim.c **** 
 740:Drivers/STM32F4xx_HAL_Driver/Src/stm32f4xx_hal_tim.c ****   /* Release Lock */
 741:Drivers/STM32F4xx_HAL_Driver/Src/stm32f4xx_hal_tim.c ****   __HAL_UNLOCK(htim);
 1254              		.loc 1 741 3
 1255 0096 7B68     		ldr	r3, [r7, #4]
 1256 0098 0022     		movs	r2, #0
 1257 009a 83F83C20 		strb	r2, [r3, #60]
 742:Drivers/STM32F4xx_HAL_Driver/Src/stm32f4xx_hal_tim.c **** 
 743:Drivers/STM32F4xx_HAL_Driver/Src/stm32f4xx_hal_tim.c ****   return HAL_OK;
 1258              		.loc 1 743 10
 1259 009e 0023     		movs	r3, #0
 744:Drivers/STM32F4xx_HAL_Driver/Src/stm32f4xx_hal_tim.c **** }
 1260              		.loc 1 744 1
 1261 00a0 1846     		mov	r0, r3
 1262 00a2 0837     		adds	r7, r7, #8
 1263              	.LCFI64:
 1264              		.cfi_def_cfa_offset 8
 1265 00a4 BD46     		mov	sp, r7
 1266              	.LCFI65:
 1267              		.cfi_def_cfa_register 13
 1268              		@ sp needed
 1269 00a6 80BD     		pop	{r7, pc}
 1270              		.cfi_endproc
ARM GAS  /tmp/ccL5e6Lm.s 			page 36


 1271              	.LFE227:
 1273              		.section	.text.HAL_TIM_OC_MspInit,"ax",%progbits
 1274              		.align	1
 1275              		.weak	HAL_TIM_OC_MspInit
 1276              		.syntax unified
 1277              		.thumb
 1278              		.thumb_func
 1280              	HAL_TIM_OC_MspInit:
 1281              	.LFB228:
 745:Drivers/STM32F4xx_HAL_Driver/Src/stm32f4xx_hal_tim.c **** 
 746:Drivers/STM32F4xx_HAL_Driver/Src/stm32f4xx_hal_tim.c **** /**
 747:Drivers/STM32F4xx_HAL_Driver/Src/stm32f4xx_hal_tim.c ****   * @brief  Initializes the TIM Output Compare MSP.
 748:Drivers/STM32F4xx_HAL_Driver/Src/stm32f4xx_hal_tim.c ****   * @param  htim TIM Output Compare handle
 749:Drivers/STM32F4xx_HAL_Driver/Src/stm32f4xx_hal_tim.c ****   * @retval None
 750:Drivers/STM32F4xx_HAL_Driver/Src/stm32f4xx_hal_tim.c ****   */
 751:Drivers/STM32F4xx_HAL_Driver/Src/stm32f4xx_hal_tim.c **** __weak void HAL_TIM_OC_MspInit(TIM_HandleTypeDef *htim)
 752:Drivers/STM32F4xx_HAL_Driver/Src/stm32f4xx_hal_tim.c **** {
 1282              		.loc 1 752 1
 1283              		.cfi_startproc
 1284              		@ args = 0, pretend = 0, frame = 8
 1285              		@ frame_needed = 1, uses_anonymous_args = 0
 1286              		@ link register save eliminated.
 1287 0000 80B4     		push	{r7}
 1288              	.LCFI66:
 1289              		.cfi_def_cfa_offset 4
 1290              		.cfi_offset 7, -4
 1291 0002 83B0     		sub	sp, sp, #12
 1292              	.LCFI67:
 1293              		.cfi_def_cfa_offset 16
 1294 0004 00AF     		add	r7, sp, #0
 1295              	.LCFI68:
 1296              		.cfi_def_cfa_register 7
 1297 0006 7860     		str	r0, [r7, #4]
 753:Drivers/STM32F4xx_HAL_Driver/Src/stm32f4xx_hal_tim.c ****   /* Prevent unused argument(s) compilation warning */
 754:Drivers/STM32F4xx_HAL_Driver/Src/stm32f4xx_hal_tim.c ****   UNUSED(htim);
 755:Drivers/STM32F4xx_HAL_Driver/Src/stm32f4xx_hal_tim.c **** 
 756:Drivers/STM32F4xx_HAL_Driver/Src/stm32f4xx_hal_tim.c ****   /* NOTE : This function should not be modified, when the callback is needed,
 757:Drivers/STM32F4xx_HAL_Driver/Src/stm32f4xx_hal_tim.c ****             the HAL_TIM_OC_MspInit could be implemented in the user file
 758:Drivers/STM32F4xx_HAL_Driver/Src/stm32f4xx_hal_tim.c ****    */
 759:Drivers/STM32F4xx_HAL_Driver/Src/stm32f4xx_hal_tim.c **** }
 1298              		.loc 1 759 1
 1299 0008 00BF     		nop
 1300 000a 0C37     		adds	r7, r7, #12
 1301              	.LCFI69:
 1302              		.cfi_def_cfa_offset 4
 1303 000c BD46     		mov	sp, r7
 1304              	.LCFI70:
 1305              		.cfi_def_cfa_register 13
 1306              		@ sp needed
 1307 000e 5DF8047B 		ldr	r7, [sp], #4
 1308              	.LCFI71:
 1309              		.cfi_restore 7
 1310              		.cfi_def_cfa_offset 0
 1311 0012 7047     		bx	lr
 1312              		.cfi_endproc
 1313              	.LFE228:
 1315              		.section	.text.HAL_TIM_OC_MspDeInit,"ax",%progbits
ARM GAS  /tmp/ccL5e6Lm.s 			page 37


 1316              		.align	1
 1317              		.weak	HAL_TIM_OC_MspDeInit
 1318              		.syntax unified
 1319              		.thumb
 1320              		.thumb_func
 1322              	HAL_TIM_OC_MspDeInit:
 1323              	.LFB229:
 760:Drivers/STM32F4xx_HAL_Driver/Src/stm32f4xx_hal_tim.c **** 
 761:Drivers/STM32F4xx_HAL_Driver/Src/stm32f4xx_hal_tim.c **** /**
 762:Drivers/STM32F4xx_HAL_Driver/Src/stm32f4xx_hal_tim.c ****   * @brief  DeInitializes TIM Output Compare MSP.
 763:Drivers/STM32F4xx_HAL_Driver/Src/stm32f4xx_hal_tim.c ****   * @param  htim TIM Output Compare handle
 764:Drivers/STM32F4xx_HAL_Driver/Src/stm32f4xx_hal_tim.c ****   * @retval None
 765:Drivers/STM32F4xx_HAL_Driver/Src/stm32f4xx_hal_tim.c ****   */
 766:Drivers/STM32F4xx_HAL_Driver/Src/stm32f4xx_hal_tim.c **** __weak void HAL_TIM_OC_MspDeInit(TIM_HandleTypeDef *htim)
 767:Drivers/STM32F4xx_HAL_Driver/Src/stm32f4xx_hal_tim.c **** {
 1324              		.loc 1 767 1
 1325              		.cfi_startproc
 1326              		@ args = 0, pretend = 0, frame = 8
 1327              		@ frame_needed = 1, uses_anonymous_args = 0
 1328              		@ link register save eliminated.
 1329 0000 80B4     		push	{r7}
 1330              	.LCFI72:
 1331              		.cfi_def_cfa_offset 4
 1332              		.cfi_offset 7, -4
 1333 0002 83B0     		sub	sp, sp, #12
 1334              	.LCFI73:
 1335              		.cfi_def_cfa_offset 16
 1336 0004 00AF     		add	r7, sp, #0
 1337              	.LCFI74:
 1338              		.cfi_def_cfa_register 7
 1339 0006 7860     		str	r0, [r7, #4]
 768:Drivers/STM32F4xx_HAL_Driver/Src/stm32f4xx_hal_tim.c ****   /* Prevent unused argument(s) compilation warning */
 769:Drivers/STM32F4xx_HAL_Driver/Src/stm32f4xx_hal_tim.c ****   UNUSED(htim);
 770:Drivers/STM32F4xx_HAL_Driver/Src/stm32f4xx_hal_tim.c **** 
 771:Drivers/STM32F4xx_HAL_Driver/Src/stm32f4xx_hal_tim.c ****   /* NOTE : This function should not be modified, when the callback is needed,
 772:Drivers/STM32F4xx_HAL_Driver/Src/stm32f4xx_hal_tim.c ****             the HAL_TIM_OC_MspDeInit could be implemented in the user file
 773:Drivers/STM32F4xx_HAL_Driver/Src/stm32f4xx_hal_tim.c ****    */
 774:Drivers/STM32F4xx_HAL_Driver/Src/stm32f4xx_hal_tim.c **** }
 1340              		.loc 1 774 1
 1341 0008 00BF     		nop
 1342 000a 0C37     		adds	r7, r7, #12
 1343              	.LCFI75:
 1344              		.cfi_def_cfa_offset 4
 1345 000c BD46     		mov	sp, r7
 1346              	.LCFI76:
 1347              		.cfi_def_cfa_register 13
 1348              		@ sp needed
 1349 000e 5DF8047B 		ldr	r7, [sp], #4
 1350              	.LCFI77:
 1351              		.cfi_restore 7
 1352              		.cfi_def_cfa_offset 0
 1353 0012 7047     		bx	lr
 1354              		.cfi_endproc
 1355              	.LFE229:
 1357              		.section	.text.HAL_TIM_OC_Start,"ax",%progbits
 1358              		.align	1
 1359              		.global	HAL_TIM_OC_Start
ARM GAS  /tmp/ccL5e6Lm.s 			page 38


 1360              		.syntax unified
 1361              		.thumb
 1362              		.thumb_func
 1364              	HAL_TIM_OC_Start:
 1365              	.LFB230:
 775:Drivers/STM32F4xx_HAL_Driver/Src/stm32f4xx_hal_tim.c **** 
 776:Drivers/STM32F4xx_HAL_Driver/Src/stm32f4xx_hal_tim.c **** /**
 777:Drivers/STM32F4xx_HAL_Driver/Src/stm32f4xx_hal_tim.c ****   * @brief  Starts the TIM Output Compare signal generation.
 778:Drivers/STM32F4xx_HAL_Driver/Src/stm32f4xx_hal_tim.c ****   * @param  htim TIM Output Compare handle
 779:Drivers/STM32F4xx_HAL_Driver/Src/stm32f4xx_hal_tim.c ****   * @param  Channel TIM Channel to be enabled
 780:Drivers/STM32F4xx_HAL_Driver/Src/stm32f4xx_hal_tim.c ****   *          This parameter can be one of the following values:
 781:Drivers/STM32F4xx_HAL_Driver/Src/stm32f4xx_hal_tim.c ****   *            @arg TIM_CHANNEL_1: TIM Channel 1 selected
 782:Drivers/STM32F4xx_HAL_Driver/Src/stm32f4xx_hal_tim.c ****   *            @arg TIM_CHANNEL_2: TIM Channel 2 selected
 783:Drivers/STM32F4xx_HAL_Driver/Src/stm32f4xx_hal_tim.c ****   *            @arg TIM_CHANNEL_3: TIM Channel 3 selected
 784:Drivers/STM32F4xx_HAL_Driver/Src/stm32f4xx_hal_tim.c ****   *            @arg TIM_CHANNEL_4: TIM Channel 4 selected
 785:Drivers/STM32F4xx_HAL_Driver/Src/stm32f4xx_hal_tim.c ****   * @retval HAL status
 786:Drivers/STM32F4xx_HAL_Driver/Src/stm32f4xx_hal_tim.c ****   */
 787:Drivers/STM32F4xx_HAL_Driver/Src/stm32f4xx_hal_tim.c **** HAL_StatusTypeDef HAL_TIM_OC_Start(TIM_HandleTypeDef *htim, uint32_t Channel)
 788:Drivers/STM32F4xx_HAL_Driver/Src/stm32f4xx_hal_tim.c **** {
 1366              		.loc 1 788 1
 1367              		.cfi_startproc
 1368              		@ args = 0, pretend = 0, frame = 16
 1369              		@ frame_needed = 1, uses_anonymous_args = 0
 1370 0000 80B5     		push	{r7, lr}
 1371              	.LCFI78:
 1372              		.cfi_def_cfa_offset 8
 1373              		.cfi_offset 7, -8
 1374              		.cfi_offset 14, -4
 1375 0002 84B0     		sub	sp, sp, #16
 1376              	.LCFI79:
 1377              		.cfi_def_cfa_offset 24
 1378 0004 00AF     		add	r7, sp, #0
 1379              	.LCFI80:
 1380              		.cfi_def_cfa_register 7
 1381 0006 7860     		str	r0, [r7, #4]
 1382 0008 3960     		str	r1, [r7]
 789:Drivers/STM32F4xx_HAL_Driver/Src/stm32f4xx_hal_tim.c ****   uint32_t tmpsmcr;
 790:Drivers/STM32F4xx_HAL_Driver/Src/stm32f4xx_hal_tim.c **** 
 791:Drivers/STM32F4xx_HAL_Driver/Src/stm32f4xx_hal_tim.c ****   /* Check the parameters */
 792:Drivers/STM32F4xx_HAL_Driver/Src/stm32f4xx_hal_tim.c ****   assert_param(IS_TIM_CCX_INSTANCE(htim->Instance, Channel));
 793:Drivers/STM32F4xx_HAL_Driver/Src/stm32f4xx_hal_tim.c **** 
 794:Drivers/STM32F4xx_HAL_Driver/Src/stm32f4xx_hal_tim.c ****   /* Check the TIM channel state */
 795:Drivers/STM32F4xx_HAL_Driver/Src/stm32f4xx_hal_tim.c ****   if (TIM_CHANNEL_STATE_GET(htim, Channel) != HAL_TIM_CHANNEL_STATE_READY)
 1383              		.loc 1 795 44
 1384 000a 3B68     		ldr	r3, [r7]
 1385 000c 002B     		cmp	r3, #0
 1386 000e 09D1     		bne	.L61
 1387              		.loc 1 795 7 discriminator 1
 1388 0010 7B68     		ldr	r3, [r7, #4]
 1389 0012 93F83E30 		ldrb	r3, [r3, #62]
 1390 0016 DBB2     		uxtb	r3, r3
 1391              		.loc 1 795 44 discriminator 1
 1392 0018 012B     		cmp	r3, #1
 1393 001a 14BF     		ite	ne
 1394 001c 0123     		movne	r3, #1
 1395 001e 0023     		moveq	r3, #0
 1396 0020 DBB2     		uxtb	r3, r3
ARM GAS  /tmp/ccL5e6Lm.s 			page 39


 1397 0022 22E0     		b	.L62
 1398              	.L61:
 1399              		.loc 1 795 44 is_stmt 0 discriminator 2
 1400 0024 3B68     		ldr	r3, [r7]
 1401 0026 042B     		cmp	r3, #4
 1402 0028 09D1     		bne	.L63
 1403              		.loc 1 795 7 is_stmt 1 discriminator 4
 1404 002a 7B68     		ldr	r3, [r7, #4]
 1405 002c 93F83F30 		ldrb	r3, [r3, #63]
 1406 0030 DBB2     		uxtb	r3, r3
 1407              		.loc 1 795 44 discriminator 4
 1408 0032 012B     		cmp	r3, #1
 1409 0034 14BF     		ite	ne
 1410 0036 0123     		movne	r3, #1
 1411 0038 0023     		moveq	r3, #0
 1412 003a DBB2     		uxtb	r3, r3
 1413 003c 15E0     		b	.L62
 1414              	.L63:
 1415              		.loc 1 795 44 is_stmt 0 discriminator 5
 1416 003e 3B68     		ldr	r3, [r7]
 1417 0040 082B     		cmp	r3, #8
 1418 0042 09D1     		bne	.L65
 1419              		.loc 1 795 7 is_stmt 1 discriminator 7
 1420 0044 7B68     		ldr	r3, [r7, #4]
 1421 0046 93F84030 		ldrb	r3, [r3, #64]
 1422 004a DBB2     		uxtb	r3, r3
 1423              		.loc 1 795 44 discriminator 7
 1424 004c 012B     		cmp	r3, #1
 1425 004e 14BF     		ite	ne
 1426 0050 0123     		movne	r3, #1
 1427 0052 0023     		moveq	r3, #0
 1428 0054 DBB2     		uxtb	r3, r3
 1429 0056 08E0     		b	.L62
 1430              	.L65:
 1431              		.loc 1 795 7 discriminator 8
 1432 0058 7B68     		ldr	r3, [r7, #4]
 1433 005a 93F84130 		ldrb	r3, [r3, #65]
 1434 005e DBB2     		uxtb	r3, r3
 1435              		.loc 1 795 44 discriminator 8
 1436 0060 012B     		cmp	r3, #1
 1437 0062 14BF     		ite	ne
 1438 0064 0123     		movne	r3, #1
 1439 0066 0023     		moveq	r3, #0
 1440 0068 DBB2     		uxtb	r3, r3
 1441              	.L62:
 1442              		.loc 1 795 6 discriminator 12
 1443 006a 002B     		cmp	r3, #0
 1444 006c 01D0     		beq	.L67
 796:Drivers/STM32F4xx_HAL_Driver/Src/stm32f4xx_hal_tim.c ****   {
 797:Drivers/STM32F4xx_HAL_Driver/Src/stm32f4xx_hal_tim.c ****     return HAL_ERROR;
 1445              		.loc 1 797 12
 1446 006e 0123     		movs	r3, #1
 1447 0070 68E0     		b	.L68
 1448              	.L67:
 798:Drivers/STM32F4xx_HAL_Driver/Src/stm32f4xx_hal_tim.c ****   }
 799:Drivers/STM32F4xx_HAL_Driver/Src/stm32f4xx_hal_tim.c **** 
 800:Drivers/STM32F4xx_HAL_Driver/Src/stm32f4xx_hal_tim.c ****   /* Set the TIM channel state */
ARM GAS  /tmp/ccL5e6Lm.s 			page 40


 801:Drivers/STM32F4xx_HAL_Driver/Src/stm32f4xx_hal_tim.c ****   TIM_CHANNEL_STATE_SET(htim, Channel, HAL_TIM_CHANNEL_STATE_BUSY);
 1449              		.loc 1 801 3
 1450 0072 3B68     		ldr	r3, [r7]
 1451 0074 002B     		cmp	r3, #0
 1452 0076 04D1     		bne	.L69
 1453              		.loc 1 801 3 is_stmt 0 discriminator 1
 1454 0078 7B68     		ldr	r3, [r7, #4]
 1455 007a 0222     		movs	r2, #2
 1456 007c 83F83E20 		strb	r2, [r3, #62]
 1457 0080 13E0     		b	.L70
 1458              	.L69:
 1459              		.loc 1 801 3 discriminator 2
 1460 0082 3B68     		ldr	r3, [r7]
 1461 0084 042B     		cmp	r3, #4
 1462 0086 04D1     		bne	.L71
 1463              		.loc 1 801 3 discriminator 3
 1464 0088 7B68     		ldr	r3, [r7, #4]
 1465 008a 0222     		movs	r2, #2
 1466 008c 83F83F20 		strb	r2, [r3, #63]
 1467 0090 0BE0     		b	.L70
 1468              	.L71:
 1469              		.loc 1 801 3 discriminator 4
 1470 0092 3B68     		ldr	r3, [r7]
 1471 0094 082B     		cmp	r3, #8
 1472 0096 04D1     		bne	.L73
 1473              		.loc 1 801 3 discriminator 6
 1474 0098 7B68     		ldr	r3, [r7, #4]
 1475 009a 0222     		movs	r2, #2
 1476 009c 83F84020 		strb	r2, [r3, #64]
 1477 00a0 03E0     		b	.L70
 1478              	.L73:
 1479              		.loc 1 801 3 discriminator 7
 1480 00a2 7B68     		ldr	r3, [r7, #4]
 1481 00a4 0222     		movs	r2, #2
 1482 00a6 83F84120 		strb	r2, [r3, #65]
 1483              	.L70:
 802:Drivers/STM32F4xx_HAL_Driver/Src/stm32f4xx_hal_tim.c **** 
 803:Drivers/STM32F4xx_HAL_Driver/Src/stm32f4xx_hal_tim.c ****   /* Enable the Output compare channel */
 804:Drivers/STM32F4xx_HAL_Driver/Src/stm32f4xx_hal_tim.c ****   TIM_CCxChannelCmd(htim->Instance, Channel, TIM_CCx_ENABLE);
 1484              		.loc 1 804 3 is_stmt 1
 1485 00aa 7B68     		ldr	r3, [r7, #4]
 1486 00ac 1B68     		ldr	r3, [r3]
 1487 00ae 0122     		movs	r2, #1
 1488 00b0 3968     		ldr	r1, [r7]
 1489 00b2 1846     		mov	r0, r3
 1490 00b4 FFF7FEFF 		bl	TIM_CCxChannelCmd
 805:Drivers/STM32F4xx_HAL_Driver/Src/stm32f4xx_hal_tim.c **** 
 806:Drivers/STM32F4xx_HAL_Driver/Src/stm32f4xx_hal_tim.c ****   if (IS_TIM_BREAK_INSTANCE(htim->Instance) != RESET)
 1491              		.loc 1 806 7
 1492 00b8 7B68     		ldr	r3, [r7, #4]
 1493 00ba 1B68     		ldr	r3, [r3]
 1494              		.loc 1 806 6
 1495 00bc 234A     		ldr	r2, .L80
 1496 00be 9342     		cmp	r3, r2
 1497 00c0 07D1     		bne	.L75
 807:Drivers/STM32F4xx_HAL_Driver/Src/stm32f4xx_hal_tim.c ****   {
 808:Drivers/STM32F4xx_HAL_Driver/Src/stm32f4xx_hal_tim.c ****     /* Enable the main output */
ARM GAS  /tmp/ccL5e6Lm.s 			page 41


 809:Drivers/STM32F4xx_HAL_Driver/Src/stm32f4xx_hal_tim.c ****     __HAL_TIM_MOE_ENABLE(htim);
 1498              		.loc 1 809 5
 1499 00c2 7B68     		ldr	r3, [r7, #4]
 1500 00c4 1B68     		ldr	r3, [r3]
 1501 00c6 5A6C     		ldr	r2, [r3, #68]
 1502 00c8 7B68     		ldr	r3, [r7, #4]
 1503 00ca 1B68     		ldr	r3, [r3]
 1504 00cc 42F40042 		orr	r2, r2, #32768
 1505 00d0 5A64     		str	r2, [r3, #68]
 1506              	.L75:
 810:Drivers/STM32F4xx_HAL_Driver/Src/stm32f4xx_hal_tim.c ****   }
 811:Drivers/STM32F4xx_HAL_Driver/Src/stm32f4xx_hal_tim.c **** 
 812:Drivers/STM32F4xx_HAL_Driver/Src/stm32f4xx_hal_tim.c ****   /* Enable the Peripheral, except in trigger mode where enable is automatically done with trigger 
 813:Drivers/STM32F4xx_HAL_Driver/Src/stm32f4xx_hal_tim.c ****   if (IS_TIM_SLAVE_INSTANCE(htim->Instance))
 1507              		.loc 1 813 7
 1508 00d2 7B68     		ldr	r3, [r7, #4]
 1509 00d4 1B68     		ldr	r3, [r3]
 1510              		.loc 1 813 6
 1511 00d6 1D4A     		ldr	r2, .L80
 1512 00d8 9342     		cmp	r3, r2
 1513 00da 18D0     		beq	.L76
 1514              		.loc 1 813 7 discriminator 1
 1515 00dc 7B68     		ldr	r3, [r7, #4]
 1516 00de 1B68     		ldr	r3, [r3]
 1517 00e0 B3F1804F 		cmp	r3, #1073741824
 1518 00e4 13D0     		beq	.L76
 1519              		.loc 1 813 7 is_stmt 0 discriminator 2
 1520 00e6 7B68     		ldr	r3, [r7, #4]
 1521 00e8 1B68     		ldr	r3, [r3]
 1522 00ea 194A     		ldr	r2, .L80+4
 1523 00ec 9342     		cmp	r3, r2
 1524 00ee 0ED0     		beq	.L76
 1525              		.loc 1 813 7 discriminator 3
 1526 00f0 7B68     		ldr	r3, [r7, #4]
 1527 00f2 1B68     		ldr	r3, [r3]
 1528 00f4 174A     		ldr	r2, .L80+8
 1529 00f6 9342     		cmp	r3, r2
 1530 00f8 09D0     		beq	.L76
 1531              		.loc 1 813 7 discriminator 4
 1532 00fa 7B68     		ldr	r3, [r7, #4]
 1533 00fc 1B68     		ldr	r3, [r3]
 1534 00fe 164A     		ldr	r2, .L80+12
 1535 0100 9342     		cmp	r3, r2
 1536 0102 04D0     		beq	.L76
 1537              		.loc 1 813 7 discriminator 5
 1538 0104 7B68     		ldr	r3, [r7, #4]
 1539 0106 1B68     		ldr	r3, [r3]
 1540 0108 144A     		ldr	r2, .L80+16
 1541 010a 9342     		cmp	r3, r2
 1542 010c 11D1     		bne	.L77
 1543              	.L76:
 814:Drivers/STM32F4xx_HAL_Driver/Src/stm32f4xx_hal_tim.c ****   {
 815:Drivers/STM32F4xx_HAL_Driver/Src/stm32f4xx_hal_tim.c ****     tmpsmcr = htim->Instance->SMCR & TIM_SMCR_SMS;
 1544              		.loc 1 815 19 is_stmt 1
 1545 010e 7B68     		ldr	r3, [r7, #4]
 1546 0110 1B68     		ldr	r3, [r3]
 1547              		.loc 1 815 29
ARM GAS  /tmp/ccL5e6Lm.s 			page 42


 1548 0112 9B68     		ldr	r3, [r3, #8]
 1549              		.loc 1 815 13
 1550 0114 03F00703 		and	r3, r3, #7
 1551 0118 FB60     		str	r3, [r7, #12]
 816:Drivers/STM32F4xx_HAL_Driver/Src/stm32f4xx_hal_tim.c ****     if (!IS_TIM_SLAVEMODE_TRIGGER_ENABLED(tmpsmcr))
 1552              		.loc 1 816 8
 1553 011a FB68     		ldr	r3, [r7, #12]
 1554 011c 062B     		cmp	r3, #6
 1555 011e 10D0     		beq	.L79
 817:Drivers/STM32F4xx_HAL_Driver/Src/stm32f4xx_hal_tim.c ****     {
 818:Drivers/STM32F4xx_HAL_Driver/Src/stm32f4xx_hal_tim.c ****       __HAL_TIM_ENABLE(htim);
 1556              		.loc 1 818 7
 1557 0120 7B68     		ldr	r3, [r7, #4]
 1558 0122 1B68     		ldr	r3, [r3]
 1559 0124 1A68     		ldr	r2, [r3]
 1560 0126 7B68     		ldr	r3, [r7, #4]
 1561 0128 1B68     		ldr	r3, [r3]
 1562 012a 42F00102 		orr	r2, r2, #1
 1563 012e 1A60     		str	r2, [r3]
 816:Drivers/STM32F4xx_HAL_Driver/Src/stm32f4xx_hal_tim.c ****     if (!IS_TIM_SLAVEMODE_TRIGGER_ENABLED(tmpsmcr))
 1564              		.loc 1 816 8
 1565 0130 07E0     		b	.L79
 1566              	.L77:
 819:Drivers/STM32F4xx_HAL_Driver/Src/stm32f4xx_hal_tim.c ****     }
 820:Drivers/STM32F4xx_HAL_Driver/Src/stm32f4xx_hal_tim.c ****   }
 821:Drivers/STM32F4xx_HAL_Driver/Src/stm32f4xx_hal_tim.c ****   else
 822:Drivers/STM32F4xx_HAL_Driver/Src/stm32f4xx_hal_tim.c ****   {
 823:Drivers/STM32F4xx_HAL_Driver/Src/stm32f4xx_hal_tim.c ****     __HAL_TIM_ENABLE(htim);
 1567              		.loc 1 823 5
 1568 0132 7B68     		ldr	r3, [r7, #4]
 1569 0134 1B68     		ldr	r3, [r3]
 1570 0136 1A68     		ldr	r2, [r3]
 1571 0138 7B68     		ldr	r3, [r7, #4]
 1572 013a 1B68     		ldr	r3, [r3]
 1573 013c 42F00102 		orr	r2, r2, #1
 1574 0140 1A60     		str	r2, [r3]
 1575              	.L79:
 824:Drivers/STM32F4xx_HAL_Driver/Src/stm32f4xx_hal_tim.c ****   }
 825:Drivers/STM32F4xx_HAL_Driver/Src/stm32f4xx_hal_tim.c **** 
 826:Drivers/STM32F4xx_HAL_Driver/Src/stm32f4xx_hal_tim.c ****   /* Return function status */
 827:Drivers/STM32F4xx_HAL_Driver/Src/stm32f4xx_hal_tim.c ****   return HAL_OK;
 1576              		.loc 1 827 10
 1577 0142 0023     		movs	r3, #0
 1578              	.L68:
 828:Drivers/STM32F4xx_HAL_Driver/Src/stm32f4xx_hal_tim.c **** }
 1579              		.loc 1 828 1
 1580 0144 1846     		mov	r0, r3
 1581 0146 1037     		adds	r7, r7, #16
 1582              	.LCFI81:
 1583              		.cfi_def_cfa_offset 8
 1584 0148 BD46     		mov	sp, r7
 1585              	.LCFI82:
 1586              		.cfi_def_cfa_register 13
 1587              		@ sp needed
 1588 014a 80BD     		pop	{r7, pc}
 1589              	.L81:
 1590              		.align	2
ARM GAS  /tmp/ccL5e6Lm.s 			page 43


 1591              	.L80:
 1592 014c 00000140 		.word	1073807360
 1593 0150 00040040 		.word	1073742848
 1594 0154 00080040 		.word	1073743872
 1595 0158 000C0040 		.word	1073744896
 1596 015c 00400140 		.word	1073823744
 1597              		.cfi_endproc
 1598              	.LFE230:
 1600              		.section	.text.HAL_TIM_OC_Stop,"ax",%progbits
 1601              		.align	1
 1602              		.global	HAL_TIM_OC_Stop
 1603              		.syntax unified
 1604              		.thumb
 1605              		.thumb_func
 1607              	HAL_TIM_OC_Stop:
 1608              	.LFB231:
 829:Drivers/STM32F4xx_HAL_Driver/Src/stm32f4xx_hal_tim.c **** 
 830:Drivers/STM32F4xx_HAL_Driver/Src/stm32f4xx_hal_tim.c **** /**
 831:Drivers/STM32F4xx_HAL_Driver/Src/stm32f4xx_hal_tim.c ****   * @brief  Stops the TIM Output Compare signal generation.
 832:Drivers/STM32F4xx_HAL_Driver/Src/stm32f4xx_hal_tim.c ****   * @param  htim TIM Output Compare handle
 833:Drivers/STM32F4xx_HAL_Driver/Src/stm32f4xx_hal_tim.c ****   * @param  Channel TIM Channel to be disabled
 834:Drivers/STM32F4xx_HAL_Driver/Src/stm32f4xx_hal_tim.c ****   *          This parameter can be one of the following values:
 835:Drivers/STM32F4xx_HAL_Driver/Src/stm32f4xx_hal_tim.c ****   *            @arg TIM_CHANNEL_1: TIM Channel 1 selected
 836:Drivers/STM32F4xx_HAL_Driver/Src/stm32f4xx_hal_tim.c ****   *            @arg TIM_CHANNEL_2: TIM Channel 2 selected
 837:Drivers/STM32F4xx_HAL_Driver/Src/stm32f4xx_hal_tim.c ****   *            @arg TIM_CHANNEL_3: TIM Channel 3 selected
 838:Drivers/STM32F4xx_HAL_Driver/Src/stm32f4xx_hal_tim.c ****   *            @arg TIM_CHANNEL_4: TIM Channel 4 selected
 839:Drivers/STM32F4xx_HAL_Driver/Src/stm32f4xx_hal_tim.c ****   * @retval HAL status
 840:Drivers/STM32F4xx_HAL_Driver/Src/stm32f4xx_hal_tim.c ****   */
 841:Drivers/STM32F4xx_HAL_Driver/Src/stm32f4xx_hal_tim.c **** HAL_StatusTypeDef HAL_TIM_OC_Stop(TIM_HandleTypeDef *htim, uint32_t Channel)
 842:Drivers/STM32F4xx_HAL_Driver/Src/stm32f4xx_hal_tim.c **** {
 1609              		.loc 1 842 1
 1610              		.cfi_startproc
 1611              		@ args = 0, pretend = 0, frame = 8
 1612              		@ frame_needed = 1, uses_anonymous_args = 0
 1613 0000 80B5     		push	{r7, lr}
 1614              	.LCFI83:
 1615              		.cfi_def_cfa_offset 8
 1616              		.cfi_offset 7, -8
 1617              		.cfi_offset 14, -4
 1618 0002 82B0     		sub	sp, sp, #8
 1619              	.LCFI84:
 1620              		.cfi_def_cfa_offset 16
 1621 0004 00AF     		add	r7, sp, #0
 1622              	.LCFI85:
 1623              		.cfi_def_cfa_register 7
 1624 0006 7860     		str	r0, [r7, #4]
 1625 0008 3960     		str	r1, [r7]
 843:Drivers/STM32F4xx_HAL_Driver/Src/stm32f4xx_hal_tim.c ****   /* Check the parameters */
 844:Drivers/STM32F4xx_HAL_Driver/Src/stm32f4xx_hal_tim.c ****   assert_param(IS_TIM_CCX_INSTANCE(htim->Instance, Channel));
 845:Drivers/STM32F4xx_HAL_Driver/Src/stm32f4xx_hal_tim.c **** 
 846:Drivers/STM32F4xx_HAL_Driver/Src/stm32f4xx_hal_tim.c ****   /* Disable the Output compare channel */
 847:Drivers/STM32F4xx_HAL_Driver/Src/stm32f4xx_hal_tim.c ****   TIM_CCxChannelCmd(htim->Instance, Channel, TIM_CCx_DISABLE);
 1626              		.loc 1 847 3
 1627 000a 7B68     		ldr	r3, [r7, #4]
 1628 000c 1B68     		ldr	r3, [r3]
 1629 000e 0022     		movs	r2, #0
 1630 0010 3968     		ldr	r1, [r7]
ARM GAS  /tmp/ccL5e6Lm.s 			page 44


 1631 0012 1846     		mov	r0, r3
 1632 0014 FFF7FEFF 		bl	TIM_CCxChannelCmd
 848:Drivers/STM32F4xx_HAL_Driver/Src/stm32f4xx_hal_tim.c **** 
 849:Drivers/STM32F4xx_HAL_Driver/Src/stm32f4xx_hal_tim.c ****   if (IS_TIM_BREAK_INSTANCE(htim->Instance) != RESET)
 1633              		.loc 1 849 7
 1634 0018 7B68     		ldr	r3, [r7, #4]
 1635 001a 1B68     		ldr	r3, [r3]
 1636              		.loc 1 849 6
 1637 001c 294A     		ldr	r2, .L92
 1638 001e 9342     		cmp	r3, r2
 1639 0020 17D1     		bne	.L83
 850:Drivers/STM32F4xx_HAL_Driver/Src/stm32f4xx_hal_tim.c ****   {
 851:Drivers/STM32F4xx_HAL_Driver/Src/stm32f4xx_hal_tim.c ****     /* Disable the Main Output */
 852:Drivers/STM32F4xx_HAL_Driver/Src/stm32f4xx_hal_tim.c ****     __HAL_TIM_MOE_DISABLE(htim);
 1640              		.loc 1 852 5
 1641 0022 7B68     		ldr	r3, [r7, #4]
 1642 0024 1B68     		ldr	r3, [r3]
 1643 0026 1A6A     		ldr	r2, [r3, #32]
 1644 0028 41F21113 		movw	r3, #4369
 1645 002c 1340     		ands	r3, r3, r2
 1646 002e 002B     		cmp	r3, #0
 1647 0030 0FD1     		bne	.L83
 1648              		.loc 1 852 5 is_stmt 0 discriminator 1
 1649 0032 7B68     		ldr	r3, [r7, #4]
 1650 0034 1B68     		ldr	r3, [r3]
 1651 0036 1A6A     		ldr	r2, [r3, #32]
 1652 0038 40F24443 		movw	r3, #1092
 1653 003c 1340     		ands	r3, r3, r2
 1654 003e 002B     		cmp	r3, #0
 1655 0040 07D1     		bne	.L83
 1656              		.loc 1 852 5 discriminator 2
 1657 0042 7B68     		ldr	r3, [r7, #4]
 1658 0044 1B68     		ldr	r3, [r3]
 1659 0046 5A6C     		ldr	r2, [r3, #68]
 1660 0048 7B68     		ldr	r3, [r7, #4]
 1661 004a 1B68     		ldr	r3, [r3]
 1662 004c 22F40042 		bic	r2, r2, #32768
 1663 0050 5A64     		str	r2, [r3, #68]
 1664              	.L83:
 853:Drivers/STM32F4xx_HAL_Driver/Src/stm32f4xx_hal_tim.c ****   }
 854:Drivers/STM32F4xx_HAL_Driver/Src/stm32f4xx_hal_tim.c **** 
 855:Drivers/STM32F4xx_HAL_Driver/Src/stm32f4xx_hal_tim.c ****   /* Disable the Peripheral */
 856:Drivers/STM32F4xx_HAL_Driver/Src/stm32f4xx_hal_tim.c ****   __HAL_TIM_DISABLE(htim);
 1665              		.loc 1 856 3 is_stmt 1
 1666 0052 7B68     		ldr	r3, [r7, #4]
 1667 0054 1B68     		ldr	r3, [r3]
 1668 0056 1A6A     		ldr	r2, [r3, #32]
 1669 0058 41F21113 		movw	r3, #4369
 1670 005c 1340     		ands	r3, r3, r2
 1671 005e 002B     		cmp	r3, #0
 1672 0060 0FD1     		bne	.L84
 1673              		.loc 1 856 3 is_stmt 0 discriminator 1
 1674 0062 7B68     		ldr	r3, [r7, #4]
 1675 0064 1B68     		ldr	r3, [r3]
 1676 0066 1A6A     		ldr	r2, [r3, #32]
 1677 0068 40F24443 		movw	r3, #1092
 1678 006c 1340     		ands	r3, r3, r2
ARM GAS  /tmp/ccL5e6Lm.s 			page 45


 1679 006e 002B     		cmp	r3, #0
 1680 0070 07D1     		bne	.L84
 1681              		.loc 1 856 3 discriminator 2
 1682 0072 7B68     		ldr	r3, [r7, #4]
 1683 0074 1B68     		ldr	r3, [r3]
 1684 0076 1A68     		ldr	r2, [r3]
 1685 0078 7B68     		ldr	r3, [r7, #4]
 1686 007a 1B68     		ldr	r3, [r3]
 1687 007c 22F00102 		bic	r2, r2, #1
 1688 0080 1A60     		str	r2, [r3]
 1689              	.L84:
 857:Drivers/STM32F4xx_HAL_Driver/Src/stm32f4xx_hal_tim.c **** 
 858:Drivers/STM32F4xx_HAL_Driver/Src/stm32f4xx_hal_tim.c ****   /* Set the TIM channel state */
 859:Drivers/STM32F4xx_HAL_Driver/Src/stm32f4xx_hal_tim.c ****   TIM_CHANNEL_STATE_SET(htim, Channel, HAL_TIM_CHANNEL_STATE_READY);
 1690              		.loc 1 859 3 is_stmt 1
 1691 0082 3B68     		ldr	r3, [r7]
 1692 0084 002B     		cmp	r3, #0
 1693 0086 04D1     		bne	.L85
 1694              		.loc 1 859 3 is_stmt 0 discriminator 1
 1695 0088 7B68     		ldr	r3, [r7, #4]
 1696 008a 0122     		movs	r2, #1
 1697 008c 83F83E20 		strb	r2, [r3, #62]
 1698 0090 13E0     		b	.L86
 1699              	.L85:
 1700              		.loc 1 859 3 discriminator 2
 1701 0092 3B68     		ldr	r3, [r7]
 1702 0094 042B     		cmp	r3, #4
 1703 0096 04D1     		bne	.L87
 1704              		.loc 1 859 3 discriminator 3
 1705 0098 7B68     		ldr	r3, [r7, #4]
 1706 009a 0122     		movs	r2, #1
 1707 009c 83F83F20 		strb	r2, [r3, #63]
 1708 00a0 0BE0     		b	.L86
 1709              	.L87:
 1710              		.loc 1 859 3 discriminator 4
 1711 00a2 3B68     		ldr	r3, [r7]
 1712 00a4 082B     		cmp	r3, #8
 1713 00a6 04D1     		bne	.L89
 1714              		.loc 1 859 3 discriminator 6
 1715 00a8 7B68     		ldr	r3, [r7, #4]
 1716 00aa 0122     		movs	r2, #1
 1717 00ac 83F84020 		strb	r2, [r3, #64]
 1718 00b0 03E0     		b	.L86
 1719              	.L89:
 1720              		.loc 1 859 3 discriminator 7
 1721 00b2 7B68     		ldr	r3, [r7, #4]
 1722 00b4 0122     		movs	r2, #1
 1723 00b6 83F84120 		strb	r2, [r3, #65]
 1724              	.L86:
 860:Drivers/STM32F4xx_HAL_Driver/Src/stm32f4xx_hal_tim.c **** 
 861:Drivers/STM32F4xx_HAL_Driver/Src/stm32f4xx_hal_tim.c ****   /* Return function status */
 862:Drivers/STM32F4xx_HAL_Driver/Src/stm32f4xx_hal_tim.c ****   return HAL_OK;
 1725              		.loc 1 862 10 is_stmt 1
 1726 00ba 0023     		movs	r3, #0
 863:Drivers/STM32F4xx_HAL_Driver/Src/stm32f4xx_hal_tim.c **** }
 1727              		.loc 1 863 1
 1728 00bc 1846     		mov	r0, r3
ARM GAS  /tmp/ccL5e6Lm.s 			page 46


 1729 00be 0837     		adds	r7, r7, #8
 1730              	.LCFI86:
 1731              		.cfi_def_cfa_offset 8
 1732 00c0 BD46     		mov	sp, r7
 1733              	.LCFI87:
 1734              		.cfi_def_cfa_register 13
 1735              		@ sp needed
 1736 00c2 80BD     		pop	{r7, pc}
 1737              	.L93:
 1738              		.align	2
 1739              	.L92:
 1740 00c4 00000140 		.word	1073807360
 1741              		.cfi_endproc
 1742              	.LFE231:
 1744              		.section	.text.HAL_TIM_OC_Start_IT,"ax",%progbits
 1745              		.align	1
 1746              		.global	HAL_TIM_OC_Start_IT
 1747              		.syntax unified
 1748              		.thumb
 1749              		.thumb_func
 1751              	HAL_TIM_OC_Start_IT:
 1752              	.LFB232:
 864:Drivers/STM32F4xx_HAL_Driver/Src/stm32f4xx_hal_tim.c **** 
 865:Drivers/STM32F4xx_HAL_Driver/Src/stm32f4xx_hal_tim.c **** /**
 866:Drivers/STM32F4xx_HAL_Driver/Src/stm32f4xx_hal_tim.c ****   * @brief  Starts the TIM Output Compare signal generation in interrupt mode.
 867:Drivers/STM32F4xx_HAL_Driver/Src/stm32f4xx_hal_tim.c ****   * @param  htim TIM Output Compare handle
 868:Drivers/STM32F4xx_HAL_Driver/Src/stm32f4xx_hal_tim.c ****   * @param  Channel TIM Channel to be enabled
 869:Drivers/STM32F4xx_HAL_Driver/Src/stm32f4xx_hal_tim.c ****   *          This parameter can be one of the following values:
 870:Drivers/STM32F4xx_HAL_Driver/Src/stm32f4xx_hal_tim.c ****   *            @arg TIM_CHANNEL_1: TIM Channel 1 selected
 871:Drivers/STM32F4xx_HAL_Driver/Src/stm32f4xx_hal_tim.c ****   *            @arg TIM_CHANNEL_2: TIM Channel 2 selected
 872:Drivers/STM32F4xx_HAL_Driver/Src/stm32f4xx_hal_tim.c ****   *            @arg TIM_CHANNEL_3: TIM Channel 3 selected
 873:Drivers/STM32F4xx_HAL_Driver/Src/stm32f4xx_hal_tim.c ****   *            @arg TIM_CHANNEL_4: TIM Channel 4 selected
 874:Drivers/STM32F4xx_HAL_Driver/Src/stm32f4xx_hal_tim.c ****   * @retval HAL status
 875:Drivers/STM32F4xx_HAL_Driver/Src/stm32f4xx_hal_tim.c ****   */
 876:Drivers/STM32F4xx_HAL_Driver/Src/stm32f4xx_hal_tim.c **** HAL_StatusTypeDef HAL_TIM_OC_Start_IT(TIM_HandleTypeDef *htim, uint32_t Channel)
 877:Drivers/STM32F4xx_HAL_Driver/Src/stm32f4xx_hal_tim.c **** {
 1753              		.loc 1 877 1
 1754              		.cfi_startproc
 1755              		@ args = 0, pretend = 0, frame = 16
 1756              		@ frame_needed = 1, uses_anonymous_args = 0
 1757 0000 80B5     		push	{r7, lr}
 1758              	.LCFI88:
 1759              		.cfi_def_cfa_offset 8
 1760              		.cfi_offset 7, -8
 1761              		.cfi_offset 14, -4
 1762 0002 84B0     		sub	sp, sp, #16
 1763              	.LCFI89:
 1764              		.cfi_def_cfa_offset 24
 1765 0004 00AF     		add	r7, sp, #0
 1766              	.LCFI90:
 1767              		.cfi_def_cfa_register 7
 1768 0006 7860     		str	r0, [r7, #4]
 1769 0008 3960     		str	r1, [r7]
 878:Drivers/STM32F4xx_HAL_Driver/Src/stm32f4xx_hal_tim.c ****   HAL_StatusTypeDef status = HAL_OK;
 1770              		.loc 1 878 21
 1771 000a 0023     		movs	r3, #0
 1772 000c FB73     		strb	r3, [r7, #15]
ARM GAS  /tmp/ccL5e6Lm.s 			page 47


 879:Drivers/STM32F4xx_HAL_Driver/Src/stm32f4xx_hal_tim.c ****   uint32_t tmpsmcr;
 880:Drivers/STM32F4xx_HAL_Driver/Src/stm32f4xx_hal_tim.c **** 
 881:Drivers/STM32F4xx_HAL_Driver/Src/stm32f4xx_hal_tim.c ****   /* Check the parameters */
 882:Drivers/STM32F4xx_HAL_Driver/Src/stm32f4xx_hal_tim.c ****   assert_param(IS_TIM_CCX_INSTANCE(htim->Instance, Channel));
 883:Drivers/STM32F4xx_HAL_Driver/Src/stm32f4xx_hal_tim.c **** 
 884:Drivers/STM32F4xx_HAL_Driver/Src/stm32f4xx_hal_tim.c ****   /* Check the TIM channel state */
 885:Drivers/STM32F4xx_HAL_Driver/Src/stm32f4xx_hal_tim.c ****   if (TIM_CHANNEL_STATE_GET(htim, Channel) != HAL_TIM_CHANNEL_STATE_READY)
 1773              		.loc 1 885 44
 1774 000e 3B68     		ldr	r3, [r7]
 1775 0010 002B     		cmp	r3, #0
 1776 0012 09D1     		bne	.L95
 1777              		.loc 1 885 7 discriminator 1
 1778 0014 7B68     		ldr	r3, [r7, #4]
 1779 0016 93F83E30 		ldrb	r3, [r3, #62]
 1780 001a DBB2     		uxtb	r3, r3
 1781              		.loc 1 885 44 discriminator 1
 1782 001c 012B     		cmp	r3, #1
 1783 001e 14BF     		ite	ne
 1784 0020 0123     		movne	r3, #1
 1785 0022 0023     		moveq	r3, #0
 1786 0024 DBB2     		uxtb	r3, r3
 1787 0026 22E0     		b	.L96
 1788              	.L95:
 1789              		.loc 1 885 44 is_stmt 0 discriminator 2
 1790 0028 3B68     		ldr	r3, [r7]
 1791 002a 042B     		cmp	r3, #4
 1792 002c 09D1     		bne	.L97
 1793              		.loc 1 885 7 is_stmt 1 discriminator 4
 1794 002e 7B68     		ldr	r3, [r7, #4]
 1795 0030 93F83F30 		ldrb	r3, [r3, #63]
 1796 0034 DBB2     		uxtb	r3, r3
 1797              		.loc 1 885 44 discriminator 4
 1798 0036 012B     		cmp	r3, #1
 1799 0038 14BF     		ite	ne
 1800 003a 0123     		movne	r3, #1
 1801 003c 0023     		moveq	r3, #0
 1802 003e DBB2     		uxtb	r3, r3
 1803 0040 15E0     		b	.L96
 1804              	.L97:
 1805              		.loc 1 885 44 is_stmt 0 discriminator 5
 1806 0042 3B68     		ldr	r3, [r7]
 1807 0044 082B     		cmp	r3, #8
 1808 0046 09D1     		bne	.L99
 1809              		.loc 1 885 7 is_stmt 1 discriminator 7
 1810 0048 7B68     		ldr	r3, [r7, #4]
 1811 004a 93F84030 		ldrb	r3, [r3, #64]
 1812 004e DBB2     		uxtb	r3, r3
 1813              		.loc 1 885 44 discriminator 7
 1814 0050 012B     		cmp	r3, #1
 1815 0052 14BF     		ite	ne
 1816 0054 0123     		movne	r3, #1
 1817 0056 0023     		moveq	r3, #0
 1818 0058 DBB2     		uxtb	r3, r3
 1819 005a 08E0     		b	.L96
 1820              	.L99:
 1821              		.loc 1 885 7 discriminator 8
 1822 005c 7B68     		ldr	r3, [r7, #4]
ARM GAS  /tmp/ccL5e6Lm.s 			page 48


 1823 005e 93F84130 		ldrb	r3, [r3, #65]
 1824 0062 DBB2     		uxtb	r3, r3
 1825              		.loc 1 885 44 discriminator 8
 1826 0064 012B     		cmp	r3, #1
 1827 0066 14BF     		ite	ne
 1828 0068 0123     		movne	r3, #1
 1829 006a 0023     		moveq	r3, #0
 1830 006c DBB2     		uxtb	r3, r3
 1831              	.L96:
 1832              		.loc 1 885 6 discriminator 12
 1833 006e 002B     		cmp	r3, #0
 1834 0070 01D0     		beq	.L101
 886:Drivers/STM32F4xx_HAL_Driver/Src/stm32f4xx_hal_tim.c ****   {
 887:Drivers/STM32F4xx_HAL_Driver/Src/stm32f4xx_hal_tim.c ****     return HAL_ERROR;
 1835              		.loc 1 887 12
 1836 0072 0123     		movs	r3, #1
 1837 0074 B3E0     		b	.L102
 1838              	.L101:
 888:Drivers/STM32F4xx_HAL_Driver/Src/stm32f4xx_hal_tim.c ****   }
 889:Drivers/STM32F4xx_HAL_Driver/Src/stm32f4xx_hal_tim.c **** 
 890:Drivers/STM32F4xx_HAL_Driver/Src/stm32f4xx_hal_tim.c ****   /* Set the TIM channel state */
 891:Drivers/STM32F4xx_HAL_Driver/Src/stm32f4xx_hal_tim.c ****   TIM_CHANNEL_STATE_SET(htim, Channel, HAL_TIM_CHANNEL_STATE_BUSY);
 1839              		.loc 1 891 3
 1840 0076 3B68     		ldr	r3, [r7]
 1841 0078 002B     		cmp	r3, #0
 1842 007a 04D1     		bne	.L103
 1843              		.loc 1 891 3 is_stmt 0 discriminator 1
 1844 007c 7B68     		ldr	r3, [r7, #4]
 1845 007e 0222     		movs	r2, #2
 1846 0080 83F83E20 		strb	r2, [r3, #62]
 1847 0084 13E0     		b	.L104
 1848              	.L103:
 1849              		.loc 1 891 3 discriminator 2
 1850 0086 3B68     		ldr	r3, [r7]
 1851 0088 042B     		cmp	r3, #4
 1852 008a 04D1     		bne	.L105
 1853              		.loc 1 891 3 discriminator 3
 1854 008c 7B68     		ldr	r3, [r7, #4]
 1855 008e 0222     		movs	r2, #2
 1856 0090 83F83F20 		strb	r2, [r3, #63]
 1857 0094 0BE0     		b	.L104
 1858              	.L105:
 1859              		.loc 1 891 3 discriminator 4
 1860 0096 3B68     		ldr	r3, [r7]
 1861 0098 082B     		cmp	r3, #8
 1862 009a 04D1     		bne	.L107
 1863              		.loc 1 891 3 discriminator 6
 1864 009c 7B68     		ldr	r3, [r7, #4]
 1865 009e 0222     		movs	r2, #2
 1866 00a0 83F84020 		strb	r2, [r3, #64]
 1867 00a4 03E0     		b	.L104
 1868              	.L107:
 1869              		.loc 1 891 3 discriminator 7
 1870 00a6 7B68     		ldr	r3, [r7, #4]
 1871 00a8 0222     		movs	r2, #2
 1872 00aa 83F84120 		strb	r2, [r3, #65]
 1873              	.L104:
ARM GAS  /tmp/ccL5e6Lm.s 			page 49


 892:Drivers/STM32F4xx_HAL_Driver/Src/stm32f4xx_hal_tim.c **** 
 893:Drivers/STM32F4xx_HAL_Driver/Src/stm32f4xx_hal_tim.c ****   switch (Channel)
 1874              		.loc 1 893 3 is_stmt 1
 1875 00ae 3B68     		ldr	r3, [r7]
 1876 00b0 0C2B     		cmp	r3, #12
 1877 00b2 41D8     		bhi	.L109
 1878 00b4 01A2     		adr	r2, .L111
 1879 00b6 52F823F0 		ldr	pc, [r2, r3, lsl #2]
 1880 00ba 00BF     		.p2align 2
 1881              	.L111:
 1882 00bc F1000000 		.word	.L114+1
 1883 00c0 39010000 		.word	.L109+1
 1884 00c4 39010000 		.word	.L109+1
 1885 00c8 39010000 		.word	.L109+1
 1886 00cc 03010000 		.word	.L113+1
 1887 00d0 39010000 		.word	.L109+1
 1888 00d4 39010000 		.word	.L109+1
 1889 00d8 39010000 		.word	.L109+1
 1890 00dc 15010000 		.word	.L112+1
 1891 00e0 39010000 		.word	.L109+1
 1892 00e4 39010000 		.word	.L109+1
 1893 00e8 39010000 		.word	.L109+1
 1894 00ec 27010000 		.word	.L110+1
 1895              		.p2align 1
 1896              	.L114:
 894:Drivers/STM32F4xx_HAL_Driver/Src/stm32f4xx_hal_tim.c ****   {
 895:Drivers/STM32F4xx_HAL_Driver/Src/stm32f4xx_hal_tim.c ****     case TIM_CHANNEL_1:
 896:Drivers/STM32F4xx_HAL_Driver/Src/stm32f4xx_hal_tim.c ****     {
 897:Drivers/STM32F4xx_HAL_Driver/Src/stm32f4xx_hal_tim.c ****       /* Enable the TIM Capture/Compare 1 interrupt */
 898:Drivers/STM32F4xx_HAL_Driver/Src/stm32f4xx_hal_tim.c ****       __HAL_TIM_ENABLE_IT(htim, TIM_IT_CC1);
 1897              		.loc 1 898 7
 1898 00f0 7B68     		ldr	r3, [r7, #4]
 1899 00f2 1B68     		ldr	r3, [r3]
 1900 00f4 DA68     		ldr	r2, [r3, #12]
 1901 00f6 7B68     		ldr	r3, [r7, #4]
 1902 00f8 1B68     		ldr	r3, [r3]
 1903 00fa 42F00202 		orr	r2, r2, #2
 1904 00fe DA60     		str	r2, [r3, #12]
 899:Drivers/STM32F4xx_HAL_Driver/Src/stm32f4xx_hal_tim.c ****       break;
 1905              		.loc 1 899 7
 1906 0100 1DE0     		b	.L115
 1907              	.L113:
 900:Drivers/STM32F4xx_HAL_Driver/Src/stm32f4xx_hal_tim.c ****     }
 901:Drivers/STM32F4xx_HAL_Driver/Src/stm32f4xx_hal_tim.c **** 
 902:Drivers/STM32F4xx_HAL_Driver/Src/stm32f4xx_hal_tim.c ****     case TIM_CHANNEL_2:
 903:Drivers/STM32F4xx_HAL_Driver/Src/stm32f4xx_hal_tim.c ****     {
 904:Drivers/STM32F4xx_HAL_Driver/Src/stm32f4xx_hal_tim.c ****       /* Enable the TIM Capture/Compare 2 interrupt */
 905:Drivers/STM32F4xx_HAL_Driver/Src/stm32f4xx_hal_tim.c ****       __HAL_TIM_ENABLE_IT(htim, TIM_IT_CC2);
 1908              		.loc 1 905 7
 1909 0102 7B68     		ldr	r3, [r7, #4]
 1910 0104 1B68     		ldr	r3, [r3]
 1911 0106 DA68     		ldr	r2, [r3, #12]
 1912 0108 7B68     		ldr	r3, [r7, #4]
 1913 010a 1B68     		ldr	r3, [r3]
 1914 010c 42F00402 		orr	r2, r2, #4
 1915 0110 DA60     		str	r2, [r3, #12]
 906:Drivers/STM32F4xx_HAL_Driver/Src/stm32f4xx_hal_tim.c ****       break;
ARM GAS  /tmp/ccL5e6Lm.s 			page 50


 1916              		.loc 1 906 7
 1917 0112 14E0     		b	.L115
 1918              	.L112:
 907:Drivers/STM32F4xx_HAL_Driver/Src/stm32f4xx_hal_tim.c ****     }
 908:Drivers/STM32F4xx_HAL_Driver/Src/stm32f4xx_hal_tim.c **** 
 909:Drivers/STM32F4xx_HAL_Driver/Src/stm32f4xx_hal_tim.c ****     case TIM_CHANNEL_3:
 910:Drivers/STM32F4xx_HAL_Driver/Src/stm32f4xx_hal_tim.c ****     {
 911:Drivers/STM32F4xx_HAL_Driver/Src/stm32f4xx_hal_tim.c ****       /* Enable the TIM Capture/Compare 3 interrupt */
 912:Drivers/STM32F4xx_HAL_Driver/Src/stm32f4xx_hal_tim.c ****       __HAL_TIM_ENABLE_IT(htim, TIM_IT_CC3);
 1919              		.loc 1 912 7
 1920 0114 7B68     		ldr	r3, [r7, #4]
 1921 0116 1B68     		ldr	r3, [r3]
 1922 0118 DA68     		ldr	r2, [r3, #12]
 1923 011a 7B68     		ldr	r3, [r7, #4]
 1924 011c 1B68     		ldr	r3, [r3]
 1925 011e 42F00802 		orr	r2, r2, #8
 1926 0122 DA60     		str	r2, [r3, #12]
 913:Drivers/STM32F4xx_HAL_Driver/Src/stm32f4xx_hal_tim.c ****       break;
 1927              		.loc 1 913 7
 1928 0124 0BE0     		b	.L115
 1929              	.L110:
 914:Drivers/STM32F4xx_HAL_Driver/Src/stm32f4xx_hal_tim.c ****     }
 915:Drivers/STM32F4xx_HAL_Driver/Src/stm32f4xx_hal_tim.c **** 
 916:Drivers/STM32F4xx_HAL_Driver/Src/stm32f4xx_hal_tim.c ****     case TIM_CHANNEL_4:
 917:Drivers/STM32F4xx_HAL_Driver/Src/stm32f4xx_hal_tim.c ****     {
 918:Drivers/STM32F4xx_HAL_Driver/Src/stm32f4xx_hal_tim.c ****       /* Enable the TIM Capture/Compare 4 interrupt */
 919:Drivers/STM32F4xx_HAL_Driver/Src/stm32f4xx_hal_tim.c ****       __HAL_TIM_ENABLE_IT(htim, TIM_IT_CC4);
 1930              		.loc 1 919 7
 1931 0126 7B68     		ldr	r3, [r7, #4]
 1932 0128 1B68     		ldr	r3, [r3]
 1933 012a DA68     		ldr	r2, [r3, #12]
 1934 012c 7B68     		ldr	r3, [r7, #4]
 1935 012e 1B68     		ldr	r3, [r3]
 1936 0130 42F01002 		orr	r2, r2, #16
 1937 0134 DA60     		str	r2, [r3, #12]
 920:Drivers/STM32F4xx_HAL_Driver/Src/stm32f4xx_hal_tim.c ****       break;
 1938              		.loc 1 920 7
 1939 0136 02E0     		b	.L115
 1940              	.L109:
 921:Drivers/STM32F4xx_HAL_Driver/Src/stm32f4xx_hal_tim.c ****     }
 922:Drivers/STM32F4xx_HAL_Driver/Src/stm32f4xx_hal_tim.c **** 
 923:Drivers/STM32F4xx_HAL_Driver/Src/stm32f4xx_hal_tim.c ****     default:
 924:Drivers/STM32F4xx_HAL_Driver/Src/stm32f4xx_hal_tim.c ****       status = HAL_ERROR;
 1941              		.loc 1 924 14
 1942 0138 0123     		movs	r3, #1
 1943 013a FB73     		strb	r3, [r7, #15]
 925:Drivers/STM32F4xx_HAL_Driver/Src/stm32f4xx_hal_tim.c ****       break;
 1944              		.loc 1 925 7
 1945 013c 00BF     		nop
 1946              	.L115:
 926:Drivers/STM32F4xx_HAL_Driver/Src/stm32f4xx_hal_tim.c ****   }
 927:Drivers/STM32F4xx_HAL_Driver/Src/stm32f4xx_hal_tim.c **** 
 928:Drivers/STM32F4xx_HAL_Driver/Src/stm32f4xx_hal_tim.c ****   if (status == HAL_OK)
 1947              		.loc 1 928 6
 1948 013e FB7B     		ldrb	r3, [r7, #15]	@ zero_extendqisi2
 1949 0140 002B     		cmp	r3, #0
 1950 0142 4BD1     		bne	.L116
ARM GAS  /tmp/ccL5e6Lm.s 			page 51


 929:Drivers/STM32F4xx_HAL_Driver/Src/stm32f4xx_hal_tim.c ****   {
 930:Drivers/STM32F4xx_HAL_Driver/Src/stm32f4xx_hal_tim.c ****     /* Enable the Output compare channel */
 931:Drivers/STM32F4xx_HAL_Driver/Src/stm32f4xx_hal_tim.c ****     TIM_CCxChannelCmd(htim->Instance, Channel, TIM_CCx_ENABLE);
 1951              		.loc 1 931 5
 1952 0144 7B68     		ldr	r3, [r7, #4]
 1953 0146 1B68     		ldr	r3, [r3]
 1954 0148 0122     		movs	r2, #1
 1955 014a 3968     		ldr	r1, [r7]
 1956 014c 1846     		mov	r0, r3
 1957 014e FFF7FEFF 		bl	TIM_CCxChannelCmd
 932:Drivers/STM32F4xx_HAL_Driver/Src/stm32f4xx_hal_tim.c **** 
 933:Drivers/STM32F4xx_HAL_Driver/Src/stm32f4xx_hal_tim.c ****     if (IS_TIM_BREAK_INSTANCE(htim->Instance) != RESET)
 1958              		.loc 1 933 9
 1959 0152 7B68     		ldr	r3, [r7, #4]
 1960 0154 1B68     		ldr	r3, [r3]
 1961              		.loc 1 933 8
 1962 0156 244A     		ldr	r2, .L121
 1963 0158 9342     		cmp	r3, r2
 1964 015a 07D1     		bne	.L117
 934:Drivers/STM32F4xx_HAL_Driver/Src/stm32f4xx_hal_tim.c ****     {
 935:Drivers/STM32F4xx_HAL_Driver/Src/stm32f4xx_hal_tim.c ****       /* Enable the main output */
 936:Drivers/STM32F4xx_HAL_Driver/Src/stm32f4xx_hal_tim.c ****       __HAL_TIM_MOE_ENABLE(htim);
 1965              		.loc 1 936 7
 1966 015c 7B68     		ldr	r3, [r7, #4]
 1967 015e 1B68     		ldr	r3, [r3]
 1968 0160 5A6C     		ldr	r2, [r3, #68]
 1969 0162 7B68     		ldr	r3, [r7, #4]
 1970 0164 1B68     		ldr	r3, [r3]
 1971 0166 42F40042 		orr	r2, r2, #32768
 1972 016a 5A64     		str	r2, [r3, #68]
 1973              	.L117:
 937:Drivers/STM32F4xx_HAL_Driver/Src/stm32f4xx_hal_tim.c ****     }
 938:Drivers/STM32F4xx_HAL_Driver/Src/stm32f4xx_hal_tim.c **** 
 939:Drivers/STM32F4xx_HAL_Driver/Src/stm32f4xx_hal_tim.c ****     /* Enable the Peripheral, except in trigger mode where enable is automatically done with trigge
 940:Drivers/STM32F4xx_HAL_Driver/Src/stm32f4xx_hal_tim.c ****     if (IS_TIM_SLAVE_INSTANCE(htim->Instance))
 1974              		.loc 1 940 9
 1975 016c 7B68     		ldr	r3, [r7, #4]
 1976 016e 1B68     		ldr	r3, [r3]
 1977              		.loc 1 940 8
 1978 0170 1D4A     		ldr	r2, .L121
 1979 0172 9342     		cmp	r3, r2
 1980 0174 18D0     		beq	.L118
 1981              		.loc 1 940 9 discriminator 1
 1982 0176 7B68     		ldr	r3, [r7, #4]
 1983 0178 1B68     		ldr	r3, [r3]
 1984 017a B3F1804F 		cmp	r3, #1073741824
 1985 017e 13D0     		beq	.L118
 1986              		.loc 1 940 9 is_stmt 0 discriminator 2
 1987 0180 7B68     		ldr	r3, [r7, #4]
 1988 0182 1B68     		ldr	r3, [r3]
 1989 0184 194A     		ldr	r2, .L121+4
 1990 0186 9342     		cmp	r3, r2
 1991 0188 0ED0     		beq	.L118
 1992              		.loc 1 940 9 discriminator 3
 1993 018a 7B68     		ldr	r3, [r7, #4]
 1994 018c 1B68     		ldr	r3, [r3]
 1995 018e 184A     		ldr	r2, .L121+8
ARM GAS  /tmp/ccL5e6Lm.s 			page 52


 1996 0190 9342     		cmp	r3, r2
 1997 0192 09D0     		beq	.L118
 1998              		.loc 1 940 9 discriminator 4
 1999 0194 7B68     		ldr	r3, [r7, #4]
 2000 0196 1B68     		ldr	r3, [r3]
 2001 0198 164A     		ldr	r2, .L121+12
 2002 019a 9342     		cmp	r3, r2
 2003 019c 04D0     		beq	.L118
 2004              		.loc 1 940 9 discriminator 5
 2005 019e 7B68     		ldr	r3, [r7, #4]
 2006 01a0 1B68     		ldr	r3, [r3]
 2007 01a2 154A     		ldr	r2, .L121+16
 2008 01a4 9342     		cmp	r3, r2
 2009 01a6 11D1     		bne	.L119
 2010              	.L118:
 941:Drivers/STM32F4xx_HAL_Driver/Src/stm32f4xx_hal_tim.c ****     {
 942:Drivers/STM32F4xx_HAL_Driver/Src/stm32f4xx_hal_tim.c ****       tmpsmcr = htim->Instance->SMCR & TIM_SMCR_SMS;
 2011              		.loc 1 942 21 is_stmt 1
 2012 01a8 7B68     		ldr	r3, [r7, #4]
 2013 01aa 1B68     		ldr	r3, [r3]
 2014              		.loc 1 942 31
 2015 01ac 9B68     		ldr	r3, [r3, #8]
 2016              		.loc 1 942 15
 2017 01ae 03F00703 		and	r3, r3, #7
 2018 01b2 BB60     		str	r3, [r7, #8]
 943:Drivers/STM32F4xx_HAL_Driver/Src/stm32f4xx_hal_tim.c ****       if (!IS_TIM_SLAVEMODE_TRIGGER_ENABLED(tmpsmcr))
 2019              		.loc 1 943 10
 2020 01b4 BB68     		ldr	r3, [r7, #8]
 2021 01b6 062B     		cmp	r3, #6
 2022 01b8 10D0     		beq	.L116
 944:Drivers/STM32F4xx_HAL_Driver/Src/stm32f4xx_hal_tim.c ****       {
 945:Drivers/STM32F4xx_HAL_Driver/Src/stm32f4xx_hal_tim.c ****         __HAL_TIM_ENABLE(htim);
 2023              		.loc 1 945 9
 2024 01ba 7B68     		ldr	r3, [r7, #4]
 2025 01bc 1B68     		ldr	r3, [r3]
 2026 01be 1A68     		ldr	r2, [r3]
 2027 01c0 7B68     		ldr	r3, [r7, #4]
 2028 01c2 1B68     		ldr	r3, [r3]
 2029 01c4 42F00102 		orr	r2, r2, #1
 2030 01c8 1A60     		str	r2, [r3]
 943:Drivers/STM32F4xx_HAL_Driver/Src/stm32f4xx_hal_tim.c ****       if (!IS_TIM_SLAVEMODE_TRIGGER_ENABLED(tmpsmcr))
 2031              		.loc 1 943 10
 2032 01ca 07E0     		b	.L116
 2033              	.L119:
 946:Drivers/STM32F4xx_HAL_Driver/Src/stm32f4xx_hal_tim.c ****       }
 947:Drivers/STM32F4xx_HAL_Driver/Src/stm32f4xx_hal_tim.c ****     }
 948:Drivers/STM32F4xx_HAL_Driver/Src/stm32f4xx_hal_tim.c ****     else
 949:Drivers/STM32F4xx_HAL_Driver/Src/stm32f4xx_hal_tim.c ****     {
 950:Drivers/STM32F4xx_HAL_Driver/Src/stm32f4xx_hal_tim.c ****       __HAL_TIM_ENABLE(htim);
 2034              		.loc 1 950 7
 2035 01cc 7B68     		ldr	r3, [r7, #4]
 2036 01ce 1B68     		ldr	r3, [r3]
 2037 01d0 1A68     		ldr	r2, [r3]
 2038 01d2 7B68     		ldr	r3, [r7, #4]
 2039 01d4 1B68     		ldr	r3, [r3]
 2040 01d6 42F00102 		orr	r2, r2, #1
 2041 01da 1A60     		str	r2, [r3]
ARM GAS  /tmp/ccL5e6Lm.s 			page 53


 2042              	.L116:
 951:Drivers/STM32F4xx_HAL_Driver/Src/stm32f4xx_hal_tim.c ****     }
 952:Drivers/STM32F4xx_HAL_Driver/Src/stm32f4xx_hal_tim.c ****   }
 953:Drivers/STM32F4xx_HAL_Driver/Src/stm32f4xx_hal_tim.c **** 
 954:Drivers/STM32F4xx_HAL_Driver/Src/stm32f4xx_hal_tim.c ****   /* Return function status */
 955:Drivers/STM32F4xx_HAL_Driver/Src/stm32f4xx_hal_tim.c ****   return status;
 2043              		.loc 1 955 10
 2044 01dc FB7B     		ldrb	r3, [r7, #15]	@ zero_extendqisi2
 2045              	.L102:
 956:Drivers/STM32F4xx_HAL_Driver/Src/stm32f4xx_hal_tim.c **** }
 2046              		.loc 1 956 1
 2047 01de 1846     		mov	r0, r3
 2048 01e0 1037     		adds	r7, r7, #16
 2049              	.LCFI91:
 2050              		.cfi_def_cfa_offset 8
 2051 01e2 BD46     		mov	sp, r7
 2052              	.LCFI92:
 2053              		.cfi_def_cfa_register 13
 2054              		@ sp needed
 2055 01e4 80BD     		pop	{r7, pc}
 2056              	.L122:
 2057 01e6 00BF     		.align	2
 2058              	.L121:
 2059 01e8 00000140 		.word	1073807360
 2060 01ec 00040040 		.word	1073742848
 2061 01f0 00080040 		.word	1073743872
 2062 01f4 000C0040 		.word	1073744896
 2063 01f8 00400140 		.word	1073823744
 2064              		.cfi_endproc
 2065              	.LFE232:
 2067              		.section	.text.HAL_TIM_OC_Stop_IT,"ax",%progbits
 2068              		.align	1
 2069              		.global	HAL_TIM_OC_Stop_IT
 2070              		.syntax unified
 2071              		.thumb
 2072              		.thumb_func
 2074              	HAL_TIM_OC_Stop_IT:
 2075              	.LFB233:
 957:Drivers/STM32F4xx_HAL_Driver/Src/stm32f4xx_hal_tim.c **** 
 958:Drivers/STM32F4xx_HAL_Driver/Src/stm32f4xx_hal_tim.c **** /**
 959:Drivers/STM32F4xx_HAL_Driver/Src/stm32f4xx_hal_tim.c ****   * @brief  Stops the TIM Output Compare signal generation in interrupt mode.
 960:Drivers/STM32F4xx_HAL_Driver/Src/stm32f4xx_hal_tim.c ****   * @param  htim TIM Output Compare handle
 961:Drivers/STM32F4xx_HAL_Driver/Src/stm32f4xx_hal_tim.c ****   * @param  Channel TIM Channel to be disabled
 962:Drivers/STM32F4xx_HAL_Driver/Src/stm32f4xx_hal_tim.c ****   *          This parameter can be one of the following values:
 963:Drivers/STM32F4xx_HAL_Driver/Src/stm32f4xx_hal_tim.c ****   *            @arg TIM_CHANNEL_1: TIM Channel 1 selected
 964:Drivers/STM32F4xx_HAL_Driver/Src/stm32f4xx_hal_tim.c ****   *            @arg TIM_CHANNEL_2: TIM Channel 2 selected
 965:Drivers/STM32F4xx_HAL_Driver/Src/stm32f4xx_hal_tim.c ****   *            @arg TIM_CHANNEL_3: TIM Channel 3 selected
 966:Drivers/STM32F4xx_HAL_Driver/Src/stm32f4xx_hal_tim.c ****   *            @arg TIM_CHANNEL_4: TIM Channel 4 selected
 967:Drivers/STM32F4xx_HAL_Driver/Src/stm32f4xx_hal_tim.c ****   * @retval HAL status
 968:Drivers/STM32F4xx_HAL_Driver/Src/stm32f4xx_hal_tim.c ****   */
 969:Drivers/STM32F4xx_HAL_Driver/Src/stm32f4xx_hal_tim.c **** HAL_StatusTypeDef HAL_TIM_OC_Stop_IT(TIM_HandleTypeDef *htim, uint32_t Channel)
 970:Drivers/STM32F4xx_HAL_Driver/Src/stm32f4xx_hal_tim.c **** {
 2076              		.loc 1 970 1
 2077              		.cfi_startproc
 2078              		@ args = 0, pretend = 0, frame = 16
 2079              		@ frame_needed = 1, uses_anonymous_args = 0
 2080 0000 80B5     		push	{r7, lr}
ARM GAS  /tmp/ccL5e6Lm.s 			page 54


 2081              	.LCFI93:
 2082              		.cfi_def_cfa_offset 8
 2083              		.cfi_offset 7, -8
 2084              		.cfi_offset 14, -4
 2085 0002 84B0     		sub	sp, sp, #16
 2086              	.LCFI94:
 2087              		.cfi_def_cfa_offset 24
 2088 0004 00AF     		add	r7, sp, #0
 2089              	.LCFI95:
 2090              		.cfi_def_cfa_register 7
 2091 0006 7860     		str	r0, [r7, #4]
 2092 0008 3960     		str	r1, [r7]
 971:Drivers/STM32F4xx_HAL_Driver/Src/stm32f4xx_hal_tim.c ****   HAL_StatusTypeDef status = HAL_OK;
 2093              		.loc 1 971 21
 2094 000a 0023     		movs	r3, #0
 2095 000c FB73     		strb	r3, [r7, #15]
 972:Drivers/STM32F4xx_HAL_Driver/Src/stm32f4xx_hal_tim.c **** 
 973:Drivers/STM32F4xx_HAL_Driver/Src/stm32f4xx_hal_tim.c ****   /* Check the parameters */
 974:Drivers/STM32F4xx_HAL_Driver/Src/stm32f4xx_hal_tim.c ****   assert_param(IS_TIM_CCX_INSTANCE(htim->Instance, Channel));
 975:Drivers/STM32F4xx_HAL_Driver/Src/stm32f4xx_hal_tim.c **** 
 976:Drivers/STM32F4xx_HAL_Driver/Src/stm32f4xx_hal_tim.c ****   switch (Channel)
 2096              		.loc 1 976 3
 2097 000e 3B68     		ldr	r3, [r7]
 2098 0010 0C2B     		cmp	r3, #12
 2099 0012 41D8     		bhi	.L124
 2100 0014 01A2     		adr	r2, .L126
 2101 0016 52F823F0 		ldr	pc, [r2, r3, lsl #2]
 2102 001a 00BF     		.p2align 2
 2103              	.L126:
 2104 001c 51000000 		.word	.L129+1
 2105 0020 99000000 		.word	.L124+1
 2106 0024 99000000 		.word	.L124+1
 2107 0028 99000000 		.word	.L124+1
 2108 002c 63000000 		.word	.L128+1
 2109 0030 99000000 		.word	.L124+1
 2110 0034 99000000 		.word	.L124+1
 2111 0038 99000000 		.word	.L124+1
 2112 003c 75000000 		.word	.L127+1
 2113 0040 99000000 		.word	.L124+1
 2114 0044 99000000 		.word	.L124+1
 2115 0048 99000000 		.word	.L124+1
 2116 004c 87000000 		.word	.L125+1
 2117              		.p2align 1
 2118              	.L129:
 977:Drivers/STM32F4xx_HAL_Driver/Src/stm32f4xx_hal_tim.c ****   {
 978:Drivers/STM32F4xx_HAL_Driver/Src/stm32f4xx_hal_tim.c ****     case TIM_CHANNEL_1:
 979:Drivers/STM32F4xx_HAL_Driver/Src/stm32f4xx_hal_tim.c ****     {
 980:Drivers/STM32F4xx_HAL_Driver/Src/stm32f4xx_hal_tim.c ****       /* Disable the TIM Capture/Compare 1 interrupt */
 981:Drivers/STM32F4xx_HAL_Driver/Src/stm32f4xx_hal_tim.c ****       __HAL_TIM_DISABLE_IT(htim, TIM_IT_CC1);
 2119              		.loc 1 981 7
 2120 0050 7B68     		ldr	r3, [r7, #4]
 2121 0052 1B68     		ldr	r3, [r3]
 2122 0054 DA68     		ldr	r2, [r3, #12]
 2123 0056 7B68     		ldr	r3, [r7, #4]
 2124 0058 1B68     		ldr	r3, [r3]
 2125 005a 22F00202 		bic	r2, r2, #2
 2126 005e DA60     		str	r2, [r3, #12]
ARM GAS  /tmp/ccL5e6Lm.s 			page 55


 982:Drivers/STM32F4xx_HAL_Driver/Src/stm32f4xx_hal_tim.c ****       break;
 2127              		.loc 1 982 7
 2128 0060 1DE0     		b	.L130
 2129              	.L128:
 983:Drivers/STM32F4xx_HAL_Driver/Src/stm32f4xx_hal_tim.c ****     }
 984:Drivers/STM32F4xx_HAL_Driver/Src/stm32f4xx_hal_tim.c **** 
 985:Drivers/STM32F4xx_HAL_Driver/Src/stm32f4xx_hal_tim.c ****     case TIM_CHANNEL_2:
 986:Drivers/STM32F4xx_HAL_Driver/Src/stm32f4xx_hal_tim.c ****     {
 987:Drivers/STM32F4xx_HAL_Driver/Src/stm32f4xx_hal_tim.c ****       /* Disable the TIM Capture/Compare 2 interrupt */
 988:Drivers/STM32F4xx_HAL_Driver/Src/stm32f4xx_hal_tim.c ****       __HAL_TIM_DISABLE_IT(htim, TIM_IT_CC2);
 2130              		.loc 1 988 7
 2131 0062 7B68     		ldr	r3, [r7, #4]
 2132 0064 1B68     		ldr	r3, [r3]
 2133 0066 DA68     		ldr	r2, [r3, #12]
 2134 0068 7B68     		ldr	r3, [r7, #4]
 2135 006a 1B68     		ldr	r3, [r3]
 2136 006c 22F00402 		bic	r2, r2, #4
 2137 0070 DA60     		str	r2, [r3, #12]
 989:Drivers/STM32F4xx_HAL_Driver/Src/stm32f4xx_hal_tim.c ****       break;
 2138              		.loc 1 989 7
 2139 0072 14E0     		b	.L130
 2140              	.L127:
 990:Drivers/STM32F4xx_HAL_Driver/Src/stm32f4xx_hal_tim.c ****     }
 991:Drivers/STM32F4xx_HAL_Driver/Src/stm32f4xx_hal_tim.c **** 
 992:Drivers/STM32F4xx_HAL_Driver/Src/stm32f4xx_hal_tim.c ****     case TIM_CHANNEL_3:
 993:Drivers/STM32F4xx_HAL_Driver/Src/stm32f4xx_hal_tim.c ****     {
 994:Drivers/STM32F4xx_HAL_Driver/Src/stm32f4xx_hal_tim.c ****       /* Disable the TIM Capture/Compare 3 interrupt */
 995:Drivers/STM32F4xx_HAL_Driver/Src/stm32f4xx_hal_tim.c ****       __HAL_TIM_DISABLE_IT(htim, TIM_IT_CC3);
 2141              		.loc 1 995 7
 2142 0074 7B68     		ldr	r3, [r7, #4]
 2143 0076 1B68     		ldr	r3, [r3]
 2144 0078 DA68     		ldr	r2, [r3, #12]
 2145 007a 7B68     		ldr	r3, [r7, #4]
 2146 007c 1B68     		ldr	r3, [r3]
 2147 007e 22F00802 		bic	r2, r2, #8
 2148 0082 DA60     		str	r2, [r3, #12]
 996:Drivers/STM32F4xx_HAL_Driver/Src/stm32f4xx_hal_tim.c ****       break;
 2149              		.loc 1 996 7
 2150 0084 0BE0     		b	.L130
 2151              	.L125:
 997:Drivers/STM32F4xx_HAL_Driver/Src/stm32f4xx_hal_tim.c ****     }
 998:Drivers/STM32F4xx_HAL_Driver/Src/stm32f4xx_hal_tim.c **** 
 999:Drivers/STM32F4xx_HAL_Driver/Src/stm32f4xx_hal_tim.c ****     case TIM_CHANNEL_4:
1000:Drivers/STM32F4xx_HAL_Driver/Src/stm32f4xx_hal_tim.c ****     {
1001:Drivers/STM32F4xx_HAL_Driver/Src/stm32f4xx_hal_tim.c ****       /* Disable the TIM Capture/Compare 4 interrupt */
1002:Drivers/STM32F4xx_HAL_Driver/Src/stm32f4xx_hal_tim.c ****       __HAL_TIM_DISABLE_IT(htim, TIM_IT_CC4);
 2152              		.loc 1 1002 7
 2153 0086 7B68     		ldr	r3, [r7, #4]
 2154 0088 1B68     		ldr	r3, [r3]
 2155 008a DA68     		ldr	r2, [r3, #12]
 2156 008c 7B68     		ldr	r3, [r7, #4]
 2157 008e 1B68     		ldr	r3, [r3]
 2158 0090 22F01002 		bic	r2, r2, #16
 2159 0094 DA60     		str	r2, [r3, #12]
1003:Drivers/STM32F4xx_HAL_Driver/Src/stm32f4xx_hal_tim.c ****       break;
 2160              		.loc 1 1003 7
 2161 0096 02E0     		b	.L130
ARM GAS  /tmp/ccL5e6Lm.s 			page 56


 2162              	.L124:
1004:Drivers/STM32F4xx_HAL_Driver/Src/stm32f4xx_hal_tim.c ****     }
1005:Drivers/STM32F4xx_HAL_Driver/Src/stm32f4xx_hal_tim.c **** 
1006:Drivers/STM32F4xx_HAL_Driver/Src/stm32f4xx_hal_tim.c ****     default:
1007:Drivers/STM32F4xx_HAL_Driver/Src/stm32f4xx_hal_tim.c ****       status = HAL_ERROR;
 2163              		.loc 1 1007 14
 2164 0098 0123     		movs	r3, #1
 2165 009a FB73     		strb	r3, [r7, #15]
1008:Drivers/STM32F4xx_HAL_Driver/Src/stm32f4xx_hal_tim.c ****       break;
 2166              		.loc 1 1008 7
 2167 009c 00BF     		nop
 2168              	.L130:
1009:Drivers/STM32F4xx_HAL_Driver/Src/stm32f4xx_hal_tim.c ****   }
1010:Drivers/STM32F4xx_HAL_Driver/Src/stm32f4xx_hal_tim.c **** 
1011:Drivers/STM32F4xx_HAL_Driver/Src/stm32f4xx_hal_tim.c ****   if (status == HAL_OK)
 2169              		.loc 1 1011 6
 2170 009e FB7B     		ldrb	r3, [r7, #15]	@ zero_extendqisi2
 2171 00a0 002B     		cmp	r3, #0
 2172 00a2 57D1     		bne	.L131
1012:Drivers/STM32F4xx_HAL_Driver/Src/stm32f4xx_hal_tim.c ****   {
1013:Drivers/STM32F4xx_HAL_Driver/Src/stm32f4xx_hal_tim.c ****     /* Disable the Output compare channel */
1014:Drivers/STM32F4xx_HAL_Driver/Src/stm32f4xx_hal_tim.c ****     TIM_CCxChannelCmd(htim->Instance, Channel, TIM_CCx_DISABLE);
 2173              		.loc 1 1014 5
 2174 00a4 7B68     		ldr	r3, [r7, #4]
 2175 00a6 1B68     		ldr	r3, [r3]
 2176 00a8 0022     		movs	r2, #0
 2177 00aa 3968     		ldr	r1, [r7]
 2178 00ac 1846     		mov	r0, r3
 2179 00ae FFF7FEFF 		bl	TIM_CCxChannelCmd
1015:Drivers/STM32F4xx_HAL_Driver/Src/stm32f4xx_hal_tim.c **** 
1016:Drivers/STM32F4xx_HAL_Driver/Src/stm32f4xx_hal_tim.c ****     if (IS_TIM_BREAK_INSTANCE(htim->Instance) != RESET)
 2180              		.loc 1 1016 9
 2181 00b2 7B68     		ldr	r3, [r7, #4]
 2182 00b4 1B68     		ldr	r3, [r3]
 2183              		.loc 1 1016 8
 2184 00b6 2A4A     		ldr	r2, .L140
 2185 00b8 9342     		cmp	r3, r2
 2186 00ba 17D1     		bne	.L132
1017:Drivers/STM32F4xx_HAL_Driver/Src/stm32f4xx_hal_tim.c ****     {
1018:Drivers/STM32F4xx_HAL_Driver/Src/stm32f4xx_hal_tim.c ****       /* Disable the Main Output */
1019:Drivers/STM32F4xx_HAL_Driver/Src/stm32f4xx_hal_tim.c ****       __HAL_TIM_MOE_DISABLE(htim);
 2187              		.loc 1 1019 7
 2188 00bc 7B68     		ldr	r3, [r7, #4]
 2189 00be 1B68     		ldr	r3, [r3]
 2190 00c0 1A6A     		ldr	r2, [r3, #32]
 2191 00c2 41F21113 		movw	r3, #4369
 2192 00c6 1340     		ands	r3, r3, r2
 2193 00c8 002B     		cmp	r3, #0
 2194 00ca 0FD1     		bne	.L132
 2195              		.loc 1 1019 7 is_stmt 0 discriminator 1
 2196 00cc 7B68     		ldr	r3, [r7, #4]
 2197 00ce 1B68     		ldr	r3, [r3]
 2198 00d0 1A6A     		ldr	r2, [r3, #32]
 2199 00d2 40F24443 		movw	r3, #1092
 2200 00d6 1340     		ands	r3, r3, r2
 2201 00d8 002B     		cmp	r3, #0
 2202 00da 07D1     		bne	.L132
ARM GAS  /tmp/ccL5e6Lm.s 			page 57


 2203              		.loc 1 1019 7 discriminator 2
 2204 00dc 7B68     		ldr	r3, [r7, #4]
 2205 00de 1B68     		ldr	r3, [r3]
 2206 00e0 5A6C     		ldr	r2, [r3, #68]
 2207 00e2 7B68     		ldr	r3, [r7, #4]
 2208 00e4 1B68     		ldr	r3, [r3]
 2209 00e6 22F40042 		bic	r2, r2, #32768
 2210 00ea 5A64     		str	r2, [r3, #68]
 2211              	.L132:
1020:Drivers/STM32F4xx_HAL_Driver/Src/stm32f4xx_hal_tim.c ****     }
1021:Drivers/STM32F4xx_HAL_Driver/Src/stm32f4xx_hal_tim.c **** 
1022:Drivers/STM32F4xx_HAL_Driver/Src/stm32f4xx_hal_tim.c ****     /* Disable the Peripheral */
1023:Drivers/STM32F4xx_HAL_Driver/Src/stm32f4xx_hal_tim.c ****     __HAL_TIM_DISABLE(htim);
 2212              		.loc 1 1023 5 is_stmt 1
 2213 00ec 7B68     		ldr	r3, [r7, #4]
 2214 00ee 1B68     		ldr	r3, [r3]
 2215 00f0 1A6A     		ldr	r2, [r3, #32]
 2216 00f2 41F21113 		movw	r3, #4369
 2217 00f6 1340     		ands	r3, r3, r2
 2218 00f8 002B     		cmp	r3, #0
 2219 00fa 0FD1     		bne	.L133
 2220              		.loc 1 1023 5 is_stmt 0 discriminator 1
 2221 00fc 7B68     		ldr	r3, [r7, #4]
 2222 00fe 1B68     		ldr	r3, [r3]
 2223 0100 1A6A     		ldr	r2, [r3, #32]
 2224 0102 40F24443 		movw	r3, #1092
 2225 0106 1340     		ands	r3, r3, r2
 2226 0108 002B     		cmp	r3, #0
 2227 010a 07D1     		bne	.L133
 2228              		.loc 1 1023 5 discriminator 2
 2229 010c 7B68     		ldr	r3, [r7, #4]
 2230 010e 1B68     		ldr	r3, [r3]
 2231 0110 1A68     		ldr	r2, [r3]
 2232 0112 7B68     		ldr	r3, [r7, #4]
 2233 0114 1B68     		ldr	r3, [r3]
 2234 0116 22F00102 		bic	r2, r2, #1
 2235 011a 1A60     		str	r2, [r3]
 2236              	.L133:
1024:Drivers/STM32F4xx_HAL_Driver/Src/stm32f4xx_hal_tim.c **** 
1025:Drivers/STM32F4xx_HAL_Driver/Src/stm32f4xx_hal_tim.c ****     /* Set the TIM channel state */
1026:Drivers/STM32F4xx_HAL_Driver/Src/stm32f4xx_hal_tim.c ****     TIM_CHANNEL_STATE_SET(htim, Channel, HAL_TIM_CHANNEL_STATE_READY);
 2237              		.loc 1 1026 5 is_stmt 1
 2238 011c 3B68     		ldr	r3, [r7]
 2239 011e 002B     		cmp	r3, #0
 2240 0120 04D1     		bne	.L134
 2241              		.loc 1 1026 5 is_stmt 0 discriminator 1
 2242 0122 7B68     		ldr	r3, [r7, #4]
 2243 0124 0122     		movs	r2, #1
 2244 0126 83F83E20 		strb	r2, [r3, #62]
 2245 012a 13E0     		b	.L131
 2246              	.L134:
 2247              		.loc 1 1026 5 discriminator 2
 2248 012c 3B68     		ldr	r3, [r7]
 2249 012e 042B     		cmp	r3, #4
 2250 0130 04D1     		bne	.L135
 2251              		.loc 1 1026 5 discriminator 3
 2252 0132 7B68     		ldr	r3, [r7, #4]
ARM GAS  /tmp/ccL5e6Lm.s 			page 58


 2253 0134 0122     		movs	r2, #1
 2254 0136 83F83F20 		strb	r2, [r3, #63]
 2255 013a 0BE0     		b	.L131
 2256              	.L135:
 2257              		.loc 1 1026 5 discriminator 4
 2258 013c 3B68     		ldr	r3, [r7]
 2259 013e 082B     		cmp	r3, #8
 2260 0140 04D1     		bne	.L137
 2261              		.loc 1 1026 5 discriminator 6
 2262 0142 7B68     		ldr	r3, [r7, #4]
 2263 0144 0122     		movs	r2, #1
 2264 0146 83F84020 		strb	r2, [r3, #64]
 2265 014a 03E0     		b	.L131
 2266              	.L137:
 2267              		.loc 1 1026 5 discriminator 7
 2268 014c 7B68     		ldr	r3, [r7, #4]
 2269 014e 0122     		movs	r2, #1
 2270 0150 83F84120 		strb	r2, [r3, #65]
 2271              	.L131:
1027:Drivers/STM32F4xx_HAL_Driver/Src/stm32f4xx_hal_tim.c ****   }
1028:Drivers/STM32F4xx_HAL_Driver/Src/stm32f4xx_hal_tim.c **** 
1029:Drivers/STM32F4xx_HAL_Driver/Src/stm32f4xx_hal_tim.c ****   /* Return function status */
1030:Drivers/STM32F4xx_HAL_Driver/Src/stm32f4xx_hal_tim.c ****   return status;
 2272              		.loc 1 1030 10 is_stmt 1
 2273 0154 FB7B     		ldrb	r3, [r7, #15]	@ zero_extendqisi2
1031:Drivers/STM32F4xx_HAL_Driver/Src/stm32f4xx_hal_tim.c **** }
 2274              		.loc 1 1031 1
 2275 0156 1846     		mov	r0, r3
 2276 0158 1037     		adds	r7, r7, #16
 2277              	.LCFI96:
 2278              		.cfi_def_cfa_offset 8
 2279 015a BD46     		mov	sp, r7
 2280              	.LCFI97:
 2281              		.cfi_def_cfa_register 13
 2282              		@ sp needed
 2283 015c 80BD     		pop	{r7, pc}
 2284              	.L141:
 2285 015e 00BF     		.align	2
 2286              	.L140:
 2287 0160 00000140 		.word	1073807360
 2288              		.cfi_endproc
 2289              	.LFE233:
 2291              		.section	.text.HAL_TIM_OC_Start_DMA,"ax",%progbits
 2292              		.align	1
 2293              		.global	HAL_TIM_OC_Start_DMA
 2294              		.syntax unified
 2295              		.thumb
 2296              		.thumb_func
 2298              	HAL_TIM_OC_Start_DMA:
 2299              	.LFB234:
1032:Drivers/STM32F4xx_HAL_Driver/Src/stm32f4xx_hal_tim.c **** 
1033:Drivers/STM32F4xx_HAL_Driver/Src/stm32f4xx_hal_tim.c **** /**
1034:Drivers/STM32F4xx_HAL_Driver/Src/stm32f4xx_hal_tim.c ****   * @brief  Starts the TIM Output Compare signal generation in DMA mode.
1035:Drivers/STM32F4xx_HAL_Driver/Src/stm32f4xx_hal_tim.c ****   * @param  htim TIM Output Compare handle
1036:Drivers/STM32F4xx_HAL_Driver/Src/stm32f4xx_hal_tim.c ****   * @param  Channel TIM Channel to be enabled
1037:Drivers/STM32F4xx_HAL_Driver/Src/stm32f4xx_hal_tim.c ****   *          This parameter can be one of the following values:
1038:Drivers/STM32F4xx_HAL_Driver/Src/stm32f4xx_hal_tim.c ****   *            @arg TIM_CHANNEL_1: TIM Channel 1 selected
ARM GAS  /tmp/ccL5e6Lm.s 			page 59


1039:Drivers/STM32F4xx_HAL_Driver/Src/stm32f4xx_hal_tim.c ****   *            @arg TIM_CHANNEL_2: TIM Channel 2 selected
1040:Drivers/STM32F4xx_HAL_Driver/Src/stm32f4xx_hal_tim.c ****   *            @arg TIM_CHANNEL_3: TIM Channel 3 selected
1041:Drivers/STM32F4xx_HAL_Driver/Src/stm32f4xx_hal_tim.c ****   *            @arg TIM_CHANNEL_4: TIM Channel 4 selected
1042:Drivers/STM32F4xx_HAL_Driver/Src/stm32f4xx_hal_tim.c ****   * @param  pData The source Buffer address.
1043:Drivers/STM32F4xx_HAL_Driver/Src/stm32f4xx_hal_tim.c ****   * @param  Length The length of data to be transferred from memory to TIM peripheral
1044:Drivers/STM32F4xx_HAL_Driver/Src/stm32f4xx_hal_tim.c ****   * @retval HAL status
1045:Drivers/STM32F4xx_HAL_Driver/Src/stm32f4xx_hal_tim.c ****   */
1046:Drivers/STM32F4xx_HAL_Driver/Src/stm32f4xx_hal_tim.c **** HAL_StatusTypeDef HAL_TIM_OC_Start_DMA(TIM_HandleTypeDef *htim, uint32_t Channel, uint32_t *pData, 
1047:Drivers/STM32F4xx_HAL_Driver/Src/stm32f4xx_hal_tim.c **** {
 2300              		.loc 1 1047 1
 2301              		.cfi_startproc
 2302              		@ args = 0, pretend = 0, frame = 24
 2303              		@ frame_needed = 1, uses_anonymous_args = 0
 2304 0000 80B5     		push	{r7, lr}
 2305              	.LCFI98:
 2306              		.cfi_def_cfa_offset 8
 2307              		.cfi_offset 7, -8
 2308              		.cfi_offset 14, -4
 2309 0002 86B0     		sub	sp, sp, #24
 2310              	.LCFI99:
 2311              		.cfi_def_cfa_offset 32
 2312 0004 00AF     		add	r7, sp, #0
 2313              	.LCFI100:
 2314              		.cfi_def_cfa_register 7
 2315 0006 F860     		str	r0, [r7, #12]
 2316 0008 B960     		str	r1, [r7, #8]
 2317 000a 7A60     		str	r2, [r7, #4]
 2318 000c 7B80     		strh	r3, [r7, #2]	@ movhi
1048:Drivers/STM32F4xx_HAL_Driver/Src/stm32f4xx_hal_tim.c ****   HAL_StatusTypeDef status = HAL_OK;
 2319              		.loc 1 1048 21
 2320 000e 0023     		movs	r3, #0
 2321 0010 FB75     		strb	r3, [r7, #23]
1049:Drivers/STM32F4xx_HAL_Driver/Src/stm32f4xx_hal_tim.c ****   uint32_t tmpsmcr;
1050:Drivers/STM32F4xx_HAL_Driver/Src/stm32f4xx_hal_tim.c **** 
1051:Drivers/STM32F4xx_HAL_Driver/Src/stm32f4xx_hal_tim.c ****   /* Check the parameters */
1052:Drivers/STM32F4xx_HAL_Driver/Src/stm32f4xx_hal_tim.c ****   assert_param(IS_TIM_CCX_INSTANCE(htim->Instance, Channel));
1053:Drivers/STM32F4xx_HAL_Driver/Src/stm32f4xx_hal_tim.c **** 
1054:Drivers/STM32F4xx_HAL_Driver/Src/stm32f4xx_hal_tim.c ****   /* Set the TIM channel state */
1055:Drivers/STM32F4xx_HAL_Driver/Src/stm32f4xx_hal_tim.c ****   if (TIM_CHANNEL_STATE_GET(htim, Channel) == HAL_TIM_CHANNEL_STATE_BUSY)
 2322              		.loc 1 1055 44
 2323 0012 BB68     		ldr	r3, [r7, #8]
 2324 0014 002B     		cmp	r3, #0
 2325 0016 09D1     		bne	.L143
 2326              		.loc 1 1055 7 discriminator 1
 2327 0018 FB68     		ldr	r3, [r7, #12]
 2328 001a 93F83E30 		ldrb	r3, [r3, #62]
 2329 001e DBB2     		uxtb	r3, r3
 2330              		.loc 1 1055 44 discriminator 1
 2331 0020 022B     		cmp	r3, #2
 2332 0022 0CBF     		ite	eq
 2333 0024 0123     		moveq	r3, #1
 2334 0026 0023     		movne	r3, #0
 2335 0028 DBB2     		uxtb	r3, r3
 2336 002a 22E0     		b	.L144
 2337              	.L143:
 2338              		.loc 1 1055 44 is_stmt 0 discriminator 2
 2339 002c BB68     		ldr	r3, [r7, #8]
ARM GAS  /tmp/ccL5e6Lm.s 			page 60


 2340 002e 042B     		cmp	r3, #4
 2341 0030 09D1     		bne	.L145
 2342              		.loc 1 1055 7 is_stmt 1 discriminator 4
 2343 0032 FB68     		ldr	r3, [r7, #12]
 2344 0034 93F83F30 		ldrb	r3, [r3, #63]
 2345 0038 DBB2     		uxtb	r3, r3
 2346              		.loc 1 1055 44 discriminator 4
 2347 003a 022B     		cmp	r3, #2
 2348 003c 0CBF     		ite	eq
 2349 003e 0123     		moveq	r3, #1
 2350 0040 0023     		movne	r3, #0
 2351 0042 DBB2     		uxtb	r3, r3
 2352 0044 15E0     		b	.L144
 2353              	.L145:
 2354              		.loc 1 1055 44 is_stmt 0 discriminator 5
 2355 0046 BB68     		ldr	r3, [r7, #8]
 2356 0048 082B     		cmp	r3, #8
 2357 004a 09D1     		bne	.L147
 2358              		.loc 1 1055 7 is_stmt 1 discriminator 7
 2359 004c FB68     		ldr	r3, [r7, #12]
 2360 004e 93F84030 		ldrb	r3, [r3, #64]
 2361 0052 DBB2     		uxtb	r3, r3
 2362              		.loc 1 1055 44 discriminator 7
 2363 0054 022B     		cmp	r3, #2
 2364 0056 0CBF     		ite	eq
 2365 0058 0123     		moveq	r3, #1
 2366 005a 0023     		movne	r3, #0
 2367 005c DBB2     		uxtb	r3, r3
 2368 005e 08E0     		b	.L144
 2369              	.L147:
 2370              		.loc 1 1055 7 discriminator 8
 2371 0060 FB68     		ldr	r3, [r7, #12]
 2372 0062 93F84130 		ldrb	r3, [r3, #65]
 2373 0066 DBB2     		uxtb	r3, r3
 2374              		.loc 1 1055 44 discriminator 8
 2375 0068 022B     		cmp	r3, #2
 2376 006a 0CBF     		ite	eq
 2377 006c 0123     		moveq	r3, #1
 2378 006e 0023     		movne	r3, #0
 2379 0070 DBB2     		uxtb	r3, r3
 2380              	.L144:
 2381              		.loc 1 1055 6 discriminator 12
 2382 0072 002B     		cmp	r3, #0
 2383 0074 01D0     		beq	.L149
1056:Drivers/STM32F4xx_HAL_Driver/Src/stm32f4xx_hal_tim.c ****   {
1057:Drivers/STM32F4xx_HAL_Driver/Src/stm32f4xx_hal_tim.c ****     return HAL_BUSY;
 2384              		.loc 1 1057 12
 2385 0076 0223     		movs	r3, #2
 2386 0078 5DE1     		b	.L150
 2387              	.L149:
1058:Drivers/STM32F4xx_HAL_Driver/Src/stm32f4xx_hal_tim.c ****   }
1059:Drivers/STM32F4xx_HAL_Driver/Src/stm32f4xx_hal_tim.c ****   else if (TIM_CHANNEL_STATE_GET(htim, Channel) == HAL_TIM_CHANNEL_STATE_READY)
 2388              		.loc 1 1059 49
 2389 007a BB68     		ldr	r3, [r7, #8]
 2390 007c 002B     		cmp	r3, #0
 2391 007e 09D1     		bne	.L151
 2392              		.loc 1 1059 12 discriminator 1
ARM GAS  /tmp/ccL5e6Lm.s 			page 61


 2393 0080 FB68     		ldr	r3, [r7, #12]
 2394 0082 93F83E30 		ldrb	r3, [r3, #62]
 2395 0086 DBB2     		uxtb	r3, r3
 2396              		.loc 1 1059 49 discriminator 1
 2397 0088 012B     		cmp	r3, #1
 2398 008a 0CBF     		ite	eq
 2399 008c 0123     		moveq	r3, #1
 2400 008e 0023     		movne	r3, #0
 2401 0090 DBB2     		uxtb	r3, r3
 2402 0092 22E0     		b	.L152
 2403              	.L151:
 2404              		.loc 1 1059 49 is_stmt 0 discriminator 2
 2405 0094 BB68     		ldr	r3, [r7, #8]
 2406 0096 042B     		cmp	r3, #4
 2407 0098 09D1     		bne	.L153
 2408              		.loc 1 1059 12 is_stmt 1 discriminator 4
 2409 009a FB68     		ldr	r3, [r7, #12]
 2410 009c 93F83F30 		ldrb	r3, [r3, #63]
 2411 00a0 DBB2     		uxtb	r3, r3
 2412              		.loc 1 1059 49 discriminator 4
 2413 00a2 012B     		cmp	r3, #1
 2414 00a4 0CBF     		ite	eq
 2415 00a6 0123     		moveq	r3, #1
 2416 00a8 0023     		movne	r3, #0
 2417 00aa DBB2     		uxtb	r3, r3
 2418 00ac 15E0     		b	.L152
 2419              	.L153:
 2420              		.loc 1 1059 49 is_stmt 0 discriminator 5
 2421 00ae BB68     		ldr	r3, [r7, #8]
 2422 00b0 082B     		cmp	r3, #8
 2423 00b2 09D1     		bne	.L155
 2424              		.loc 1 1059 12 is_stmt 1 discriminator 7
 2425 00b4 FB68     		ldr	r3, [r7, #12]
 2426 00b6 93F84030 		ldrb	r3, [r3, #64]
 2427 00ba DBB2     		uxtb	r3, r3
 2428              		.loc 1 1059 49 discriminator 7
 2429 00bc 012B     		cmp	r3, #1
 2430 00be 0CBF     		ite	eq
 2431 00c0 0123     		moveq	r3, #1
 2432 00c2 0023     		movne	r3, #0
 2433 00c4 DBB2     		uxtb	r3, r3
 2434 00c6 08E0     		b	.L152
 2435              	.L155:
 2436              		.loc 1 1059 12 discriminator 8
 2437 00c8 FB68     		ldr	r3, [r7, #12]
 2438 00ca 93F84130 		ldrb	r3, [r3, #65]
 2439 00ce DBB2     		uxtb	r3, r3
 2440              		.loc 1 1059 49 discriminator 8
 2441 00d0 012B     		cmp	r3, #1
 2442 00d2 0CBF     		ite	eq
 2443 00d4 0123     		moveq	r3, #1
 2444 00d6 0023     		movne	r3, #0
 2445 00d8 DBB2     		uxtb	r3, r3
 2446              	.L152:
 2447              		.loc 1 1059 11 discriminator 12
 2448 00da 002B     		cmp	r3, #0
 2449 00dc 24D0     		beq	.L157
ARM GAS  /tmp/ccL5e6Lm.s 			page 62


1060:Drivers/STM32F4xx_HAL_Driver/Src/stm32f4xx_hal_tim.c ****   {
1061:Drivers/STM32F4xx_HAL_Driver/Src/stm32f4xx_hal_tim.c ****     if ((pData == NULL) && (Length > 0U))
 2450              		.loc 1 1061 8
 2451 00de 7B68     		ldr	r3, [r7, #4]
 2452 00e0 002B     		cmp	r3, #0
 2453 00e2 04D1     		bne	.L158
 2454              		.loc 1 1061 25 discriminator 1
 2455 00e4 7B88     		ldrh	r3, [r7, #2]
 2456 00e6 002B     		cmp	r3, #0
 2457 00e8 01D0     		beq	.L158
1062:Drivers/STM32F4xx_HAL_Driver/Src/stm32f4xx_hal_tim.c ****     {
1063:Drivers/STM32F4xx_HAL_Driver/Src/stm32f4xx_hal_tim.c ****       return HAL_ERROR;
 2458              		.loc 1 1063 14
 2459 00ea 0123     		movs	r3, #1
 2460 00ec 23E1     		b	.L150
 2461              	.L158:
1064:Drivers/STM32F4xx_HAL_Driver/Src/stm32f4xx_hal_tim.c ****     }
1065:Drivers/STM32F4xx_HAL_Driver/Src/stm32f4xx_hal_tim.c ****     else
1066:Drivers/STM32F4xx_HAL_Driver/Src/stm32f4xx_hal_tim.c ****     {
1067:Drivers/STM32F4xx_HAL_Driver/Src/stm32f4xx_hal_tim.c ****       TIM_CHANNEL_STATE_SET(htim, Channel, HAL_TIM_CHANNEL_STATE_BUSY);
 2462              		.loc 1 1067 7
 2463 00ee BB68     		ldr	r3, [r7, #8]
 2464 00f0 002B     		cmp	r3, #0
 2465 00f2 04D1     		bne	.L159
 2466              		.loc 1 1067 7 is_stmt 0 discriminator 1
 2467 00f4 FB68     		ldr	r3, [r7, #12]
 2468 00f6 0222     		movs	r2, #2
 2469 00f8 83F83E20 		strb	r2, [r3, #62]
 2470 00fc 16E0     		b	.L160
 2471              	.L159:
 2472              		.loc 1 1067 7 discriminator 2
 2473 00fe BB68     		ldr	r3, [r7, #8]
 2474 0100 042B     		cmp	r3, #4
 2475 0102 04D1     		bne	.L161
 2476              		.loc 1 1067 7 discriminator 3
 2477 0104 FB68     		ldr	r3, [r7, #12]
 2478 0106 0222     		movs	r2, #2
 2479 0108 83F83F20 		strb	r2, [r3, #63]
 2480 010c 0EE0     		b	.L160
 2481              	.L161:
 2482              		.loc 1 1067 7 discriminator 4
 2483 010e BB68     		ldr	r3, [r7, #8]
 2484 0110 082B     		cmp	r3, #8
 2485 0112 04D1     		bne	.L163
 2486              		.loc 1 1067 7 discriminator 6
 2487 0114 FB68     		ldr	r3, [r7, #12]
 2488 0116 0222     		movs	r2, #2
 2489 0118 83F84020 		strb	r2, [r3, #64]
 2490 011c 06E0     		b	.L160
 2491              	.L163:
 2492              		.loc 1 1067 7 discriminator 7
 2493 011e FB68     		ldr	r3, [r7, #12]
 2494 0120 0222     		movs	r2, #2
 2495 0122 83F84120 		strb	r2, [r3, #65]
 2496 0126 01E0     		b	.L160
 2497              	.L157:
1068:Drivers/STM32F4xx_HAL_Driver/Src/stm32f4xx_hal_tim.c ****     }
ARM GAS  /tmp/ccL5e6Lm.s 			page 63


1069:Drivers/STM32F4xx_HAL_Driver/Src/stm32f4xx_hal_tim.c ****   }
1070:Drivers/STM32F4xx_HAL_Driver/Src/stm32f4xx_hal_tim.c ****   else
1071:Drivers/STM32F4xx_HAL_Driver/Src/stm32f4xx_hal_tim.c ****   {
1072:Drivers/STM32F4xx_HAL_Driver/Src/stm32f4xx_hal_tim.c ****     return HAL_ERROR;
 2498              		.loc 1 1072 12 is_stmt 1
 2499 0128 0123     		movs	r3, #1
 2500 012a 04E1     		b	.L150
 2501              	.L160:
1073:Drivers/STM32F4xx_HAL_Driver/Src/stm32f4xx_hal_tim.c ****   }
1074:Drivers/STM32F4xx_HAL_Driver/Src/stm32f4xx_hal_tim.c **** 
1075:Drivers/STM32F4xx_HAL_Driver/Src/stm32f4xx_hal_tim.c ****   switch (Channel)
 2502              		.loc 1 1075 3
 2503 012c BB68     		ldr	r3, [r7, #8]
 2504 012e 0C2B     		cmp	r3, #12
 2505 0130 00F2AE80 		bhi	.L165
 2506 0134 01A2     		adr	r2, .L167
 2507 0136 52F823F0 		ldr	pc, [r2, r3, lsl #2]
 2508 013a 00BF     		.p2align 2
 2509              	.L167:
 2510 013c 71010000 		.word	.L170+1
 2511 0140 91020000 		.word	.L165+1
 2512 0144 91020000 		.word	.L165+1
 2513 0148 91020000 		.word	.L165+1
 2514 014c B9010000 		.word	.L169+1
 2515 0150 91020000 		.word	.L165+1
 2516 0154 91020000 		.word	.L165+1
 2517 0158 91020000 		.word	.L165+1
 2518 015c 01020000 		.word	.L168+1
 2519 0160 91020000 		.word	.L165+1
 2520 0164 91020000 		.word	.L165+1
 2521 0168 91020000 		.word	.L165+1
 2522 016c 49020000 		.word	.L166+1
 2523              		.p2align 1
 2524              	.L170:
1076:Drivers/STM32F4xx_HAL_Driver/Src/stm32f4xx_hal_tim.c ****   {
1077:Drivers/STM32F4xx_HAL_Driver/Src/stm32f4xx_hal_tim.c ****     case TIM_CHANNEL_1:
1078:Drivers/STM32F4xx_HAL_Driver/Src/stm32f4xx_hal_tim.c ****     {
1079:Drivers/STM32F4xx_HAL_Driver/Src/stm32f4xx_hal_tim.c ****       /* Set the DMA compare callbacks */
1080:Drivers/STM32F4xx_HAL_Driver/Src/stm32f4xx_hal_tim.c ****       htim->hdma[TIM_DMA_ID_CC1]->XferCpltCallback = TIM_DMADelayPulseCplt;
 2525              		.loc 1 1080 17
 2526 0170 FB68     		ldr	r3, [r7, #12]
 2527 0172 5B6A     		ldr	r3, [r3, #36]
 2528              		.loc 1 1080 52
 2529 0174 724A     		ldr	r2, .L181
 2530 0176 DA63     		str	r2, [r3, #60]
1081:Drivers/STM32F4xx_HAL_Driver/Src/stm32f4xx_hal_tim.c ****       htim->hdma[TIM_DMA_ID_CC1]->XferHalfCpltCallback = TIM_DMADelayPulseHalfCplt;
 2531              		.loc 1 1081 17
 2532 0178 FB68     		ldr	r3, [r7, #12]
 2533 017a 5B6A     		ldr	r3, [r3, #36]
 2534              		.loc 1 1081 56
 2535 017c 714A     		ldr	r2, .L181+4
 2536 017e 1A64     		str	r2, [r3, #64]
1082:Drivers/STM32F4xx_HAL_Driver/Src/stm32f4xx_hal_tim.c **** 
1083:Drivers/STM32F4xx_HAL_Driver/Src/stm32f4xx_hal_tim.c ****       /* Set the DMA error callback */
1084:Drivers/STM32F4xx_HAL_Driver/Src/stm32f4xx_hal_tim.c ****       htim->hdma[TIM_DMA_ID_CC1]->XferErrorCallback = TIM_DMAError ;
 2537              		.loc 1 1084 17
 2538 0180 FB68     		ldr	r3, [r7, #12]
ARM GAS  /tmp/ccL5e6Lm.s 			page 64


 2539 0182 5B6A     		ldr	r3, [r3, #36]
 2540              		.loc 1 1084 53
 2541 0184 704A     		ldr	r2, .L181+8
 2542 0186 DA64     		str	r2, [r3, #76]
1085:Drivers/STM32F4xx_HAL_Driver/Src/stm32f4xx_hal_tim.c **** 
1086:Drivers/STM32F4xx_HAL_Driver/Src/stm32f4xx_hal_tim.c ****       /* Enable the DMA stream */
1087:Drivers/STM32F4xx_HAL_Driver/Src/stm32f4xx_hal_tim.c ****       if (HAL_DMA_Start_IT(htim->hdma[TIM_DMA_ID_CC1], (uint32_t)pData, (uint32_t)&htim->Instance->
 2543              		.loc 1 1087 11
 2544 0188 FB68     		ldr	r3, [r7, #12]
 2545 018a 586A     		ldr	r0, [r3, #36]
 2546 018c 7968     		ldr	r1, [r7, #4]
 2547              		.loc 1 1087 88
 2548 018e FB68     		ldr	r3, [r7, #12]
 2549 0190 1B68     		ldr	r3, [r3]
 2550              		.loc 1 1087 83
 2551 0192 3433     		adds	r3, r3, #52
 2552              		.loc 1 1087 11
 2553 0194 1A46     		mov	r2, r3
 2554 0196 7B88     		ldrh	r3, [r7, #2]
 2555 0198 FFF7FEFF 		bl	HAL_DMA_Start_IT
 2556 019c 0346     		mov	r3, r0
 2557              		.loc 1 1087 10
 2558 019e 002B     		cmp	r3, #0
 2559 01a0 01D0     		beq	.L171
1088:Drivers/STM32F4xx_HAL_Driver/Src/stm32f4xx_hal_tim.c ****                            Length) != HAL_OK)
1089:Drivers/STM32F4xx_HAL_Driver/Src/stm32f4xx_hal_tim.c ****       {
1090:Drivers/STM32F4xx_HAL_Driver/Src/stm32f4xx_hal_tim.c ****         /* Return error status */
1091:Drivers/STM32F4xx_HAL_Driver/Src/stm32f4xx_hal_tim.c ****         return HAL_ERROR;
 2560              		.loc 1 1091 16
 2561 01a2 0123     		movs	r3, #1
 2562 01a4 C7E0     		b	.L150
 2563              	.L171:
1092:Drivers/STM32F4xx_HAL_Driver/Src/stm32f4xx_hal_tim.c ****       }
1093:Drivers/STM32F4xx_HAL_Driver/Src/stm32f4xx_hal_tim.c **** 
1094:Drivers/STM32F4xx_HAL_Driver/Src/stm32f4xx_hal_tim.c ****       /* Enable the TIM Capture/Compare 1 DMA request */
1095:Drivers/STM32F4xx_HAL_Driver/Src/stm32f4xx_hal_tim.c ****       __HAL_TIM_ENABLE_DMA(htim, TIM_DMA_CC1);
 2564              		.loc 1 1095 7
 2565 01a6 FB68     		ldr	r3, [r7, #12]
 2566 01a8 1B68     		ldr	r3, [r3]
 2567 01aa DA68     		ldr	r2, [r3, #12]
 2568 01ac FB68     		ldr	r3, [r7, #12]
 2569 01ae 1B68     		ldr	r3, [r3]
 2570 01b0 42F40072 		orr	r2, r2, #512
 2571 01b4 DA60     		str	r2, [r3, #12]
1096:Drivers/STM32F4xx_HAL_Driver/Src/stm32f4xx_hal_tim.c ****       break;
 2572              		.loc 1 1096 7
 2573 01b6 6EE0     		b	.L172
 2574              	.L169:
1097:Drivers/STM32F4xx_HAL_Driver/Src/stm32f4xx_hal_tim.c ****     }
1098:Drivers/STM32F4xx_HAL_Driver/Src/stm32f4xx_hal_tim.c **** 
1099:Drivers/STM32F4xx_HAL_Driver/Src/stm32f4xx_hal_tim.c ****     case TIM_CHANNEL_2:
1100:Drivers/STM32F4xx_HAL_Driver/Src/stm32f4xx_hal_tim.c ****     {
1101:Drivers/STM32F4xx_HAL_Driver/Src/stm32f4xx_hal_tim.c ****       /* Set the DMA compare callbacks */
1102:Drivers/STM32F4xx_HAL_Driver/Src/stm32f4xx_hal_tim.c ****       htim->hdma[TIM_DMA_ID_CC2]->XferCpltCallback = TIM_DMADelayPulseCplt;
 2575              		.loc 1 1102 17
 2576 01b8 FB68     		ldr	r3, [r7, #12]
 2577 01ba 9B6A     		ldr	r3, [r3, #40]
ARM GAS  /tmp/ccL5e6Lm.s 			page 65


 2578              		.loc 1 1102 52
 2579 01bc 604A     		ldr	r2, .L181
 2580 01be DA63     		str	r2, [r3, #60]
1103:Drivers/STM32F4xx_HAL_Driver/Src/stm32f4xx_hal_tim.c ****       htim->hdma[TIM_DMA_ID_CC2]->XferHalfCpltCallback = TIM_DMADelayPulseHalfCplt;
 2581              		.loc 1 1103 17
 2582 01c0 FB68     		ldr	r3, [r7, #12]
 2583 01c2 9B6A     		ldr	r3, [r3, #40]
 2584              		.loc 1 1103 56
 2585 01c4 5F4A     		ldr	r2, .L181+4
 2586 01c6 1A64     		str	r2, [r3, #64]
1104:Drivers/STM32F4xx_HAL_Driver/Src/stm32f4xx_hal_tim.c **** 
1105:Drivers/STM32F4xx_HAL_Driver/Src/stm32f4xx_hal_tim.c ****       /* Set the DMA error callback */
1106:Drivers/STM32F4xx_HAL_Driver/Src/stm32f4xx_hal_tim.c ****       htim->hdma[TIM_DMA_ID_CC2]->XferErrorCallback = TIM_DMAError ;
 2587              		.loc 1 1106 17
 2588 01c8 FB68     		ldr	r3, [r7, #12]
 2589 01ca 9B6A     		ldr	r3, [r3, #40]
 2590              		.loc 1 1106 53
 2591 01cc 5E4A     		ldr	r2, .L181+8
 2592 01ce DA64     		str	r2, [r3, #76]
1107:Drivers/STM32F4xx_HAL_Driver/Src/stm32f4xx_hal_tim.c **** 
1108:Drivers/STM32F4xx_HAL_Driver/Src/stm32f4xx_hal_tim.c ****       /* Enable the DMA stream */
1109:Drivers/STM32F4xx_HAL_Driver/Src/stm32f4xx_hal_tim.c ****       if (HAL_DMA_Start_IT(htim->hdma[TIM_DMA_ID_CC2], (uint32_t)pData, (uint32_t)&htim->Instance->
 2593              		.loc 1 1109 11
 2594 01d0 FB68     		ldr	r3, [r7, #12]
 2595 01d2 986A     		ldr	r0, [r3, #40]
 2596 01d4 7968     		ldr	r1, [r7, #4]
 2597              		.loc 1 1109 88
 2598 01d6 FB68     		ldr	r3, [r7, #12]
 2599 01d8 1B68     		ldr	r3, [r3]
 2600              		.loc 1 1109 83
 2601 01da 3833     		adds	r3, r3, #56
 2602              		.loc 1 1109 11
 2603 01dc 1A46     		mov	r2, r3
 2604 01de 7B88     		ldrh	r3, [r7, #2]
 2605 01e0 FFF7FEFF 		bl	HAL_DMA_Start_IT
 2606 01e4 0346     		mov	r3, r0
 2607              		.loc 1 1109 10
 2608 01e6 002B     		cmp	r3, #0
 2609 01e8 01D0     		beq	.L173
1110:Drivers/STM32F4xx_HAL_Driver/Src/stm32f4xx_hal_tim.c ****                            Length) != HAL_OK)
1111:Drivers/STM32F4xx_HAL_Driver/Src/stm32f4xx_hal_tim.c ****       {
1112:Drivers/STM32F4xx_HAL_Driver/Src/stm32f4xx_hal_tim.c ****         /* Return error status */
1113:Drivers/STM32F4xx_HAL_Driver/Src/stm32f4xx_hal_tim.c ****         return HAL_ERROR;
 2610              		.loc 1 1113 16
 2611 01ea 0123     		movs	r3, #1
 2612 01ec A3E0     		b	.L150
 2613              	.L173:
1114:Drivers/STM32F4xx_HAL_Driver/Src/stm32f4xx_hal_tim.c ****       }
1115:Drivers/STM32F4xx_HAL_Driver/Src/stm32f4xx_hal_tim.c **** 
1116:Drivers/STM32F4xx_HAL_Driver/Src/stm32f4xx_hal_tim.c ****       /* Enable the TIM Capture/Compare 2 DMA request */
1117:Drivers/STM32F4xx_HAL_Driver/Src/stm32f4xx_hal_tim.c ****       __HAL_TIM_ENABLE_DMA(htim, TIM_DMA_CC2);
 2614              		.loc 1 1117 7
 2615 01ee FB68     		ldr	r3, [r7, #12]
 2616 01f0 1B68     		ldr	r3, [r3]
 2617 01f2 DA68     		ldr	r2, [r3, #12]
 2618 01f4 FB68     		ldr	r3, [r7, #12]
 2619 01f6 1B68     		ldr	r3, [r3]
ARM GAS  /tmp/ccL5e6Lm.s 			page 66


 2620 01f8 42F48062 		orr	r2, r2, #1024
 2621 01fc DA60     		str	r2, [r3, #12]
1118:Drivers/STM32F4xx_HAL_Driver/Src/stm32f4xx_hal_tim.c ****       break;
 2622              		.loc 1 1118 7
 2623 01fe 4AE0     		b	.L172
 2624              	.L168:
1119:Drivers/STM32F4xx_HAL_Driver/Src/stm32f4xx_hal_tim.c ****     }
1120:Drivers/STM32F4xx_HAL_Driver/Src/stm32f4xx_hal_tim.c **** 
1121:Drivers/STM32F4xx_HAL_Driver/Src/stm32f4xx_hal_tim.c ****     case TIM_CHANNEL_3:
1122:Drivers/STM32F4xx_HAL_Driver/Src/stm32f4xx_hal_tim.c ****     {
1123:Drivers/STM32F4xx_HAL_Driver/Src/stm32f4xx_hal_tim.c ****       /* Set the DMA compare callbacks */
1124:Drivers/STM32F4xx_HAL_Driver/Src/stm32f4xx_hal_tim.c ****       htim->hdma[TIM_DMA_ID_CC3]->XferCpltCallback = TIM_DMADelayPulseCplt;
 2625              		.loc 1 1124 17
 2626 0200 FB68     		ldr	r3, [r7, #12]
 2627 0202 DB6A     		ldr	r3, [r3, #44]
 2628              		.loc 1 1124 52
 2629 0204 4E4A     		ldr	r2, .L181
 2630 0206 DA63     		str	r2, [r3, #60]
1125:Drivers/STM32F4xx_HAL_Driver/Src/stm32f4xx_hal_tim.c ****       htim->hdma[TIM_DMA_ID_CC3]->XferHalfCpltCallback = TIM_DMADelayPulseHalfCplt;
 2631              		.loc 1 1125 17
 2632 0208 FB68     		ldr	r3, [r7, #12]
 2633 020a DB6A     		ldr	r3, [r3, #44]
 2634              		.loc 1 1125 56
 2635 020c 4D4A     		ldr	r2, .L181+4
 2636 020e 1A64     		str	r2, [r3, #64]
1126:Drivers/STM32F4xx_HAL_Driver/Src/stm32f4xx_hal_tim.c **** 
1127:Drivers/STM32F4xx_HAL_Driver/Src/stm32f4xx_hal_tim.c ****       /* Set the DMA error callback */
1128:Drivers/STM32F4xx_HAL_Driver/Src/stm32f4xx_hal_tim.c ****       htim->hdma[TIM_DMA_ID_CC3]->XferErrorCallback = TIM_DMAError ;
 2637              		.loc 1 1128 17
 2638 0210 FB68     		ldr	r3, [r7, #12]
 2639 0212 DB6A     		ldr	r3, [r3, #44]
 2640              		.loc 1 1128 53
 2641 0214 4C4A     		ldr	r2, .L181+8
 2642 0216 DA64     		str	r2, [r3, #76]
1129:Drivers/STM32F4xx_HAL_Driver/Src/stm32f4xx_hal_tim.c **** 
1130:Drivers/STM32F4xx_HAL_Driver/Src/stm32f4xx_hal_tim.c ****       /* Enable the DMA stream */
1131:Drivers/STM32F4xx_HAL_Driver/Src/stm32f4xx_hal_tim.c ****       if (HAL_DMA_Start_IT(htim->hdma[TIM_DMA_ID_CC3], (uint32_t)pData, (uint32_t)&htim->Instance->
 2643              		.loc 1 1131 11
 2644 0218 FB68     		ldr	r3, [r7, #12]
 2645 021a D86A     		ldr	r0, [r3, #44]
 2646 021c 7968     		ldr	r1, [r7, #4]
 2647              		.loc 1 1131 88
 2648 021e FB68     		ldr	r3, [r7, #12]
 2649 0220 1B68     		ldr	r3, [r3]
 2650              		.loc 1 1131 83
 2651 0222 3C33     		adds	r3, r3, #60
 2652              		.loc 1 1131 11
 2653 0224 1A46     		mov	r2, r3
 2654 0226 7B88     		ldrh	r3, [r7, #2]
 2655 0228 FFF7FEFF 		bl	HAL_DMA_Start_IT
 2656 022c 0346     		mov	r3, r0
 2657              		.loc 1 1131 10
 2658 022e 002B     		cmp	r3, #0
 2659 0230 01D0     		beq	.L174
1132:Drivers/STM32F4xx_HAL_Driver/Src/stm32f4xx_hal_tim.c ****                            Length) != HAL_OK)
1133:Drivers/STM32F4xx_HAL_Driver/Src/stm32f4xx_hal_tim.c ****       {
1134:Drivers/STM32F4xx_HAL_Driver/Src/stm32f4xx_hal_tim.c ****         /* Return error status */
ARM GAS  /tmp/ccL5e6Lm.s 			page 67


1135:Drivers/STM32F4xx_HAL_Driver/Src/stm32f4xx_hal_tim.c ****         return HAL_ERROR;
 2660              		.loc 1 1135 16
 2661 0232 0123     		movs	r3, #1
 2662 0234 7FE0     		b	.L150
 2663              	.L174:
1136:Drivers/STM32F4xx_HAL_Driver/Src/stm32f4xx_hal_tim.c ****       }
1137:Drivers/STM32F4xx_HAL_Driver/Src/stm32f4xx_hal_tim.c ****       /* Enable the TIM Capture/Compare 3 DMA request */
1138:Drivers/STM32F4xx_HAL_Driver/Src/stm32f4xx_hal_tim.c ****       __HAL_TIM_ENABLE_DMA(htim, TIM_DMA_CC3);
 2664              		.loc 1 1138 7
 2665 0236 FB68     		ldr	r3, [r7, #12]
 2666 0238 1B68     		ldr	r3, [r3]
 2667 023a DA68     		ldr	r2, [r3, #12]
 2668 023c FB68     		ldr	r3, [r7, #12]
 2669 023e 1B68     		ldr	r3, [r3]
 2670 0240 42F40062 		orr	r2, r2, #2048
 2671 0244 DA60     		str	r2, [r3, #12]
1139:Drivers/STM32F4xx_HAL_Driver/Src/stm32f4xx_hal_tim.c ****       break;
 2672              		.loc 1 1139 7
 2673 0246 26E0     		b	.L172
 2674              	.L166:
1140:Drivers/STM32F4xx_HAL_Driver/Src/stm32f4xx_hal_tim.c ****     }
1141:Drivers/STM32F4xx_HAL_Driver/Src/stm32f4xx_hal_tim.c **** 
1142:Drivers/STM32F4xx_HAL_Driver/Src/stm32f4xx_hal_tim.c ****     case TIM_CHANNEL_4:
1143:Drivers/STM32F4xx_HAL_Driver/Src/stm32f4xx_hal_tim.c ****     {
1144:Drivers/STM32F4xx_HAL_Driver/Src/stm32f4xx_hal_tim.c ****       /* Set the DMA compare callbacks */
1145:Drivers/STM32F4xx_HAL_Driver/Src/stm32f4xx_hal_tim.c ****       htim->hdma[TIM_DMA_ID_CC4]->XferCpltCallback = TIM_DMADelayPulseCplt;
 2675              		.loc 1 1145 17
 2676 0248 FB68     		ldr	r3, [r7, #12]
 2677 024a 1B6B     		ldr	r3, [r3, #48]
 2678              		.loc 1 1145 52
 2679 024c 3C4A     		ldr	r2, .L181
 2680 024e DA63     		str	r2, [r3, #60]
1146:Drivers/STM32F4xx_HAL_Driver/Src/stm32f4xx_hal_tim.c ****       htim->hdma[TIM_DMA_ID_CC4]->XferHalfCpltCallback = TIM_DMADelayPulseHalfCplt;
 2681              		.loc 1 1146 17
 2682 0250 FB68     		ldr	r3, [r7, #12]
 2683 0252 1B6B     		ldr	r3, [r3, #48]
 2684              		.loc 1 1146 56
 2685 0254 3B4A     		ldr	r2, .L181+4
 2686 0256 1A64     		str	r2, [r3, #64]
1147:Drivers/STM32F4xx_HAL_Driver/Src/stm32f4xx_hal_tim.c **** 
1148:Drivers/STM32F4xx_HAL_Driver/Src/stm32f4xx_hal_tim.c ****       /* Set the DMA error callback */
1149:Drivers/STM32F4xx_HAL_Driver/Src/stm32f4xx_hal_tim.c ****       htim->hdma[TIM_DMA_ID_CC4]->XferErrorCallback = TIM_DMAError ;
 2687              		.loc 1 1149 17
 2688 0258 FB68     		ldr	r3, [r7, #12]
 2689 025a 1B6B     		ldr	r3, [r3, #48]
 2690              		.loc 1 1149 53
 2691 025c 3A4A     		ldr	r2, .L181+8
 2692 025e DA64     		str	r2, [r3, #76]
1150:Drivers/STM32F4xx_HAL_Driver/Src/stm32f4xx_hal_tim.c **** 
1151:Drivers/STM32F4xx_HAL_Driver/Src/stm32f4xx_hal_tim.c ****       /* Enable the DMA stream */
1152:Drivers/STM32F4xx_HAL_Driver/Src/stm32f4xx_hal_tim.c ****       if (HAL_DMA_Start_IT(htim->hdma[TIM_DMA_ID_CC4], (uint32_t)pData, (uint32_t)&htim->Instance->
 2693              		.loc 1 1152 11
 2694 0260 FB68     		ldr	r3, [r7, #12]
 2695 0262 186B     		ldr	r0, [r3, #48]
 2696 0264 7968     		ldr	r1, [r7, #4]
 2697              		.loc 1 1152 88
 2698 0266 FB68     		ldr	r3, [r7, #12]
ARM GAS  /tmp/ccL5e6Lm.s 			page 68


 2699 0268 1B68     		ldr	r3, [r3]
 2700              		.loc 1 1152 83
 2701 026a 4033     		adds	r3, r3, #64
 2702              		.loc 1 1152 11
 2703 026c 1A46     		mov	r2, r3
 2704 026e 7B88     		ldrh	r3, [r7, #2]
 2705 0270 FFF7FEFF 		bl	HAL_DMA_Start_IT
 2706 0274 0346     		mov	r3, r0
 2707              		.loc 1 1152 10
 2708 0276 002B     		cmp	r3, #0
 2709 0278 01D0     		beq	.L175
1153:Drivers/STM32F4xx_HAL_Driver/Src/stm32f4xx_hal_tim.c ****                            Length) != HAL_OK)
1154:Drivers/STM32F4xx_HAL_Driver/Src/stm32f4xx_hal_tim.c ****       {
1155:Drivers/STM32F4xx_HAL_Driver/Src/stm32f4xx_hal_tim.c ****         /* Return error status */
1156:Drivers/STM32F4xx_HAL_Driver/Src/stm32f4xx_hal_tim.c ****         return HAL_ERROR;
 2710              		.loc 1 1156 16
 2711 027a 0123     		movs	r3, #1
 2712 027c 5BE0     		b	.L150
 2713              	.L175:
1157:Drivers/STM32F4xx_HAL_Driver/Src/stm32f4xx_hal_tim.c ****       }
1158:Drivers/STM32F4xx_HAL_Driver/Src/stm32f4xx_hal_tim.c ****       /* Enable the TIM Capture/Compare 4 DMA request */
1159:Drivers/STM32F4xx_HAL_Driver/Src/stm32f4xx_hal_tim.c ****       __HAL_TIM_ENABLE_DMA(htim, TIM_DMA_CC4);
 2714              		.loc 1 1159 7
 2715 027e FB68     		ldr	r3, [r7, #12]
 2716 0280 1B68     		ldr	r3, [r3]
 2717 0282 DA68     		ldr	r2, [r3, #12]
 2718 0284 FB68     		ldr	r3, [r7, #12]
 2719 0286 1B68     		ldr	r3, [r3]
 2720 0288 42F48052 		orr	r2, r2, #4096
 2721 028c DA60     		str	r2, [r3, #12]
1160:Drivers/STM32F4xx_HAL_Driver/Src/stm32f4xx_hal_tim.c ****       break;
 2722              		.loc 1 1160 7
 2723 028e 02E0     		b	.L172
 2724              	.L165:
1161:Drivers/STM32F4xx_HAL_Driver/Src/stm32f4xx_hal_tim.c ****     }
1162:Drivers/STM32F4xx_HAL_Driver/Src/stm32f4xx_hal_tim.c **** 
1163:Drivers/STM32F4xx_HAL_Driver/Src/stm32f4xx_hal_tim.c ****     default:
1164:Drivers/STM32F4xx_HAL_Driver/Src/stm32f4xx_hal_tim.c ****       status = HAL_ERROR;
 2725              		.loc 1 1164 14
 2726 0290 0123     		movs	r3, #1
 2727 0292 FB75     		strb	r3, [r7, #23]
1165:Drivers/STM32F4xx_HAL_Driver/Src/stm32f4xx_hal_tim.c ****       break;
 2728              		.loc 1 1165 7
 2729 0294 00BF     		nop
 2730              	.L172:
1166:Drivers/STM32F4xx_HAL_Driver/Src/stm32f4xx_hal_tim.c ****   }
1167:Drivers/STM32F4xx_HAL_Driver/Src/stm32f4xx_hal_tim.c **** 
1168:Drivers/STM32F4xx_HAL_Driver/Src/stm32f4xx_hal_tim.c ****   if (status == HAL_OK)
 2731              		.loc 1 1168 6
 2732 0296 FB7D     		ldrb	r3, [r7, #23]	@ zero_extendqisi2
 2733 0298 002B     		cmp	r3, #0
 2734 029a 4BD1     		bne	.L176
1169:Drivers/STM32F4xx_HAL_Driver/Src/stm32f4xx_hal_tim.c ****   {
1170:Drivers/STM32F4xx_HAL_Driver/Src/stm32f4xx_hal_tim.c ****     /* Enable the Output compare channel */
1171:Drivers/STM32F4xx_HAL_Driver/Src/stm32f4xx_hal_tim.c ****     TIM_CCxChannelCmd(htim->Instance, Channel, TIM_CCx_ENABLE);
 2735              		.loc 1 1171 5
 2736 029c FB68     		ldr	r3, [r7, #12]
ARM GAS  /tmp/ccL5e6Lm.s 			page 69


 2737 029e 1B68     		ldr	r3, [r3]
 2738 02a0 0122     		movs	r2, #1
 2739 02a2 B968     		ldr	r1, [r7, #8]
 2740 02a4 1846     		mov	r0, r3
 2741 02a6 FFF7FEFF 		bl	TIM_CCxChannelCmd
1172:Drivers/STM32F4xx_HAL_Driver/Src/stm32f4xx_hal_tim.c **** 
1173:Drivers/STM32F4xx_HAL_Driver/Src/stm32f4xx_hal_tim.c ****     if (IS_TIM_BREAK_INSTANCE(htim->Instance) != RESET)
 2742              		.loc 1 1173 9
 2743 02aa FB68     		ldr	r3, [r7, #12]
 2744 02ac 1B68     		ldr	r3, [r3]
 2745              		.loc 1 1173 8
 2746 02ae 274A     		ldr	r2, .L181+12
 2747 02b0 9342     		cmp	r3, r2
 2748 02b2 07D1     		bne	.L177
1174:Drivers/STM32F4xx_HAL_Driver/Src/stm32f4xx_hal_tim.c ****     {
1175:Drivers/STM32F4xx_HAL_Driver/Src/stm32f4xx_hal_tim.c ****       /* Enable the main output */
1176:Drivers/STM32F4xx_HAL_Driver/Src/stm32f4xx_hal_tim.c ****       __HAL_TIM_MOE_ENABLE(htim);
 2749              		.loc 1 1176 7
 2750 02b4 FB68     		ldr	r3, [r7, #12]
 2751 02b6 1B68     		ldr	r3, [r3]
 2752 02b8 5A6C     		ldr	r2, [r3, #68]
 2753 02ba FB68     		ldr	r3, [r7, #12]
 2754 02bc 1B68     		ldr	r3, [r3]
 2755 02be 42F40042 		orr	r2, r2, #32768
 2756 02c2 5A64     		str	r2, [r3, #68]
 2757              	.L177:
1177:Drivers/STM32F4xx_HAL_Driver/Src/stm32f4xx_hal_tim.c ****     }
1178:Drivers/STM32F4xx_HAL_Driver/Src/stm32f4xx_hal_tim.c **** 
1179:Drivers/STM32F4xx_HAL_Driver/Src/stm32f4xx_hal_tim.c ****     /* Enable the Peripheral, except in trigger mode where enable is automatically done with trigge
1180:Drivers/STM32F4xx_HAL_Driver/Src/stm32f4xx_hal_tim.c ****     if (IS_TIM_SLAVE_INSTANCE(htim->Instance))
 2758              		.loc 1 1180 9
 2759 02c4 FB68     		ldr	r3, [r7, #12]
 2760 02c6 1B68     		ldr	r3, [r3]
 2761              		.loc 1 1180 8
 2762 02c8 204A     		ldr	r2, .L181+12
 2763 02ca 9342     		cmp	r3, r2
 2764 02cc 18D0     		beq	.L178
 2765              		.loc 1 1180 9 discriminator 1
 2766 02ce FB68     		ldr	r3, [r7, #12]
 2767 02d0 1B68     		ldr	r3, [r3]
 2768 02d2 B3F1804F 		cmp	r3, #1073741824
 2769 02d6 13D0     		beq	.L178
 2770              		.loc 1 1180 9 is_stmt 0 discriminator 2
 2771 02d8 FB68     		ldr	r3, [r7, #12]
 2772 02da 1B68     		ldr	r3, [r3]
 2773 02dc 1C4A     		ldr	r2, .L181+16
 2774 02de 9342     		cmp	r3, r2
 2775 02e0 0ED0     		beq	.L178
 2776              		.loc 1 1180 9 discriminator 3
 2777 02e2 FB68     		ldr	r3, [r7, #12]
 2778 02e4 1B68     		ldr	r3, [r3]
 2779 02e6 1B4A     		ldr	r2, .L181+20
 2780 02e8 9342     		cmp	r3, r2
 2781 02ea 09D0     		beq	.L178
 2782              		.loc 1 1180 9 discriminator 4
 2783 02ec FB68     		ldr	r3, [r7, #12]
 2784 02ee 1B68     		ldr	r3, [r3]
ARM GAS  /tmp/ccL5e6Lm.s 			page 70


 2785 02f0 194A     		ldr	r2, .L181+24
 2786 02f2 9342     		cmp	r3, r2
 2787 02f4 04D0     		beq	.L178
 2788              		.loc 1 1180 9 discriminator 5
 2789 02f6 FB68     		ldr	r3, [r7, #12]
 2790 02f8 1B68     		ldr	r3, [r3]
 2791 02fa 184A     		ldr	r2, .L181+28
 2792 02fc 9342     		cmp	r3, r2
 2793 02fe 11D1     		bne	.L179
 2794              	.L178:
1181:Drivers/STM32F4xx_HAL_Driver/Src/stm32f4xx_hal_tim.c ****     {
1182:Drivers/STM32F4xx_HAL_Driver/Src/stm32f4xx_hal_tim.c ****       tmpsmcr = htim->Instance->SMCR & TIM_SMCR_SMS;
 2795              		.loc 1 1182 21 is_stmt 1
 2796 0300 FB68     		ldr	r3, [r7, #12]
 2797 0302 1B68     		ldr	r3, [r3]
 2798              		.loc 1 1182 31
 2799 0304 9B68     		ldr	r3, [r3, #8]
 2800              		.loc 1 1182 15
 2801 0306 03F00703 		and	r3, r3, #7
 2802 030a 3B61     		str	r3, [r7, #16]
1183:Drivers/STM32F4xx_HAL_Driver/Src/stm32f4xx_hal_tim.c ****       if (!IS_TIM_SLAVEMODE_TRIGGER_ENABLED(tmpsmcr))
 2803              		.loc 1 1183 10
 2804 030c 3B69     		ldr	r3, [r7, #16]
 2805 030e 062B     		cmp	r3, #6
 2806 0310 10D0     		beq	.L176
1184:Drivers/STM32F4xx_HAL_Driver/Src/stm32f4xx_hal_tim.c ****       {
1185:Drivers/STM32F4xx_HAL_Driver/Src/stm32f4xx_hal_tim.c ****         __HAL_TIM_ENABLE(htim);
 2807              		.loc 1 1185 9
 2808 0312 FB68     		ldr	r3, [r7, #12]
 2809 0314 1B68     		ldr	r3, [r3]
 2810 0316 1A68     		ldr	r2, [r3]
 2811 0318 FB68     		ldr	r3, [r7, #12]
 2812 031a 1B68     		ldr	r3, [r3]
 2813 031c 42F00102 		orr	r2, r2, #1
 2814 0320 1A60     		str	r2, [r3]
1183:Drivers/STM32F4xx_HAL_Driver/Src/stm32f4xx_hal_tim.c ****       if (!IS_TIM_SLAVEMODE_TRIGGER_ENABLED(tmpsmcr))
 2815              		.loc 1 1183 10
 2816 0322 07E0     		b	.L176
 2817              	.L179:
1186:Drivers/STM32F4xx_HAL_Driver/Src/stm32f4xx_hal_tim.c ****       }
1187:Drivers/STM32F4xx_HAL_Driver/Src/stm32f4xx_hal_tim.c ****     }
1188:Drivers/STM32F4xx_HAL_Driver/Src/stm32f4xx_hal_tim.c ****     else
1189:Drivers/STM32F4xx_HAL_Driver/Src/stm32f4xx_hal_tim.c ****     {
1190:Drivers/STM32F4xx_HAL_Driver/Src/stm32f4xx_hal_tim.c ****       __HAL_TIM_ENABLE(htim);
 2818              		.loc 1 1190 7
 2819 0324 FB68     		ldr	r3, [r7, #12]
 2820 0326 1B68     		ldr	r3, [r3]
 2821 0328 1A68     		ldr	r2, [r3]
 2822 032a FB68     		ldr	r3, [r7, #12]
 2823 032c 1B68     		ldr	r3, [r3]
 2824 032e 42F00102 		orr	r2, r2, #1
 2825 0332 1A60     		str	r2, [r3]
 2826              	.L176:
1191:Drivers/STM32F4xx_HAL_Driver/Src/stm32f4xx_hal_tim.c ****     }
1192:Drivers/STM32F4xx_HAL_Driver/Src/stm32f4xx_hal_tim.c ****   }
1193:Drivers/STM32F4xx_HAL_Driver/Src/stm32f4xx_hal_tim.c **** 
1194:Drivers/STM32F4xx_HAL_Driver/Src/stm32f4xx_hal_tim.c ****   /* Return function status */
ARM GAS  /tmp/ccL5e6Lm.s 			page 71


1195:Drivers/STM32F4xx_HAL_Driver/Src/stm32f4xx_hal_tim.c ****   return status;
 2827              		.loc 1 1195 10
 2828 0334 FB7D     		ldrb	r3, [r7, #23]	@ zero_extendqisi2
 2829              	.L150:
1196:Drivers/STM32F4xx_HAL_Driver/Src/stm32f4xx_hal_tim.c **** }
 2830              		.loc 1 1196 1
 2831 0336 1846     		mov	r0, r3
 2832 0338 1837     		adds	r7, r7, #24
 2833              	.LCFI101:
 2834              		.cfi_def_cfa_offset 8
 2835 033a BD46     		mov	sp, r7
 2836              	.LCFI102:
 2837              		.cfi_def_cfa_register 13
 2838              		@ sp needed
 2839 033c 80BD     		pop	{r7, pc}
 2840              	.L182:
 2841 033e 00BF     		.align	2
 2842              	.L181:
 2843 0340 00000000 		.word	TIM_DMADelayPulseCplt
 2844 0344 00000000 		.word	TIM_DMADelayPulseHalfCplt
 2845 0348 00000000 		.word	TIM_DMAError
 2846 034c 00000140 		.word	1073807360
 2847 0350 00040040 		.word	1073742848
 2848 0354 00080040 		.word	1073743872
 2849 0358 000C0040 		.word	1073744896
 2850 035c 00400140 		.word	1073823744
 2851              		.cfi_endproc
 2852              	.LFE234:
 2854              		.section	.text.HAL_TIM_OC_Stop_DMA,"ax",%progbits
 2855              		.align	1
 2856              		.global	HAL_TIM_OC_Stop_DMA
 2857              		.syntax unified
 2858              		.thumb
 2859              		.thumb_func
 2861              	HAL_TIM_OC_Stop_DMA:
 2862              	.LFB235:
1197:Drivers/STM32F4xx_HAL_Driver/Src/stm32f4xx_hal_tim.c **** 
1198:Drivers/STM32F4xx_HAL_Driver/Src/stm32f4xx_hal_tim.c **** /**
1199:Drivers/STM32F4xx_HAL_Driver/Src/stm32f4xx_hal_tim.c ****   * @brief  Stops the TIM Output Compare signal generation in DMA mode.
1200:Drivers/STM32F4xx_HAL_Driver/Src/stm32f4xx_hal_tim.c ****   * @param  htim TIM Output Compare handle
1201:Drivers/STM32F4xx_HAL_Driver/Src/stm32f4xx_hal_tim.c ****   * @param  Channel TIM Channel to be disabled
1202:Drivers/STM32F4xx_HAL_Driver/Src/stm32f4xx_hal_tim.c ****   *          This parameter can be one of the following values:
1203:Drivers/STM32F4xx_HAL_Driver/Src/stm32f4xx_hal_tim.c ****   *            @arg TIM_CHANNEL_1: TIM Channel 1 selected
1204:Drivers/STM32F4xx_HAL_Driver/Src/stm32f4xx_hal_tim.c ****   *            @arg TIM_CHANNEL_2: TIM Channel 2 selected
1205:Drivers/STM32F4xx_HAL_Driver/Src/stm32f4xx_hal_tim.c ****   *            @arg TIM_CHANNEL_3: TIM Channel 3 selected
1206:Drivers/STM32F4xx_HAL_Driver/Src/stm32f4xx_hal_tim.c ****   *            @arg TIM_CHANNEL_4: TIM Channel 4 selected
1207:Drivers/STM32F4xx_HAL_Driver/Src/stm32f4xx_hal_tim.c ****   * @retval HAL status
1208:Drivers/STM32F4xx_HAL_Driver/Src/stm32f4xx_hal_tim.c ****   */
1209:Drivers/STM32F4xx_HAL_Driver/Src/stm32f4xx_hal_tim.c **** HAL_StatusTypeDef HAL_TIM_OC_Stop_DMA(TIM_HandleTypeDef *htim, uint32_t Channel)
1210:Drivers/STM32F4xx_HAL_Driver/Src/stm32f4xx_hal_tim.c **** {
 2863              		.loc 1 1210 1
 2864              		.cfi_startproc
 2865              		@ args = 0, pretend = 0, frame = 16
 2866              		@ frame_needed = 1, uses_anonymous_args = 0
 2867 0000 80B5     		push	{r7, lr}
 2868              	.LCFI103:
 2869              		.cfi_def_cfa_offset 8
ARM GAS  /tmp/ccL5e6Lm.s 			page 72


 2870              		.cfi_offset 7, -8
 2871              		.cfi_offset 14, -4
 2872 0002 84B0     		sub	sp, sp, #16
 2873              	.LCFI104:
 2874              		.cfi_def_cfa_offset 24
 2875 0004 00AF     		add	r7, sp, #0
 2876              	.LCFI105:
 2877              		.cfi_def_cfa_register 7
 2878 0006 7860     		str	r0, [r7, #4]
 2879 0008 3960     		str	r1, [r7]
1211:Drivers/STM32F4xx_HAL_Driver/Src/stm32f4xx_hal_tim.c ****   HAL_StatusTypeDef status = HAL_OK;
 2880              		.loc 1 1211 21
 2881 000a 0023     		movs	r3, #0
 2882 000c FB73     		strb	r3, [r7, #15]
1212:Drivers/STM32F4xx_HAL_Driver/Src/stm32f4xx_hal_tim.c **** 
1213:Drivers/STM32F4xx_HAL_Driver/Src/stm32f4xx_hal_tim.c ****   /* Check the parameters */
1214:Drivers/STM32F4xx_HAL_Driver/Src/stm32f4xx_hal_tim.c ****   assert_param(IS_TIM_CCX_INSTANCE(htim->Instance, Channel));
1215:Drivers/STM32F4xx_HAL_Driver/Src/stm32f4xx_hal_tim.c **** 
1216:Drivers/STM32F4xx_HAL_Driver/Src/stm32f4xx_hal_tim.c ****   switch (Channel)
 2883              		.loc 1 1216 3
 2884 000e 3B68     		ldr	r3, [r7]
 2885 0010 0C2B     		cmp	r3, #12
 2886 0012 55D8     		bhi	.L184
 2887 0014 01A2     		adr	r2, .L186
 2888 0016 52F823F0 		ldr	pc, [r2, r3, lsl #2]
 2889 001a 00BF     		.p2align 2
 2890              	.L186:
 2891 001c 51000000 		.word	.L189+1
 2892 0020 C1000000 		.word	.L184+1
 2893 0024 C1000000 		.word	.L184+1
 2894 0028 C1000000 		.word	.L184+1
 2895 002c 6D000000 		.word	.L188+1
 2896 0030 C1000000 		.word	.L184+1
 2897 0034 C1000000 		.word	.L184+1
 2898 0038 C1000000 		.word	.L184+1
 2899 003c 89000000 		.word	.L187+1
 2900 0040 C1000000 		.word	.L184+1
 2901 0044 C1000000 		.word	.L184+1
 2902 0048 C1000000 		.word	.L184+1
 2903 004c A5000000 		.word	.L185+1
 2904              		.p2align 1
 2905              	.L189:
1217:Drivers/STM32F4xx_HAL_Driver/Src/stm32f4xx_hal_tim.c ****   {
1218:Drivers/STM32F4xx_HAL_Driver/Src/stm32f4xx_hal_tim.c ****     case TIM_CHANNEL_1:
1219:Drivers/STM32F4xx_HAL_Driver/Src/stm32f4xx_hal_tim.c ****     {
1220:Drivers/STM32F4xx_HAL_Driver/Src/stm32f4xx_hal_tim.c ****       /* Disable the TIM Capture/Compare 1 DMA request */
1221:Drivers/STM32F4xx_HAL_Driver/Src/stm32f4xx_hal_tim.c ****       __HAL_TIM_DISABLE_DMA(htim, TIM_DMA_CC1);
 2906              		.loc 1 1221 7
 2907 0050 7B68     		ldr	r3, [r7, #4]
 2908 0052 1B68     		ldr	r3, [r3]
 2909 0054 DA68     		ldr	r2, [r3, #12]
 2910 0056 7B68     		ldr	r3, [r7, #4]
 2911 0058 1B68     		ldr	r3, [r3]
 2912 005a 22F40072 		bic	r2, r2, #512
 2913 005e DA60     		str	r2, [r3, #12]
1222:Drivers/STM32F4xx_HAL_Driver/Src/stm32f4xx_hal_tim.c ****       (void)HAL_DMA_Abort_IT(htim->hdma[TIM_DMA_ID_CC1]);
 2914              		.loc 1 1222 13
ARM GAS  /tmp/ccL5e6Lm.s 			page 73


 2915 0060 7B68     		ldr	r3, [r7, #4]
 2916 0062 5B6A     		ldr	r3, [r3, #36]
 2917 0064 1846     		mov	r0, r3
 2918 0066 FFF7FEFF 		bl	HAL_DMA_Abort_IT
1223:Drivers/STM32F4xx_HAL_Driver/Src/stm32f4xx_hal_tim.c ****       break;
 2919              		.loc 1 1223 7
 2920 006a 2CE0     		b	.L190
 2921              	.L188:
1224:Drivers/STM32F4xx_HAL_Driver/Src/stm32f4xx_hal_tim.c ****     }
1225:Drivers/STM32F4xx_HAL_Driver/Src/stm32f4xx_hal_tim.c **** 
1226:Drivers/STM32F4xx_HAL_Driver/Src/stm32f4xx_hal_tim.c ****     case TIM_CHANNEL_2:
1227:Drivers/STM32F4xx_HAL_Driver/Src/stm32f4xx_hal_tim.c ****     {
1228:Drivers/STM32F4xx_HAL_Driver/Src/stm32f4xx_hal_tim.c ****       /* Disable the TIM Capture/Compare 2 DMA request */
1229:Drivers/STM32F4xx_HAL_Driver/Src/stm32f4xx_hal_tim.c ****       __HAL_TIM_DISABLE_DMA(htim, TIM_DMA_CC2);
 2922              		.loc 1 1229 7
 2923 006c 7B68     		ldr	r3, [r7, #4]
 2924 006e 1B68     		ldr	r3, [r3]
 2925 0070 DA68     		ldr	r2, [r3, #12]
 2926 0072 7B68     		ldr	r3, [r7, #4]
 2927 0074 1B68     		ldr	r3, [r3]
 2928 0076 22F48062 		bic	r2, r2, #1024
 2929 007a DA60     		str	r2, [r3, #12]
1230:Drivers/STM32F4xx_HAL_Driver/Src/stm32f4xx_hal_tim.c ****       (void)HAL_DMA_Abort_IT(htim->hdma[TIM_DMA_ID_CC2]);
 2930              		.loc 1 1230 13
 2931 007c 7B68     		ldr	r3, [r7, #4]
 2932 007e 9B6A     		ldr	r3, [r3, #40]
 2933 0080 1846     		mov	r0, r3
 2934 0082 FFF7FEFF 		bl	HAL_DMA_Abort_IT
1231:Drivers/STM32F4xx_HAL_Driver/Src/stm32f4xx_hal_tim.c ****       break;
 2935              		.loc 1 1231 7
 2936 0086 1EE0     		b	.L190
 2937              	.L187:
1232:Drivers/STM32F4xx_HAL_Driver/Src/stm32f4xx_hal_tim.c ****     }
1233:Drivers/STM32F4xx_HAL_Driver/Src/stm32f4xx_hal_tim.c **** 
1234:Drivers/STM32F4xx_HAL_Driver/Src/stm32f4xx_hal_tim.c ****     case TIM_CHANNEL_3:
1235:Drivers/STM32F4xx_HAL_Driver/Src/stm32f4xx_hal_tim.c ****     {
1236:Drivers/STM32F4xx_HAL_Driver/Src/stm32f4xx_hal_tim.c ****       /* Disable the TIM Capture/Compare 3 DMA request */
1237:Drivers/STM32F4xx_HAL_Driver/Src/stm32f4xx_hal_tim.c ****       __HAL_TIM_DISABLE_DMA(htim, TIM_DMA_CC3);
 2938              		.loc 1 1237 7
 2939 0088 7B68     		ldr	r3, [r7, #4]
 2940 008a 1B68     		ldr	r3, [r3]
 2941 008c DA68     		ldr	r2, [r3, #12]
 2942 008e 7B68     		ldr	r3, [r7, #4]
 2943 0090 1B68     		ldr	r3, [r3]
 2944 0092 22F40062 		bic	r2, r2, #2048
 2945 0096 DA60     		str	r2, [r3, #12]
1238:Drivers/STM32F4xx_HAL_Driver/Src/stm32f4xx_hal_tim.c ****       (void)HAL_DMA_Abort_IT(htim->hdma[TIM_DMA_ID_CC3]);
 2946              		.loc 1 1238 13
 2947 0098 7B68     		ldr	r3, [r7, #4]
 2948 009a DB6A     		ldr	r3, [r3, #44]
 2949 009c 1846     		mov	r0, r3
 2950 009e FFF7FEFF 		bl	HAL_DMA_Abort_IT
1239:Drivers/STM32F4xx_HAL_Driver/Src/stm32f4xx_hal_tim.c ****       break;
 2951              		.loc 1 1239 7
 2952 00a2 10E0     		b	.L190
 2953              	.L185:
1240:Drivers/STM32F4xx_HAL_Driver/Src/stm32f4xx_hal_tim.c ****     }
ARM GAS  /tmp/ccL5e6Lm.s 			page 74


1241:Drivers/STM32F4xx_HAL_Driver/Src/stm32f4xx_hal_tim.c **** 
1242:Drivers/STM32F4xx_HAL_Driver/Src/stm32f4xx_hal_tim.c ****     case TIM_CHANNEL_4:
1243:Drivers/STM32F4xx_HAL_Driver/Src/stm32f4xx_hal_tim.c ****     {
1244:Drivers/STM32F4xx_HAL_Driver/Src/stm32f4xx_hal_tim.c ****       /* Disable the TIM Capture/Compare 4 interrupt */
1245:Drivers/STM32F4xx_HAL_Driver/Src/stm32f4xx_hal_tim.c ****       __HAL_TIM_DISABLE_DMA(htim, TIM_DMA_CC4);
 2954              		.loc 1 1245 7
 2955 00a4 7B68     		ldr	r3, [r7, #4]
 2956 00a6 1B68     		ldr	r3, [r3]
 2957 00a8 DA68     		ldr	r2, [r3, #12]
 2958 00aa 7B68     		ldr	r3, [r7, #4]
 2959 00ac 1B68     		ldr	r3, [r3]
 2960 00ae 22F48052 		bic	r2, r2, #4096
 2961 00b2 DA60     		str	r2, [r3, #12]
1246:Drivers/STM32F4xx_HAL_Driver/Src/stm32f4xx_hal_tim.c ****       (void)HAL_DMA_Abort_IT(htim->hdma[TIM_DMA_ID_CC4]);
 2962              		.loc 1 1246 13
 2963 00b4 7B68     		ldr	r3, [r7, #4]
 2964 00b6 1B6B     		ldr	r3, [r3, #48]
 2965 00b8 1846     		mov	r0, r3
 2966 00ba FFF7FEFF 		bl	HAL_DMA_Abort_IT
1247:Drivers/STM32F4xx_HAL_Driver/Src/stm32f4xx_hal_tim.c ****       break;
 2967              		.loc 1 1247 7
 2968 00be 02E0     		b	.L190
 2969              	.L184:
1248:Drivers/STM32F4xx_HAL_Driver/Src/stm32f4xx_hal_tim.c ****     }
1249:Drivers/STM32F4xx_HAL_Driver/Src/stm32f4xx_hal_tim.c **** 
1250:Drivers/STM32F4xx_HAL_Driver/Src/stm32f4xx_hal_tim.c ****     default:
1251:Drivers/STM32F4xx_HAL_Driver/Src/stm32f4xx_hal_tim.c ****       status = HAL_ERROR;
 2970              		.loc 1 1251 14
 2971 00c0 0123     		movs	r3, #1
 2972 00c2 FB73     		strb	r3, [r7, #15]
1252:Drivers/STM32F4xx_HAL_Driver/Src/stm32f4xx_hal_tim.c ****       break;
 2973              		.loc 1 1252 7
 2974 00c4 00BF     		nop
 2975              	.L190:
1253:Drivers/STM32F4xx_HAL_Driver/Src/stm32f4xx_hal_tim.c ****   }
1254:Drivers/STM32F4xx_HAL_Driver/Src/stm32f4xx_hal_tim.c **** 
1255:Drivers/STM32F4xx_HAL_Driver/Src/stm32f4xx_hal_tim.c ****   if (status == HAL_OK)
 2976              		.loc 1 1255 6
 2977 00c6 FB7B     		ldrb	r3, [r7, #15]	@ zero_extendqisi2
 2978 00c8 002B     		cmp	r3, #0
 2979 00ca 57D1     		bne	.L191
1256:Drivers/STM32F4xx_HAL_Driver/Src/stm32f4xx_hal_tim.c ****   {
1257:Drivers/STM32F4xx_HAL_Driver/Src/stm32f4xx_hal_tim.c ****     /* Disable the Output compare channel */
1258:Drivers/STM32F4xx_HAL_Driver/Src/stm32f4xx_hal_tim.c ****     TIM_CCxChannelCmd(htim->Instance, Channel, TIM_CCx_DISABLE);
 2980              		.loc 1 1258 5
 2981 00cc 7B68     		ldr	r3, [r7, #4]
 2982 00ce 1B68     		ldr	r3, [r3]
 2983 00d0 0022     		movs	r2, #0
 2984 00d2 3968     		ldr	r1, [r7]
 2985 00d4 1846     		mov	r0, r3
 2986 00d6 FFF7FEFF 		bl	TIM_CCxChannelCmd
1259:Drivers/STM32F4xx_HAL_Driver/Src/stm32f4xx_hal_tim.c **** 
1260:Drivers/STM32F4xx_HAL_Driver/Src/stm32f4xx_hal_tim.c ****     if (IS_TIM_BREAK_INSTANCE(htim->Instance) != RESET)
 2987              		.loc 1 1260 9
 2988 00da 7B68     		ldr	r3, [r7, #4]
 2989 00dc 1B68     		ldr	r3, [r3]
 2990              		.loc 1 1260 8
ARM GAS  /tmp/ccL5e6Lm.s 			page 75


 2991 00de 2A4A     		ldr	r2, .L200
 2992 00e0 9342     		cmp	r3, r2
 2993 00e2 17D1     		bne	.L192
1261:Drivers/STM32F4xx_HAL_Driver/Src/stm32f4xx_hal_tim.c ****     {
1262:Drivers/STM32F4xx_HAL_Driver/Src/stm32f4xx_hal_tim.c ****       /* Disable the Main Output */
1263:Drivers/STM32F4xx_HAL_Driver/Src/stm32f4xx_hal_tim.c ****       __HAL_TIM_MOE_DISABLE(htim);
 2994              		.loc 1 1263 7
 2995 00e4 7B68     		ldr	r3, [r7, #4]
 2996 00e6 1B68     		ldr	r3, [r3]
 2997 00e8 1A6A     		ldr	r2, [r3, #32]
 2998 00ea 41F21113 		movw	r3, #4369
 2999 00ee 1340     		ands	r3, r3, r2
 3000 00f0 002B     		cmp	r3, #0
 3001 00f2 0FD1     		bne	.L192
 3002              		.loc 1 1263 7 is_stmt 0 discriminator 1
 3003 00f4 7B68     		ldr	r3, [r7, #4]
 3004 00f6 1B68     		ldr	r3, [r3]
 3005 00f8 1A6A     		ldr	r2, [r3, #32]
 3006 00fa 40F24443 		movw	r3, #1092
 3007 00fe 1340     		ands	r3, r3, r2
 3008 0100 002B     		cmp	r3, #0
 3009 0102 07D1     		bne	.L192
 3010              		.loc 1 1263 7 discriminator 2
 3011 0104 7B68     		ldr	r3, [r7, #4]
 3012 0106 1B68     		ldr	r3, [r3]
 3013 0108 5A6C     		ldr	r2, [r3, #68]
 3014 010a 7B68     		ldr	r3, [r7, #4]
 3015 010c 1B68     		ldr	r3, [r3]
 3016 010e 22F40042 		bic	r2, r2, #32768
 3017 0112 5A64     		str	r2, [r3, #68]
 3018              	.L192:
1264:Drivers/STM32F4xx_HAL_Driver/Src/stm32f4xx_hal_tim.c ****     }
1265:Drivers/STM32F4xx_HAL_Driver/Src/stm32f4xx_hal_tim.c **** 
1266:Drivers/STM32F4xx_HAL_Driver/Src/stm32f4xx_hal_tim.c ****     /* Disable the Peripheral */
1267:Drivers/STM32F4xx_HAL_Driver/Src/stm32f4xx_hal_tim.c ****     __HAL_TIM_DISABLE(htim);
 3019              		.loc 1 1267 5 is_stmt 1
 3020 0114 7B68     		ldr	r3, [r7, #4]
 3021 0116 1B68     		ldr	r3, [r3]
 3022 0118 1A6A     		ldr	r2, [r3, #32]
 3023 011a 41F21113 		movw	r3, #4369
 3024 011e 1340     		ands	r3, r3, r2
 3025 0120 002B     		cmp	r3, #0
 3026 0122 0FD1     		bne	.L193
 3027              		.loc 1 1267 5 is_stmt 0 discriminator 1
 3028 0124 7B68     		ldr	r3, [r7, #4]
 3029 0126 1B68     		ldr	r3, [r3]
 3030 0128 1A6A     		ldr	r2, [r3, #32]
 3031 012a 40F24443 		movw	r3, #1092
 3032 012e 1340     		ands	r3, r3, r2
 3033 0130 002B     		cmp	r3, #0
 3034 0132 07D1     		bne	.L193
 3035              		.loc 1 1267 5 discriminator 2
 3036 0134 7B68     		ldr	r3, [r7, #4]
 3037 0136 1B68     		ldr	r3, [r3]
 3038 0138 1A68     		ldr	r2, [r3]
 3039 013a 7B68     		ldr	r3, [r7, #4]
 3040 013c 1B68     		ldr	r3, [r3]
ARM GAS  /tmp/ccL5e6Lm.s 			page 76


 3041 013e 22F00102 		bic	r2, r2, #1
 3042 0142 1A60     		str	r2, [r3]
 3043              	.L193:
1268:Drivers/STM32F4xx_HAL_Driver/Src/stm32f4xx_hal_tim.c **** 
1269:Drivers/STM32F4xx_HAL_Driver/Src/stm32f4xx_hal_tim.c ****     /* Set the TIM channel state */
1270:Drivers/STM32F4xx_HAL_Driver/Src/stm32f4xx_hal_tim.c ****     TIM_CHANNEL_STATE_SET(htim, Channel, HAL_TIM_CHANNEL_STATE_READY);
 3044              		.loc 1 1270 5 is_stmt 1
 3045 0144 3B68     		ldr	r3, [r7]
 3046 0146 002B     		cmp	r3, #0
 3047 0148 04D1     		bne	.L194
 3048              		.loc 1 1270 5 is_stmt 0 discriminator 1
 3049 014a 7B68     		ldr	r3, [r7, #4]
 3050 014c 0122     		movs	r2, #1
 3051 014e 83F83E20 		strb	r2, [r3, #62]
 3052 0152 13E0     		b	.L191
 3053              	.L194:
 3054              		.loc 1 1270 5 discriminator 2
 3055 0154 3B68     		ldr	r3, [r7]
 3056 0156 042B     		cmp	r3, #4
 3057 0158 04D1     		bne	.L195
 3058              		.loc 1 1270 5 discriminator 3
 3059 015a 7B68     		ldr	r3, [r7, #4]
 3060 015c 0122     		movs	r2, #1
 3061 015e 83F83F20 		strb	r2, [r3, #63]
 3062 0162 0BE0     		b	.L191
 3063              	.L195:
 3064              		.loc 1 1270 5 discriminator 4
 3065 0164 3B68     		ldr	r3, [r7]
 3066 0166 082B     		cmp	r3, #8
 3067 0168 04D1     		bne	.L197
 3068              		.loc 1 1270 5 discriminator 6
 3069 016a 7B68     		ldr	r3, [r7, #4]
 3070 016c 0122     		movs	r2, #1
 3071 016e 83F84020 		strb	r2, [r3, #64]
 3072 0172 03E0     		b	.L191
 3073              	.L197:
 3074              		.loc 1 1270 5 discriminator 7
 3075 0174 7B68     		ldr	r3, [r7, #4]
 3076 0176 0122     		movs	r2, #1
 3077 0178 83F84120 		strb	r2, [r3, #65]
 3078              	.L191:
1271:Drivers/STM32F4xx_HAL_Driver/Src/stm32f4xx_hal_tim.c ****   }
1272:Drivers/STM32F4xx_HAL_Driver/Src/stm32f4xx_hal_tim.c **** 
1273:Drivers/STM32F4xx_HAL_Driver/Src/stm32f4xx_hal_tim.c ****   /* Return function status */
1274:Drivers/STM32F4xx_HAL_Driver/Src/stm32f4xx_hal_tim.c ****   return status;
 3079              		.loc 1 1274 10 is_stmt 1
 3080 017c FB7B     		ldrb	r3, [r7, #15]	@ zero_extendqisi2
1275:Drivers/STM32F4xx_HAL_Driver/Src/stm32f4xx_hal_tim.c **** }
 3081              		.loc 1 1275 1
 3082 017e 1846     		mov	r0, r3
 3083 0180 1037     		adds	r7, r7, #16
 3084              	.LCFI106:
 3085              		.cfi_def_cfa_offset 8
 3086 0182 BD46     		mov	sp, r7
 3087              	.LCFI107:
 3088              		.cfi_def_cfa_register 13
 3089              		@ sp needed
ARM GAS  /tmp/ccL5e6Lm.s 			page 77


 3090 0184 80BD     		pop	{r7, pc}
 3091              	.L201:
 3092 0186 00BF     		.align	2
 3093              	.L200:
 3094 0188 00000140 		.word	1073807360
 3095              		.cfi_endproc
 3096              	.LFE235:
 3098              		.section	.text.HAL_TIM_PWM_Init,"ax",%progbits
 3099              		.align	1
 3100              		.global	HAL_TIM_PWM_Init
 3101              		.syntax unified
 3102              		.thumb
 3103              		.thumb_func
 3105              	HAL_TIM_PWM_Init:
 3106              	.LFB236:
1276:Drivers/STM32F4xx_HAL_Driver/Src/stm32f4xx_hal_tim.c **** 
1277:Drivers/STM32F4xx_HAL_Driver/Src/stm32f4xx_hal_tim.c **** /**
1278:Drivers/STM32F4xx_HAL_Driver/Src/stm32f4xx_hal_tim.c ****   * @}
1279:Drivers/STM32F4xx_HAL_Driver/Src/stm32f4xx_hal_tim.c ****   */
1280:Drivers/STM32F4xx_HAL_Driver/Src/stm32f4xx_hal_tim.c **** 
1281:Drivers/STM32F4xx_HAL_Driver/Src/stm32f4xx_hal_tim.c **** /** @defgroup TIM_Exported_Functions_Group3 TIM PWM functions
1282:Drivers/STM32F4xx_HAL_Driver/Src/stm32f4xx_hal_tim.c ****   *  @brief    TIM PWM functions
1283:Drivers/STM32F4xx_HAL_Driver/Src/stm32f4xx_hal_tim.c ****   *
1284:Drivers/STM32F4xx_HAL_Driver/Src/stm32f4xx_hal_tim.c **** @verbatim
1285:Drivers/STM32F4xx_HAL_Driver/Src/stm32f4xx_hal_tim.c ****   ==============================================================================
1286:Drivers/STM32F4xx_HAL_Driver/Src/stm32f4xx_hal_tim.c ****                           ##### TIM PWM functions #####
1287:Drivers/STM32F4xx_HAL_Driver/Src/stm32f4xx_hal_tim.c ****   ==============================================================================
1288:Drivers/STM32F4xx_HAL_Driver/Src/stm32f4xx_hal_tim.c ****   [..]
1289:Drivers/STM32F4xx_HAL_Driver/Src/stm32f4xx_hal_tim.c ****     This section provides functions allowing to:
1290:Drivers/STM32F4xx_HAL_Driver/Src/stm32f4xx_hal_tim.c ****     (+) Initialize and configure the TIM PWM.
1291:Drivers/STM32F4xx_HAL_Driver/Src/stm32f4xx_hal_tim.c ****     (+) De-initialize the TIM PWM.
1292:Drivers/STM32F4xx_HAL_Driver/Src/stm32f4xx_hal_tim.c ****     (+) Start the TIM PWM.
1293:Drivers/STM32F4xx_HAL_Driver/Src/stm32f4xx_hal_tim.c ****     (+) Stop the TIM PWM.
1294:Drivers/STM32F4xx_HAL_Driver/Src/stm32f4xx_hal_tim.c ****     (+) Start the TIM PWM and enable interrupt.
1295:Drivers/STM32F4xx_HAL_Driver/Src/stm32f4xx_hal_tim.c ****     (+) Stop the TIM PWM and disable interrupt.
1296:Drivers/STM32F4xx_HAL_Driver/Src/stm32f4xx_hal_tim.c ****     (+) Start the TIM PWM and enable DMA transfer.
1297:Drivers/STM32F4xx_HAL_Driver/Src/stm32f4xx_hal_tim.c ****     (+) Stop the TIM PWM and disable DMA transfer.
1298:Drivers/STM32F4xx_HAL_Driver/Src/stm32f4xx_hal_tim.c **** 
1299:Drivers/STM32F4xx_HAL_Driver/Src/stm32f4xx_hal_tim.c **** @endverbatim
1300:Drivers/STM32F4xx_HAL_Driver/Src/stm32f4xx_hal_tim.c ****   * @{
1301:Drivers/STM32F4xx_HAL_Driver/Src/stm32f4xx_hal_tim.c ****   */
1302:Drivers/STM32F4xx_HAL_Driver/Src/stm32f4xx_hal_tim.c **** /**
1303:Drivers/STM32F4xx_HAL_Driver/Src/stm32f4xx_hal_tim.c ****   * @brief  Initializes the TIM PWM Time Base according to the specified
1304:Drivers/STM32F4xx_HAL_Driver/Src/stm32f4xx_hal_tim.c ****   *         parameters in the TIM_HandleTypeDef and initializes the associated handle.
1305:Drivers/STM32F4xx_HAL_Driver/Src/stm32f4xx_hal_tim.c ****   * @note   Switching from Center Aligned counter mode to Edge counter mode (or reverse)
1306:Drivers/STM32F4xx_HAL_Driver/Src/stm32f4xx_hal_tim.c ****   *         requires a timer reset to avoid unexpected direction
1307:Drivers/STM32F4xx_HAL_Driver/Src/stm32f4xx_hal_tim.c ****   *         due to DIR bit readonly in center aligned mode.
1308:Drivers/STM32F4xx_HAL_Driver/Src/stm32f4xx_hal_tim.c ****   *         Ex: call @ref HAL_TIM_PWM_DeInit() before HAL_TIM_PWM_Init()
1309:Drivers/STM32F4xx_HAL_Driver/Src/stm32f4xx_hal_tim.c ****   * @param  htim TIM PWM handle
1310:Drivers/STM32F4xx_HAL_Driver/Src/stm32f4xx_hal_tim.c ****   * @retval HAL status
1311:Drivers/STM32F4xx_HAL_Driver/Src/stm32f4xx_hal_tim.c ****   */
1312:Drivers/STM32F4xx_HAL_Driver/Src/stm32f4xx_hal_tim.c **** HAL_StatusTypeDef HAL_TIM_PWM_Init(TIM_HandleTypeDef *htim)
1313:Drivers/STM32F4xx_HAL_Driver/Src/stm32f4xx_hal_tim.c **** {
 3107              		.loc 1 1313 1
 3108              		.cfi_startproc
 3109              		@ args = 0, pretend = 0, frame = 8
 3110              		@ frame_needed = 1, uses_anonymous_args = 0
ARM GAS  /tmp/ccL5e6Lm.s 			page 78


 3111 0000 80B5     		push	{r7, lr}
 3112              	.LCFI108:
 3113              		.cfi_def_cfa_offset 8
 3114              		.cfi_offset 7, -8
 3115              		.cfi_offset 14, -4
 3116 0002 82B0     		sub	sp, sp, #8
 3117              	.LCFI109:
 3118              		.cfi_def_cfa_offset 16
 3119 0004 00AF     		add	r7, sp, #0
 3120              	.LCFI110:
 3121              		.cfi_def_cfa_register 7
 3122 0006 7860     		str	r0, [r7, #4]
1314:Drivers/STM32F4xx_HAL_Driver/Src/stm32f4xx_hal_tim.c ****   /* Check the TIM handle allocation */
1315:Drivers/STM32F4xx_HAL_Driver/Src/stm32f4xx_hal_tim.c ****   if (htim == NULL)
 3123              		.loc 1 1315 6
 3124 0008 7B68     		ldr	r3, [r7, #4]
 3125 000a 002B     		cmp	r3, #0
 3126 000c 01D1     		bne	.L203
1316:Drivers/STM32F4xx_HAL_Driver/Src/stm32f4xx_hal_tim.c ****   {
1317:Drivers/STM32F4xx_HAL_Driver/Src/stm32f4xx_hal_tim.c ****     return HAL_ERROR;
 3127              		.loc 1 1317 12
 3128 000e 0123     		movs	r3, #1
 3129 0010 41E0     		b	.L204
 3130              	.L203:
1318:Drivers/STM32F4xx_HAL_Driver/Src/stm32f4xx_hal_tim.c ****   }
1319:Drivers/STM32F4xx_HAL_Driver/Src/stm32f4xx_hal_tim.c **** 
1320:Drivers/STM32F4xx_HAL_Driver/Src/stm32f4xx_hal_tim.c ****   /* Check the parameters */
1321:Drivers/STM32F4xx_HAL_Driver/Src/stm32f4xx_hal_tim.c ****   assert_param(IS_TIM_INSTANCE(htim->Instance));
1322:Drivers/STM32F4xx_HAL_Driver/Src/stm32f4xx_hal_tim.c ****   assert_param(IS_TIM_COUNTER_MODE(htim->Init.CounterMode));
1323:Drivers/STM32F4xx_HAL_Driver/Src/stm32f4xx_hal_tim.c ****   assert_param(IS_TIM_CLOCKDIVISION_DIV(htim->Init.ClockDivision));
1324:Drivers/STM32F4xx_HAL_Driver/Src/stm32f4xx_hal_tim.c ****   assert_param(IS_TIM_AUTORELOAD_PRELOAD(htim->Init.AutoReloadPreload));
1325:Drivers/STM32F4xx_HAL_Driver/Src/stm32f4xx_hal_tim.c **** 
1326:Drivers/STM32F4xx_HAL_Driver/Src/stm32f4xx_hal_tim.c ****   if (htim->State == HAL_TIM_STATE_RESET)
 3131              		.loc 1 1326 11
 3132 0012 7B68     		ldr	r3, [r7, #4]
 3133 0014 93F83D30 		ldrb	r3, [r3, #61]
 3134 0018 DBB2     		uxtb	r3, r3
 3135              		.loc 1 1326 6
 3136 001a 002B     		cmp	r3, #0
 3137 001c 06D1     		bne	.L205
1327:Drivers/STM32F4xx_HAL_Driver/Src/stm32f4xx_hal_tim.c ****   {
1328:Drivers/STM32F4xx_HAL_Driver/Src/stm32f4xx_hal_tim.c ****     /* Allocate lock resource and initialize it */
1329:Drivers/STM32F4xx_HAL_Driver/Src/stm32f4xx_hal_tim.c ****     htim->Lock = HAL_UNLOCKED;
 3138              		.loc 1 1329 16
 3139 001e 7B68     		ldr	r3, [r7, #4]
 3140 0020 0022     		movs	r2, #0
 3141 0022 83F83C20 		strb	r2, [r3, #60]
1330:Drivers/STM32F4xx_HAL_Driver/Src/stm32f4xx_hal_tim.c **** 
1331:Drivers/STM32F4xx_HAL_Driver/Src/stm32f4xx_hal_tim.c **** #if (USE_HAL_TIM_REGISTER_CALLBACKS == 1)
1332:Drivers/STM32F4xx_HAL_Driver/Src/stm32f4xx_hal_tim.c ****     /* Reset interrupt callbacks to legacy weak callbacks */
1333:Drivers/STM32F4xx_HAL_Driver/Src/stm32f4xx_hal_tim.c ****     TIM_ResetCallback(htim);
1334:Drivers/STM32F4xx_HAL_Driver/Src/stm32f4xx_hal_tim.c **** 
1335:Drivers/STM32F4xx_HAL_Driver/Src/stm32f4xx_hal_tim.c ****     if (htim->PWM_MspInitCallback == NULL)
1336:Drivers/STM32F4xx_HAL_Driver/Src/stm32f4xx_hal_tim.c ****     {
1337:Drivers/STM32F4xx_HAL_Driver/Src/stm32f4xx_hal_tim.c ****       htim->PWM_MspInitCallback = HAL_TIM_PWM_MspInit;
1338:Drivers/STM32F4xx_HAL_Driver/Src/stm32f4xx_hal_tim.c ****     }
1339:Drivers/STM32F4xx_HAL_Driver/Src/stm32f4xx_hal_tim.c ****     /* Init the low level hardware : GPIO, CLOCK, NVIC */
ARM GAS  /tmp/ccL5e6Lm.s 			page 79


1340:Drivers/STM32F4xx_HAL_Driver/Src/stm32f4xx_hal_tim.c ****     htim->PWM_MspInitCallback(htim);
1341:Drivers/STM32F4xx_HAL_Driver/Src/stm32f4xx_hal_tim.c **** #else
1342:Drivers/STM32F4xx_HAL_Driver/Src/stm32f4xx_hal_tim.c ****     /* Init the low level hardware : GPIO, CLOCK, NVIC and DMA */
1343:Drivers/STM32F4xx_HAL_Driver/Src/stm32f4xx_hal_tim.c ****     HAL_TIM_PWM_MspInit(htim);
 3142              		.loc 1 1343 5
 3143 0026 7868     		ldr	r0, [r7, #4]
 3144 0028 FFF7FEFF 		bl	HAL_TIM_PWM_MspInit
 3145              	.L205:
1344:Drivers/STM32F4xx_HAL_Driver/Src/stm32f4xx_hal_tim.c **** #endif /* USE_HAL_TIM_REGISTER_CALLBACKS */
1345:Drivers/STM32F4xx_HAL_Driver/Src/stm32f4xx_hal_tim.c ****   }
1346:Drivers/STM32F4xx_HAL_Driver/Src/stm32f4xx_hal_tim.c **** 
1347:Drivers/STM32F4xx_HAL_Driver/Src/stm32f4xx_hal_tim.c ****   /* Set the TIM state */
1348:Drivers/STM32F4xx_HAL_Driver/Src/stm32f4xx_hal_tim.c ****   htim->State = HAL_TIM_STATE_BUSY;
 3146              		.loc 1 1348 15
 3147 002c 7B68     		ldr	r3, [r7, #4]
 3148 002e 0222     		movs	r2, #2
 3149 0030 83F83D20 		strb	r2, [r3, #61]
1349:Drivers/STM32F4xx_HAL_Driver/Src/stm32f4xx_hal_tim.c **** 
1350:Drivers/STM32F4xx_HAL_Driver/Src/stm32f4xx_hal_tim.c ****   /* Init the base time for the PWM */
1351:Drivers/STM32F4xx_HAL_Driver/Src/stm32f4xx_hal_tim.c ****   TIM_Base_SetConfig(htim->Instance, &htim->Init);
 3150              		.loc 1 1351 3
 3151 0034 7B68     		ldr	r3, [r7, #4]
 3152 0036 1A68     		ldr	r2, [r3]
 3153 0038 7B68     		ldr	r3, [r7, #4]
 3154 003a 0433     		adds	r3, r3, #4
 3155 003c 1946     		mov	r1, r3
 3156 003e 1046     		mov	r0, r2
 3157 0040 FFF7FEFF 		bl	TIM_Base_SetConfig
1352:Drivers/STM32F4xx_HAL_Driver/Src/stm32f4xx_hal_tim.c **** 
1353:Drivers/STM32F4xx_HAL_Driver/Src/stm32f4xx_hal_tim.c ****   /* Initialize the DMA burst operation state */
1354:Drivers/STM32F4xx_HAL_Driver/Src/stm32f4xx_hal_tim.c ****   htim->DMABurstState = HAL_DMA_BURST_STATE_READY;
 3158              		.loc 1 1354 23
 3159 0044 7B68     		ldr	r3, [r7, #4]
 3160 0046 0122     		movs	r2, #1
 3161 0048 83F84620 		strb	r2, [r3, #70]
1355:Drivers/STM32F4xx_HAL_Driver/Src/stm32f4xx_hal_tim.c **** 
1356:Drivers/STM32F4xx_HAL_Driver/Src/stm32f4xx_hal_tim.c ****   /* Initialize the TIM channels state */
1357:Drivers/STM32F4xx_HAL_Driver/Src/stm32f4xx_hal_tim.c ****   TIM_CHANNEL_STATE_SET_ALL(htim, HAL_TIM_CHANNEL_STATE_READY);
 3162              		.loc 1 1357 3
 3163 004c 7B68     		ldr	r3, [r7, #4]
 3164 004e 0122     		movs	r2, #1
 3165 0050 83F83E20 		strb	r2, [r3, #62]
 3166 0054 7B68     		ldr	r3, [r7, #4]
 3167 0056 0122     		movs	r2, #1
 3168 0058 83F83F20 		strb	r2, [r3, #63]
 3169 005c 7B68     		ldr	r3, [r7, #4]
 3170 005e 0122     		movs	r2, #1
 3171 0060 83F84020 		strb	r2, [r3, #64]
 3172 0064 7B68     		ldr	r3, [r7, #4]
 3173 0066 0122     		movs	r2, #1
 3174 0068 83F84120 		strb	r2, [r3, #65]
1358:Drivers/STM32F4xx_HAL_Driver/Src/stm32f4xx_hal_tim.c ****   TIM_CHANNEL_N_STATE_SET_ALL(htim, HAL_TIM_CHANNEL_STATE_READY);
 3175              		.loc 1 1358 3
 3176 006c 7B68     		ldr	r3, [r7, #4]
 3177 006e 0122     		movs	r2, #1
 3178 0070 83F84220 		strb	r2, [r3, #66]
 3179 0074 7B68     		ldr	r3, [r7, #4]
ARM GAS  /tmp/ccL5e6Lm.s 			page 80


 3180 0076 0122     		movs	r2, #1
 3181 0078 83F84320 		strb	r2, [r3, #67]
 3182 007c 7B68     		ldr	r3, [r7, #4]
 3183 007e 0122     		movs	r2, #1
 3184 0080 83F84420 		strb	r2, [r3, #68]
 3185 0084 7B68     		ldr	r3, [r7, #4]
 3186 0086 0122     		movs	r2, #1
 3187 0088 83F84520 		strb	r2, [r3, #69]
1359:Drivers/STM32F4xx_HAL_Driver/Src/stm32f4xx_hal_tim.c **** 
1360:Drivers/STM32F4xx_HAL_Driver/Src/stm32f4xx_hal_tim.c ****   /* Initialize the TIM state*/
1361:Drivers/STM32F4xx_HAL_Driver/Src/stm32f4xx_hal_tim.c ****   htim->State = HAL_TIM_STATE_READY;
 3188              		.loc 1 1361 15
 3189 008c 7B68     		ldr	r3, [r7, #4]
 3190 008e 0122     		movs	r2, #1
 3191 0090 83F83D20 		strb	r2, [r3, #61]
1362:Drivers/STM32F4xx_HAL_Driver/Src/stm32f4xx_hal_tim.c **** 
1363:Drivers/STM32F4xx_HAL_Driver/Src/stm32f4xx_hal_tim.c ****   return HAL_OK;
 3192              		.loc 1 1363 10
 3193 0094 0023     		movs	r3, #0
 3194              	.L204:
1364:Drivers/STM32F4xx_HAL_Driver/Src/stm32f4xx_hal_tim.c **** }
 3195              		.loc 1 1364 1
 3196 0096 1846     		mov	r0, r3
 3197 0098 0837     		adds	r7, r7, #8
 3198              	.LCFI111:
 3199              		.cfi_def_cfa_offset 8
 3200 009a BD46     		mov	sp, r7
 3201              	.LCFI112:
 3202              		.cfi_def_cfa_register 13
 3203              		@ sp needed
 3204 009c 80BD     		pop	{r7, pc}
 3205              		.cfi_endproc
 3206              	.LFE236:
