ARM GAS  /tmp/ccfUPzTZ.s 			page 1


   1              		.cpu cortex-m4
   2              		.arch armv7e-m
   3              		.fpu fpv4-sp-d16
   4              		.eabi_attribute 27, 1
   5              		.eabi_attribute 28, 1
   6              		.eabi_attribute 20, 1
   7              		.eabi_attribute 21, 1
   8              		.eabi_attribute 23, 3
   9              		.eabi_attribute 24, 1
  10              		.eabi_attribute 25, 1
  11              		.eabi_attribute 26, 1
  12              		.eabi_attribute 30, 6
  13              		.eabi_attribute 34, 1
  14              		.eabi_attribute 18, 4
  15              		.file	"stream_buffer.c"
  16              		.text
  17              	.Ltext0:
  18              		.cfi_sections	.debug_frame
  19              		.file 1 "Middlewares/Third_Party/FreeRTOS/Source/stream_buffer.c"
  20              		.section	.text.xStreamBufferGenericCreate,"ax",%progbits
  21              		.align	1
  22              		.global	xStreamBufferGenericCreate
  23              		.syntax unified
  24              		.thumb
  25              		.thumb_func
  27              	xStreamBufferGenericCreate:
  28              	.LFB4:
   1:Middlewares/Third_Party/FreeRTOS/Source/stream_buffer.c **** /*
   2:Middlewares/Third_Party/FreeRTOS/Source/stream_buffer.c ****  * FreeRTOS Kernel V10.3.1
   3:Middlewares/Third_Party/FreeRTOS/Source/stream_buffer.c ****  * Copyright (C) 2020 Amazon.com, Inc. or its affiliates.  All Rights Reserved.
   4:Middlewares/Third_Party/FreeRTOS/Source/stream_buffer.c ****  *
   5:Middlewares/Third_Party/FreeRTOS/Source/stream_buffer.c ****  * Permission is hereby granted, free of charge, to any person obtaining a copy of
   6:Middlewares/Third_Party/FreeRTOS/Source/stream_buffer.c ****  * this software and associated documentation files (the "Software"), to deal in
   7:Middlewares/Third_Party/FreeRTOS/Source/stream_buffer.c ****  * the Software without restriction, including without limitation the rights to
   8:Middlewares/Third_Party/FreeRTOS/Source/stream_buffer.c ****  * use, copy, modify, merge, publish, distribute, sublicense, and/or sell copies of
   9:Middlewares/Third_Party/FreeRTOS/Source/stream_buffer.c ****  * the Software, and to permit persons to whom the Software is furnished to do so,
  10:Middlewares/Third_Party/FreeRTOS/Source/stream_buffer.c ****  * subject to the following conditions:
  11:Middlewares/Third_Party/FreeRTOS/Source/stream_buffer.c ****  *
  12:Middlewares/Third_Party/FreeRTOS/Source/stream_buffer.c ****  * The above copyright notice and this permission notice shall be included in all
  13:Middlewares/Third_Party/FreeRTOS/Source/stream_buffer.c ****  * copies or substantial portions of the Software.
  14:Middlewares/Third_Party/FreeRTOS/Source/stream_buffer.c ****  *
  15:Middlewares/Third_Party/FreeRTOS/Source/stream_buffer.c ****  * THE SOFTWARE IS PROVIDED "AS IS", WITHOUT WARRANTY OF ANY KIND, EXPRESS OR
  16:Middlewares/Third_Party/FreeRTOS/Source/stream_buffer.c ****  * IMPLIED, INCLUDING BUT NOT LIMITED TO THE WARRANTIES OF MERCHANTABILITY, FITNESS
  17:Middlewares/Third_Party/FreeRTOS/Source/stream_buffer.c ****  * FOR A PARTICULAR PURPOSE AND NONINFRINGEMENT. IN NO EVENT SHALL THE AUTHORS OR
  18:Middlewares/Third_Party/FreeRTOS/Source/stream_buffer.c ****  * COPYRIGHT HOLDERS BE LIABLE FOR ANY CLAIM, DAMAGES OR OTHER LIABILITY, WHETHER
  19:Middlewares/Third_Party/FreeRTOS/Source/stream_buffer.c ****  * IN AN ACTION OF CONTRACT, TORT OR OTHERWISE, ARISING FROM, OUT OF OR IN
  20:Middlewares/Third_Party/FreeRTOS/Source/stream_buffer.c ****  * CONNECTION WITH THE SOFTWARE OR THE USE OR OTHER DEALINGS IN THE SOFTWARE.
  21:Middlewares/Third_Party/FreeRTOS/Source/stream_buffer.c ****  *
  22:Middlewares/Third_Party/FreeRTOS/Source/stream_buffer.c ****  * http://www.FreeRTOS.org
  23:Middlewares/Third_Party/FreeRTOS/Source/stream_buffer.c ****  * http://aws.amazon.com/freertos
  24:Middlewares/Third_Party/FreeRTOS/Source/stream_buffer.c ****  *
  25:Middlewares/Third_Party/FreeRTOS/Source/stream_buffer.c ****  * 1 tab == 4 spaces!
  26:Middlewares/Third_Party/FreeRTOS/Source/stream_buffer.c ****  */
  27:Middlewares/Third_Party/FreeRTOS/Source/stream_buffer.c **** 
  28:Middlewares/Third_Party/FreeRTOS/Source/stream_buffer.c **** /* Standard includes. */
  29:Middlewares/Third_Party/FreeRTOS/Source/stream_buffer.c **** #include <stdint.h>
  30:Middlewares/Third_Party/FreeRTOS/Source/stream_buffer.c **** #include <string.h>
ARM GAS  /tmp/ccfUPzTZ.s 			page 2


  31:Middlewares/Third_Party/FreeRTOS/Source/stream_buffer.c **** 
  32:Middlewares/Third_Party/FreeRTOS/Source/stream_buffer.c **** /* Defining MPU_WRAPPERS_INCLUDED_FROM_API_FILE prevents task.h from redefining
  33:Middlewares/Third_Party/FreeRTOS/Source/stream_buffer.c **** all the API functions to use the MPU wrappers.  That should only be done when
  34:Middlewares/Third_Party/FreeRTOS/Source/stream_buffer.c **** task.h is included from an application file. */
  35:Middlewares/Third_Party/FreeRTOS/Source/stream_buffer.c **** #define MPU_WRAPPERS_INCLUDED_FROM_API_FILE
  36:Middlewares/Third_Party/FreeRTOS/Source/stream_buffer.c **** 
  37:Middlewares/Third_Party/FreeRTOS/Source/stream_buffer.c **** /* FreeRTOS includes. */
  38:Middlewares/Third_Party/FreeRTOS/Source/stream_buffer.c **** #include "FreeRTOS.h"
  39:Middlewares/Third_Party/FreeRTOS/Source/stream_buffer.c **** #include "task.h"
  40:Middlewares/Third_Party/FreeRTOS/Source/stream_buffer.c **** #include "stream_buffer.h"
  41:Middlewares/Third_Party/FreeRTOS/Source/stream_buffer.c **** 
  42:Middlewares/Third_Party/FreeRTOS/Source/stream_buffer.c **** #if( configUSE_TASK_NOTIFICATIONS != 1 )
  43:Middlewares/Third_Party/FreeRTOS/Source/stream_buffer.c **** 	#error configUSE_TASK_NOTIFICATIONS must be set to 1 to build stream_buffer.c
  44:Middlewares/Third_Party/FreeRTOS/Source/stream_buffer.c **** #endif
  45:Middlewares/Third_Party/FreeRTOS/Source/stream_buffer.c **** 
  46:Middlewares/Third_Party/FreeRTOS/Source/stream_buffer.c **** /* Lint e961, e9021 and e750 are suppressed as a MISRA exception justified
  47:Middlewares/Third_Party/FreeRTOS/Source/stream_buffer.c **** because the MPU ports require MPU_WRAPPERS_INCLUDED_FROM_API_FILE to be defined
  48:Middlewares/Third_Party/FreeRTOS/Source/stream_buffer.c **** for the header files above, but not in this file, in order to generate the
  49:Middlewares/Third_Party/FreeRTOS/Source/stream_buffer.c **** correct privileged Vs unprivileged linkage and placement. */
  50:Middlewares/Third_Party/FreeRTOS/Source/stream_buffer.c **** #undef MPU_WRAPPERS_INCLUDED_FROM_API_FILE /*lint !e961 !e750 !e9021. */
  51:Middlewares/Third_Party/FreeRTOS/Source/stream_buffer.c **** 
  52:Middlewares/Third_Party/FreeRTOS/Source/stream_buffer.c **** /* If the user has not provided application specific Rx notification macros,
  53:Middlewares/Third_Party/FreeRTOS/Source/stream_buffer.c **** or #defined the notification macros away, them provide default implementations
  54:Middlewares/Third_Party/FreeRTOS/Source/stream_buffer.c **** that uses task notifications. */
  55:Middlewares/Third_Party/FreeRTOS/Source/stream_buffer.c **** /*lint -save -e9026 Function like macros allowed and needed here so they can be overidden. */
  56:Middlewares/Third_Party/FreeRTOS/Source/stream_buffer.c **** #ifndef sbRECEIVE_COMPLETED
  57:Middlewares/Third_Party/FreeRTOS/Source/stream_buffer.c **** 	#define sbRECEIVE_COMPLETED( pxStreamBuffer )										\
  58:Middlewares/Third_Party/FreeRTOS/Source/stream_buffer.c **** 		vTaskSuspendAll();																\
  59:Middlewares/Third_Party/FreeRTOS/Source/stream_buffer.c **** 		{																				\
  60:Middlewares/Third_Party/FreeRTOS/Source/stream_buffer.c **** 			if( ( pxStreamBuffer )->xTaskWaitingToSend != NULL )						\
  61:Middlewares/Third_Party/FreeRTOS/Source/stream_buffer.c **** 			{																			\
  62:Middlewares/Third_Party/FreeRTOS/Source/stream_buffer.c **** 				( void ) xTaskNotify( ( pxStreamBuffer )->xTaskWaitingToSend,			\
  63:Middlewares/Third_Party/FreeRTOS/Source/stream_buffer.c **** 									  ( uint32_t ) 0,									\
  64:Middlewares/Third_Party/FreeRTOS/Source/stream_buffer.c **** 									  eNoAction );										\
  65:Middlewares/Third_Party/FreeRTOS/Source/stream_buffer.c **** 				( pxStreamBuffer )->xTaskWaitingToSend = NULL;							\
  66:Middlewares/Third_Party/FreeRTOS/Source/stream_buffer.c **** 			}																			\
  67:Middlewares/Third_Party/FreeRTOS/Source/stream_buffer.c **** 		}																				\
  68:Middlewares/Third_Party/FreeRTOS/Source/stream_buffer.c **** 		( void ) xTaskResumeAll();
  69:Middlewares/Third_Party/FreeRTOS/Source/stream_buffer.c **** #endif /* sbRECEIVE_COMPLETED */
  70:Middlewares/Third_Party/FreeRTOS/Source/stream_buffer.c **** 
  71:Middlewares/Third_Party/FreeRTOS/Source/stream_buffer.c **** #ifndef sbRECEIVE_COMPLETED_FROM_ISR
  72:Middlewares/Third_Party/FreeRTOS/Source/stream_buffer.c **** 	#define sbRECEIVE_COMPLETED_FROM_ISR( pxStreamBuffer,								\
  73:Middlewares/Third_Party/FreeRTOS/Source/stream_buffer.c **** 										  pxHigherPriorityTaskWoken )					\
  74:Middlewares/Third_Party/FreeRTOS/Source/stream_buffer.c **** 	{																					\
  75:Middlewares/Third_Party/FreeRTOS/Source/stream_buffer.c **** 	UBaseType_t uxSavedInterruptStatus;													\
  76:Middlewares/Third_Party/FreeRTOS/Source/stream_buffer.c **** 																						\
  77:Middlewares/Third_Party/FreeRTOS/Source/stream_buffer.c **** 		uxSavedInterruptStatus = ( UBaseType_t ) portSET_INTERRUPT_MASK_FROM_ISR();		\
  78:Middlewares/Third_Party/FreeRTOS/Source/stream_buffer.c **** 		{																				\
  79:Middlewares/Third_Party/FreeRTOS/Source/stream_buffer.c **** 			if( ( pxStreamBuffer )->xTaskWaitingToSend != NULL )						\
  80:Middlewares/Third_Party/FreeRTOS/Source/stream_buffer.c **** 			{																			\
  81:Middlewares/Third_Party/FreeRTOS/Source/stream_buffer.c **** 				( void ) xTaskNotifyFromISR( ( pxStreamBuffer )->xTaskWaitingToSend,	\
  82:Middlewares/Third_Party/FreeRTOS/Source/stream_buffer.c **** 											 ( uint32_t ) 0,							\
  83:Middlewares/Third_Party/FreeRTOS/Source/stream_buffer.c **** 											 eNoAction,									\
  84:Middlewares/Third_Party/FreeRTOS/Source/stream_buffer.c **** 											 pxHigherPriorityTaskWoken );				\
  85:Middlewares/Third_Party/FreeRTOS/Source/stream_buffer.c **** 				( pxStreamBuffer )->xTaskWaitingToSend = NULL;							\
  86:Middlewares/Third_Party/FreeRTOS/Source/stream_buffer.c **** 			}																			\
  87:Middlewares/Third_Party/FreeRTOS/Source/stream_buffer.c **** 		}																				\
ARM GAS  /tmp/ccfUPzTZ.s 			page 3


  88:Middlewares/Third_Party/FreeRTOS/Source/stream_buffer.c **** 		portCLEAR_INTERRUPT_MASK_FROM_ISR( uxSavedInterruptStatus );					\
  89:Middlewares/Third_Party/FreeRTOS/Source/stream_buffer.c **** 	}
  90:Middlewares/Third_Party/FreeRTOS/Source/stream_buffer.c **** #endif /* sbRECEIVE_COMPLETED_FROM_ISR */
  91:Middlewares/Third_Party/FreeRTOS/Source/stream_buffer.c **** 
  92:Middlewares/Third_Party/FreeRTOS/Source/stream_buffer.c **** /* If the user has not provided an application specific Tx notification macro,
  93:Middlewares/Third_Party/FreeRTOS/Source/stream_buffer.c **** or #defined the notification macro away, them provide a default implementation
  94:Middlewares/Third_Party/FreeRTOS/Source/stream_buffer.c **** that uses task notifications. */
  95:Middlewares/Third_Party/FreeRTOS/Source/stream_buffer.c **** #ifndef sbSEND_COMPLETED
  96:Middlewares/Third_Party/FreeRTOS/Source/stream_buffer.c **** 	#define sbSEND_COMPLETED( pxStreamBuffer )											\
  97:Middlewares/Third_Party/FreeRTOS/Source/stream_buffer.c **** 		vTaskSuspendAll();																\
  98:Middlewares/Third_Party/FreeRTOS/Source/stream_buffer.c **** 		{																				\
  99:Middlewares/Third_Party/FreeRTOS/Source/stream_buffer.c **** 			if( ( pxStreamBuffer )->xTaskWaitingToReceive != NULL )						\
 100:Middlewares/Third_Party/FreeRTOS/Source/stream_buffer.c **** 			{																			\
 101:Middlewares/Third_Party/FreeRTOS/Source/stream_buffer.c **** 				( void ) xTaskNotify( ( pxStreamBuffer )->xTaskWaitingToReceive,		\
 102:Middlewares/Third_Party/FreeRTOS/Source/stream_buffer.c **** 									  ( uint32_t ) 0,									\
 103:Middlewares/Third_Party/FreeRTOS/Source/stream_buffer.c **** 									  eNoAction );										\
 104:Middlewares/Third_Party/FreeRTOS/Source/stream_buffer.c **** 				( pxStreamBuffer )->xTaskWaitingToReceive = NULL;						\
 105:Middlewares/Third_Party/FreeRTOS/Source/stream_buffer.c **** 			}																			\
 106:Middlewares/Third_Party/FreeRTOS/Source/stream_buffer.c **** 		}																				\
 107:Middlewares/Third_Party/FreeRTOS/Source/stream_buffer.c **** 		( void ) xTaskResumeAll();
 108:Middlewares/Third_Party/FreeRTOS/Source/stream_buffer.c **** #endif /* sbSEND_COMPLETED */
 109:Middlewares/Third_Party/FreeRTOS/Source/stream_buffer.c **** 
 110:Middlewares/Third_Party/FreeRTOS/Source/stream_buffer.c **** #ifndef sbSEND_COMPLETE_FROM_ISR
 111:Middlewares/Third_Party/FreeRTOS/Source/stream_buffer.c **** 	#define sbSEND_COMPLETE_FROM_ISR( pxStreamBuffer, pxHigherPriorityTaskWoken )		\
 112:Middlewares/Third_Party/FreeRTOS/Source/stream_buffer.c **** 	{																					\
 113:Middlewares/Third_Party/FreeRTOS/Source/stream_buffer.c **** 	UBaseType_t uxSavedInterruptStatus;													\
 114:Middlewares/Third_Party/FreeRTOS/Source/stream_buffer.c **** 																						\
 115:Middlewares/Third_Party/FreeRTOS/Source/stream_buffer.c **** 		uxSavedInterruptStatus = ( UBaseType_t ) portSET_INTERRUPT_MASK_FROM_ISR();		\
 116:Middlewares/Third_Party/FreeRTOS/Source/stream_buffer.c **** 		{																				\
 117:Middlewares/Third_Party/FreeRTOS/Source/stream_buffer.c **** 			if( ( pxStreamBuffer )->xTaskWaitingToReceive != NULL )						\
 118:Middlewares/Third_Party/FreeRTOS/Source/stream_buffer.c **** 			{																			\
 119:Middlewares/Third_Party/FreeRTOS/Source/stream_buffer.c **** 				( void ) xTaskNotifyFromISR( ( pxStreamBuffer )->xTaskWaitingToReceive,	\
 120:Middlewares/Third_Party/FreeRTOS/Source/stream_buffer.c **** 											 ( uint32_t ) 0,							\
 121:Middlewares/Third_Party/FreeRTOS/Source/stream_buffer.c **** 											 eNoAction,									\
 122:Middlewares/Third_Party/FreeRTOS/Source/stream_buffer.c **** 											 pxHigherPriorityTaskWoken );				\
 123:Middlewares/Third_Party/FreeRTOS/Source/stream_buffer.c **** 				( pxStreamBuffer )->xTaskWaitingToReceive = NULL;						\
 124:Middlewares/Third_Party/FreeRTOS/Source/stream_buffer.c **** 			}																			\
 125:Middlewares/Third_Party/FreeRTOS/Source/stream_buffer.c **** 		}																				\
 126:Middlewares/Third_Party/FreeRTOS/Source/stream_buffer.c **** 		portCLEAR_INTERRUPT_MASK_FROM_ISR( uxSavedInterruptStatus );					\
 127:Middlewares/Third_Party/FreeRTOS/Source/stream_buffer.c **** 	}
 128:Middlewares/Third_Party/FreeRTOS/Source/stream_buffer.c **** #endif /* sbSEND_COMPLETE_FROM_ISR */
 129:Middlewares/Third_Party/FreeRTOS/Source/stream_buffer.c **** /*lint -restore (9026) */
 130:Middlewares/Third_Party/FreeRTOS/Source/stream_buffer.c **** 
 131:Middlewares/Third_Party/FreeRTOS/Source/stream_buffer.c **** /* The number of bytes used to hold the length of a message in the buffer. */
 132:Middlewares/Third_Party/FreeRTOS/Source/stream_buffer.c **** #define sbBYTES_TO_STORE_MESSAGE_LENGTH ( sizeof( configMESSAGE_BUFFER_LENGTH_TYPE ) )
 133:Middlewares/Third_Party/FreeRTOS/Source/stream_buffer.c **** 
 134:Middlewares/Third_Party/FreeRTOS/Source/stream_buffer.c **** /* Bits stored in the ucFlags field of the stream buffer. */
 135:Middlewares/Third_Party/FreeRTOS/Source/stream_buffer.c **** #define sbFLAGS_IS_MESSAGE_BUFFER		( ( uint8_t ) 1 ) /* Set if the stream buffer was created as a m
 136:Middlewares/Third_Party/FreeRTOS/Source/stream_buffer.c **** #define sbFLAGS_IS_STATICALLY_ALLOCATED ( ( uint8_t ) 2 ) /* Set if the stream buffer was created u
 137:Middlewares/Third_Party/FreeRTOS/Source/stream_buffer.c **** 
 138:Middlewares/Third_Party/FreeRTOS/Source/stream_buffer.c **** /*-----------------------------------------------------------*/
 139:Middlewares/Third_Party/FreeRTOS/Source/stream_buffer.c **** 
 140:Middlewares/Third_Party/FreeRTOS/Source/stream_buffer.c **** /* Structure that hold state information on the buffer. */
 141:Middlewares/Third_Party/FreeRTOS/Source/stream_buffer.c **** typedef struct StreamBufferDef_t /*lint !e9058 Style convention uses tag. */
 142:Middlewares/Third_Party/FreeRTOS/Source/stream_buffer.c **** {
 143:Middlewares/Third_Party/FreeRTOS/Source/stream_buffer.c **** 	volatile size_t xTail;				/* Index to the next item to read within the buffer. */
 144:Middlewares/Third_Party/FreeRTOS/Source/stream_buffer.c **** 	volatile size_t xHead;				/* Index to the next item to write within the buffer. */
ARM GAS  /tmp/ccfUPzTZ.s 			page 4


 145:Middlewares/Third_Party/FreeRTOS/Source/stream_buffer.c **** 	size_t xLength;						/* The length of the buffer pointed to by pucBuffer. */
 146:Middlewares/Third_Party/FreeRTOS/Source/stream_buffer.c **** 	size_t xTriggerLevelBytes;			/* The number of bytes that must be in the stream buffer before a tas
 147:Middlewares/Third_Party/FreeRTOS/Source/stream_buffer.c **** 	volatile TaskHandle_t xTaskWaitingToReceive; /* Holds the handle of a task waiting for data, or NU
 148:Middlewares/Third_Party/FreeRTOS/Source/stream_buffer.c **** 	volatile TaskHandle_t xTaskWaitingToSend;	/* Holds the handle of a task waiting to send data to a 
 149:Middlewares/Third_Party/FreeRTOS/Source/stream_buffer.c **** 	uint8_t *pucBuffer;					/* Points to the buffer itself - that is - the RAM that stores the data pa
 150:Middlewares/Third_Party/FreeRTOS/Source/stream_buffer.c **** 	uint8_t ucFlags;
 151:Middlewares/Third_Party/FreeRTOS/Source/stream_buffer.c **** 
 152:Middlewares/Third_Party/FreeRTOS/Source/stream_buffer.c **** 	#if ( configUSE_TRACE_FACILITY == 1 )
 153:Middlewares/Third_Party/FreeRTOS/Source/stream_buffer.c **** 		UBaseType_t uxStreamBufferNumber;		/* Used for tracing purposes. */
 154:Middlewares/Third_Party/FreeRTOS/Source/stream_buffer.c **** 	#endif
 155:Middlewares/Third_Party/FreeRTOS/Source/stream_buffer.c **** } StreamBuffer_t;
 156:Middlewares/Third_Party/FreeRTOS/Source/stream_buffer.c **** 
 157:Middlewares/Third_Party/FreeRTOS/Source/stream_buffer.c **** /*
 158:Middlewares/Third_Party/FreeRTOS/Source/stream_buffer.c ****  * The number of bytes available to be read from the buffer.
 159:Middlewares/Third_Party/FreeRTOS/Source/stream_buffer.c ****  */
 160:Middlewares/Third_Party/FreeRTOS/Source/stream_buffer.c **** static size_t prvBytesInBuffer( const StreamBuffer_t * const pxStreamBuffer ) PRIVILEGED_FUNCTION;
 161:Middlewares/Third_Party/FreeRTOS/Source/stream_buffer.c **** 
 162:Middlewares/Third_Party/FreeRTOS/Source/stream_buffer.c **** /*
 163:Middlewares/Third_Party/FreeRTOS/Source/stream_buffer.c ****  * Add xCount bytes from pucData into the pxStreamBuffer message buffer.
 164:Middlewares/Third_Party/FreeRTOS/Source/stream_buffer.c ****  * Returns the number of bytes written, which will either equal xCount in the
 165:Middlewares/Third_Party/FreeRTOS/Source/stream_buffer.c ****  * success case, or 0 if there was not enough space in the buffer (in which case
 166:Middlewares/Third_Party/FreeRTOS/Source/stream_buffer.c ****  * no data is written into the buffer).
 167:Middlewares/Third_Party/FreeRTOS/Source/stream_buffer.c ****  */
 168:Middlewares/Third_Party/FreeRTOS/Source/stream_buffer.c **** static size_t prvWriteBytesToBuffer( StreamBuffer_t * const pxStreamBuffer, const uint8_t *pucData,
 169:Middlewares/Third_Party/FreeRTOS/Source/stream_buffer.c **** 
 170:Middlewares/Third_Party/FreeRTOS/Source/stream_buffer.c **** /*
 171:Middlewares/Third_Party/FreeRTOS/Source/stream_buffer.c ****  * If the stream buffer is being used as a message buffer, then reads an entire
 172:Middlewares/Third_Party/FreeRTOS/Source/stream_buffer.c ****  * message out of the buffer.  If the stream buffer is being used as a stream
 173:Middlewares/Third_Party/FreeRTOS/Source/stream_buffer.c ****  * buffer then read as many bytes as possible from the buffer.
 174:Middlewares/Third_Party/FreeRTOS/Source/stream_buffer.c ****  * prvReadBytesFromBuffer() is called to actually extract the bytes from the
 175:Middlewares/Third_Party/FreeRTOS/Source/stream_buffer.c ****  * buffer's data storage area.
 176:Middlewares/Third_Party/FreeRTOS/Source/stream_buffer.c ****  */
 177:Middlewares/Third_Party/FreeRTOS/Source/stream_buffer.c **** static size_t prvReadMessageFromBuffer( StreamBuffer_t *pxStreamBuffer,
 178:Middlewares/Third_Party/FreeRTOS/Source/stream_buffer.c **** 										void *pvRxData,
 179:Middlewares/Third_Party/FreeRTOS/Source/stream_buffer.c **** 										size_t xBufferLengthBytes,
 180:Middlewares/Third_Party/FreeRTOS/Source/stream_buffer.c **** 										size_t xBytesAvailable,
 181:Middlewares/Third_Party/FreeRTOS/Source/stream_buffer.c **** 										size_t xBytesToStoreMessageLength ) PRIVILEGED_FUNCTION;
 182:Middlewares/Third_Party/FreeRTOS/Source/stream_buffer.c **** 
 183:Middlewares/Third_Party/FreeRTOS/Source/stream_buffer.c **** /*
 184:Middlewares/Third_Party/FreeRTOS/Source/stream_buffer.c ****  * If the stream buffer is being used as a message buffer, then writes an entire
 185:Middlewares/Third_Party/FreeRTOS/Source/stream_buffer.c ****  * message to the buffer.  If the stream buffer is being used as a stream
 186:Middlewares/Third_Party/FreeRTOS/Source/stream_buffer.c ****  * buffer then write as many bytes as possible to the buffer.
 187:Middlewares/Third_Party/FreeRTOS/Source/stream_buffer.c ****  * prvWriteBytestoBuffer() is called to actually send the bytes to the buffer's
 188:Middlewares/Third_Party/FreeRTOS/Source/stream_buffer.c ****  * data storage area.
 189:Middlewares/Third_Party/FreeRTOS/Source/stream_buffer.c ****  */
 190:Middlewares/Third_Party/FreeRTOS/Source/stream_buffer.c **** static size_t prvWriteMessageToBuffer(  StreamBuffer_t * const pxStreamBuffer,
 191:Middlewares/Third_Party/FreeRTOS/Source/stream_buffer.c **** 										const void * pvTxData,
 192:Middlewares/Third_Party/FreeRTOS/Source/stream_buffer.c **** 										size_t xDataLengthBytes,
 193:Middlewares/Third_Party/FreeRTOS/Source/stream_buffer.c **** 										size_t xSpace,
 194:Middlewares/Third_Party/FreeRTOS/Source/stream_buffer.c **** 										size_t xRequiredSpace ) PRIVILEGED_FUNCTION;
 195:Middlewares/Third_Party/FreeRTOS/Source/stream_buffer.c **** 
 196:Middlewares/Third_Party/FreeRTOS/Source/stream_buffer.c **** /*
 197:Middlewares/Third_Party/FreeRTOS/Source/stream_buffer.c ****  * Read xMaxCount bytes from the pxStreamBuffer message buffer and write them
 198:Middlewares/Third_Party/FreeRTOS/Source/stream_buffer.c ****  * to pucData.
 199:Middlewares/Third_Party/FreeRTOS/Source/stream_buffer.c ****  */
 200:Middlewares/Third_Party/FreeRTOS/Source/stream_buffer.c **** static size_t prvReadBytesFromBuffer( StreamBuffer_t *pxStreamBuffer,
 201:Middlewares/Third_Party/FreeRTOS/Source/stream_buffer.c **** 									  uint8_t *pucData,
ARM GAS  /tmp/ccfUPzTZ.s 			page 5


 202:Middlewares/Third_Party/FreeRTOS/Source/stream_buffer.c **** 									  size_t xMaxCount,
 203:Middlewares/Third_Party/FreeRTOS/Source/stream_buffer.c **** 									  size_t xBytesAvailable ) PRIVILEGED_FUNCTION;
 204:Middlewares/Third_Party/FreeRTOS/Source/stream_buffer.c **** 
 205:Middlewares/Third_Party/FreeRTOS/Source/stream_buffer.c **** /*
 206:Middlewares/Third_Party/FreeRTOS/Source/stream_buffer.c ****  * Called by both pxStreamBufferCreate() and pxStreamBufferCreateStatic() to
 207:Middlewares/Third_Party/FreeRTOS/Source/stream_buffer.c ****  * initialise the members of the newly created stream buffer structure.
 208:Middlewares/Third_Party/FreeRTOS/Source/stream_buffer.c ****  */
 209:Middlewares/Third_Party/FreeRTOS/Source/stream_buffer.c **** static void prvInitialiseNewStreamBuffer( StreamBuffer_t * const pxStreamBuffer,
 210:Middlewares/Third_Party/FreeRTOS/Source/stream_buffer.c **** 										  uint8_t * const pucBuffer,
 211:Middlewares/Third_Party/FreeRTOS/Source/stream_buffer.c **** 										  size_t xBufferSizeBytes,
 212:Middlewares/Third_Party/FreeRTOS/Source/stream_buffer.c **** 										  size_t xTriggerLevelBytes,
 213:Middlewares/Third_Party/FreeRTOS/Source/stream_buffer.c **** 										  uint8_t ucFlags ) PRIVILEGED_FUNCTION;
 214:Middlewares/Third_Party/FreeRTOS/Source/stream_buffer.c **** 
 215:Middlewares/Third_Party/FreeRTOS/Source/stream_buffer.c **** /*-----------------------------------------------------------*/
 216:Middlewares/Third_Party/FreeRTOS/Source/stream_buffer.c **** 
 217:Middlewares/Third_Party/FreeRTOS/Source/stream_buffer.c **** #if( configSUPPORT_DYNAMIC_ALLOCATION == 1 )
 218:Middlewares/Third_Party/FreeRTOS/Source/stream_buffer.c **** 
 219:Middlewares/Third_Party/FreeRTOS/Source/stream_buffer.c **** 	StreamBufferHandle_t xStreamBufferGenericCreate( size_t xBufferSizeBytes, size_t xTriggerLevelByte
 220:Middlewares/Third_Party/FreeRTOS/Source/stream_buffer.c **** 	{
  29              		.loc 1 220 2
  30              		.cfi_startproc
  31              		@ args = 0, pretend = 0, frame = 40
  32              		@ frame_needed = 1, uses_anonymous_args = 0
  33 0000 80B5     		push	{r7, lr}
  34              	.LCFI0:
  35              		.cfi_def_cfa_offset 8
  36              		.cfi_offset 7, -8
  37              		.cfi_offset 14, -4
  38 0002 8CB0     		sub	sp, sp, #48
  39              	.LCFI1:
  40              		.cfi_def_cfa_offset 56
  41 0004 02AF     		add	r7, sp, #8
  42              	.LCFI2:
  43              		.cfi_def_cfa 7, 48
  44 0006 F860     		str	r0, [r7, #12]
  45 0008 B960     		str	r1, [r7, #8]
  46 000a 7A60     		str	r2, [r7, #4]
 221:Middlewares/Third_Party/FreeRTOS/Source/stream_buffer.c **** 	uint8_t *pucAllocatedMemory;
 222:Middlewares/Third_Party/FreeRTOS/Source/stream_buffer.c **** 	uint8_t ucFlags;
 223:Middlewares/Third_Party/FreeRTOS/Source/stream_buffer.c **** 
 224:Middlewares/Third_Party/FreeRTOS/Source/stream_buffer.c **** 		/* In case the stream buffer is going to be used as a message buffer
 225:Middlewares/Third_Party/FreeRTOS/Source/stream_buffer.c **** 		(that is, it will hold discrete messages with a little meta data that
 226:Middlewares/Third_Party/FreeRTOS/Source/stream_buffer.c **** 		says how big the next message is) check the buffer will be large enough
 227:Middlewares/Third_Party/FreeRTOS/Source/stream_buffer.c **** 		to hold at least one message. */
 228:Middlewares/Third_Party/FreeRTOS/Source/stream_buffer.c **** 		if( xIsMessageBuffer == pdTRUE )
  47              		.loc 1 228 5
  48 000c 7B68     		ldr	r3, [r7, #4]
  49 000e 012B     		cmp	r3, #1
  50 0010 11D1     		bne	.L2
 229:Middlewares/Third_Party/FreeRTOS/Source/stream_buffer.c **** 		{
 230:Middlewares/Third_Party/FreeRTOS/Source/stream_buffer.c **** 			/* Is a message buffer but not statically allocated. */
 231:Middlewares/Third_Party/FreeRTOS/Source/stream_buffer.c **** 			ucFlags = sbFLAGS_IS_MESSAGE_BUFFER;
  51              		.loc 1 231 12
  52 0012 0123     		movs	r3, #1
  53 0014 87F82730 		strb	r3, [r7, #39]
 232:Middlewares/Third_Party/FreeRTOS/Source/stream_buffer.c **** 			configASSERT( xBufferSizeBytes > sbBYTES_TO_STORE_MESSAGE_LENGTH );
  54              		.loc 1 232 4
ARM GAS  /tmp/ccfUPzTZ.s 			page 6


  55 0018 FB68     		ldr	r3, [r7, #12]
  56 001a 042B     		cmp	r3, #4
  57 001c 1DD8     		bhi	.L3
  58              	.LBB96:
  59              	.LBB97:
  60              		.file 2 "Middlewares/Third_Party/FreeRTOS/Source/portable/GCC/ARM_CM4F/portmacro.h"
   1:Middlewares/Third_Party/FreeRTOS/Source/portable/GCC/ARM_CM4F/portmacro.h **** /*
   2:Middlewares/Third_Party/FreeRTOS/Source/portable/GCC/ARM_CM4F/portmacro.h ****  * FreeRTOS Kernel V10.3.1
   3:Middlewares/Third_Party/FreeRTOS/Source/portable/GCC/ARM_CM4F/portmacro.h ****  * Copyright (C) 2020 Amazon.com, Inc. or its affiliates.  All Rights Reserved.
   4:Middlewares/Third_Party/FreeRTOS/Source/portable/GCC/ARM_CM4F/portmacro.h ****  *
   5:Middlewares/Third_Party/FreeRTOS/Source/portable/GCC/ARM_CM4F/portmacro.h ****  * Permission is hereby granted, free of charge, to any person obtaining a copy of
   6:Middlewares/Third_Party/FreeRTOS/Source/portable/GCC/ARM_CM4F/portmacro.h ****  * this software and associated documentation files (the "Software"), to deal in
   7:Middlewares/Third_Party/FreeRTOS/Source/portable/GCC/ARM_CM4F/portmacro.h ****  * the Software without restriction, including without limitation the rights to
   8:Middlewares/Third_Party/FreeRTOS/Source/portable/GCC/ARM_CM4F/portmacro.h ****  * use, copy, modify, merge, publish, distribute, sublicense, and/or sell copies of
   9:Middlewares/Third_Party/FreeRTOS/Source/portable/GCC/ARM_CM4F/portmacro.h ****  * the Software, and to permit persons to whom the Software is furnished to do so,
  10:Middlewares/Third_Party/FreeRTOS/Source/portable/GCC/ARM_CM4F/portmacro.h ****  * subject to the following conditions:
  11:Middlewares/Third_Party/FreeRTOS/Source/portable/GCC/ARM_CM4F/portmacro.h ****  *
  12:Middlewares/Third_Party/FreeRTOS/Source/portable/GCC/ARM_CM4F/portmacro.h ****  * The above copyright notice and this permission notice shall be included in all
  13:Middlewares/Third_Party/FreeRTOS/Source/portable/GCC/ARM_CM4F/portmacro.h ****  * copies or substantial portions of the Software.
  14:Middlewares/Third_Party/FreeRTOS/Source/portable/GCC/ARM_CM4F/portmacro.h ****  *
  15:Middlewares/Third_Party/FreeRTOS/Source/portable/GCC/ARM_CM4F/portmacro.h ****  * THE SOFTWARE IS PROVIDED "AS IS", WITHOUT WARRANTY OF ANY KIND, EXPRESS OR
  16:Middlewares/Third_Party/FreeRTOS/Source/portable/GCC/ARM_CM4F/portmacro.h ****  * IMPLIED, INCLUDING BUT NOT LIMITED TO THE WARRANTIES OF MERCHANTABILITY, FITNESS
  17:Middlewares/Third_Party/FreeRTOS/Source/portable/GCC/ARM_CM4F/portmacro.h ****  * FOR A PARTICULAR PURPOSE AND NONINFRINGEMENT. IN NO EVENT SHALL THE AUTHORS OR
  18:Middlewares/Third_Party/FreeRTOS/Source/portable/GCC/ARM_CM4F/portmacro.h ****  * COPYRIGHT HOLDERS BE LIABLE FOR ANY CLAIM, DAMAGES OR OTHER LIABILITY, WHETHER
  19:Middlewares/Third_Party/FreeRTOS/Source/portable/GCC/ARM_CM4F/portmacro.h ****  * IN AN ACTION OF CONTRACT, TORT OR OTHERWISE, ARISING FROM, OUT OF OR IN
  20:Middlewares/Third_Party/FreeRTOS/Source/portable/GCC/ARM_CM4F/portmacro.h ****  * CONNECTION WITH THE SOFTWARE OR THE USE OR OTHER DEALINGS IN THE SOFTWARE.
  21:Middlewares/Third_Party/FreeRTOS/Source/portable/GCC/ARM_CM4F/portmacro.h ****  *
  22:Middlewares/Third_Party/FreeRTOS/Source/portable/GCC/ARM_CM4F/portmacro.h ****  * http://www.FreeRTOS.org
  23:Middlewares/Third_Party/FreeRTOS/Source/portable/GCC/ARM_CM4F/portmacro.h ****  * http://aws.amazon.com/freertos
  24:Middlewares/Third_Party/FreeRTOS/Source/portable/GCC/ARM_CM4F/portmacro.h ****  *
  25:Middlewares/Third_Party/FreeRTOS/Source/portable/GCC/ARM_CM4F/portmacro.h ****  * 1 tab == 4 spaces!
  26:Middlewares/Third_Party/FreeRTOS/Source/portable/GCC/ARM_CM4F/portmacro.h ****  */
  27:Middlewares/Third_Party/FreeRTOS/Source/portable/GCC/ARM_CM4F/portmacro.h **** 
  28:Middlewares/Third_Party/FreeRTOS/Source/portable/GCC/ARM_CM4F/portmacro.h **** 
  29:Middlewares/Third_Party/FreeRTOS/Source/portable/GCC/ARM_CM4F/portmacro.h **** #ifndef PORTMACRO_H
  30:Middlewares/Third_Party/FreeRTOS/Source/portable/GCC/ARM_CM4F/portmacro.h **** #define PORTMACRO_H
  31:Middlewares/Third_Party/FreeRTOS/Source/portable/GCC/ARM_CM4F/portmacro.h **** 
  32:Middlewares/Third_Party/FreeRTOS/Source/portable/GCC/ARM_CM4F/portmacro.h **** #ifdef __cplusplus
  33:Middlewares/Third_Party/FreeRTOS/Source/portable/GCC/ARM_CM4F/portmacro.h **** extern "C" {
  34:Middlewares/Third_Party/FreeRTOS/Source/portable/GCC/ARM_CM4F/portmacro.h **** #endif
  35:Middlewares/Third_Party/FreeRTOS/Source/portable/GCC/ARM_CM4F/portmacro.h **** 
  36:Middlewares/Third_Party/FreeRTOS/Source/portable/GCC/ARM_CM4F/portmacro.h **** /*-----------------------------------------------------------
  37:Middlewares/Third_Party/FreeRTOS/Source/portable/GCC/ARM_CM4F/portmacro.h ****  * Port specific definitions.
  38:Middlewares/Third_Party/FreeRTOS/Source/portable/GCC/ARM_CM4F/portmacro.h ****  *
  39:Middlewares/Third_Party/FreeRTOS/Source/portable/GCC/ARM_CM4F/portmacro.h ****  * The settings in this file configure FreeRTOS correctly for the
  40:Middlewares/Third_Party/FreeRTOS/Source/portable/GCC/ARM_CM4F/portmacro.h ****  * given hardware and compiler.
  41:Middlewares/Third_Party/FreeRTOS/Source/portable/GCC/ARM_CM4F/portmacro.h ****  *
  42:Middlewares/Third_Party/FreeRTOS/Source/portable/GCC/ARM_CM4F/portmacro.h ****  * These settings should not be altered.
  43:Middlewares/Third_Party/FreeRTOS/Source/portable/GCC/ARM_CM4F/portmacro.h ****  *-----------------------------------------------------------
  44:Middlewares/Third_Party/FreeRTOS/Source/portable/GCC/ARM_CM4F/portmacro.h ****  */
  45:Middlewares/Third_Party/FreeRTOS/Source/portable/GCC/ARM_CM4F/portmacro.h **** 
  46:Middlewares/Third_Party/FreeRTOS/Source/portable/GCC/ARM_CM4F/portmacro.h **** /* Type definitions. */
  47:Middlewares/Third_Party/FreeRTOS/Source/portable/GCC/ARM_CM4F/portmacro.h **** #define portCHAR		char
  48:Middlewares/Third_Party/FreeRTOS/Source/portable/GCC/ARM_CM4F/portmacro.h **** #define portFLOAT		float
  49:Middlewares/Third_Party/FreeRTOS/Source/portable/GCC/ARM_CM4F/portmacro.h **** #define portDOUBLE		double
  50:Middlewares/Third_Party/FreeRTOS/Source/portable/GCC/ARM_CM4F/portmacro.h **** #define portLONG		long
  51:Middlewares/Third_Party/FreeRTOS/Source/portable/GCC/ARM_CM4F/portmacro.h **** #define portSHORT		short
ARM GAS  /tmp/ccfUPzTZ.s 			page 7


  52:Middlewares/Third_Party/FreeRTOS/Source/portable/GCC/ARM_CM4F/portmacro.h **** #define portSTACK_TYPE	uint32_t
  53:Middlewares/Third_Party/FreeRTOS/Source/portable/GCC/ARM_CM4F/portmacro.h **** #define portBASE_TYPE	long
  54:Middlewares/Third_Party/FreeRTOS/Source/portable/GCC/ARM_CM4F/portmacro.h **** 
  55:Middlewares/Third_Party/FreeRTOS/Source/portable/GCC/ARM_CM4F/portmacro.h **** typedef portSTACK_TYPE StackType_t;
  56:Middlewares/Third_Party/FreeRTOS/Source/portable/GCC/ARM_CM4F/portmacro.h **** typedef long BaseType_t;
  57:Middlewares/Third_Party/FreeRTOS/Source/portable/GCC/ARM_CM4F/portmacro.h **** typedef unsigned long UBaseType_t;
  58:Middlewares/Third_Party/FreeRTOS/Source/portable/GCC/ARM_CM4F/portmacro.h **** 
  59:Middlewares/Third_Party/FreeRTOS/Source/portable/GCC/ARM_CM4F/portmacro.h **** #if( configUSE_16_BIT_TICKS == 1 )
  60:Middlewares/Third_Party/FreeRTOS/Source/portable/GCC/ARM_CM4F/portmacro.h **** 	typedef uint16_t TickType_t;
  61:Middlewares/Third_Party/FreeRTOS/Source/portable/GCC/ARM_CM4F/portmacro.h **** 	#define portMAX_DELAY ( TickType_t ) 0xffff
  62:Middlewares/Third_Party/FreeRTOS/Source/portable/GCC/ARM_CM4F/portmacro.h **** #else
  63:Middlewares/Third_Party/FreeRTOS/Source/portable/GCC/ARM_CM4F/portmacro.h **** 	typedef uint32_t TickType_t;
  64:Middlewares/Third_Party/FreeRTOS/Source/portable/GCC/ARM_CM4F/portmacro.h **** 	#define portMAX_DELAY ( TickType_t ) 0xffffffffUL
  65:Middlewares/Third_Party/FreeRTOS/Source/portable/GCC/ARM_CM4F/portmacro.h **** 
  66:Middlewares/Third_Party/FreeRTOS/Source/portable/GCC/ARM_CM4F/portmacro.h **** 	/* 32-bit tick type on a 32-bit architecture, so reads of the tick count do
  67:Middlewares/Third_Party/FreeRTOS/Source/portable/GCC/ARM_CM4F/portmacro.h **** 	not need to be guarded with a critical section. */
  68:Middlewares/Third_Party/FreeRTOS/Source/portable/GCC/ARM_CM4F/portmacro.h **** 	#define portTICK_TYPE_IS_ATOMIC 1
  69:Middlewares/Third_Party/FreeRTOS/Source/portable/GCC/ARM_CM4F/portmacro.h **** #endif
  70:Middlewares/Third_Party/FreeRTOS/Source/portable/GCC/ARM_CM4F/portmacro.h **** /*-----------------------------------------------------------*/
  71:Middlewares/Third_Party/FreeRTOS/Source/portable/GCC/ARM_CM4F/portmacro.h **** 
  72:Middlewares/Third_Party/FreeRTOS/Source/portable/GCC/ARM_CM4F/portmacro.h **** /* Architecture specifics. */
  73:Middlewares/Third_Party/FreeRTOS/Source/portable/GCC/ARM_CM4F/portmacro.h **** #define portSTACK_GROWTH			( -1 )
  74:Middlewares/Third_Party/FreeRTOS/Source/portable/GCC/ARM_CM4F/portmacro.h **** #define portTICK_PERIOD_MS			( ( TickType_t ) 1000 / configTICK_RATE_HZ )
  75:Middlewares/Third_Party/FreeRTOS/Source/portable/GCC/ARM_CM4F/portmacro.h **** #define portBYTE_ALIGNMENT			8
  76:Middlewares/Third_Party/FreeRTOS/Source/portable/GCC/ARM_CM4F/portmacro.h **** /*-----------------------------------------------------------*/
  77:Middlewares/Third_Party/FreeRTOS/Source/portable/GCC/ARM_CM4F/portmacro.h **** 
  78:Middlewares/Third_Party/FreeRTOS/Source/portable/GCC/ARM_CM4F/portmacro.h **** /* Scheduler utilities. */
  79:Middlewares/Third_Party/FreeRTOS/Source/portable/GCC/ARM_CM4F/portmacro.h **** #define portYIELD() 															\
  80:Middlewares/Third_Party/FreeRTOS/Source/portable/GCC/ARM_CM4F/portmacro.h **** {																				\
  81:Middlewares/Third_Party/FreeRTOS/Source/portable/GCC/ARM_CM4F/portmacro.h **** 	/* Set a PendSV to request a context switch. */								\
  82:Middlewares/Third_Party/FreeRTOS/Source/portable/GCC/ARM_CM4F/portmacro.h **** 	portNVIC_INT_CTRL_REG = portNVIC_PENDSVSET_BIT;								\
  83:Middlewares/Third_Party/FreeRTOS/Source/portable/GCC/ARM_CM4F/portmacro.h **** 																				\
  84:Middlewares/Third_Party/FreeRTOS/Source/portable/GCC/ARM_CM4F/portmacro.h **** 	/* Barriers are normally not required but do ensure the code is completely	\
  85:Middlewares/Third_Party/FreeRTOS/Source/portable/GCC/ARM_CM4F/portmacro.h **** 	within the specified behaviour for the architecture. */						\
  86:Middlewares/Third_Party/FreeRTOS/Source/portable/GCC/ARM_CM4F/portmacro.h **** 	__asm volatile( "dsb" ::: "memory" );										\
  87:Middlewares/Third_Party/FreeRTOS/Source/portable/GCC/ARM_CM4F/portmacro.h **** 	__asm volatile( "isb" );													\
  88:Middlewares/Third_Party/FreeRTOS/Source/portable/GCC/ARM_CM4F/portmacro.h **** }
  89:Middlewares/Third_Party/FreeRTOS/Source/portable/GCC/ARM_CM4F/portmacro.h **** 
  90:Middlewares/Third_Party/FreeRTOS/Source/portable/GCC/ARM_CM4F/portmacro.h **** #define portNVIC_INT_CTRL_REG		( * ( ( volatile uint32_t * ) 0xe000ed04 ) )
  91:Middlewares/Third_Party/FreeRTOS/Source/portable/GCC/ARM_CM4F/portmacro.h **** #define portNVIC_PENDSVSET_BIT		( 1UL << 28UL )
  92:Middlewares/Third_Party/FreeRTOS/Source/portable/GCC/ARM_CM4F/portmacro.h **** #define portEND_SWITCHING_ISR( xSwitchRequired ) if( xSwitchRequired != pdFALSE ) portYIELD()
  93:Middlewares/Third_Party/FreeRTOS/Source/portable/GCC/ARM_CM4F/portmacro.h **** #define portYIELD_FROM_ISR( x ) portEND_SWITCHING_ISR( x )
  94:Middlewares/Third_Party/FreeRTOS/Source/portable/GCC/ARM_CM4F/portmacro.h **** /*-----------------------------------------------------------*/
  95:Middlewares/Third_Party/FreeRTOS/Source/portable/GCC/ARM_CM4F/portmacro.h **** 
  96:Middlewares/Third_Party/FreeRTOS/Source/portable/GCC/ARM_CM4F/portmacro.h **** /* Critical section management. */
  97:Middlewares/Third_Party/FreeRTOS/Source/portable/GCC/ARM_CM4F/portmacro.h **** extern void vPortEnterCritical( void );
  98:Middlewares/Third_Party/FreeRTOS/Source/portable/GCC/ARM_CM4F/portmacro.h **** extern void vPortExitCritical( void );
  99:Middlewares/Third_Party/FreeRTOS/Source/portable/GCC/ARM_CM4F/portmacro.h **** #define portSET_INTERRUPT_MASK_FROM_ISR()		ulPortRaiseBASEPRI()
 100:Middlewares/Third_Party/FreeRTOS/Source/portable/GCC/ARM_CM4F/portmacro.h **** #define portCLEAR_INTERRUPT_MASK_FROM_ISR(x)	vPortSetBASEPRI(x)
 101:Middlewares/Third_Party/FreeRTOS/Source/portable/GCC/ARM_CM4F/portmacro.h **** #define portDISABLE_INTERRUPTS()				vPortRaiseBASEPRI()
 102:Middlewares/Third_Party/FreeRTOS/Source/portable/GCC/ARM_CM4F/portmacro.h **** #define portENABLE_INTERRUPTS()					vPortSetBASEPRI(0)
 103:Middlewares/Third_Party/FreeRTOS/Source/portable/GCC/ARM_CM4F/portmacro.h **** #define portENTER_CRITICAL()					vPortEnterCritical()
 104:Middlewares/Third_Party/FreeRTOS/Source/portable/GCC/ARM_CM4F/portmacro.h **** #define portEXIT_CRITICAL()						vPortExitCritical()
 105:Middlewares/Third_Party/FreeRTOS/Source/portable/GCC/ARM_CM4F/portmacro.h **** 
 106:Middlewares/Third_Party/FreeRTOS/Source/portable/GCC/ARM_CM4F/portmacro.h **** /*-----------------------------------------------------------*/
 107:Middlewares/Third_Party/FreeRTOS/Source/portable/GCC/ARM_CM4F/portmacro.h **** 
 108:Middlewares/Third_Party/FreeRTOS/Source/portable/GCC/ARM_CM4F/portmacro.h **** /* Task function macros as described on the FreeRTOS.org WEB site.  These are
ARM GAS  /tmp/ccfUPzTZ.s 			page 8


 109:Middlewares/Third_Party/FreeRTOS/Source/portable/GCC/ARM_CM4F/portmacro.h **** not necessary for to use this port.  They are defined so the common demo files
 110:Middlewares/Third_Party/FreeRTOS/Source/portable/GCC/ARM_CM4F/portmacro.h **** (which build with all the ports) will build. */
 111:Middlewares/Third_Party/FreeRTOS/Source/portable/GCC/ARM_CM4F/portmacro.h **** #define portTASK_FUNCTION_PROTO( vFunction, pvParameters ) void vFunction( void *pvParameters )
 112:Middlewares/Third_Party/FreeRTOS/Source/portable/GCC/ARM_CM4F/portmacro.h **** #define portTASK_FUNCTION( vFunction, pvParameters ) void vFunction( void *pvParameters )
 113:Middlewares/Third_Party/FreeRTOS/Source/portable/GCC/ARM_CM4F/portmacro.h **** /*-----------------------------------------------------------*/
 114:Middlewares/Third_Party/FreeRTOS/Source/portable/GCC/ARM_CM4F/portmacro.h **** 
 115:Middlewares/Third_Party/FreeRTOS/Source/portable/GCC/ARM_CM4F/portmacro.h **** /* Tickless idle/low power functionality. */
 116:Middlewares/Third_Party/FreeRTOS/Source/portable/GCC/ARM_CM4F/portmacro.h **** #ifndef portSUPPRESS_TICKS_AND_SLEEP
 117:Middlewares/Third_Party/FreeRTOS/Source/portable/GCC/ARM_CM4F/portmacro.h **** 	extern void vPortSuppressTicksAndSleep( TickType_t xExpectedIdleTime );
 118:Middlewares/Third_Party/FreeRTOS/Source/portable/GCC/ARM_CM4F/portmacro.h **** 	#define portSUPPRESS_TICKS_AND_SLEEP( xExpectedIdleTime ) vPortSuppressTicksAndSleep( xExpectedIdl
 119:Middlewares/Third_Party/FreeRTOS/Source/portable/GCC/ARM_CM4F/portmacro.h **** #endif
 120:Middlewares/Third_Party/FreeRTOS/Source/portable/GCC/ARM_CM4F/portmacro.h **** /*-----------------------------------------------------------*/
 121:Middlewares/Third_Party/FreeRTOS/Source/portable/GCC/ARM_CM4F/portmacro.h **** 
 122:Middlewares/Third_Party/FreeRTOS/Source/portable/GCC/ARM_CM4F/portmacro.h **** /* Architecture specific optimisations. */
 123:Middlewares/Third_Party/FreeRTOS/Source/portable/GCC/ARM_CM4F/portmacro.h **** #ifndef configUSE_PORT_OPTIMISED_TASK_SELECTION
 124:Middlewares/Third_Party/FreeRTOS/Source/portable/GCC/ARM_CM4F/portmacro.h **** 	#define configUSE_PORT_OPTIMISED_TASK_SELECTION 1
 125:Middlewares/Third_Party/FreeRTOS/Source/portable/GCC/ARM_CM4F/portmacro.h **** #endif
 126:Middlewares/Third_Party/FreeRTOS/Source/portable/GCC/ARM_CM4F/portmacro.h **** 
 127:Middlewares/Third_Party/FreeRTOS/Source/portable/GCC/ARM_CM4F/portmacro.h **** #if configUSE_PORT_OPTIMISED_TASK_SELECTION == 1
 128:Middlewares/Third_Party/FreeRTOS/Source/portable/GCC/ARM_CM4F/portmacro.h **** 
 129:Middlewares/Third_Party/FreeRTOS/Source/portable/GCC/ARM_CM4F/portmacro.h **** 	/* Generic helper function. */
 130:Middlewares/Third_Party/FreeRTOS/Source/portable/GCC/ARM_CM4F/portmacro.h **** 	__attribute__( ( always_inline ) ) static inline uint8_t ucPortCountLeadingZeros( uint32_t ulBitma
 131:Middlewares/Third_Party/FreeRTOS/Source/portable/GCC/ARM_CM4F/portmacro.h **** 	{
 132:Middlewares/Third_Party/FreeRTOS/Source/portable/GCC/ARM_CM4F/portmacro.h **** 	uint8_t ucReturn;
 133:Middlewares/Third_Party/FreeRTOS/Source/portable/GCC/ARM_CM4F/portmacro.h **** 
 134:Middlewares/Third_Party/FreeRTOS/Source/portable/GCC/ARM_CM4F/portmacro.h **** 		__asm volatile ( "clz %0, %1" : "=r" ( ucReturn ) : "r" ( ulBitmap ) : "memory" );
 135:Middlewares/Third_Party/FreeRTOS/Source/portable/GCC/ARM_CM4F/portmacro.h **** 		return ucReturn;
 136:Middlewares/Third_Party/FreeRTOS/Source/portable/GCC/ARM_CM4F/portmacro.h **** 	}
 137:Middlewares/Third_Party/FreeRTOS/Source/portable/GCC/ARM_CM4F/portmacro.h **** 
 138:Middlewares/Third_Party/FreeRTOS/Source/portable/GCC/ARM_CM4F/portmacro.h **** 	/* Check the configuration. */
 139:Middlewares/Third_Party/FreeRTOS/Source/portable/GCC/ARM_CM4F/portmacro.h **** 	#if( configMAX_PRIORITIES > 32 )
 140:Middlewares/Third_Party/FreeRTOS/Source/portable/GCC/ARM_CM4F/portmacro.h **** 		#error configUSE_PORT_OPTIMISED_TASK_SELECTION can only be set to 1 when configMAX_PRIORITIES is 
 141:Middlewares/Third_Party/FreeRTOS/Source/portable/GCC/ARM_CM4F/portmacro.h **** 	#endif
 142:Middlewares/Third_Party/FreeRTOS/Source/portable/GCC/ARM_CM4F/portmacro.h **** 
 143:Middlewares/Third_Party/FreeRTOS/Source/portable/GCC/ARM_CM4F/portmacro.h **** 	/* Store/clear the ready priorities in a bit map. */
 144:Middlewares/Third_Party/FreeRTOS/Source/portable/GCC/ARM_CM4F/portmacro.h **** 	#define portRECORD_READY_PRIORITY( uxPriority, uxReadyPriorities ) ( uxReadyPriorities ) |= ( 1UL 
 145:Middlewares/Third_Party/FreeRTOS/Source/portable/GCC/ARM_CM4F/portmacro.h **** 	#define portRESET_READY_PRIORITY( uxPriority, uxReadyPriorities ) ( uxReadyPriorities ) &= ~( 1UL 
 146:Middlewares/Third_Party/FreeRTOS/Source/portable/GCC/ARM_CM4F/portmacro.h **** 
 147:Middlewares/Third_Party/FreeRTOS/Source/portable/GCC/ARM_CM4F/portmacro.h **** 	/*-----------------------------------------------------------*/
 148:Middlewares/Third_Party/FreeRTOS/Source/portable/GCC/ARM_CM4F/portmacro.h **** 
 149:Middlewares/Third_Party/FreeRTOS/Source/portable/GCC/ARM_CM4F/portmacro.h **** 	#define portGET_HIGHEST_PRIORITY( uxTopPriority, uxReadyPriorities ) uxTopPriority = ( 31UL - ( ui
 150:Middlewares/Third_Party/FreeRTOS/Source/portable/GCC/ARM_CM4F/portmacro.h **** 
 151:Middlewares/Third_Party/FreeRTOS/Source/portable/GCC/ARM_CM4F/portmacro.h **** #endif /* configUSE_PORT_OPTIMISED_TASK_SELECTION */
 152:Middlewares/Third_Party/FreeRTOS/Source/portable/GCC/ARM_CM4F/portmacro.h **** 
 153:Middlewares/Third_Party/FreeRTOS/Source/portable/GCC/ARM_CM4F/portmacro.h **** /*-----------------------------------------------------------*/
 154:Middlewares/Third_Party/FreeRTOS/Source/portable/GCC/ARM_CM4F/portmacro.h **** 
 155:Middlewares/Third_Party/FreeRTOS/Source/portable/GCC/ARM_CM4F/portmacro.h **** #ifdef configASSERT
 156:Middlewares/Third_Party/FreeRTOS/Source/portable/GCC/ARM_CM4F/portmacro.h **** 	void vPortValidateInterruptPriority( void );
 157:Middlewares/Third_Party/FreeRTOS/Source/portable/GCC/ARM_CM4F/portmacro.h **** 	#define portASSERT_IF_INTERRUPT_PRIORITY_INVALID() 	vPortValidateInterruptPriority()
 158:Middlewares/Third_Party/FreeRTOS/Source/portable/GCC/ARM_CM4F/portmacro.h **** #endif
 159:Middlewares/Third_Party/FreeRTOS/Source/portable/GCC/ARM_CM4F/portmacro.h **** 
 160:Middlewares/Third_Party/FreeRTOS/Source/portable/GCC/ARM_CM4F/portmacro.h **** /* portNOP() is not required by this port. */
 161:Middlewares/Third_Party/FreeRTOS/Source/portable/GCC/ARM_CM4F/portmacro.h **** #define portNOP()
 162:Middlewares/Third_Party/FreeRTOS/Source/portable/GCC/ARM_CM4F/portmacro.h **** 
 163:Middlewares/Third_Party/FreeRTOS/Source/portable/GCC/ARM_CM4F/portmacro.h **** #define portINLINE	__inline
 164:Middlewares/Third_Party/FreeRTOS/Source/portable/GCC/ARM_CM4F/portmacro.h **** 
 165:Middlewares/Third_Party/FreeRTOS/Source/portable/GCC/ARM_CM4F/portmacro.h **** #ifndef portFORCE_INLINE
ARM GAS  /tmp/ccfUPzTZ.s 			page 9


 166:Middlewares/Third_Party/FreeRTOS/Source/portable/GCC/ARM_CM4F/portmacro.h **** 	#define portFORCE_INLINE inline __attribute__(( always_inline))
 167:Middlewares/Third_Party/FreeRTOS/Source/portable/GCC/ARM_CM4F/portmacro.h **** #endif
 168:Middlewares/Third_Party/FreeRTOS/Source/portable/GCC/ARM_CM4F/portmacro.h **** 
 169:Middlewares/Third_Party/FreeRTOS/Source/portable/GCC/ARM_CM4F/portmacro.h **** portFORCE_INLINE static BaseType_t xPortIsInsideInterrupt( void )
 170:Middlewares/Third_Party/FreeRTOS/Source/portable/GCC/ARM_CM4F/portmacro.h **** {
 171:Middlewares/Third_Party/FreeRTOS/Source/portable/GCC/ARM_CM4F/portmacro.h **** uint32_t ulCurrentInterrupt;
 172:Middlewares/Third_Party/FreeRTOS/Source/portable/GCC/ARM_CM4F/portmacro.h **** BaseType_t xReturn;
 173:Middlewares/Third_Party/FreeRTOS/Source/portable/GCC/ARM_CM4F/portmacro.h **** 
 174:Middlewares/Third_Party/FreeRTOS/Source/portable/GCC/ARM_CM4F/portmacro.h **** 	/* Obtain the number of the currently executing interrupt. */
 175:Middlewares/Third_Party/FreeRTOS/Source/portable/GCC/ARM_CM4F/portmacro.h **** 	__asm volatile( "mrs %0, ipsr" : "=r"( ulCurrentInterrupt ) :: "memory" );
 176:Middlewares/Third_Party/FreeRTOS/Source/portable/GCC/ARM_CM4F/portmacro.h **** 
 177:Middlewares/Third_Party/FreeRTOS/Source/portable/GCC/ARM_CM4F/portmacro.h **** 	if( ulCurrentInterrupt == 0 )
 178:Middlewares/Third_Party/FreeRTOS/Source/portable/GCC/ARM_CM4F/portmacro.h **** 	{
 179:Middlewares/Third_Party/FreeRTOS/Source/portable/GCC/ARM_CM4F/portmacro.h **** 		xReturn = pdFALSE;
 180:Middlewares/Third_Party/FreeRTOS/Source/portable/GCC/ARM_CM4F/portmacro.h **** 	}
 181:Middlewares/Third_Party/FreeRTOS/Source/portable/GCC/ARM_CM4F/portmacro.h **** 	else
 182:Middlewares/Third_Party/FreeRTOS/Source/portable/GCC/ARM_CM4F/portmacro.h **** 	{
 183:Middlewares/Third_Party/FreeRTOS/Source/portable/GCC/ARM_CM4F/portmacro.h **** 		xReturn = pdTRUE;
 184:Middlewares/Third_Party/FreeRTOS/Source/portable/GCC/ARM_CM4F/portmacro.h **** 	}
 185:Middlewares/Third_Party/FreeRTOS/Source/portable/GCC/ARM_CM4F/portmacro.h **** 
 186:Middlewares/Third_Party/FreeRTOS/Source/portable/GCC/ARM_CM4F/portmacro.h **** 	return xReturn;
 187:Middlewares/Third_Party/FreeRTOS/Source/portable/GCC/ARM_CM4F/portmacro.h **** }
 188:Middlewares/Third_Party/FreeRTOS/Source/portable/GCC/ARM_CM4F/portmacro.h **** 
 189:Middlewares/Third_Party/FreeRTOS/Source/portable/GCC/ARM_CM4F/portmacro.h **** /*-----------------------------------------------------------*/
 190:Middlewares/Third_Party/FreeRTOS/Source/portable/GCC/ARM_CM4F/portmacro.h **** 
 191:Middlewares/Third_Party/FreeRTOS/Source/portable/GCC/ARM_CM4F/portmacro.h **** portFORCE_INLINE static void vPortRaiseBASEPRI( void )
 192:Middlewares/Third_Party/FreeRTOS/Source/portable/GCC/ARM_CM4F/portmacro.h **** {
 193:Middlewares/Third_Party/FreeRTOS/Source/portable/GCC/ARM_CM4F/portmacro.h **** uint32_t ulNewBASEPRI;
 194:Middlewares/Third_Party/FreeRTOS/Source/portable/GCC/ARM_CM4F/portmacro.h **** 
 195:Middlewares/Third_Party/FreeRTOS/Source/portable/GCC/ARM_CM4F/portmacro.h **** 	__asm volatile
  61              		.loc 2 195 2
  62              		.syntax unified
  63              	@ 195 "Middlewares/Third_Party/FreeRTOS/Source/portable/GCC/ARM_CM4F/portmacro.h" 1
  64 001e 4FF05003 			mov r3, #80												
  65 0022 83F31188 		msr basepri, r3											
  66 0026 BFF36F8F 		isb														
  67 002a BFF34F8F 		dsb														
  68              	
  69              	@ 0 "" 2
  70              		.thumb
  71              		.syntax unified
  72 002e FB61     		str	r3, [r7, #28]
 196:Middlewares/Third_Party/FreeRTOS/Source/portable/GCC/ARM_CM4F/portmacro.h **** 	(
 197:Middlewares/Third_Party/FreeRTOS/Source/portable/GCC/ARM_CM4F/portmacro.h **** 		"	mov %0, %1												\n"	\
 198:Middlewares/Third_Party/FreeRTOS/Source/portable/GCC/ARM_CM4F/portmacro.h **** 		"	msr basepri, %0											\n" \
 199:Middlewares/Third_Party/FreeRTOS/Source/portable/GCC/ARM_CM4F/portmacro.h **** 		"	isb														\n" \
 200:Middlewares/Third_Party/FreeRTOS/Source/portable/GCC/ARM_CM4F/portmacro.h **** 		"	dsb														\n" \
 201:Middlewares/Third_Party/FreeRTOS/Source/portable/GCC/ARM_CM4F/portmacro.h **** 		:"=r" (ulNewBASEPRI) : "i" ( configMAX_SYSCALL_INTERRUPT_PRIORITY ) : "memory"
 202:Middlewares/Third_Party/FreeRTOS/Source/portable/GCC/ARM_CM4F/portmacro.h **** 	);
 203:Middlewares/Third_Party/FreeRTOS/Source/portable/GCC/ARM_CM4F/portmacro.h **** }
  73              		.loc 2 203 1
  74 0030 00BF     		nop
  75              	.L4:
  76              	.LBE97:
  77              	.LBE96:
  78              		.loc 1 232 4 discriminator 1
  79 0032 00BF     		nop
ARM GAS  /tmp/ccfUPzTZ.s 			page 10


  80 0034 FDE7     		b	.L4
  81              	.L2:
 233:Middlewares/Third_Party/FreeRTOS/Source/stream_buffer.c **** 		}
 234:Middlewares/Third_Party/FreeRTOS/Source/stream_buffer.c **** 		else
 235:Middlewares/Third_Party/FreeRTOS/Source/stream_buffer.c **** 		{
 236:Middlewares/Third_Party/FreeRTOS/Source/stream_buffer.c **** 			/* Not a message buffer and not statically allocated. */
 237:Middlewares/Third_Party/FreeRTOS/Source/stream_buffer.c **** 			ucFlags = 0;
  82              		.loc 1 237 12
  83 0036 0023     		movs	r3, #0
  84 0038 87F82730 		strb	r3, [r7, #39]
 238:Middlewares/Third_Party/FreeRTOS/Source/stream_buffer.c **** 			configASSERT( xBufferSizeBytes > 0 );
  85              		.loc 1 238 4
  86 003c FB68     		ldr	r3, [r7, #12]
  87 003e 002B     		cmp	r3, #0
  88 0040 0BD1     		bne	.L3
  89              	.LBB98:
  90              	.LBB99:
 195:Middlewares/Third_Party/FreeRTOS/Source/portable/GCC/ARM_CM4F/portmacro.h **** 	(
  91              		.loc 2 195 2
  92              		.syntax unified
  93              	@ 195 "Middlewares/Third_Party/FreeRTOS/Source/portable/GCC/ARM_CM4F/portmacro.h" 1
  94 0042 4FF05003 			mov r3, #80												
  95 0046 83F31188 		msr basepri, r3											
  96 004a BFF36F8F 		isb														
  97 004e BFF34F8F 		dsb														
  98              	
  99              	@ 0 "" 2
 100              		.thumb
 101              		.syntax unified
 102 0052 BB61     		str	r3, [r7, #24]
 103              		.loc 2 203 1
 104 0054 00BF     		nop
 105              	.L5:
 106              	.LBE99:
 107              	.LBE98:
 108              		.loc 1 238 4 discriminator 2
 109 0056 00BF     		nop
 110 0058 FDE7     		b	.L5
 111              	.L3:
 239:Middlewares/Third_Party/FreeRTOS/Source/stream_buffer.c **** 		}
 240:Middlewares/Third_Party/FreeRTOS/Source/stream_buffer.c **** 		configASSERT( xTriggerLevelBytes <= xBufferSizeBytes );
 112              		.loc 1 240 3
 113 005a BA68     		ldr	r2, [r7, #8]
 114 005c FB68     		ldr	r3, [r7, #12]
 115 005e 9A42     		cmp	r2, r3
 116 0060 0BD9     		bls	.L6
 117              	.LBB100:
 118              	.LBB101:
 195:Middlewares/Third_Party/FreeRTOS/Source/portable/GCC/ARM_CM4F/portmacro.h **** 	(
 119              		.loc 2 195 2
 120              		.syntax unified
 121              	@ 195 "Middlewares/Third_Party/FreeRTOS/Source/portable/GCC/ARM_CM4F/portmacro.h" 1
 122 0062 4FF05003 			mov r3, #80												
 123 0066 83F31188 		msr basepri, r3											
 124 006a BFF36F8F 		isb														
 125 006e BFF34F8F 		dsb														
 126              	
ARM GAS  /tmp/ccfUPzTZ.s 			page 11


 127              	@ 0 "" 2
 128              		.thumb
 129              		.syntax unified
 130 0072 7B61     		str	r3, [r7, #20]
 131              		.loc 2 203 1
 132 0074 00BF     		nop
 133              	.L7:
 134              	.LBE101:
 135              	.LBE100:
 136              		.loc 1 240 3 discriminator 3
 137 0076 00BF     		nop
 138 0078 FDE7     		b	.L7
 139              	.L6:
 241:Middlewares/Third_Party/FreeRTOS/Source/stream_buffer.c **** 
 242:Middlewares/Third_Party/FreeRTOS/Source/stream_buffer.c **** 		/* A trigger level of 0 would cause a waiting task to unblock even when
 243:Middlewares/Third_Party/FreeRTOS/Source/stream_buffer.c **** 		the buffer was empty. */
 244:Middlewares/Third_Party/FreeRTOS/Source/stream_buffer.c **** 		if( xTriggerLevelBytes == ( size_t ) 0 )
 140              		.loc 1 244 5
 141 007a BB68     		ldr	r3, [r7, #8]
 142 007c 002B     		cmp	r3, #0
 143 007e 01D1     		bne	.L8
 245:Middlewares/Third_Party/FreeRTOS/Source/stream_buffer.c **** 		{
 246:Middlewares/Third_Party/FreeRTOS/Source/stream_buffer.c **** 			xTriggerLevelBytes = ( size_t ) 1;
 144              		.loc 1 246 23
 145 0080 0123     		movs	r3, #1
 146 0082 BB60     		str	r3, [r7, #8]
 147              	.L8:
 247:Middlewares/Third_Party/FreeRTOS/Source/stream_buffer.c **** 		}
 248:Middlewares/Third_Party/FreeRTOS/Source/stream_buffer.c **** 
 249:Middlewares/Third_Party/FreeRTOS/Source/stream_buffer.c **** 		/* A stream buffer requires a StreamBuffer_t structure and a buffer.
 250:Middlewares/Third_Party/FreeRTOS/Source/stream_buffer.c **** 		Both are allocated in a single call to pvPortMalloc().  The
 251:Middlewares/Third_Party/FreeRTOS/Source/stream_buffer.c **** 		StreamBuffer_t structure is placed at the start of the allocated memory
 252:Middlewares/Third_Party/FreeRTOS/Source/stream_buffer.c **** 		and the buffer follows immediately after.  The requested size is
 253:Middlewares/Third_Party/FreeRTOS/Source/stream_buffer.c **** 		incremented so the free space is returned as the user would expect -
 254:Middlewares/Third_Party/FreeRTOS/Source/stream_buffer.c **** 		this is a quirk of the implementation that means otherwise the free
 255:Middlewares/Third_Party/FreeRTOS/Source/stream_buffer.c **** 		space would be reported as one byte smaller than would be logically
 256:Middlewares/Third_Party/FreeRTOS/Source/stream_buffer.c **** 		expected. */
 257:Middlewares/Third_Party/FreeRTOS/Source/stream_buffer.c **** 		xBufferSizeBytes++;
 148              		.loc 1 257 19
 149 0084 FB68     		ldr	r3, [r7, #12]
 150 0086 0133     		adds	r3, r3, #1
 151 0088 FB60     		str	r3, [r7, #12]
 258:Middlewares/Third_Party/FreeRTOS/Source/stream_buffer.c **** 		pucAllocatedMemory = ( uint8_t * ) pvPortMalloc( xBufferSizeBytes + sizeof( StreamBuffer_t ) ); /
 152              		.loc 1 258 38
 153 008a FB68     		ldr	r3, [r7, #12]
 154 008c 2433     		adds	r3, r3, #36
 155 008e 1846     		mov	r0, r3
 156 0090 FFF7FEFF 		bl	pvPortMalloc
 157 0094 3862     		str	r0, [r7, #32]
 259:Middlewares/Third_Party/FreeRTOS/Source/stream_buffer.c **** 
 260:Middlewares/Third_Party/FreeRTOS/Source/stream_buffer.c **** 		if( pucAllocatedMemory != NULL )
 158              		.loc 1 260 5
 159 0096 3B6A     		ldr	r3, [r7, #32]
 160 0098 002B     		cmp	r3, #0
 161 009a 0AD0     		beq	.L9
 261:Middlewares/Third_Party/FreeRTOS/Source/stream_buffer.c **** 		{
 262:Middlewares/Third_Party/FreeRTOS/Source/stream_buffer.c **** 			prvInitialiseNewStreamBuffer( ( StreamBuffer_t * ) pucAllocatedMemory, /* Structure at the start
ARM GAS  /tmp/ccfUPzTZ.s 			page 12


 162              		.loc 1 262 4
 163 009c 3B6A     		ldr	r3, [r7, #32]
 164 009e 03F12401 		add	r1, r3, #36
 165 00a2 97F82730 		ldrb	r3, [r7, #39]	@ zero_extendqisi2
 166 00a6 0093     		str	r3, [sp]
 167 00a8 BB68     		ldr	r3, [r7, #8]
 168 00aa FA68     		ldr	r2, [r7, #12]
 169 00ac 386A     		ldr	r0, [r7, #32]
 170 00ae FFF7FEFF 		bl	prvInitialiseNewStreamBuffer
 171              	.L9:
 263:Middlewares/Third_Party/FreeRTOS/Source/stream_buffer.c **** 										   pucAllocatedMemory + sizeof( StreamBuffer_t ),  /* Storage area follows. */ /*lint !e9
 264:Middlewares/Third_Party/FreeRTOS/Source/stream_buffer.c **** 										   xBufferSizeBytes,
 265:Middlewares/Third_Party/FreeRTOS/Source/stream_buffer.c **** 										   xTriggerLevelBytes,
 266:Middlewares/Third_Party/FreeRTOS/Source/stream_buffer.c **** 										   ucFlags );
 267:Middlewares/Third_Party/FreeRTOS/Source/stream_buffer.c **** 
 268:Middlewares/Third_Party/FreeRTOS/Source/stream_buffer.c **** 			traceSTREAM_BUFFER_CREATE( ( ( StreamBuffer_t * ) pucAllocatedMemory ), xIsMessageBuffer );
 269:Middlewares/Third_Party/FreeRTOS/Source/stream_buffer.c **** 		}
 270:Middlewares/Third_Party/FreeRTOS/Source/stream_buffer.c **** 		else
 271:Middlewares/Third_Party/FreeRTOS/Source/stream_buffer.c **** 		{
 272:Middlewares/Third_Party/FreeRTOS/Source/stream_buffer.c **** 			traceSTREAM_BUFFER_CREATE_FAILED( xIsMessageBuffer );
 273:Middlewares/Third_Party/FreeRTOS/Source/stream_buffer.c **** 		}
 274:Middlewares/Third_Party/FreeRTOS/Source/stream_buffer.c **** 
 275:Middlewares/Third_Party/FreeRTOS/Source/stream_buffer.c **** 		return ( StreamBufferHandle_t ) pucAllocatedMemory; /*lint !e9087 !e826 Safe cast as allocated me
 172              		.loc 1 275 10
 173 00b2 3B6A     		ldr	r3, [r7, #32]
 276:Middlewares/Third_Party/FreeRTOS/Source/stream_buffer.c **** 	}
 174              		.loc 1 276 2
 175 00b4 1846     		mov	r0, r3
 176 00b6 2837     		adds	r7, r7, #40
 177              	.LCFI3:
 178              		.cfi_def_cfa_offset 8
 179 00b8 BD46     		mov	sp, r7
 180              	.LCFI4:
 181              		.cfi_def_cfa_register 13
 182              		@ sp needed
 183 00ba 80BD     		pop	{r7, pc}
 184              		.cfi_endproc
 185              	.LFE4:
 187              		.section	.text.xStreamBufferGenericCreateStatic,"ax",%progbits
 188              		.align	1
 189              		.global	xStreamBufferGenericCreateStatic
 190              		.syntax unified
 191              		.thumb
 192              		.thumb_func
 194              	xStreamBufferGenericCreateStatic:
 195              	.LFB5:
 277:Middlewares/Third_Party/FreeRTOS/Source/stream_buffer.c **** 
 278:Middlewares/Third_Party/FreeRTOS/Source/stream_buffer.c **** #endif /* configSUPPORT_DYNAMIC_ALLOCATION */
 279:Middlewares/Third_Party/FreeRTOS/Source/stream_buffer.c **** /*-----------------------------------------------------------*/
 280:Middlewares/Third_Party/FreeRTOS/Source/stream_buffer.c **** 
 281:Middlewares/Third_Party/FreeRTOS/Source/stream_buffer.c **** #if( configSUPPORT_STATIC_ALLOCATION == 1 )
 282:Middlewares/Third_Party/FreeRTOS/Source/stream_buffer.c **** 
 283:Middlewares/Third_Party/FreeRTOS/Source/stream_buffer.c **** 	StreamBufferHandle_t xStreamBufferGenericCreateStatic( size_t xBufferSizeBytes,
 284:Middlewares/Third_Party/FreeRTOS/Source/stream_buffer.c **** 														   size_t xTriggerLevelBytes,
 285:Middlewares/Third_Party/FreeRTOS/Source/stream_buffer.c **** 														   BaseType_t xIsMessageBuffer,
 286:Middlewares/Third_Party/FreeRTOS/Source/stream_buffer.c **** 														   uint8_t * const pucStreamBufferStorageArea,
 287:Middlewares/Third_Party/FreeRTOS/Source/stream_buffer.c **** 														   StaticStreamBuffer_t * const pxStaticStreamBuffer )
ARM GAS  /tmp/ccfUPzTZ.s 			page 13


 288:Middlewares/Third_Party/FreeRTOS/Source/stream_buffer.c **** 	{
 196              		.loc 1 288 2
 197              		.cfi_startproc
 198              		@ args = 4, pretend = 0, frame = 56
 199              		@ frame_needed = 1, uses_anonymous_args = 0
 200 0000 80B5     		push	{r7, lr}
 201              	.LCFI5:
 202              		.cfi_def_cfa_offset 8
 203              		.cfi_offset 7, -8
 204              		.cfi_offset 14, -4
 205 0002 90B0     		sub	sp, sp, #64
 206              	.LCFI6:
 207              		.cfi_def_cfa_offset 72
 208 0004 02AF     		add	r7, sp, #8
 209              	.LCFI7:
 210              		.cfi_def_cfa 7, 64
 211 0006 F860     		str	r0, [r7, #12]
 212 0008 B960     		str	r1, [r7, #8]
 213 000a 7A60     		str	r2, [r7, #4]
 214 000c 3B60     		str	r3, [r7]
 289:Middlewares/Third_Party/FreeRTOS/Source/stream_buffer.c **** 	StreamBuffer_t * const pxStreamBuffer = ( StreamBuffer_t * ) pxStaticStreamBuffer; /*lint !e740 !e
 215              		.loc 1 289 25
 216 000e 3B6C     		ldr	r3, [r7, #64]
 217 0010 FB62     		str	r3, [r7, #44]
 290:Middlewares/Third_Party/FreeRTOS/Source/stream_buffer.c **** 	StreamBufferHandle_t xReturn;
 291:Middlewares/Third_Party/FreeRTOS/Source/stream_buffer.c **** 	uint8_t ucFlags;
 292:Middlewares/Third_Party/FreeRTOS/Source/stream_buffer.c **** 
 293:Middlewares/Third_Party/FreeRTOS/Source/stream_buffer.c **** 		configASSERT( pucStreamBufferStorageArea );
 218              		.loc 1 293 3
 219 0012 3B68     		ldr	r3, [r7]
 220 0014 002B     		cmp	r3, #0
 221 0016 0BD1     		bne	.L12
 222              	.LBB102:
 223              	.LBB103:
 195:Middlewares/Third_Party/FreeRTOS/Source/portable/GCC/ARM_CM4F/portmacro.h **** 	(
 224              		.loc 2 195 2
 225              		.syntax unified
 226              	@ 195 "Middlewares/Third_Party/FreeRTOS/Source/portable/GCC/ARM_CM4F/portmacro.h" 1
 227 0018 4FF05003 			mov r3, #80												
 228 001c 83F31188 		msr basepri, r3											
 229 0020 BFF36F8F 		isb														
 230 0024 BFF34F8F 		dsb														
 231              	
 232              	@ 0 "" 2
 233              		.thumb
 234              		.syntax unified
 235 0028 BB62     		str	r3, [r7, #40]
 236              		.loc 2 203 1
 237 002a 00BF     		nop
 238              	.L13:
 239              	.LBE103:
 240              	.LBE102:
 241              		.loc 1 293 3 discriminator 1
 242 002c 00BF     		nop
 243 002e FDE7     		b	.L13
 244              	.L12:
 294:Middlewares/Third_Party/FreeRTOS/Source/stream_buffer.c **** 		configASSERT( pxStaticStreamBuffer );
ARM GAS  /tmp/ccfUPzTZ.s 			page 14


 245              		.loc 1 294 3
 246 0030 3B6C     		ldr	r3, [r7, #64]
 247 0032 002B     		cmp	r3, #0
 248 0034 0BD1     		bne	.L14
 249              	.LBB104:
 250              	.LBB105:
 195:Middlewares/Third_Party/FreeRTOS/Source/portable/GCC/ARM_CM4F/portmacro.h **** 	(
 251              		.loc 2 195 2
 252              		.syntax unified
 253              	@ 195 "Middlewares/Third_Party/FreeRTOS/Source/portable/GCC/ARM_CM4F/portmacro.h" 1
 254 0036 4FF05003 			mov r3, #80												
 255 003a 83F31188 		msr basepri, r3											
 256 003e BFF36F8F 		isb														
 257 0042 BFF34F8F 		dsb														
 258              	
 259              	@ 0 "" 2
 260              		.thumb
 261              		.syntax unified
 262 0046 7B62     		str	r3, [r7, #36]
 263              		.loc 2 203 1
 264 0048 00BF     		nop
 265              	.L15:
 266              	.LBE105:
 267              	.LBE104:
 268              		.loc 1 294 3 discriminator 2
 269 004a 00BF     		nop
 270 004c FDE7     		b	.L15
 271              	.L14:
 295:Middlewares/Third_Party/FreeRTOS/Source/stream_buffer.c **** 		configASSERT( xTriggerLevelBytes <= xBufferSizeBytes );
 272              		.loc 1 295 3
 273 004e BA68     		ldr	r2, [r7, #8]
 274 0050 FB68     		ldr	r3, [r7, #12]
 275 0052 9A42     		cmp	r2, r3
 276 0054 0BD9     		bls	.L16
 277              	.LBB106:
 278              	.LBB107:
 195:Middlewares/Third_Party/FreeRTOS/Source/portable/GCC/ARM_CM4F/portmacro.h **** 	(
 279              		.loc 2 195 2
 280              		.syntax unified
 281              	@ 195 "Middlewares/Third_Party/FreeRTOS/Source/portable/GCC/ARM_CM4F/portmacro.h" 1
 282 0056 4FF05003 			mov r3, #80												
 283 005a 83F31188 		msr basepri, r3											
 284 005e BFF36F8F 		isb														
 285 0062 BFF34F8F 		dsb														
 286              	
 287              	@ 0 "" 2
 288              		.thumb
 289              		.syntax unified
 290 0066 3B62     		str	r3, [r7, #32]
 291              		.loc 2 203 1
 292 0068 00BF     		nop
 293              	.L17:
 294              	.LBE107:
 295              	.LBE106:
 296              		.loc 1 295 3 discriminator 3
 297 006a 00BF     		nop
 298 006c FDE7     		b	.L17
ARM GAS  /tmp/ccfUPzTZ.s 			page 15


 299              	.L16:
 296:Middlewares/Third_Party/FreeRTOS/Source/stream_buffer.c **** 
 297:Middlewares/Third_Party/FreeRTOS/Source/stream_buffer.c **** 		/* A trigger level of 0 would cause a waiting task to unblock even when
 298:Middlewares/Third_Party/FreeRTOS/Source/stream_buffer.c **** 		the buffer was empty. */
 299:Middlewares/Third_Party/FreeRTOS/Source/stream_buffer.c **** 		if( xTriggerLevelBytes == ( size_t ) 0 )
 300              		.loc 1 299 5
 301 006e BB68     		ldr	r3, [r7, #8]
 302 0070 002B     		cmp	r3, #0
 303 0072 01D1     		bne	.L18
 300:Middlewares/Third_Party/FreeRTOS/Source/stream_buffer.c **** 		{
 301:Middlewares/Third_Party/FreeRTOS/Source/stream_buffer.c **** 			xTriggerLevelBytes = ( size_t ) 1;
 304              		.loc 1 301 23
 305 0074 0123     		movs	r3, #1
 306 0076 BB60     		str	r3, [r7, #8]
 307              	.L18:
 302:Middlewares/Third_Party/FreeRTOS/Source/stream_buffer.c **** 		}
 303:Middlewares/Third_Party/FreeRTOS/Source/stream_buffer.c **** 
 304:Middlewares/Third_Party/FreeRTOS/Source/stream_buffer.c **** 		if( xIsMessageBuffer != pdFALSE )
 308              		.loc 1 304 5
 309 0078 7B68     		ldr	r3, [r7, #4]
 310 007a 002B     		cmp	r3, #0
 311 007c 03D0     		beq	.L19
 305:Middlewares/Third_Party/FreeRTOS/Source/stream_buffer.c **** 		{
 306:Middlewares/Third_Party/FreeRTOS/Source/stream_buffer.c **** 			/* Statically allocated message buffer. */
 307:Middlewares/Third_Party/FreeRTOS/Source/stream_buffer.c **** 			ucFlags = sbFLAGS_IS_MESSAGE_BUFFER | sbFLAGS_IS_STATICALLY_ALLOCATED;
 312              		.loc 1 307 12
 313 007e 0323     		movs	r3, #3
 314 0080 87F83330 		strb	r3, [r7, #51]
 315 0084 02E0     		b	.L20
 316              	.L19:
 308:Middlewares/Third_Party/FreeRTOS/Source/stream_buffer.c **** 		}
 309:Middlewares/Third_Party/FreeRTOS/Source/stream_buffer.c **** 		else
 310:Middlewares/Third_Party/FreeRTOS/Source/stream_buffer.c **** 		{
 311:Middlewares/Third_Party/FreeRTOS/Source/stream_buffer.c **** 			/* Statically allocated stream buffer. */
 312:Middlewares/Third_Party/FreeRTOS/Source/stream_buffer.c **** 			ucFlags = sbFLAGS_IS_STATICALLY_ALLOCATED;
 317              		.loc 1 312 12
 318 0086 0223     		movs	r3, #2
 319 0088 87F83330 		strb	r3, [r7, #51]
 320              	.L20:
 313:Middlewares/Third_Party/FreeRTOS/Source/stream_buffer.c **** 		}
 314:Middlewares/Third_Party/FreeRTOS/Source/stream_buffer.c **** 
 315:Middlewares/Third_Party/FreeRTOS/Source/stream_buffer.c **** 		/* In case the stream buffer is going to be used as a message buffer
 316:Middlewares/Third_Party/FreeRTOS/Source/stream_buffer.c **** 		(that is, it will hold discrete messages with a little meta data that
 317:Middlewares/Third_Party/FreeRTOS/Source/stream_buffer.c **** 		says how big the next message is) check the buffer will be large enough
 318:Middlewares/Third_Party/FreeRTOS/Source/stream_buffer.c **** 		to hold at least one message. */
 319:Middlewares/Third_Party/FreeRTOS/Source/stream_buffer.c **** 		configASSERT( xBufferSizeBytes > sbBYTES_TO_STORE_MESSAGE_LENGTH );
 321              		.loc 1 319 3
 322 008c FB68     		ldr	r3, [r7, #12]
 323 008e 042B     		cmp	r3, #4
 324 0090 0BD8     		bhi	.L21
 325              	.LBB108:
 326              	.LBB109:
 195:Middlewares/Third_Party/FreeRTOS/Source/portable/GCC/ARM_CM4F/portmacro.h **** 	(
 327              		.loc 2 195 2
 328              		.syntax unified
 329              	@ 195 "Middlewares/Third_Party/FreeRTOS/Source/portable/GCC/ARM_CM4F/portmacro.h" 1
 330 0092 4FF05003 			mov r3, #80												
ARM GAS  /tmp/ccfUPzTZ.s 			page 16


 331 0096 83F31188 		msr basepri, r3											
 332 009a BFF36F8F 		isb														
 333 009e BFF34F8F 		dsb														
 334              	
 335              	@ 0 "" 2
 336              		.thumb
 337              		.syntax unified
 338 00a2 FB61     		str	r3, [r7, #28]
 339              		.loc 2 203 1
 340 00a4 00BF     		nop
 341              	.L22:
 342              	.LBE109:
 343              	.LBE108:
 344              		.loc 1 319 3 discriminator 4
 345 00a6 00BF     		nop
 346 00a8 FDE7     		b	.L22
 347              	.L21:
 348              	.LBB110:
 320:Middlewares/Third_Party/FreeRTOS/Source/stream_buffer.c **** 
 321:Middlewares/Third_Party/FreeRTOS/Source/stream_buffer.c **** 		#if( configASSERT_DEFINED == 1 )
 322:Middlewares/Third_Party/FreeRTOS/Source/stream_buffer.c **** 		{
 323:Middlewares/Third_Party/FreeRTOS/Source/stream_buffer.c **** 			/* Sanity check that the size of the structure used to declare a
 324:Middlewares/Third_Party/FreeRTOS/Source/stream_buffer.c **** 			variable of type StaticStreamBuffer_t equals the size of the real
 325:Middlewares/Third_Party/FreeRTOS/Source/stream_buffer.c **** 			message buffer structure. */
 326:Middlewares/Third_Party/FreeRTOS/Source/stream_buffer.c **** 			volatile size_t xSize = sizeof( StaticStreamBuffer_t );
 349              		.loc 1 326 20
 350 00aa 2423     		movs	r3, #36
 351 00ac 7B61     		str	r3, [r7, #20]
 327:Middlewares/Third_Party/FreeRTOS/Source/stream_buffer.c **** 			configASSERT( xSize == sizeof( StreamBuffer_t ) );
 352              		.loc 1 327 4
 353 00ae 7B69     		ldr	r3, [r7, #20]
 354 00b0 242B     		cmp	r3, #36
 355 00b2 0BD0     		beq	.L23
 356              	.LBB111:
 357              	.LBB112:
 195:Middlewares/Third_Party/FreeRTOS/Source/portable/GCC/ARM_CM4F/portmacro.h **** 	(
 358              		.loc 2 195 2
 359              		.syntax unified
 360              	@ 195 "Middlewares/Third_Party/FreeRTOS/Source/portable/GCC/ARM_CM4F/portmacro.h" 1
 361 00b4 4FF05003 			mov r3, #80												
 362 00b8 83F31188 		msr basepri, r3											
 363 00bc BFF36F8F 		isb														
 364 00c0 BFF34F8F 		dsb														
 365              	
 366              	@ 0 "" 2
 367              		.thumb
 368              		.syntax unified
 369 00c4 BB61     		str	r3, [r7, #24]
 370              		.loc 2 203 1
 371 00c6 00BF     		nop
 372              	.L24:
 373              	.LBE112:
 374              	.LBE111:
 375              		.loc 1 327 4 discriminator 5
 376 00c8 00BF     		nop
 377 00ca FDE7     		b	.L24
 378              	.L23:
ARM GAS  /tmp/ccfUPzTZ.s 			page 17


 379              	.LBE110:
 328:Middlewares/Third_Party/FreeRTOS/Source/stream_buffer.c **** 		} /*lint !e529 xSize is referenced is configASSERT() is defined. */
 329:Middlewares/Third_Party/FreeRTOS/Source/stream_buffer.c **** 		#endif /* configASSERT_DEFINED */
 330:Middlewares/Third_Party/FreeRTOS/Source/stream_buffer.c **** 
 331:Middlewares/Third_Party/FreeRTOS/Source/stream_buffer.c **** 		if( ( pucStreamBufferStorageArea != NULL ) && ( pxStaticStreamBuffer != NULL ) )
 380              		.loc 1 331 5
 381 00cc 3B68     		ldr	r3, [r7]
 382 00ce 002B     		cmp	r3, #0
 383 00d0 15D0     		beq	.L25
 384              		.loc 1 331 46 discriminator 1
 385 00d2 3B6C     		ldr	r3, [r7, #64]
 386 00d4 002B     		cmp	r3, #0
 387 00d6 12D0     		beq	.L25
 332:Middlewares/Third_Party/FreeRTOS/Source/stream_buffer.c **** 		{
 333:Middlewares/Third_Party/FreeRTOS/Source/stream_buffer.c **** 			prvInitialiseNewStreamBuffer( pxStreamBuffer,
 388              		.loc 1 333 4
 389 00d8 97F83330 		ldrb	r3, [r7, #51]	@ zero_extendqisi2
 390 00dc 0093     		str	r3, [sp]
 391 00de BB68     		ldr	r3, [r7, #8]
 392 00e0 FA68     		ldr	r2, [r7, #12]
 393 00e2 3968     		ldr	r1, [r7]
 394 00e4 F86A     		ldr	r0, [r7, #44]
 395 00e6 FFF7FEFF 		bl	prvInitialiseNewStreamBuffer
 334:Middlewares/Third_Party/FreeRTOS/Source/stream_buffer.c **** 										  pucStreamBufferStorageArea,
 335:Middlewares/Third_Party/FreeRTOS/Source/stream_buffer.c **** 										  xBufferSizeBytes,
 336:Middlewares/Third_Party/FreeRTOS/Source/stream_buffer.c **** 										  xTriggerLevelBytes,
 337:Middlewares/Third_Party/FreeRTOS/Source/stream_buffer.c **** 										  ucFlags );
 338:Middlewares/Third_Party/FreeRTOS/Source/stream_buffer.c **** 
 339:Middlewares/Third_Party/FreeRTOS/Source/stream_buffer.c **** 			/* Remember this was statically allocated in case it is ever deleted
 340:Middlewares/Third_Party/FreeRTOS/Source/stream_buffer.c **** 			again. */
 341:Middlewares/Third_Party/FreeRTOS/Source/stream_buffer.c **** 			pxStreamBuffer->ucFlags |= sbFLAGS_IS_STATICALLY_ALLOCATED;
 396              		.loc 1 341 18
 397 00ea FB6A     		ldr	r3, [r7, #44]
 398 00ec 1B7F     		ldrb	r3, [r3, #28]	@ zero_extendqisi2
 399              		.loc 1 341 28
 400 00ee 43F00203 		orr	r3, r3, #2
 401 00f2 DAB2     		uxtb	r2, r3
 402 00f4 FB6A     		ldr	r3, [r7, #44]
 403 00f6 1A77     		strb	r2, [r3, #28]
 342:Middlewares/Third_Party/FreeRTOS/Source/stream_buffer.c **** 
 343:Middlewares/Third_Party/FreeRTOS/Source/stream_buffer.c **** 			traceSTREAM_BUFFER_CREATE( pxStreamBuffer, xIsMessageBuffer );
 344:Middlewares/Third_Party/FreeRTOS/Source/stream_buffer.c **** 
 345:Middlewares/Third_Party/FreeRTOS/Source/stream_buffer.c **** 			xReturn = ( StreamBufferHandle_t ) pxStaticStreamBuffer; /*lint !e9087 Data hiding requires cast
 404              		.loc 1 345 12
 405 00f8 3B6C     		ldr	r3, [r7, #64]
 406 00fa 7B63     		str	r3, [r7, #52]
 407 00fc 01E0     		b	.L26
 408              	.L25:
 346:Middlewares/Third_Party/FreeRTOS/Source/stream_buffer.c **** 		}
 347:Middlewares/Third_Party/FreeRTOS/Source/stream_buffer.c **** 		else
 348:Middlewares/Third_Party/FreeRTOS/Source/stream_buffer.c **** 		{
 349:Middlewares/Third_Party/FreeRTOS/Source/stream_buffer.c **** 			xReturn = NULL;
 409              		.loc 1 349 12
 410 00fe 0023     		movs	r3, #0
 411 0100 7B63     		str	r3, [r7, #52]
 412              	.L26:
 350:Middlewares/Third_Party/FreeRTOS/Source/stream_buffer.c **** 			traceSTREAM_BUFFER_CREATE_STATIC_FAILED( xReturn, xIsMessageBuffer );
ARM GAS  /tmp/ccfUPzTZ.s 			page 18


 351:Middlewares/Third_Party/FreeRTOS/Source/stream_buffer.c **** 		}
 352:Middlewares/Third_Party/FreeRTOS/Source/stream_buffer.c **** 
 353:Middlewares/Third_Party/FreeRTOS/Source/stream_buffer.c **** 		return xReturn;
 413              		.loc 1 353 10
 414 0102 7B6B     		ldr	r3, [r7, #52]
 354:Middlewares/Third_Party/FreeRTOS/Source/stream_buffer.c **** 	}
 415              		.loc 1 354 2
 416 0104 1846     		mov	r0, r3
 417 0106 3837     		adds	r7, r7, #56
 418              	.LCFI8:
 419              		.cfi_def_cfa_offset 8
 420 0108 BD46     		mov	sp, r7
 421              	.LCFI9:
 422              		.cfi_def_cfa_register 13
 423              		@ sp needed
 424 010a 80BD     		pop	{r7, pc}
 425              		.cfi_endproc
 426              	.LFE5:
 428              		.section	.text.vStreamBufferDelete,"ax",%progbits
 429              		.align	1
 430              		.global	vStreamBufferDelete
 431              		.syntax unified
 432              		.thumb
 433              		.thumb_func
 435              	vStreamBufferDelete:
 436              	.LFB6:
 355:Middlewares/Third_Party/FreeRTOS/Source/stream_buffer.c **** 
 356:Middlewares/Third_Party/FreeRTOS/Source/stream_buffer.c **** #endif /* ( configSUPPORT_STATIC_ALLOCATION == 1 ) */
 357:Middlewares/Third_Party/FreeRTOS/Source/stream_buffer.c **** /*-----------------------------------------------------------*/
 358:Middlewares/Third_Party/FreeRTOS/Source/stream_buffer.c **** 
 359:Middlewares/Third_Party/FreeRTOS/Source/stream_buffer.c **** void vStreamBufferDelete( StreamBufferHandle_t xStreamBuffer )
 360:Middlewares/Third_Party/FreeRTOS/Source/stream_buffer.c **** {
 437              		.loc 1 360 1
 438              		.cfi_startproc
 439              		@ args = 0, pretend = 0, frame = 16
 440              		@ frame_needed = 1, uses_anonymous_args = 0
 441 0000 80B5     		push	{r7, lr}
 442              	.LCFI10:
 443              		.cfi_def_cfa_offset 8
 444              		.cfi_offset 7, -8
 445              		.cfi_offset 14, -4
 446 0002 84B0     		sub	sp, sp, #16
 447              	.LCFI11:
 448              		.cfi_def_cfa_offset 24
 449 0004 00AF     		add	r7, sp, #0
 450              	.LCFI12:
 451              		.cfi_def_cfa_register 7
 452 0006 7860     		str	r0, [r7, #4]
 361:Middlewares/Third_Party/FreeRTOS/Source/stream_buffer.c **** StreamBuffer_t * pxStreamBuffer = xStreamBuffer;
 453              		.loc 1 361 18
 454 0008 7B68     		ldr	r3, [r7, #4]
 455 000a FB60     		str	r3, [r7, #12]
 362:Middlewares/Third_Party/FreeRTOS/Source/stream_buffer.c **** 
 363:Middlewares/Third_Party/FreeRTOS/Source/stream_buffer.c **** 	configASSERT( pxStreamBuffer );
 456              		.loc 1 363 2
 457 000c FB68     		ldr	r3, [r7, #12]
 458 000e 002B     		cmp	r3, #0
ARM GAS  /tmp/ccfUPzTZ.s 			page 19


 459 0010 0BD1     		bne	.L29
 460              	.LBB113:
 461              	.LBB114:
 195:Middlewares/Third_Party/FreeRTOS/Source/portable/GCC/ARM_CM4F/portmacro.h **** 	(
 462              		.loc 2 195 2
 463              		.syntax unified
 464              	@ 195 "Middlewares/Third_Party/FreeRTOS/Source/portable/GCC/ARM_CM4F/portmacro.h" 1
 465 0012 4FF05003 			mov r3, #80												
 466 0016 83F31188 		msr basepri, r3											
 467 001a BFF36F8F 		isb														
 468 001e BFF34F8F 		dsb														
 469              	
 470              	@ 0 "" 2
 471              		.thumb
 472              		.syntax unified
 473 0022 BB60     		str	r3, [r7, #8]
 474              		.loc 2 203 1
 475 0024 00BF     		nop
 476              	.L30:
 477              	.LBE114:
 478              	.LBE113:
 479              		.loc 1 363 2 discriminator 1
 480 0026 00BF     		nop
 481 0028 FDE7     		b	.L30
 482              	.L29:
 364:Middlewares/Third_Party/FreeRTOS/Source/stream_buffer.c **** 
 365:Middlewares/Third_Party/FreeRTOS/Source/stream_buffer.c **** 	traceSTREAM_BUFFER_DELETE( xStreamBuffer );
 366:Middlewares/Third_Party/FreeRTOS/Source/stream_buffer.c **** 
 367:Middlewares/Third_Party/FreeRTOS/Source/stream_buffer.c **** 	if( ( pxStreamBuffer->ucFlags & sbFLAGS_IS_STATICALLY_ALLOCATED ) == ( uint8_t ) pdFALSE )
 483              		.loc 1 367 22
 484 002a FB68     		ldr	r3, [r7, #12]
 485 002c 1B7F     		ldrb	r3, [r3, #28]	@ zero_extendqisi2
 486              		.loc 1 367 32
 487 002e 03F00203 		and	r3, r3, #2
 488              		.loc 1 367 4
 489 0032 002B     		cmp	r3, #0
 490 0034 03D1     		bne	.L31
 368:Middlewares/Third_Party/FreeRTOS/Source/stream_buffer.c **** 	{
 369:Middlewares/Third_Party/FreeRTOS/Source/stream_buffer.c **** 		#if( configSUPPORT_DYNAMIC_ALLOCATION == 1 )
 370:Middlewares/Third_Party/FreeRTOS/Source/stream_buffer.c **** 		{
 371:Middlewares/Third_Party/FreeRTOS/Source/stream_buffer.c **** 			/* Both the structure and the buffer were allocated using a single call
 372:Middlewares/Third_Party/FreeRTOS/Source/stream_buffer.c **** 			to pvPortMalloc(), hence only one call to vPortFree() is required. */
 373:Middlewares/Third_Party/FreeRTOS/Source/stream_buffer.c **** 			vPortFree( ( void * ) pxStreamBuffer ); /*lint !e9087 Standard free() semantics require void *, 
 491              		.loc 1 373 4
 492 0036 F868     		ldr	r0, [r7, #12]
 493 0038 FFF7FEFF 		bl	vPortFree
 374:Middlewares/Third_Party/FreeRTOS/Source/stream_buffer.c **** 		}
 375:Middlewares/Third_Party/FreeRTOS/Source/stream_buffer.c **** 		#else
 376:Middlewares/Third_Party/FreeRTOS/Source/stream_buffer.c **** 		{
 377:Middlewares/Third_Party/FreeRTOS/Source/stream_buffer.c **** 			/* Should not be possible to get here, ucFlags must be corrupt.
 378:Middlewares/Third_Party/FreeRTOS/Source/stream_buffer.c **** 			Force an assert. */
 379:Middlewares/Third_Party/FreeRTOS/Source/stream_buffer.c **** 			configASSERT( xStreamBuffer == ( StreamBufferHandle_t ) ~0 );
 380:Middlewares/Third_Party/FreeRTOS/Source/stream_buffer.c **** 		}
 381:Middlewares/Third_Party/FreeRTOS/Source/stream_buffer.c **** 		#endif
 382:Middlewares/Third_Party/FreeRTOS/Source/stream_buffer.c **** 	}
 383:Middlewares/Third_Party/FreeRTOS/Source/stream_buffer.c **** 	else
 384:Middlewares/Third_Party/FreeRTOS/Source/stream_buffer.c **** 	{
ARM GAS  /tmp/ccfUPzTZ.s 			page 20


 385:Middlewares/Third_Party/FreeRTOS/Source/stream_buffer.c **** 		/* The structure and buffer were not allocated dynamically and cannot be
 386:Middlewares/Third_Party/FreeRTOS/Source/stream_buffer.c **** 		freed - just scrub the structure so future use will assert. */
 387:Middlewares/Third_Party/FreeRTOS/Source/stream_buffer.c **** 		( void ) memset( pxStreamBuffer, 0x00, sizeof( StreamBuffer_t ) );
 388:Middlewares/Third_Party/FreeRTOS/Source/stream_buffer.c **** 	}
 389:Middlewares/Third_Party/FreeRTOS/Source/stream_buffer.c **** }
 494              		.loc 1 389 1
 495 003c 04E0     		b	.L33
 496              	.L31:
 387:Middlewares/Third_Party/FreeRTOS/Source/stream_buffer.c **** 	}
 497              		.loc 1 387 12
 498 003e 2422     		movs	r2, #36
 499 0040 0021     		movs	r1, #0
 500 0042 F868     		ldr	r0, [r7, #12]
 501 0044 FFF7FEFF 		bl	memset
 502              	.L33:
 503              		.loc 1 389 1
 504 0048 00BF     		nop
 505 004a 1037     		adds	r7, r7, #16
 506              	.LCFI13:
 507              		.cfi_def_cfa_offset 8
 508 004c BD46     		mov	sp, r7
 509              	.LCFI14:
 510              		.cfi_def_cfa_register 13
 511              		@ sp needed
 512 004e 80BD     		pop	{r7, pc}
 513              		.cfi_endproc
 514              	.LFE6:
 516              		.section	.text.xStreamBufferReset,"ax",%progbits
 517              		.align	1
 518              		.global	xStreamBufferReset
 519              		.syntax unified
 520              		.thumb
 521              		.thumb_func
 523              	xStreamBufferReset:
 524              	.LFB7:
 390:Middlewares/Third_Party/FreeRTOS/Source/stream_buffer.c **** /*-----------------------------------------------------------*/
 391:Middlewares/Third_Party/FreeRTOS/Source/stream_buffer.c **** 
 392:Middlewares/Third_Party/FreeRTOS/Source/stream_buffer.c **** BaseType_t xStreamBufferReset( StreamBufferHandle_t xStreamBuffer )
 393:Middlewares/Third_Party/FreeRTOS/Source/stream_buffer.c **** {
 525              		.loc 1 393 1
 526              		.cfi_startproc
 527              		@ args = 0, pretend = 0, frame = 24
 528              		@ frame_needed = 1, uses_anonymous_args = 0
 529 0000 80B5     		push	{r7, lr}
 530              	.LCFI15:
 531              		.cfi_def_cfa_offset 8
 532              		.cfi_offset 7, -8
 533              		.cfi_offset 14, -4
 534 0002 88B0     		sub	sp, sp, #32
 535              	.LCFI16:
 536              		.cfi_def_cfa_offset 40
 537 0004 02AF     		add	r7, sp, #8
 538              	.LCFI17:
 539              		.cfi_def_cfa 7, 32
 540 0006 7860     		str	r0, [r7, #4]
 394:Middlewares/Third_Party/FreeRTOS/Source/stream_buffer.c **** StreamBuffer_t * const pxStreamBuffer = xStreamBuffer;
 541              		.loc 1 394 24
ARM GAS  /tmp/ccfUPzTZ.s 			page 21


 542 0008 7B68     		ldr	r3, [r7, #4]
 543 000a 3B61     		str	r3, [r7, #16]
 395:Middlewares/Third_Party/FreeRTOS/Source/stream_buffer.c **** BaseType_t xReturn = pdFAIL;
 544              		.loc 1 395 12
 545 000c 0023     		movs	r3, #0
 546 000e 7B61     		str	r3, [r7, #20]
 396:Middlewares/Third_Party/FreeRTOS/Source/stream_buffer.c **** 
 397:Middlewares/Third_Party/FreeRTOS/Source/stream_buffer.c **** #if( configUSE_TRACE_FACILITY == 1 )
 398:Middlewares/Third_Party/FreeRTOS/Source/stream_buffer.c **** 	UBaseType_t uxStreamBufferNumber;
 399:Middlewares/Third_Party/FreeRTOS/Source/stream_buffer.c **** #endif
 400:Middlewares/Third_Party/FreeRTOS/Source/stream_buffer.c **** 
 401:Middlewares/Third_Party/FreeRTOS/Source/stream_buffer.c **** 	configASSERT( pxStreamBuffer );
 547              		.loc 1 401 2
 548 0010 3B69     		ldr	r3, [r7, #16]
 549 0012 002B     		cmp	r3, #0
 550 0014 0BD1     		bne	.L35
 551              	.LBB115:
 552              	.LBB116:
 195:Middlewares/Third_Party/FreeRTOS/Source/portable/GCC/ARM_CM4F/portmacro.h **** 	(
 553              		.loc 2 195 2
 554              		.syntax unified
 555              	@ 195 "Middlewares/Third_Party/FreeRTOS/Source/portable/GCC/ARM_CM4F/portmacro.h" 1
 556 0016 4FF05003 			mov r3, #80												
 557 001a 83F31188 		msr basepri, r3											
 558 001e BFF36F8F 		isb														
 559 0022 BFF34F8F 		dsb														
 560              	
 561              	@ 0 "" 2
 562              		.thumb
 563              		.syntax unified
 564 0026 BB60     		str	r3, [r7, #8]
 565              		.loc 2 203 1
 566 0028 00BF     		nop
 567              	.L36:
 568              	.LBE116:
 569              	.LBE115:
 570              		.loc 1 401 2 discriminator 1
 571 002a 00BF     		nop
 572 002c FDE7     		b	.L36
 573              	.L35:
 402:Middlewares/Third_Party/FreeRTOS/Source/stream_buffer.c **** 
 403:Middlewares/Third_Party/FreeRTOS/Source/stream_buffer.c **** 	#if( configUSE_TRACE_FACILITY == 1 )
 404:Middlewares/Third_Party/FreeRTOS/Source/stream_buffer.c **** 	{
 405:Middlewares/Third_Party/FreeRTOS/Source/stream_buffer.c **** 		/* Store the stream buffer number so it can be restored after the
 406:Middlewares/Third_Party/FreeRTOS/Source/stream_buffer.c **** 		reset. */
 407:Middlewares/Third_Party/FreeRTOS/Source/stream_buffer.c **** 		uxStreamBufferNumber = pxStreamBuffer->uxStreamBufferNumber;
 574              		.loc 1 407 24
 575 002e 3B69     		ldr	r3, [r7, #16]
 576 0030 1B6A     		ldr	r3, [r3, #32]
 577 0032 FB60     		str	r3, [r7, #12]
 408:Middlewares/Third_Party/FreeRTOS/Source/stream_buffer.c **** 	}
 409:Middlewares/Third_Party/FreeRTOS/Source/stream_buffer.c **** 	#endif
 410:Middlewares/Third_Party/FreeRTOS/Source/stream_buffer.c **** 
 411:Middlewares/Third_Party/FreeRTOS/Source/stream_buffer.c **** 	/* Can only reset a message buffer if there are no tasks blocked on it. */
 412:Middlewares/Third_Party/FreeRTOS/Source/stream_buffer.c **** 	taskENTER_CRITICAL();
 578              		.loc 1 412 2
 579 0034 FFF7FEFF 		bl	vPortEnterCritical
ARM GAS  /tmp/ccfUPzTZ.s 			page 22


 413:Middlewares/Third_Party/FreeRTOS/Source/stream_buffer.c **** 	{
 414:Middlewares/Third_Party/FreeRTOS/Source/stream_buffer.c **** 		if( pxStreamBuffer->xTaskWaitingToReceive == NULL )
 580              		.loc 1 414 21
 581 0038 3B69     		ldr	r3, [r7, #16]
 582 003a 1B69     		ldr	r3, [r3, #16]
 583              		.loc 1 414 5
 584 003c 002B     		cmp	r3, #0
 585 003e 15D1     		bne	.L37
 415:Middlewares/Third_Party/FreeRTOS/Source/stream_buffer.c **** 		{
 416:Middlewares/Third_Party/FreeRTOS/Source/stream_buffer.c **** 			if( pxStreamBuffer->xTaskWaitingToSend == NULL )
 586              		.loc 1 416 22
 587 0040 3B69     		ldr	r3, [r7, #16]
 588 0042 5B69     		ldr	r3, [r3, #20]
 589              		.loc 1 416 6
 590 0044 002B     		cmp	r3, #0
 591 0046 11D1     		bne	.L37
 417:Middlewares/Third_Party/FreeRTOS/Source/stream_buffer.c **** 			{
 418:Middlewares/Third_Party/FreeRTOS/Source/stream_buffer.c **** 				prvInitialiseNewStreamBuffer( pxStreamBuffer,
 592              		.loc 1 418 5
 593 0048 3B69     		ldr	r3, [r7, #16]
 594 004a 9969     		ldr	r1, [r3, #24]
 595 004c 3B69     		ldr	r3, [r7, #16]
 596 004e 9A68     		ldr	r2, [r3, #8]
 597 0050 3B69     		ldr	r3, [r7, #16]
 598 0052 D868     		ldr	r0, [r3, #12]
 599 0054 3B69     		ldr	r3, [r7, #16]
 600 0056 1B7F     		ldrb	r3, [r3, #28]	@ zero_extendqisi2
 601 0058 0093     		str	r3, [sp]
 602 005a 0346     		mov	r3, r0
 603 005c 3869     		ldr	r0, [r7, #16]
 604 005e FFF7FEFF 		bl	prvInitialiseNewStreamBuffer
 419:Middlewares/Third_Party/FreeRTOS/Source/stream_buffer.c **** 											  pxStreamBuffer->pucBuffer,
 420:Middlewares/Third_Party/FreeRTOS/Source/stream_buffer.c **** 											  pxStreamBuffer->xLength,
 421:Middlewares/Third_Party/FreeRTOS/Source/stream_buffer.c **** 											  pxStreamBuffer->xTriggerLevelBytes,
 422:Middlewares/Third_Party/FreeRTOS/Source/stream_buffer.c **** 											  pxStreamBuffer->ucFlags );
 423:Middlewares/Third_Party/FreeRTOS/Source/stream_buffer.c **** 				xReturn = pdPASS;
 605              		.loc 1 423 13
 606 0062 0123     		movs	r3, #1
 607 0064 7B61     		str	r3, [r7, #20]
 424:Middlewares/Third_Party/FreeRTOS/Source/stream_buffer.c **** 
 425:Middlewares/Third_Party/FreeRTOS/Source/stream_buffer.c **** 				#if( configUSE_TRACE_FACILITY == 1 )
 426:Middlewares/Third_Party/FreeRTOS/Source/stream_buffer.c **** 				{
 427:Middlewares/Third_Party/FreeRTOS/Source/stream_buffer.c **** 					pxStreamBuffer->uxStreamBufferNumber = uxStreamBufferNumber;
 608              		.loc 1 427 43
 609 0066 3B69     		ldr	r3, [r7, #16]
 610 0068 FA68     		ldr	r2, [r7, #12]
 611 006a 1A62     		str	r2, [r3, #32]
 612              	.L37:
 428:Middlewares/Third_Party/FreeRTOS/Source/stream_buffer.c **** 				}
 429:Middlewares/Third_Party/FreeRTOS/Source/stream_buffer.c **** 				#endif
 430:Middlewares/Third_Party/FreeRTOS/Source/stream_buffer.c **** 
 431:Middlewares/Third_Party/FreeRTOS/Source/stream_buffer.c **** 				traceSTREAM_BUFFER_RESET( xStreamBuffer );
 432:Middlewares/Third_Party/FreeRTOS/Source/stream_buffer.c **** 			}
 433:Middlewares/Third_Party/FreeRTOS/Source/stream_buffer.c **** 		}
 434:Middlewares/Third_Party/FreeRTOS/Source/stream_buffer.c **** 	}
 435:Middlewares/Third_Party/FreeRTOS/Source/stream_buffer.c **** 	taskEXIT_CRITICAL();
 613              		.loc 1 435 2
ARM GAS  /tmp/ccfUPzTZ.s 			page 23


 614 006c FFF7FEFF 		bl	vPortExitCritical
 436:Middlewares/Third_Party/FreeRTOS/Source/stream_buffer.c **** 
 437:Middlewares/Third_Party/FreeRTOS/Source/stream_buffer.c **** 	return xReturn;
 615              		.loc 1 437 9
 616 0070 7B69     		ldr	r3, [r7, #20]
 438:Middlewares/Third_Party/FreeRTOS/Source/stream_buffer.c **** }
 617              		.loc 1 438 1
 618 0072 1846     		mov	r0, r3
 619 0074 1837     		adds	r7, r7, #24
 620              	.LCFI18:
 621              		.cfi_def_cfa_offset 8
 622 0076 BD46     		mov	sp, r7
 623              	.LCFI19:
 624              		.cfi_def_cfa_register 13
 625              		@ sp needed
 626 0078 80BD     		pop	{r7, pc}
 627              		.cfi_endproc
 628              	.LFE7:
 630              		.section	.text.xStreamBufferSetTriggerLevel,"ax",%progbits
 631              		.align	1
 632              		.global	xStreamBufferSetTriggerLevel
 633              		.syntax unified
 634              		.thumb
 635              		.thumb_func
 637              	xStreamBufferSetTriggerLevel:
 638              	.LFB8:
 439:Middlewares/Third_Party/FreeRTOS/Source/stream_buffer.c **** /*-----------------------------------------------------------*/
 440:Middlewares/Third_Party/FreeRTOS/Source/stream_buffer.c **** 
 441:Middlewares/Third_Party/FreeRTOS/Source/stream_buffer.c **** BaseType_t xStreamBufferSetTriggerLevel( StreamBufferHandle_t xStreamBuffer, size_t xTriggerLevel )
 442:Middlewares/Third_Party/FreeRTOS/Source/stream_buffer.c **** {
 639              		.loc 1 442 1
 640              		.cfi_startproc
 641              		@ args = 0, pretend = 0, frame = 24
 642              		@ frame_needed = 1, uses_anonymous_args = 0
 643              		@ link register save eliminated.
 644 0000 80B4     		push	{r7}
 645              	.LCFI20:
 646              		.cfi_def_cfa_offset 4
 647              		.cfi_offset 7, -4
 648 0002 87B0     		sub	sp, sp, #28
 649              	.LCFI21:
 650              		.cfi_def_cfa_offset 32
 651 0004 00AF     		add	r7, sp, #0
 652              	.LCFI22:
 653              		.cfi_def_cfa_register 7
 654 0006 7860     		str	r0, [r7, #4]
 655 0008 3960     		str	r1, [r7]
 443:Middlewares/Third_Party/FreeRTOS/Source/stream_buffer.c **** StreamBuffer_t * const pxStreamBuffer = xStreamBuffer;
 656              		.loc 1 443 24
 657 000a 7B68     		ldr	r3, [r7, #4]
 658 000c 3B61     		str	r3, [r7, #16]
 444:Middlewares/Third_Party/FreeRTOS/Source/stream_buffer.c **** BaseType_t xReturn;
 445:Middlewares/Third_Party/FreeRTOS/Source/stream_buffer.c **** 
 446:Middlewares/Third_Party/FreeRTOS/Source/stream_buffer.c **** 	configASSERT( pxStreamBuffer );
 659              		.loc 1 446 2
 660 000e 3B69     		ldr	r3, [r7, #16]
 661 0010 002B     		cmp	r3, #0
ARM GAS  /tmp/ccfUPzTZ.s 			page 24


 662 0012 0BD1     		bne	.L40
 663              	.LBB117:
 664              	.LBB118:
 195:Middlewares/Third_Party/FreeRTOS/Source/portable/GCC/ARM_CM4F/portmacro.h **** 	(
 665              		.loc 2 195 2
 666              		.syntax unified
 667              	@ 195 "Middlewares/Third_Party/FreeRTOS/Source/portable/GCC/ARM_CM4F/portmacro.h" 1
 668 0014 4FF05003 			mov r3, #80												
 669 0018 83F31188 		msr basepri, r3											
 670 001c BFF36F8F 		isb														
 671 0020 BFF34F8F 		dsb														
 672              	
 673              	@ 0 "" 2
 674              		.thumb
 675              		.syntax unified
 676 0024 FB60     		str	r3, [r7, #12]
 677              		.loc 2 203 1
 678 0026 00BF     		nop
 679              	.L41:
 680              	.LBE118:
 681              	.LBE117:
 682              		.loc 1 446 2 discriminator 1
 683 0028 00BF     		nop
 684 002a FDE7     		b	.L41
 685              	.L40:
 447:Middlewares/Third_Party/FreeRTOS/Source/stream_buffer.c **** 
 448:Middlewares/Third_Party/FreeRTOS/Source/stream_buffer.c **** 	/* It is not valid for the trigger level to be 0. */
 449:Middlewares/Third_Party/FreeRTOS/Source/stream_buffer.c **** 	if( xTriggerLevel == ( size_t ) 0 )
 686              		.loc 1 449 4
 687 002c 3B68     		ldr	r3, [r7]
 688 002e 002B     		cmp	r3, #0
 689 0030 01D1     		bne	.L42
 450:Middlewares/Third_Party/FreeRTOS/Source/stream_buffer.c **** 	{
 451:Middlewares/Third_Party/FreeRTOS/Source/stream_buffer.c **** 		xTriggerLevel = ( size_t ) 1;
 690              		.loc 1 451 17
 691 0032 0123     		movs	r3, #1
 692 0034 3B60     		str	r3, [r7]
 693              	.L42:
 452:Middlewares/Third_Party/FreeRTOS/Source/stream_buffer.c **** 	}
 453:Middlewares/Third_Party/FreeRTOS/Source/stream_buffer.c **** 
 454:Middlewares/Third_Party/FreeRTOS/Source/stream_buffer.c **** 	/* The trigger level is the number of bytes that must be in the stream
 455:Middlewares/Third_Party/FreeRTOS/Source/stream_buffer.c **** 	buffer before a task that is waiting for data is unblocked. */
 456:Middlewares/Third_Party/FreeRTOS/Source/stream_buffer.c **** 	if( xTriggerLevel <= pxStreamBuffer->xLength )
 694              		.loc 1 456 37
 695 0036 3B69     		ldr	r3, [r7, #16]
 696 0038 9B68     		ldr	r3, [r3, #8]
 697              		.loc 1 456 4
 698 003a 3A68     		ldr	r2, [r7]
 699 003c 9A42     		cmp	r2, r3
 700 003e 05D8     		bhi	.L43
 457:Middlewares/Third_Party/FreeRTOS/Source/stream_buffer.c **** 	{
 458:Middlewares/Third_Party/FreeRTOS/Source/stream_buffer.c **** 		pxStreamBuffer->xTriggerLevelBytes = xTriggerLevel;
 701              		.loc 1 458 38
 702 0040 3B69     		ldr	r3, [r7, #16]
 703 0042 3A68     		ldr	r2, [r7]
 704 0044 DA60     		str	r2, [r3, #12]
 459:Middlewares/Third_Party/FreeRTOS/Source/stream_buffer.c **** 		xReturn = pdPASS;
ARM GAS  /tmp/ccfUPzTZ.s 			page 25


 705              		.loc 1 459 11
 706 0046 0123     		movs	r3, #1
 707 0048 7B61     		str	r3, [r7, #20]
 708 004a 01E0     		b	.L44
 709              	.L43:
 460:Middlewares/Third_Party/FreeRTOS/Source/stream_buffer.c **** 	}
 461:Middlewares/Third_Party/FreeRTOS/Source/stream_buffer.c **** 	else
 462:Middlewares/Third_Party/FreeRTOS/Source/stream_buffer.c **** 	{
 463:Middlewares/Third_Party/FreeRTOS/Source/stream_buffer.c **** 		xReturn = pdFALSE;
 710              		.loc 1 463 11
 711 004c 0023     		movs	r3, #0
 712 004e 7B61     		str	r3, [r7, #20]
 713              	.L44:
 464:Middlewares/Third_Party/FreeRTOS/Source/stream_buffer.c **** 	}
 465:Middlewares/Third_Party/FreeRTOS/Source/stream_buffer.c **** 
 466:Middlewares/Third_Party/FreeRTOS/Source/stream_buffer.c **** 	return xReturn;
 714              		.loc 1 466 9
 715 0050 7B69     		ldr	r3, [r7, #20]
 467:Middlewares/Third_Party/FreeRTOS/Source/stream_buffer.c **** }
 716              		.loc 1 467 1
 717 0052 1846     		mov	r0, r3
 718 0054 1C37     		adds	r7, r7, #28
 719              	.LCFI23:
 720              		.cfi_def_cfa_offset 4
 721 0056 BD46     		mov	sp, r7
 722              	.LCFI24:
 723              		.cfi_def_cfa_register 13
 724              		@ sp needed
 725 0058 5DF8047B 		ldr	r7, [sp], #4
 726              	.LCFI25:
 727              		.cfi_restore 7
 728              		.cfi_def_cfa_offset 0
 729 005c 7047     		bx	lr
 730              		.cfi_endproc
 731              	.LFE8:
 733              		.section	.text.xStreamBufferSpacesAvailable,"ax",%progbits
 734              		.align	1
 735              		.global	xStreamBufferSpacesAvailable
 736              		.syntax unified
 737              		.thumb
 738              		.thumb_func
 740              	xStreamBufferSpacesAvailable:
 741              	.LFB9:
 468:Middlewares/Third_Party/FreeRTOS/Source/stream_buffer.c **** /*-----------------------------------------------------------*/
 469:Middlewares/Third_Party/FreeRTOS/Source/stream_buffer.c **** 
 470:Middlewares/Third_Party/FreeRTOS/Source/stream_buffer.c **** size_t xStreamBufferSpacesAvailable( StreamBufferHandle_t xStreamBuffer )
 471:Middlewares/Third_Party/FreeRTOS/Source/stream_buffer.c **** {
 742              		.loc 1 471 1
 743              		.cfi_startproc
 744              		@ args = 0, pretend = 0, frame = 24
 745              		@ frame_needed = 1, uses_anonymous_args = 0
 746              		@ link register save eliminated.
 747 0000 80B4     		push	{r7}
 748              	.LCFI26:
 749              		.cfi_def_cfa_offset 4
 750              		.cfi_offset 7, -4
 751 0002 87B0     		sub	sp, sp, #28
ARM GAS  /tmp/ccfUPzTZ.s 			page 26


 752              	.LCFI27:
 753              		.cfi_def_cfa_offset 32
 754 0004 00AF     		add	r7, sp, #0
 755              	.LCFI28:
 756              		.cfi_def_cfa_register 7
 757 0006 7860     		str	r0, [r7, #4]
 472:Middlewares/Third_Party/FreeRTOS/Source/stream_buffer.c **** const StreamBuffer_t * const pxStreamBuffer = xStreamBuffer;
 758              		.loc 1 472 30
 759 0008 7B68     		ldr	r3, [r7, #4]
 760 000a 3B61     		str	r3, [r7, #16]
 473:Middlewares/Third_Party/FreeRTOS/Source/stream_buffer.c **** size_t xSpace;
 474:Middlewares/Third_Party/FreeRTOS/Source/stream_buffer.c **** 
 475:Middlewares/Third_Party/FreeRTOS/Source/stream_buffer.c **** 	configASSERT( pxStreamBuffer );
 761              		.loc 1 475 2
 762 000c 3B69     		ldr	r3, [r7, #16]
 763 000e 002B     		cmp	r3, #0
 764 0010 0BD1     		bne	.L47
 765              	.LBB119:
 766              	.LBB120:
 195:Middlewares/Third_Party/FreeRTOS/Source/portable/GCC/ARM_CM4F/portmacro.h **** 	(
 767              		.loc 2 195 2
 768              		.syntax unified
 769              	@ 195 "Middlewares/Third_Party/FreeRTOS/Source/portable/GCC/ARM_CM4F/portmacro.h" 1
 770 0012 4FF05003 			mov r3, #80												
 771 0016 83F31188 		msr basepri, r3											
 772 001a BFF36F8F 		isb														
 773 001e BFF34F8F 		dsb														
 774              	
 775              	@ 0 "" 2
 776              		.thumb
 777              		.syntax unified
 778 0022 FB60     		str	r3, [r7, #12]
 779              		.loc 2 203 1
 780 0024 00BF     		nop
 781              	.L48:
 782              	.LBE120:
 783              	.LBE119:
 784              		.loc 1 475 2 discriminator 1
 785 0026 00BF     		nop
 786 0028 FDE7     		b	.L48
 787              	.L47:
 476:Middlewares/Third_Party/FreeRTOS/Source/stream_buffer.c **** 
 477:Middlewares/Third_Party/FreeRTOS/Source/stream_buffer.c **** 	xSpace = pxStreamBuffer->xLength + pxStreamBuffer->xTail;
 788              		.loc 1 477 25
 789 002a 3B69     		ldr	r3, [r7, #16]
 790 002c 9A68     		ldr	r2, [r3, #8]
 791              		.loc 1 477 51
 792 002e 3B69     		ldr	r3, [r7, #16]
 793 0030 1B68     		ldr	r3, [r3]
 794              		.loc 1 477 9
 795 0032 1344     		add	r3, r3, r2
 796 0034 7B61     		str	r3, [r7, #20]
 478:Middlewares/Third_Party/FreeRTOS/Source/stream_buffer.c **** 	xSpace -= pxStreamBuffer->xHead;
 797              		.loc 1 478 26
 798 0036 3B69     		ldr	r3, [r7, #16]
 799 0038 5B68     		ldr	r3, [r3, #4]
 800              		.loc 1 478 9
ARM GAS  /tmp/ccfUPzTZ.s 			page 27


 801 003a 7A69     		ldr	r2, [r7, #20]
 802 003c D31A     		subs	r3, r2, r3
 803 003e 7B61     		str	r3, [r7, #20]
 479:Middlewares/Third_Party/FreeRTOS/Source/stream_buffer.c **** 	xSpace -= ( size_t ) 1;
 804              		.loc 1 479 9
 805 0040 7B69     		ldr	r3, [r7, #20]
 806 0042 013B     		subs	r3, r3, #1
 807 0044 7B61     		str	r3, [r7, #20]
 480:Middlewares/Third_Party/FreeRTOS/Source/stream_buffer.c **** 
 481:Middlewares/Third_Party/FreeRTOS/Source/stream_buffer.c **** 	if( xSpace >= pxStreamBuffer->xLength )
 808              		.loc 1 481 30
 809 0046 3B69     		ldr	r3, [r7, #16]
 810 0048 9B68     		ldr	r3, [r3, #8]
 811              		.loc 1 481 4
 812 004a 7A69     		ldr	r2, [r7, #20]
 813 004c 9A42     		cmp	r2, r3
 814 004e 04D3     		bcc	.L49
 482:Middlewares/Third_Party/FreeRTOS/Source/stream_buffer.c **** 	{
 483:Middlewares/Third_Party/FreeRTOS/Source/stream_buffer.c **** 		xSpace -= pxStreamBuffer->xLength;
 815              		.loc 1 483 27
 816 0050 3B69     		ldr	r3, [r7, #16]
 817 0052 9B68     		ldr	r3, [r3, #8]
 818              		.loc 1 483 10
 819 0054 7A69     		ldr	r2, [r7, #20]
 820 0056 D31A     		subs	r3, r2, r3
 821 0058 7B61     		str	r3, [r7, #20]
 822              	.L49:
 484:Middlewares/Third_Party/FreeRTOS/Source/stream_buffer.c **** 	}
 485:Middlewares/Third_Party/FreeRTOS/Source/stream_buffer.c **** 	else
 486:Middlewares/Third_Party/FreeRTOS/Source/stream_buffer.c **** 	{
 487:Middlewares/Third_Party/FreeRTOS/Source/stream_buffer.c **** 		mtCOVERAGE_TEST_MARKER();
 488:Middlewares/Third_Party/FreeRTOS/Source/stream_buffer.c **** 	}
 489:Middlewares/Third_Party/FreeRTOS/Source/stream_buffer.c **** 
 490:Middlewares/Third_Party/FreeRTOS/Source/stream_buffer.c **** 	return xSpace;
 823              		.loc 1 490 9
 824 005a 7B69     		ldr	r3, [r7, #20]
 491:Middlewares/Third_Party/FreeRTOS/Source/stream_buffer.c **** }
 825              		.loc 1 491 1
 826 005c 1846     		mov	r0, r3
 827 005e 1C37     		adds	r7, r7, #28
 828              	.LCFI29:
 829              		.cfi_def_cfa_offset 4
 830 0060 BD46     		mov	sp, r7
 831              	.LCFI30:
 832              		.cfi_def_cfa_register 13
 833              		@ sp needed
 834 0062 5DF8047B 		ldr	r7, [sp], #4
 835              	.LCFI31:
 836              		.cfi_restore 7
 837              		.cfi_def_cfa_offset 0
 838 0066 7047     		bx	lr
 839              		.cfi_endproc
 840              	.LFE9:
 842              		.section	.text.xStreamBufferBytesAvailable,"ax",%progbits
 843              		.align	1
 844              		.global	xStreamBufferBytesAvailable
 845              		.syntax unified
ARM GAS  /tmp/ccfUPzTZ.s 			page 28


 846              		.thumb
 847              		.thumb_func
 849              	xStreamBufferBytesAvailable:
 850              	.LFB10:
 492:Middlewares/Third_Party/FreeRTOS/Source/stream_buffer.c **** /*-----------------------------------------------------------*/
 493:Middlewares/Third_Party/FreeRTOS/Source/stream_buffer.c **** 
 494:Middlewares/Third_Party/FreeRTOS/Source/stream_buffer.c **** size_t xStreamBufferBytesAvailable( StreamBufferHandle_t xStreamBuffer )
 495:Middlewares/Third_Party/FreeRTOS/Source/stream_buffer.c **** {
 851              		.loc 1 495 1
 852              		.cfi_startproc
 853              		@ args = 0, pretend = 0, frame = 24
 854              		@ frame_needed = 1, uses_anonymous_args = 0
 855 0000 80B5     		push	{r7, lr}
 856              	.LCFI32:
 857              		.cfi_def_cfa_offset 8
 858              		.cfi_offset 7, -8
 859              		.cfi_offset 14, -4
 860 0002 86B0     		sub	sp, sp, #24
 861              	.LCFI33:
 862              		.cfi_def_cfa_offset 32
 863 0004 00AF     		add	r7, sp, #0
 864              	.LCFI34:
 865              		.cfi_def_cfa_register 7
 866 0006 7860     		str	r0, [r7, #4]
 496:Middlewares/Third_Party/FreeRTOS/Source/stream_buffer.c **** const StreamBuffer_t * const pxStreamBuffer = xStreamBuffer;
 867              		.loc 1 496 30
 868 0008 7B68     		ldr	r3, [r7, #4]
 869 000a 7B61     		str	r3, [r7, #20]
 497:Middlewares/Third_Party/FreeRTOS/Source/stream_buffer.c **** size_t xReturn;
 498:Middlewares/Third_Party/FreeRTOS/Source/stream_buffer.c **** 
 499:Middlewares/Third_Party/FreeRTOS/Source/stream_buffer.c **** 	configASSERT( pxStreamBuffer );
 870              		.loc 1 499 2
 871 000c 7B69     		ldr	r3, [r7, #20]
 872 000e 002B     		cmp	r3, #0
 873 0010 0BD1     		bne	.L52
 874              	.LBB121:
 875              	.LBB122:
 195:Middlewares/Third_Party/FreeRTOS/Source/portable/GCC/ARM_CM4F/portmacro.h **** 	(
 876              		.loc 2 195 2
 877              		.syntax unified
 878              	@ 195 "Middlewares/Third_Party/FreeRTOS/Source/portable/GCC/ARM_CM4F/portmacro.h" 1
 879 0012 4FF05003 			mov r3, #80												
 880 0016 83F31188 		msr basepri, r3											
 881 001a BFF36F8F 		isb														
 882 001e BFF34F8F 		dsb														
 883              	
 884              	@ 0 "" 2
 885              		.thumb
 886              		.syntax unified
 887 0022 FB60     		str	r3, [r7, #12]
 888              		.loc 2 203 1
 889 0024 00BF     		nop
 890              	.L53:
 891              	.LBE122:
 892              	.LBE121:
 893              		.loc 1 499 2 discriminator 1
 894 0026 00BF     		nop
ARM GAS  /tmp/ccfUPzTZ.s 			page 29


 895 0028 FDE7     		b	.L53
 896              	.L52:
 500:Middlewares/Third_Party/FreeRTOS/Source/stream_buffer.c **** 
 501:Middlewares/Third_Party/FreeRTOS/Source/stream_buffer.c **** 	xReturn = prvBytesInBuffer( pxStreamBuffer );
 897              		.loc 1 501 12
 898 002a 7869     		ldr	r0, [r7, #20]
 899 002c FFF7FEFF 		bl	prvBytesInBuffer
 900 0030 3861     		str	r0, [r7, #16]
 502:Middlewares/Third_Party/FreeRTOS/Source/stream_buffer.c **** 	return xReturn;
 901              		.loc 1 502 9
 902 0032 3B69     		ldr	r3, [r7, #16]
 503:Middlewares/Third_Party/FreeRTOS/Source/stream_buffer.c **** }
 903              		.loc 1 503 1
 904 0034 1846     		mov	r0, r3
 905 0036 1837     		adds	r7, r7, #24
 906              	.LCFI35:
 907              		.cfi_def_cfa_offset 8
 908 0038 BD46     		mov	sp, r7
 909              	.LCFI36:
 910              		.cfi_def_cfa_register 13
 911              		@ sp needed
 912 003a 80BD     		pop	{r7, pc}
 913              		.cfi_endproc
 914              	.LFE10:
 916              		.section	.text.xStreamBufferSend,"ax",%progbits
 917              		.align	1
 918              		.global	xStreamBufferSend
 919              		.syntax unified
 920              		.thumb
 921              		.thumb_func
 923              	xStreamBufferSend:
 924              	.LFB11:
 504:Middlewares/Third_Party/FreeRTOS/Source/stream_buffer.c **** /*-----------------------------------------------------------*/
 505:Middlewares/Third_Party/FreeRTOS/Source/stream_buffer.c **** 
 506:Middlewares/Third_Party/FreeRTOS/Source/stream_buffer.c **** size_t xStreamBufferSend( StreamBufferHandle_t xStreamBuffer,
 507:Middlewares/Third_Party/FreeRTOS/Source/stream_buffer.c **** 						  const void *pvTxData,
 508:Middlewares/Third_Party/FreeRTOS/Source/stream_buffer.c **** 						  size_t xDataLengthBytes,
 509:Middlewares/Third_Party/FreeRTOS/Source/stream_buffer.c **** 						  TickType_t xTicksToWait )
 510:Middlewares/Third_Party/FreeRTOS/Source/stream_buffer.c **** {
 925              		.loc 1 510 1
 926              		.cfi_startproc
 927              		@ args = 0, pretend = 0, frame = 56
 928              		@ frame_needed = 1, uses_anonymous_args = 0
 929 0000 80B5     		push	{r7, lr}
 930              	.LCFI37:
 931              		.cfi_def_cfa_offset 8
 932              		.cfi_offset 7, -8
 933              		.cfi_offset 14, -4
 934 0002 90B0     		sub	sp, sp, #64
 935              	.LCFI38:
 936              		.cfi_def_cfa_offset 72
 937 0004 02AF     		add	r7, sp, #8
 938              	.LCFI39:
 939              		.cfi_def_cfa 7, 64
 940 0006 F860     		str	r0, [r7, #12]
 941 0008 B960     		str	r1, [r7, #8]
 942 000a 7A60     		str	r2, [r7, #4]
ARM GAS  /tmp/ccfUPzTZ.s 			page 30


 943 000c 3B60     		str	r3, [r7]
 511:Middlewares/Third_Party/FreeRTOS/Source/stream_buffer.c **** StreamBuffer_t * const pxStreamBuffer = xStreamBuffer;
 944              		.loc 1 511 24
 945 000e FB68     		ldr	r3, [r7, #12]
 946 0010 FB62     		str	r3, [r7, #44]
 512:Middlewares/Third_Party/FreeRTOS/Source/stream_buffer.c **** size_t xReturn, xSpace = 0;
 947              		.loc 1 512 17
 948 0012 0023     		movs	r3, #0
 949 0014 7B63     		str	r3, [r7, #52]
 513:Middlewares/Third_Party/FreeRTOS/Source/stream_buffer.c **** size_t xRequiredSpace = xDataLengthBytes;
 950              		.loc 1 513 8
 951 0016 7B68     		ldr	r3, [r7, #4]
 952 0018 3B63     		str	r3, [r7, #48]
 514:Middlewares/Third_Party/FreeRTOS/Source/stream_buffer.c **** TimeOut_t xTimeOut;
 515:Middlewares/Third_Party/FreeRTOS/Source/stream_buffer.c **** 
 516:Middlewares/Third_Party/FreeRTOS/Source/stream_buffer.c **** 	configASSERT( pvTxData );
 953              		.loc 1 516 2
 954 001a BB68     		ldr	r3, [r7, #8]
 955 001c 002B     		cmp	r3, #0
 956 001e 0BD1     		bne	.L56
 957              	.LBB123:
 958              	.LBB124:
 195:Middlewares/Third_Party/FreeRTOS/Source/portable/GCC/ARM_CM4F/portmacro.h **** 	(
 959              		.loc 2 195 2
 960              		.syntax unified
 961              	@ 195 "Middlewares/Third_Party/FreeRTOS/Source/portable/GCC/ARM_CM4F/portmacro.h" 1
 962 0020 4FF05003 			mov r3, #80												
 963 0024 83F31188 		msr basepri, r3											
 964 0028 BFF36F8F 		isb														
 965 002c BFF34F8F 		dsb														
 966              	
 967              	@ 0 "" 2
 968              		.thumb
 969              		.syntax unified
 970 0030 7B62     		str	r3, [r7, #36]
 971              		.loc 2 203 1
 972 0032 00BF     		nop
 973              	.L57:
 974              	.LBE124:
 975              	.LBE123:
 976              		.loc 1 516 2 discriminator 1
 977 0034 00BF     		nop
 978 0036 FDE7     		b	.L57
 979              	.L56:
 517:Middlewares/Third_Party/FreeRTOS/Source/stream_buffer.c **** 	configASSERT( pxStreamBuffer );
 980              		.loc 1 517 2
 981 0038 FB6A     		ldr	r3, [r7, #44]
 982 003a 002B     		cmp	r3, #0
 983 003c 0BD1     		bne	.L58
 984              	.LBB125:
 985              	.LBB126:
 195:Middlewares/Third_Party/FreeRTOS/Source/portable/GCC/ARM_CM4F/portmacro.h **** 	(
 986              		.loc 2 195 2
 987              		.syntax unified
 988              	@ 195 "Middlewares/Third_Party/FreeRTOS/Source/portable/GCC/ARM_CM4F/portmacro.h" 1
 989 003e 4FF05003 			mov r3, #80												
 990 0042 83F31188 		msr basepri, r3											
ARM GAS  /tmp/ccfUPzTZ.s 			page 31


 991 0046 BFF36F8F 		isb														
 992 004a BFF34F8F 		dsb														
 993              	
 994              	@ 0 "" 2
 995              		.thumb
 996              		.syntax unified
 997 004e 3B62     		str	r3, [r7, #32]
 998              		.loc 2 203 1
 999 0050 00BF     		nop
 1000              	.L59:
 1001              	.LBE126:
 1002              	.LBE125:
 1003              		.loc 1 517 2 discriminator 2
 1004 0052 00BF     		nop
 1005 0054 FDE7     		b	.L59
 1006              	.L58:
 518:Middlewares/Third_Party/FreeRTOS/Source/stream_buffer.c **** 
 519:Middlewares/Third_Party/FreeRTOS/Source/stream_buffer.c **** 	/* This send function is used to write to both message buffers and stream
 520:Middlewares/Third_Party/FreeRTOS/Source/stream_buffer.c **** 	buffers.  If this is a message buffer then the space needed must be
 521:Middlewares/Third_Party/FreeRTOS/Source/stream_buffer.c **** 	increased by the amount of bytes needed to store the length of the
 522:Middlewares/Third_Party/FreeRTOS/Source/stream_buffer.c **** 	message. */
 523:Middlewares/Third_Party/FreeRTOS/Source/stream_buffer.c **** 	if( ( pxStreamBuffer->ucFlags & sbFLAGS_IS_MESSAGE_BUFFER ) != ( uint8_t ) 0 )
 1007              		.loc 1 523 22
 1008 0056 FB6A     		ldr	r3, [r7, #44]
 1009 0058 1B7F     		ldrb	r3, [r3, #28]	@ zero_extendqisi2
 1010              		.loc 1 523 32
 1011 005a 03F00103 		and	r3, r3, #1
 1012              		.loc 1 523 4
 1013 005e 002B     		cmp	r3, #0
 1014 0060 12D0     		beq	.L60
 524:Middlewares/Third_Party/FreeRTOS/Source/stream_buffer.c **** 	{
 525:Middlewares/Third_Party/FreeRTOS/Source/stream_buffer.c **** 		xRequiredSpace += sbBYTES_TO_STORE_MESSAGE_LENGTH;
 1015              		.loc 1 525 18
 1016 0062 3B6B     		ldr	r3, [r7, #48]
 1017 0064 0433     		adds	r3, r3, #4
 1018 0066 3B63     		str	r3, [r7, #48]
 526:Middlewares/Third_Party/FreeRTOS/Source/stream_buffer.c **** 
 527:Middlewares/Third_Party/FreeRTOS/Source/stream_buffer.c **** 		/* Overflow? */
 528:Middlewares/Third_Party/FreeRTOS/Source/stream_buffer.c **** 		configASSERT( xRequiredSpace > xDataLengthBytes );
 1019              		.loc 1 528 3
 1020 0068 3A6B     		ldr	r2, [r7, #48]
 1021 006a 7B68     		ldr	r3, [r7, #4]
 1022 006c 9A42     		cmp	r2, r3
 1023 006e 0BD8     		bhi	.L60
 1024              	.LBB127:
 1025              	.LBB128:
 195:Middlewares/Third_Party/FreeRTOS/Source/portable/GCC/ARM_CM4F/portmacro.h **** 	(
 1026              		.loc 2 195 2
 1027              		.syntax unified
 1028              	@ 195 "Middlewares/Third_Party/FreeRTOS/Source/portable/GCC/ARM_CM4F/portmacro.h" 1
 1029 0070 4FF05003 			mov r3, #80												
 1030 0074 83F31188 		msr basepri, r3											
 1031 0078 BFF36F8F 		isb														
 1032 007c BFF34F8F 		dsb														
 1033              	
 1034              	@ 0 "" 2
 1035              		.thumb
ARM GAS  /tmp/ccfUPzTZ.s 			page 32


 1036              		.syntax unified
 1037 0080 FB61     		str	r3, [r7, #28]
 1038              		.loc 2 203 1
 1039 0082 00BF     		nop
 1040              	.L61:
 1041              	.LBE128:
 1042              	.LBE127:
 1043              		.loc 1 528 3 discriminator 3
 1044 0084 00BF     		nop
 1045 0086 FDE7     		b	.L61
 1046              	.L60:
 529:Middlewares/Third_Party/FreeRTOS/Source/stream_buffer.c **** 	}
 530:Middlewares/Third_Party/FreeRTOS/Source/stream_buffer.c **** 	else
 531:Middlewares/Third_Party/FreeRTOS/Source/stream_buffer.c **** 	{
 532:Middlewares/Third_Party/FreeRTOS/Source/stream_buffer.c **** 		mtCOVERAGE_TEST_MARKER();
 533:Middlewares/Third_Party/FreeRTOS/Source/stream_buffer.c **** 	}
 534:Middlewares/Third_Party/FreeRTOS/Source/stream_buffer.c **** 
 535:Middlewares/Third_Party/FreeRTOS/Source/stream_buffer.c **** 	if( xTicksToWait != ( TickType_t ) 0 )
 1047              		.loc 1 535 19
 1048 0088 3B68     		ldr	r3, [r7]
 1049              		.loc 1 535 4
 1050 008a 002B     		cmp	r3, #0
 1051 008c 3FD0     		beq	.L62
 536:Middlewares/Third_Party/FreeRTOS/Source/stream_buffer.c **** 	{
 537:Middlewares/Third_Party/FreeRTOS/Source/stream_buffer.c **** 		vTaskSetTimeOutState( &xTimeOut );
 1052              		.loc 1 537 3
 1053 008e 07F11003 		add	r3, r7, #16
 1054 0092 1846     		mov	r0, r3
 1055 0094 FFF7FEFF 		bl	vTaskSetTimeOutState
 1056              	.L68:
 538:Middlewares/Third_Party/FreeRTOS/Source/stream_buffer.c **** 
 539:Middlewares/Third_Party/FreeRTOS/Source/stream_buffer.c **** 		do
 540:Middlewares/Third_Party/FreeRTOS/Source/stream_buffer.c **** 		{
 541:Middlewares/Third_Party/FreeRTOS/Source/stream_buffer.c **** 			/* Wait until the required number of bytes are free in the message
 542:Middlewares/Third_Party/FreeRTOS/Source/stream_buffer.c **** 			buffer. */
 543:Middlewares/Third_Party/FreeRTOS/Source/stream_buffer.c **** 			taskENTER_CRITICAL();
 1057              		.loc 1 543 4
 1058 0098 FFF7FEFF 		bl	vPortEnterCritical
 544:Middlewares/Third_Party/FreeRTOS/Source/stream_buffer.c **** 			{
 545:Middlewares/Third_Party/FreeRTOS/Source/stream_buffer.c **** 				xSpace = xStreamBufferSpacesAvailable( pxStreamBuffer );
 1059              		.loc 1 545 14
 1060 009c F86A     		ldr	r0, [r7, #44]
 1061 009e FFF7FEFF 		bl	xStreamBufferSpacesAvailable
 1062 00a2 7863     		str	r0, [r7, #52]
 546:Middlewares/Third_Party/FreeRTOS/Source/stream_buffer.c **** 
 547:Middlewares/Third_Party/FreeRTOS/Source/stream_buffer.c **** 				if( xSpace < xRequiredSpace )
 1063              		.loc 1 547 7
 1064 00a4 7A6B     		ldr	r2, [r7, #52]
 1065 00a6 3B6B     		ldr	r3, [r7, #48]
 1066 00a8 9A42     		cmp	r2, r3
 1067 00aa 18D2     		bcs	.L63
 548:Middlewares/Third_Party/FreeRTOS/Source/stream_buffer.c **** 				{
 549:Middlewares/Third_Party/FreeRTOS/Source/stream_buffer.c **** 					/* Clear notification state as going to wait for space. */
 550:Middlewares/Third_Party/FreeRTOS/Source/stream_buffer.c **** 					( void ) xTaskNotifyStateClear( NULL );
 1068              		.loc 1 550 15
 1069 00ac 0020     		movs	r0, #0
 1070 00ae FFF7FEFF 		bl	xTaskNotifyStateClear
ARM GAS  /tmp/ccfUPzTZ.s 			page 33


 551:Middlewares/Third_Party/FreeRTOS/Source/stream_buffer.c **** 
 552:Middlewares/Third_Party/FreeRTOS/Source/stream_buffer.c **** 					/* Should only be one writer. */
 553:Middlewares/Third_Party/FreeRTOS/Source/stream_buffer.c **** 					configASSERT( pxStreamBuffer->xTaskWaitingToSend == NULL );
 1071              		.loc 1 553 6
 1072 00b2 FB6A     		ldr	r3, [r7, #44]
 1073 00b4 5B69     		ldr	r3, [r3, #20]
 1074 00b6 002B     		cmp	r3, #0
 1075 00b8 0BD0     		beq	.L64
 1076              	.LBB129:
 1077              	.LBB130:
 195:Middlewares/Third_Party/FreeRTOS/Source/portable/GCC/ARM_CM4F/portmacro.h **** 	(
 1078              		.loc 2 195 2
 1079              		.syntax unified
 1080              	@ 195 "Middlewares/Third_Party/FreeRTOS/Source/portable/GCC/ARM_CM4F/portmacro.h" 1
 1081 00ba 4FF05003 			mov r3, #80												
 1082 00be 83F31188 		msr basepri, r3											
 1083 00c2 BFF36F8F 		isb														
 1084 00c6 BFF34F8F 		dsb														
 1085              	
 1086              	@ 0 "" 2
 1087              		.thumb
 1088              		.syntax unified
 1089 00ca BB61     		str	r3, [r7, #24]
 1090              		.loc 2 203 1
 1091 00cc 00BF     		nop
 1092              	.L65:
 1093              	.LBE130:
 1094              	.LBE129:
 1095              		.loc 1 553 6 discriminator 4
 1096 00ce 00BF     		nop
 1097 00d0 FDE7     		b	.L65
 1098              	.L64:
 554:Middlewares/Third_Party/FreeRTOS/Source/stream_buffer.c **** 					pxStreamBuffer->xTaskWaitingToSend = xTaskGetCurrentTaskHandle();
 1099              		.loc 1 554 43
 1100 00d2 FFF7FEFF 		bl	xTaskGetCurrentTaskHandle
 1101 00d6 0246     		mov	r2, r0
 1102              		.loc 1 554 41
 1103 00d8 FB6A     		ldr	r3, [r7, #44]
 1104 00da 5A61     		str	r2, [r3, #20]
 1105 00dc 02E0     		b	.L73
 1106              	.L63:
 555:Middlewares/Third_Party/FreeRTOS/Source/stream_buffer.c **** 				}
 556:Middlewares/Third_Party/FreeRTOS/Source/stream_buffer.c **** 				else
 557:Middlewares/Third_Party/FreeRTOS/Source/stream_buffer.c **** 				{
 558:Middlewares/Third_Party/FreeRTOS/Source/stream_buffer.c **** 					taskEXIT_CRITICAL();
 1107              		.loc 1 558 6
 1108 00de FFF7FEFF 		bl	vPortExitCritical
 559:Middlewares/Third_Party/FreeRTOS/Source/stream_buffer.c **** 					break;
 1109              		.loc 1 559 6
 1110 00e2 14E0     		b	.L62
 1111              	.L73:
 560:Middlewares/Third_Party/FreeRTOS/Source/stream_buffer.c **** 				}
 561:Middlewares/Third_Party/FreeRTOS/Source/stream_buffer.c **** 			}
 562:Middlewares/Third_Party/FreeRTOS/Source/stream_buffer.c **** 			taskEXIT_CRITICAL();
 1112              		.loc 1 562 4
 1113 00e4 FFF7FEFF 		bl	vPortExitCritical
 563:Middlewares/Third_Party/FreeRTOS/Source/stream_buffer.c **** 
ARM GAS  /tmp/ccfUPzTZ.s 			page 34


 564:Middlewares/Third_Party/FreeRTOS/Source/stream_buffer.c **** 			traceBLOCKING_ON_STREAM_BUFFER_SEND( xStreamBuffer );
 565:Middlewares/Third_Party/FreeRTOS/Source/stream_buffer.c **** 			( void ) xTaskNotifyWait( ( uint32_t ) 0, ( uint32_t ) 0, NULL, xTicksToWait );
 1114              		.loc 1 565 4
 1115 00e8 3B68     		ldr	r3, [r7]
 1116              		.loc 1 565 13
 1117 00ea 0022     		movs	r2, #0
 1118 00ec 0021     		movs	r1, #0
 1119 00ee 0020     		movs	r0, #0
 1120 00f0 FFF7FEFF 		bl	xTaskNotifyWait
 566:Middlewares/Third_Party/FreeRTOS/Source/stream_buffer.c **** 			pxStreamBuffer->xTaskWaitingToSend = NULL;
 1121              		.loc 1 566 39
 1122 00f4 FB6A     		ldr	r3, [r7, #44]
 1123 00f6 0022     		movs	r2, #0
 1124 00f8 5A61     		str	r2, [r3, #20]
 567:Middlewares/Third_Party/FreeRTOS/Source/stream_buffer.c **** 
 568:Middlewares/Third_Party/FreeRTOS/Source/stream_buffer.c **** 		} while( xTaskCheckForTimeOut( &xTimeOut, &xTicksToWait ) == pdFALSE );
 1125              		.loc 1 568 12
 1126 00fa 3A46     		mov	r2, r7
 1127 00fc 07F11003 		add	r3, r7, #16
 1128 0100 1146     		mov	r1, r2
 1129 0102 1846     		mov	r0, r3
 1130 0104 FFF7FEFF 		bl	xTaskCheckForTimeOut
 1131 0108 0346     		mov	r3, r0
 1132              		.loc 1 568 61
 1133 010a 002B     		cmp	r3, #0
 1134 010c C4D0     		beq	.L68
 1135              	.L62:
 569:Middlewares/Third_Party/FreeRTOS/Source/stream_buffer.c **** 	}
 570:Middlewares/Third_Party/FreeRTOS/Source/stream_buffer.c **** 	else
 571:Middlewares/Third_Party/FreeRTOS/Source/stream_buffer.c **** 	{
 572:Middlewares/Third_Party/FreeRTOS/Source/stream_buffer.c **** 		mtCOVERAGE_TEST_MARKER();
 573:Middlewares/Third_Party/FreeRTOS/Source/stream_buffer.c **** 	}
 574:Middlewares/Third_Party/FreeRTOS/Source/stream_buffer.c **** 
 575:Middlewares/Third_Party/FreeRTOS/Source/stream_buffer.c **** 	if( xSpace == ( size_t ) 0 )
 1136              		.loc 1 575 4
 1137 010e 7B6B     		ldr	r3, [r7, #52]
 1138 0110 002B     		cmp	r3, #0
 1139 0112 03D1     		bne	.L69
 576:Middlewares/Third_Party/FreeRTOS/Source/stream_buffer.c **** 	{
 577:Middlewares/Third_Party/FreeRTOS/Source/stream_buffer.c **** 		xSpace = xStreamBufferSpacesAvailable( pxStreamBuffer );
 1140              		.loc 1 577 12
 1141 0114 F86A     		ldr	r0, [r7, #44]
 1142 0116 FFF7FEFF 		bl	xStreamBufferSpacesAvailable
 1143 011a 7863     		str	r0, [r7, #52]
 1144              	.L69:
 578:Middlewares/Third_Party/FreeRTOS/Source/stream_buffer.c **** 	}
 579:Middlewares/Third_Party/FreeRTOS/Source/stream_buffer.c **** 	else
 580:Middlewares/Third_Party/FreeRTOS/Source/stream_buffer.c **** 	{
 581:Middlewares/Third_Party/FreeRTOS/Source/stream_buffer.c **** 		mtCOVERAGE_TEST_MARKER();
 582:Middlewares/Third_Party/FreeRTOS/Source/stream_buffer.c **** 	}
 583:Middlewares/Third_Party/FreeRTOS/Source/stream_buffer.c **** 
 584:Middlewares/Third_Party/FreeRTOS/Source/stream_buffer.c **** 	xReturn = prvWriteMessageToBuffer( pxStreamBuffer, pvTxData, xDataLengthBytes, xSpace, xRequiredSp
 1145              		.loc 1 584 12
 1146 011c 3B6B     		ldr	r3, [r7, #48]
 1147 011e 0093     		str	r3, [sp]
 1148 0120 7B6B     		ldr	r3, [r7, #52]
 1149 0122 7A68     		ldr	r2, [r7, #4]
ARM GAS  /tmp/ccfUPzTZ.s 			page 35


 1150 0124 B968     		ldr	r1, [r7, #8]
 1151 0126 F86A     		ldr	r0, [r7, #44]
 1152 0128 FFF7FEFF 		bl	prvWriteMessageToBuffer
 1153 012c B862     		str	r0, [r7, #40]
 585:Middlewares/Third_Party/FreeRTOS/Source/stream_buffer.c **** 
 586:Middlewares/Third_Party/FreeRTOS/Source/stream_buffer.c **** 	if( xReturn > ( size_t ) 0 )
 1154              		.loc 1 586 4
 1155 012e BB6A     		ldr	r3, [r7, #40]
 1156 0130 002B     		cmp	r3, #0
 1157 0132 19D0     		beq	.L70
 587:Middlewares/Third_Party/FreeRTOS/Source/stream_buffer.c **** 	{
 588:Middlewares/Third_Party/FreeRTOS/Source/stream_buffer.c **** 		traceSTREAM_BUFFER_SEND( xStreamBuffer, xReturn );
 589:Middlewares/Third_Party/FreeRTOS/Source/stream_buffer.c **** 
 590:Middlewares/Third_Party/FreeRTOS/Source/stream_buffer.c **** 		/* Was a task waiting for the data? */
 591:Middlewares/Third_Party/FreeRTOS/Source/stream_buffer.c **** 		if( prvBytesInBuffer( pxStreamBuffer ) >= pxStreamBuffer->xTriggerLevelBytes )
 1158              		.loc 1 591 7
 1159 0134 F86A     		ldr	r0, [r7, #44]
 1160 0136 FFF7FEFF 		bl	prvBytesInBuffer
 1161 013a 0246     		mov	r2, r0
 1162              		.loc 1 591 59
 1163 013c FB6A     		ldr	r3, [r7, #44]
 1164 013e DB68     		ldr	r3, [r3, #12]
 1165              		.loc 1 591 5
 1166 0140 9A42     		cmp	r2, r3
 1167 0142 11D3     		bcc	.L70
 592:Middlewares/Third_Party/FreeRTOS/Source/stream_buffer.c **** 		{
 593:Middlewares/Third_Party/FreeRTOS/Source/stream_buffer.c **** 			sbSEND_COMPLETED( pxStreamBuffer );
 1168              		.loc 1 593 4
 1169 0144 FFF7FEFF 		bl	vTaskSuspendAll
 1170 0148 FB6A     		ldr	r3, [r7, #44]
 1171 014a 1B69     		ldr	r3, [r3, #16]
 1172 014c 002B     		cmp	r3, #0
 1173 014e 09D0     		beq	.L71
 1174              		.loc 1 593 4 is_stmt 0 discriminator 1
 1175 0150 FB6A     		ldr	r3, [r7, #44]
 1176 0152 1869     		ldr	r0, [r3, #16]
 1177 0154 0023     		movs	r3, #0
 1178 0156 0022     		movs	r2, #0
 1179 0158 0021     		movs	r1, #0
 1180 015a FFF7FEFF 		bl	xTaskGenericNotify
 1181 015e FB6A     		ldr	r3, [r7, #44]
 1182 0160 0022     		movs	r2, #0
 1183 0162 1A61     		str	r2, [r3, #16]
 1184              	.L71:
 1185              		.loc 1 593 4 discriminator 3
 1186 0164 FFF7FEFF 		bl	xTaskResumeAll
 1187              	.L70:
 594:Middlewares/Third_Party/FreeRTOS/Source/stream_buffer.c **** 		}
 595:Middlewares/Third_Party/FreeRTOS/Source/stream_buffer.c **** 		else
 596:Middlewares/Third_Party/FreeRTOS/Source/stream_buffer.c **** 		{
 597:Middlewares/Third_Party/FreeRTOS/Source/stream_buffer.c **** 			mtCOVERAGE_TEST_MARKER();
 598:Middlewares/Third_Party/FreeRTOS/Source/stream_buffer.c **** 		}
 599:Middlewares/Third_Party/FreeRTOS/Source/stream_buffer.c **** 	}
 600:Middlewares/Third_Party/FreeRTOS/Source/stream_buffer.c **** 	else
 601:Middlewares/Third_Party/FreeRTOS/Source/stream_buffer.c **** 	{
 602:Middlewares/Third_Party/FreeRTOS/Source/stream_buffer.c **** 		mtCOVERAGE_TEST_MARKER();
 603:Middlewares/Third_Party/FreeRTOS/Source/stream_buffer.c **** 		traceSTREAM_BUFFER_SEND_FAILED( xStreamBuffer );
ARM GAS  /tmp/ccfUPzTZ.s 			page 36


 604:Middlewares/Third_Party/FreeRTOS/Source/stream_buffer.c **** 	}
 605:Middlewares/Third_Party/FreeRTOS/Source/stream_buffer.c **** 
 606:Middlewares/Third_Party/FreeRTOS/Source/stream_buffer.c **** 	return xReturn;
 1188              		.loc 1 606 9 is_stmt 1
 1189 0168 BB6A     		ldr	r3, [r7, #40]
 607:Middlewares/Third_Party/FreeRTOS/Source/stream_buffer.c **** }
 1190              		.loc 1 607 1
 1191 016a 1846     		mov	r0, r3
 1192 016c 3837     		adds	r7, r7, #56
 1193              	.LCFI40:
 1194              		.cfi_def_cfa_offset 8
 1195 016e BD46     		mov	sp, r7
 1196              	.LCFI41:
 1197              		.cfi_def_cfa_register 13
 1198              		@ sp needed
 1199 0170 80BD     		pop	{r7, pc}
 1200              		.cfi_endproc
 1201              	.LFE11:
 1203              		.section	.text.xStreamBufferSendFromISR,"ax",%progbits
 1204              		.align	1
 1205              		.global	xStreamBufferSendFromISR
 1206              		.syntax unified
 1207              		.thumb
 1208              		.thumb_func
 1210              	xStreamBufferSendFromISR:
 1211              	.LFB12:
 608:Middlewares/Third_Party/FreeRTOS/Source/stream_buffer.c **** /*-----------------------------------------------------------*/
 609:Middlewares/Third_Party/FreeRTOS/Source/stream_buffer.c **** 
 610:Middlewares/Third_Party/FreeRTOS/Source/stream_buffer.c **** size_t xStreamBufferSendFromISR( StreamBufferHandle_t xStreamBuffer,
 611:Middlewares/Third_Party/FreeRTOS/Source/stream_buffer.c **** 								 const void *pvTxData,
 612:Middlewares/Third_Party/FreeRTOS/Source/stream_buffer.c **** 								 size_t xDataLengthBytes,
 613:Middlewares/Third_Party/FreeRTOS/Source/stream_buffer.c **** 								 BaseType_t * const pxHigherPriorityTaskWoken )
 614:Middlewares/Third_Party/FreeRTOS/Source/stream_buffer.c **** {
 1212              		.loc 1 614 1
 1213              		.cfi_startproc
 1214              		@ args = 0, pretend = 0, frame = 56
 1215              		@ frame_needed = 1, uses_anonymous_args = 0
 1216 0000 80B5     		push	{r7, lr}
 1217              	.LCFI42:
 1218              		.cfi_def_cfa_offset 8
 1219              		.cfi_offset 7, -8
 1220              		.cfi_offset 14, -4
 1221 0002 90B0     		sub	sp, sp, #64
 1222              	.LCFI43:
 1223              		.cfi_def_cfa_offset 72
 1224 0004 02AF     		add	r7, sp, #8
 1225              	.LCFI44:
 1226              		.cfi_def_cfa 7, 64
 1227 0006 F860     		str	r0, [r7, #12]
 1228 0008 B960     		str	r1, [r7, #8]
 1229 000a 7A60     		str	r2, [r7, #4]
 1230 000c 3B60     		str	r3, [r7]
 615:Middlewares/Third_Party/FreeRTOS/Source/stream_buffer.c **** StreamBuffer_t * const pxStreamBuffer = xStreamBuffer;
 1231              		.loc 1 615 24
 1232 000e FB68     		ldr	r3, [r7, #12]
 1233 0010 3B63     		str	r3, [r7, #48]
 616:Middlewares/Third_Party/FreeRTOS/Source/stream_buffer.c **** size_t xReturn, xSpace;
ARM GAS  /tmp/ccfUPzTZ.s 			page 37


 617:Middlewares/Third_Party/FreeRTOS/Source/stream_buffer.c **** size_t xRequiredSpace = xDataLengthBytes;
 1234              		.loc 1 617 8
 1235 0012 7B68     		ldr	r3, [r7, #4]
 1236 0014 7B63     		str	r3, [r7, #52]
 618:Middlewares/Third_Party/FreeRTOS/Source/stream_buffer.c **** 
 619:Middlewares/Third_Party/FreeRTOS/Source/stream_buffer.c **** 	configASSERT( pvTxData );
 1237              		.loc 1 619 2
 1238 0016 BB68     		ldr	r3, [r7, #8]
 1239 0018 002B     		cmp	r3, #0
 1240 001a 0BD1     		bne	.L75
 1241              	.LBB131:
 1242              	.LBB132:
 195:Middlewares/Third_Party/FreeRTOS/Source/portable/GCC/ARM_CM4F/portmacro.h **** 	(
 1243              		.loc 2 195 2
 1244              		.syntax unified
 1245              	@ 195 "Middlewares/Third_Party/FreeRTOS/Source/portable/GCC/ARM_CM4F/portmacro.h" 1
 1246 001c 4FF05003 			mov r3, #80												
 1247 0020 83F31188 		msr basepri, r3											
 1248 0024 BFF36F8F 		isb														
 1249 0028 BFF34F8F 		dsb														
 1250              	
 1251              	@ 0 "" 2
 1252              		.thumb
 1253              		.syntax unified
 1254 002c 3B62     		str	r3, [r7, #32]
 1255              		.loc 2 203 1
 1256 002e 00BF     		nop
 1257              	.L76:
 1258              	.LBE132:
 1259              	.LBE131:
 1260              		.loc 1 619 2 discriminator 1
 1261 0030 00BF     		nop
 1262 0032 FDE7     		b	.L76
 1263              	.L75:
 620:Middlewares/Third_Party/FreeRTOS/Source/stream_buffer.c **** 	configASSERT( pxStreamBuffer );
 1264              		.loc 1 620 2
 1265 0034 3B6B     		ldr	r3, [r7, #48]
 1266 0036 002B     		cmp	r3, #0
 1267 0038 0BD1     		bne	.L77
 1268              	.LBB133:
 1269              	.LBB134:
 195:Middlewares/Third_Party/FreeRTOS/Source/portable/GCC/ARM_CM4F/portmacro.h **** 	(
 1270              		.loc 2 195 2
 1271              		.syntax unified
 1272              	@ 195 "Middlewares/Third_Party/FreeRTOS/Source/portable/GCC/ARM_CM4F/portmacro.h" 1
 1273 003a 4FF05003 			mov r3, #80												
 1274 003e 83F31188 		msr basepri, r3											
 1275 0042 BFF36F8F 		isb														
 1276 0046 BFF34F8F 		dsb														
 1277              	
 1278              	@ 0 "" 2
 1279              		.thumb
 1280              		.syntax unified
 1281 004a FB61     		str	r3, [r7, #28]
 1282              		.loc 2 203 1
 1283 004c 00BF     		nop
 1284              	.L78:
ARM GAS  /tmp/ccfUPzTZ.s 			page 38


 1285              	.LBE134:
 1286              	.LBE133:
 1287              		.loc 1 620 2 discriminator 2
 1288 004e 00BF     		nop
 1289 0050 FDE7     		b	.L78
 1290              	.L77:
 621:Middlewares/Third_Party/FreeRTOS/Source/stream_buffer.c **** 
 622:Middlewares/Third_Party/FreeRTOS/Source/stream_buffer.c **** 	/* This send function is used to write to both message buffers and stream
 623:Middlewares/Third_Party/FreeRTOS/Source/stream_buffer.c **** 	buffers.  If this is a message buffer then the space needed must be
 624:Middlewares/Third_Party/FreeRTOS/Source/stream_buffer.c **** 	increased by the amount of bytes needed to store the length of the
 625:Middlewares/Third_Party/FreeRTOS/Source/stream_buffer.c **** 	message. */
 626:Middlewares/Third_Party/FreeRTOS/Source/stream_buffer.c **** 	if( ( pxStreamBuffer->ucFlags & sbFLAGS_IS_MESSAGE_BUFFER ) != ( uint8_t ) 0 )
 1291              		.loc 1 626 22
 1292 0052 3B6B     		ldr	r3, [r7, #48]
 1293 0054 1B7F     		ldrb	r3, [r3, #28]	@ zero_extendqisi2
 1294              		.loc 1 626 32
 1295 0056 03F00103 		and	r3, r3, #1
 1296              		.loc 1 626 4
 1297 005a 002B     		cmp	r3, #0
 1298 005c 02D0     		beq	.L79
 627:Middlewares/Third_Party/FreeRTOS/Source/stream_buffer.c **** 	{
 628:Middlewares/Third_Party/FreeRTOS/Source/stream_buffer.c **** 		xRequiredSpace += sbBYTES_TO_STORE_MESSAGE_LENGTH;
 1299              		.loc 1 628 18
 1300 005e 7B6B     		ldr	r3, [r7, #52]
 1301 0060 0433     		adds	r3, r3, #4
 1302 0062 7B63     		str	r3, [r7, #52]
 1303              	.L79:
 629:Middlewares/Third_Party/FreeRTOS/Source/stream_buffer.c **** 	}
 630:Middlewares/Third_Party/FreeRTOS/Source/stream_buffer.c **** 	else
 631:Middlewares/Third_Party/FreeRTOS/Source/stream_buffer.c **** 	{
 632:Middlewares/Third_Party/FreeRTOS/Source/stream_buffer.c **** 		mtCOVERAGE_TEST_MARKER();
 633:Middlewares/Third_Party/FreeRTOS/Source/stream_buffer.c **** 	}
 634:Middlewares/Third_Party/FreeRTOS/Source/stream_buffer.c **** 
 635:Middlewares/Third_Party/FreeRTOS/Source/stream_buffer.c **** 	xSpace = xStreamBufferSpacesAvailable( pxStreamBuffer );
 1304              		.loc 1 635 11
 1305 0064 386B     		ldr	r0, [r7, #48]
 1306 0066 FFF7FEFF 		bl	xStreamBufferSpacesAvailable
 1307 006a F862     		str	r0, [r7, #44]
 636:Middlewares/Third_Party/FreeRTOS/Source/stream_buffer.c **** 	xReturn = prvWriteMessageToBuffer( pxStreamBuffer, pvTxData, xDataLengthBytes, xSpace, xRequiredSp
 1308              		.loc 1 636 12
 1309 006c 7B6B     		ldr	r3, [r7, #52]
 1310 006e 0093     		str	r3, [sp]
 1311 0070 FB6A     		ldr	r3, [r7, #44]
 1312 0072 7A68     		ldr	r2, [r7, #4]
 1313 0074 B968     		ldr	r1, [r7, #8]
 1314 0076 386B     		ldr	r0, [r7, #48]
 1315 0078 FFF7FEFF 		bl	prvWriteMessageToBuffer
 1316 007c B862     		str	r0, [r7, #40]
 637:Middlewares/Third_Party/FreeRTOS/Source/stream_buffer.c **** 
 638:Middlewares/Third_Party/FreeRTOS/Source/stream_buffer.c **** 	if( xReturn > ( size_t ) 0 )
 1317              		.loc 1 638 4
 1318 007e BB6A     		ldr	r3, [r7, #40]
 1319 0080 002B     		cmp	r3, #0
 1320 0082 2BD0     		beq	.L80
 639:Middlewares/Third_Party/FreeRTOS/Source/stream_buffer.c **** 	{
 640:Middlewares/Third_Party/FreeRTOS/Source/stream_buffer.c **** 		/* Was a task waiting for the data? */
 641:Middlewares/Third_Party/FreeRTOS/Source/stream_buffer.c **** 		if( prvBytesInBuffer( pxStreamBuffer ) >= pxStreamBuffer->xTriggerLevelBytes )
ARM GAS  /tmp/ccfUPzTZ.s 			page 39


 1321              		.loc 1 641 7
 1322 0084 386B     		ldr	r0, [r7, #48]
 1323 0086 FFF7FEFF 		bl	prvBytesInBuffer
 1324 008a 0246     		mov	r2, r0
 1325              		.loc 1 641 59
 1326 008c 3B6B     		ldr	r3, [r7, #48]
 1327 008e DB68     		ldr	r3, [r3, #12]
 1328              		.loc 1 641 5
 1329 0090 9A42     		cmp	r2, r3
 1330 0092 23D3     		bcc	.L80
 1331              	.LBB135:
 1332              	.LBB136:
 1333              	.LBB137:
 204:Middlewares/Third_Party/FreeRTOS/Source/portable/GCC/ARM_CM4F/portmacro.h **** 
 205:Middlewares/Third_Party/FreeRTOS/Source/portable/GCC/ARM_CM4F/portmacro.h **** /*-----------------------------------------------------------*/
 206:Middlewares/Third_Party/FreeRTOS/Source/portable/GCC/ARM_CM4F/portmacro.h **** 
 207:Middlewares/Third_Party/FreeRTOS/Source/portable/GCC/ARM_CM4F/portmacro.h **** portFORCE_INLINE static uint32_t ulPortRaiseBASEPRI( void )
 208:Middlewares/Third_Party/FreeRTOS/Source/portable/GCC/ARM_CM4F/portmacro.h **** {
 209:Middlewares/Third_Party/FreeRTOS/Source/portable/GCC/ARM_CM4F/portmacro.h **** uint32_t ulOriginalBASEPRI, ulNewBASEPRI;
 210:Middlewares/Third_Party/FreeRTOS/Source/portable/GCC/ARM_CM4F/portmacro.h **** 
 211:Middlewares/Third_Party/FreeRTOS/Source/portable/GCC/ARM_CM4F/portmacro.h **** 	__asm volatile
 1334              		.loc 2 211 2
 1335              		.syntax unified
 1336              	@ 211 "Middlewares/Third_Party/FreeRTOS/Source/portable/GCC/ARM_CM4F/portmacro.h" 1
 1337 0094 EFF31182 			mrs r2, basepri											
 1338 0098 4FF05003 		mov r3, #80												
 1339 009c 83F31188 		msr basepri, r3											
 1340 00a0 BFF36F8F 		isb														
 1341 00a4 BFF34F8F 		dsb														
 1342              	
 1343              	@ 0 "" 2
 1344              		.thumb
 1345              		.syntax unified
 1346 00a8 BA61     		str	r2, [r7, #24]
 1347 00aa 7B61     		str	r3, [r7, #20]
 212:Middlewares/Third_Party/FreeRTOS/Source/portable/GCC/ARM_CM4F/portmacro.h **** 	(
 213:Middlewares/Third_Party/FreeRTOS/Source/portable/GCC/ARM_CM4F/portmacro.h **** 		"	mrs %0, basepri											\n" \
 214:Middlewares/Third_Party/FreeRTOS/Source/portable/GCC/ARM_CM4F/portmacro.h **** 		"	mov %1, %2												\n"	\
 215:Middlewares/Third_Party/FreeRTOS/Source/portable/GCC/ARM_CM4F/portmacro.h **** 		"	msr basepri, %1											\n" \
 216:Middlewares/Third_Party/FreeRTOS/Source/portable/GCC/ARM_CM4F/portmacro.h **** 		"	isb														\n" \
 217:Middlewares/Third_Party/FreeRTOS/Source/portable/GCC/ARM_CM4F/portmacro.h **** 		"	dsb														\n" \
 218:Middlewares/Third_Party/FreeRTOS/Source/portable/GCC/ARM_CM4F/portmacro.h **** 		:"=r" (ulOriginalBASEPRI), "=r" (ulNewBASEPRI) : "i" ( configMAX_SYSCALL_INTERRUPT_PRIORITY ) : "
 219:Middlewares/Third_Party/FreeRTOS/Source/portable/GCC/ARM_CM4F/portmacro.h **** 	);
 220:Middlewares/Third_Party/FreeRTOS/Source/portable/GCC/ARM_CM4F/portmacro.h **** 
 221:Middlewares/Third_Party/FreeRTOS/Source/portable/GCC/ARM_CM4F/portmacro.h **** 	/* This return will not be reached but is necessary to prevent compiler
 222:Middlewares/Third_Party/FreeRTOS/Source/portable/GCC/ARM_CM4F/portmacro.h **** 	warnings. */
 223:Middlewares/Third_Party/FreeRTOS/Source/portable/GCC/ARM_CM4F/portmacro.h **** 	return ulOriginalBASEPRI;
 1348              		.loc 2 223 9
 1349 00ac BB69     		ldr	r3, [r7, #24]
 1350              	.LBE137:
 1351              	.LBE136:
 642:Middlewares/Third_Party/FreeRTOS/Source/stream_buffer.c **** 		{
 643:Middlewares/Third_Party/FreeRTOS/Source/stream_buffer.c **** 			sbSEND_COMPLETE_FROM_ISR( pxStreamBuffer, pxHigherPriorityTaskWoken );
 1352              		.loc 1 643 4
 1353 00ae 7B62     		str	r3, [r7, #36]
 1354 00b0 3B6B     		ldr	r3, [r7, #48]
 1355 00b2 1B69     		ldr	r3, [r3, #16]
ARM GAS  /tmp/ccfUPzTZ.s 			page 40


 1356 00b4 002B     		cmp	r3, #0
 1357 00b6 0BD0     		beq	.L82
 1358              		.loc 1 643 4 is_stmt 0 discriminator 1
 1359 00b8 3B6B     		ldr	r3, [r7, #48]
 1360 00ba 1869     		ldr	r0, [r3, #16]
 1361 00bc 3B68     		ldr	r3, [r7]
 1362 00be 0093     		str	r3, [sp]
 1363 00c0 0023     		movs	r3, #0
 1364 00c2 0022     		movs	r2, #0
 1365 00c4 0021     		movs	r1, #0
 1366 00c6 FFF7FEFF 		bl	xTaskGenericNotifyFromISR
 1367 00ca 3B6B     		ldr	r3, [r7, #48]
 1368 00cc 0022     		movs	r2, #0
 1369 00ce 1A61     		str	r2, [r3, #16]
 1370              	.L82:
 1371 00d0 7B6A     		ldr	r3, [r7, #36]
 1372 00d2 3B61     		str	r3, [r7, #16]
 1373              	.LBB138:
 1374              	.LBB139:
 224:Middlewares/Third_Party/FreeRTOS/Source/portable/GCC/ARM_CM4F/portmacro.h **** }
 225:Middlewares/Third_Party/FreeRTOS/Source/portable/GCC/ARM_CM4F/portmacro.h **** /*-----------------------------------------------------------*/
 226:Middlewares/Third_Party/FreeRTOS/Source/portable/GCC/ARM_CM4F/portmacro.h **** 
 227:Middlewares/Third_Party/FreeRTOS/Source/portable/GCC/ARM_CM4F/portmacro.h **** portFORCE_INLINE static void vPortSetBASEPRI( uint32_t ulNewMaskValue )
 228:Middlewares/Third_Party/FreeRTOS/Source/portable/GCC/ARM_CM4F/portmacro.h **** {
 229:Middlewares/Third_Party/FreeRTOS/Source/portable/GCC/ARM_CM4F/portmacro.h **** 	__asm volatile
 1375              		.loc 2 229 2 is_stmt 1 discriminator 3
 1376 00d4 3B69     		ldr	r3, [r7, #16]
 1377              		.syntax unified
 1378              	@ 229 "Middlewares/Third_Party/FreeRTOS/Source/portable/GCC/ARM_CM4F/portmacro.h" 1
 1379 00d6 83F31188 			msr basepri, r3	
 1380              	@ 0 "" 2
 230:Middlewares/Third_Party/FreeRTOS/Source/portable/GCC/ARM_CM4F/portmacro.h **** 	(
 231:Middlewares/Third_Party/FreeRTOS/Source/portable/GCC/ARM_CM4F/portmacro.h **** 		"	msr basepri, %0	" :: "r" ( ulNewMaskValue ) : "memory"
 232:Middlewares/Third_Party/FreeRTOS/Source/portable/GCC/ARM_CM4F/portmacro.h **** 	);
 233:Middlewares/Third_Party/FreeRTOS/Source/portable/GCC/ARM_CM4F/portmacro.h **** }
 1381              		.loc 2 233 1 discriminator 3
 1382              		.thumb
 1383              		.syntax unified
 1384 00da 00BF     		nop
 1385              	.L80:
 1386              	.LBE139:
 1387              	.LBE138:
 1388              	.LBE135:
 644:Middlewares/Third_Party/FreeRTOS/Source/stream_buffer.c **** 		}
 645:Middlewares/Third_Party/FreeRTOS/Source/stream_buffer.c **** 		else
 646:Middlewares/Third_Party/FreeRTOS/Source/stream_buffer.c **** 		{
 647:Middlewares/Third_Party/FreeRTOS/Source/stream_buffer.c **** 			mtCOVERAGE_TEST_MARKER();
 648:Middlewares/Third_Party/FreeRTOS/Source/stream_buffer.c **** 		}
 649:Middlewares/Third_Party/FreeRTOS/Source/stream_buffer.c **** 	}
 650:Middlewares/Third_Party/FreeRTOS/Source/stream_buffer.c **** 	else
 651:Middlewares/Third_Party/FreeRTOS/Source/stream_buffer.c **** 	{
 652:Middlewares/Third_Party/FreeRTOS/Source/stream_buffer.c **** 		mtCOVERAGE_TEST_MARKER();
 653:Middlewares/Third_Party/FreeRTOS/Source/stream_buffer.c **** 	}
 654:Middlewares/Third_Party/FreeRTOS/Source/stream_buffer.c **** 
 655:Middlewares/Third_Party/FreeRTOS/Source/stream_buffer.c **** 	traceSTREAM_BUFFER_SEND_FROM_ISR( xStreamBuffer, xReturn );
 656:Middlewares/Third_Party/FreeRTOS/Source/stream_buffer.c **** 
 657:Middlewares/Third_Party/FreeRTOS/Source/stream_buffer.c **** 	return xReturn;
ARM GAS  /tmp/ccfUPzTZ.s 			page 41


 1389              		.loc 1 657 9
 1390 00dc BB6A     		ldr	r3, [r7, #40]
 658:Middlewares/Third_Party/FreeRTOS/Source/stream_buffer.c **** }
 1391              		.loc 1 658 1
 1392 00de 1846     		mov	r0, r3
 1393 00e0 3837     		adds	r7, r7, #56
 1394              	.LCFI45:
 1395              		.cfi_def_cfa_offset 8
 1396 00e2 BD46     		mov	sp, r7
 1397              	.LCFI46:
 1398              		.cfi_def_cfa_register 13
 1399              		@ sp needed
 1400 00e4 80BD     		pop	{r7, pc}
 1401              		.cfi_endproc
 1402              	.LFE12:
 1404              		.section	.text.prvWriteMessageToBuffer,"ax",%progbits
 1405              		.align	1
 1406              		.syntax unified
 1407              		.thumb
 1408              		.thumb_func
 1410              	prvWriteMessageToBuffer:
 1411              	.LFB13:
 659:Middlewares/Third_Party/FreeRTOS/Source/stream_buffer.c **** /*-----------------------------------------------------------*/
 660:Middlewares/Third_Party/FreeRTOS/Source/stream_buffer.c **** 
 661:Middlewares/Third_Party/FreeRTOS/Source/stream_buffer.c **** static size_t prvWriteMessageToBuffer( StreamBuffer_t * const pxStreamBuffer,
 662:Middlewares/Third_Party/FreeRTOS/Source/stream_buffer.c **** 									   const void * pvTxData,
 663:Middlewares/Third_Party/FreeRTOS/Source/stream_buffer.c **** 									   size_t xDataLengthBytes,
 664:Middlewares/Third_Party/FreeRTOS/Source/stream_buffer.c **** 									   size_t xSpace,
 665:Middlewares/Third_Party/FreeRTOS/Source/stream_buffer.c **** 									   size_t xRequiredSpace )
 666:Middlewares/Third_Party/FreeRTOS/Source/stream_buffer.c **** {
 1412              		.loc 1 666 1
 1413              		.cfi_startproc
 1414              		@ args = 4, pretend = 0, frame = 24
 1415              		@ frame_needed = 1, uses_anonymous_args = 0
 1416 0000 80B5     		push	{r7, lr}
 1417              	.LCFI47:
 1418              		.cfi_def_cfa_offset 8
 1419              		.cfi_offset 7, -8
 1420              		.cfi_offset 14, -4
 1421 0002 86B0     		sub	sp, sp, #24
 1422              	.LCFI48:
 1423              		.cfi_def_cfa_offset 32
 1424 0004 00AF     		add	r7, sp, #0
 1425              	.LCFI49:
 1426              		.cfi_def_cfa_register 7
 1427 0006 F860     		str	r0, [r7, #12]
 1428 0008 B960     		str	r1, [r7, #8]
 1429 000a 7A60     		str	r2, [r7, #4]
 1430 000c 3B60     		str	r3, [r7]
 667:Middlewares/Third_Party/FreeRTOS/Source/stream_buffer.c **** 	BaseType_t xShouldWrite;
 668:Middlewares/Third_Party/FreeRTOS/Source/stream_buffer.c **** 	size_t xReturn;
 669:Middlewares/Third_Party/FreeRTOS/Source/stream_buffer.c **** 
 670:Middlewares/Third_Party/FreeRTOS/Source/stream_buffer.c **** 	if( xSpace == ( size_t ) 0 )
 1431              		.loc 1 670 4
 1432 000e 3B68     		ldr	r3, [r7]
 1433 0010 002B     		cmp	r3, #0
 1434 0012 02D1     		bne	.L85
ARM GAS  /tmp/ccfUPzTZ.s 			page 42


 671:Middlewares/Third_Party/FreeRTOS/Source/stream_buffer.c **** 	{
 672:Middlewares/Third_Party/FreeRTOS/Source/stream_buffer.c **** 		/* Doesn't matter if this is a stream buffer or a message buffer, there
 673:Middlewares/Third_Party/FreeRTOS/Source/stream_buffer.c **** 		is no space to write. */
 674:Middlewares/Third_Party/FreeRTOS/Source/stream_buffer.c **** 		xShouldWrite = pdFALSE;
 1435              		.loc 1 674 16
 1436 0014 0023     		movs	r3, #0
 1437 0016 7B61     		str	r3, [r7, #20]
 1438 0018 1DE0     		b	.L86
 1439              	.L85:
 675:Middlewares/Third_Party/FreeRTOS/Source/stream_buffer.c **** 	}
 676:Middlewares/Third_Party/FreeRTOS/Source/stream_buffer.c **** 	else if( ( pxStreamBuffer->ucFlags & sbFLAGS_IS_MESSAGE_BUFFER ) == ( uint8_t ) 0 )
 1440              		.loc 1 676 27
 1441 001a FB68     		ldr	r3, [r7, #12]
 1442 001c 1B7F     		ldrb	r3, [r3, #28]	@ zero_extendqisi2
 1443              		.loc 1 676 37
 1444 001e 03F00103 		and	r3, r3, #1
 1445              		.loc 1 676 9
 1446 0022 002B     		cmp	r3, #0
 1447 0024 08D1     		bne	.L87
 677:Middlewares/Third_Party/FreeRTOS/Source/stream_buffer.c **** 	{
 678:Middlewares/Third_Party/FreeRTOS/Source/stream_buffer.c **** 		/* This is a stream buffer, as opposed to a message buffer, so writing a
 679:Middlewares/Third_Party/FreeRTOS/Source/stream_buffer.c **** 		stream of bytes rather than discrete messages.  Write as many bytes as
 680:Middlewares/Third_Party/FreeRTOS/Source/stream_buffer.c **** 		possible. */
 681:Middlewares/Third_Party/FreeRTOS/Source/stream_buffer.c **** 		xShouldWrite = pdTRUE;
 1448              		.loc 1 681 16
 1449 0026 0123     		movs	r3, #1
 1450 0028 7B61     		str	r3, [r7, #20]
 682:Middlewares/Third_Party/FreeRTOS/Source/stream_buffer.c **** 		xDataLengthBytes = configMIN( xDataLengthBytes, xSpace );
 1451              		.loc 1 682 22
 1452 002a 7A68     		ldr	r2, [r7, #4]
 1453 002c 3B68     		ldr	r3, [r7]
 1454 002e 9342     		cmp	r3, r2
 1455 0030 28BF     		it	cs
 1456 0032 1346     		movcs	r3, r2
 1457              		.loc 1 682 20
 1458 0034 7B60     		str	r3, [r7, #4]
 1459 0036 0EE0     		b	.L86
 1460              	.L87:
 683:Middlewares/Third_Party/FreeRTOS/Source/stream_buffer.c **** 	}
 684:Middlewares/Third_Party/FreeRTOS/Source/stream_buffer.c **** 	else if( xSpace >= xRequiredSpace )
 1461              		.loc 1 684 9
 1462 0038 3A68     		ldr	r2, [r7]
 1463 003a 3B6A     		ldr	r3, [r7, #32]
 1464 003c 9A42     		cmp	r2, r3
 1465 003e 08D3     		bcc	.L88
 685:Middlewares/Third_Party/FreeRTOS/Source/stream_buffer.c **** 	{
 686:Middlewares/Third_Party/FreeRTOS/Source/stream_buffer.c **** 		/* This is a message buffer, as opposed to a stream buffer, and there
 687:Middlewares/Third_Party/FreeRTOS/Source/stream_buffer.c **** 		is enough space to write both the message length and the message itself
 688:Middlewares/Third_Party/FreeRTOS/Source/stream_buffer.c **** 		into the buffer.  Start by writing the length of the data, the data
 689:Middlewares/Third_Party/FreeRTOS/Source/stream_buffer.c **** 		itself will be written later in this function. */
 690:Middlewares/Third_Party/FreeRTOS/Source/stream_buffer.c **** 		xShouldWrite = pdTRUE;
 1466              		.loc 1 690 16
 1467 0040 0123     		movs	r3, #1
 1468 0042 7B61     		str	r3, [r7, #20]
 691:Middlewares/Third_Party/FreeRTOS/Source/stream_buffer.c **** 		( void ) prvWriteBytesToBuffer( pxStreamBuffer, ( const uint8_t * ) &( xDataLengthBytes ), sbBYTE
 1469              		.loc 1 691 12
 1470 0044 3B1D     		adds	r3, r7, #4
ARM GAS  /tmp/ccfUPzTZ.s 			page 43


 1471 0046 0422     		movs	r2, #4
 1472 0048 1946     		mov	r1, r3
 1473 004a F868     		ldr	r0, [r7, #12]
 1474 004c FFF7FEFF 		bl	prvWriteBytesToBuffer
 1475 0050 01E0     		b	.L86
 1476              	.L88:
 692:Middlewares/Third_Party/FreeRTOS/Source/stream_buffer.c **** 	}
 693:Middlewares/Third_Party/FreeRTOS/Source/stream_buffer.c **** 	else
 694:Middlewares/Third_Party/FreeRTOS/Source/stream_buffer.c **** 	{
 695:Middlewares/Third_Party/FreeRTOS/Source/stream_buffer.c **** 		/* There is space available, but not enough space. */
 696:Middlewares/Third_Party/FreeRTOS/Source/stream_buffer.c **** 		xShouldWrite = pdFALSE;
 1477              		.loc 1 696 16
 1478 0052 0023     		movs	r3, #0
 1479 0054 7B61     		str	r3, [r7, #20]
 1480              	.L86:
 697:Middlewares/Third_Party/FreeRTOS/Source/stream_buffer.c **** 	}
 698:Middlewares/Third_Party/FreeRTOS/Source/stream_buffer.c **** 
 699:Middlewares/Third_Party/FreeRTOS/Source/stream_buffer.c **** 	if( xShouldWrite != pdFALSE )
 1481              		.loc 1 699 4
 1482 0056 7B69     		ldr	r3, [r7, #20]
 1483 0058 002B     		cmp	r3, #0
 1484 005a 07D0     		beq	.L89
 700:Middlewares/Third_Party/FreeRTOS/Source/stream_buffer.c **** 	{
 701:Middlewares/Third_Party/FreeRTOS/Source/stream_buffer.c **** 		/* Writes the data itself. */
 702:Middlewares/Third_Party/FreeRTOS/Source/stream_buffer.c **** 		xReturn = prvWriteBytesToBuffer( pxStreamBuffer, ( const uint8_t * ) pvTxData, xDataLengthBytes )
 1485              		.loc 1 702 13
 1486 005c 7B68     		ldr	r3, [r7, #4]
 1487 005e 1A46     		mov	r2, r3
 1488 0060 B968     		ldr	r1, [r7, #8]
 1489 0062 F868     		ldr	r0, [r7, #12]
 1490 0064 FFF7FEFF 		bl	prvWriteBytesToBuffer
 1491 0068 3861     		str	r0, [r7, #16]
 1492 006a 01E0     		b	.L90
 1493              	.L89:
 703:Middlewares/Third_Party/FreeRTOS/Source/stream_buffer.c **** 	}
 704:Middlewares/Third_Party/FreeRTOS/Source/stream_buffer.c **** 	else
 705:Middlewares/Third_Party/FreeRTOS/Source/stream_buffer.c **** 	{
 706:Middlewares/Third_Party/FreeRTOS/Source/stream_buffer.c **** 		xReturn = 0;
 1494              		.loc 1 706 11
 1495 006c 0023     		movs	r3, #0
 1496 006e 3B61     		str	r3, [r7, #16]
 1497              	.L90:
 707:Middlewares/Third_Party/FreeRTOS/Source/stream_buffer.c **** 	}
 708:Middlewares/Third_Party/FreeRTOS/Source/stream_buffer.c **** 
 709:Middlewares/Third_Party/FreeRTOS/Source/stream_buffer.c **** 	return xReturn;
 1498              		.loc 1 709 9
 1499 0070 3B69     		ldr	r3, [r7, #16]
 710:Middlewares/Third_Party/FreeRTOS/Source/stream_buffer.c **** }
 1500              		.loc 1 710 1
 1501 0072 1846     		mov	r0, r3
 1502 0074 1837     		adds	r7, r7, #24
 1503              	.LCFI50:
 1504              		.cfi_def_cfa_offset 8
 1505 0076 BD46     		mov	sp, r7
 1506              	.LCFI51:
 1507              		.cfi_def_cfa_register 13
 1508              		@ sp needed
ARM GAS  /tmp/ccfUPzTZ.s 			page 44


 1509 0078 80BD     		pop	{r7, pc}
 1510              		.cfi_endproc
 1511              	.LFE13:
 1513              		.section	.text.xStreamBufferReceive,"ax",%progbits
 1514              		.align	1
 1515              		.global	xStreamBufferReceive
 1516              		.syntax unified
 1517              		.thumb
 1518              		.thumb_func
 1520              	xStreamBufferReceive:
 1521              	.LFB14:
 711:Middlewares/Third_Party/FreeRTOS/Source/stream_buffer.c **** /*-----------------------------------------------------------*/
 712:Middlewares/Third_Party/FreeRTOS/Source/stream_buffer.c **** 
 713:Middlewares/Third_Party/FreeRTOS/Source/stream_buffer.c **** size_t xStreamBufferReceive( StreamBufferHandle_t xStreamBuffer,
 714:Middlewares/Third_Party/FreeRTOS/Source/stream_buffer.c **** 							 void *pvRxData,
 715:Middlewares/Third_Party/FreeRTOS/Source/stream_buffer.c **** 							 size_t xBufferLengthBytes,
 716:Middlewares/Third_Party/FreeRTOS/Source/stream_buffer.c **** 							 TickType_t xTicksToWait )
 717:Middlewares/Third_Party/FreeRTOS/Source/stream_buffer.c **** {
 1522              		.loc 1 717 1
 1523              		.cfi_startproc
 1524              		@ args = 0, pretend = 0, frame = 48
 1525              		@ frame_needed = 1, uses_anonymous_args = 0
 1526 0000 80B5     		push	{r7, lr}
 1527              	.LCFI52:
 1528              		.cfi_def_cfa_offset 8
 1529              		.cfi_offset 7, -8
 1530              		.cfi_offset 14, -4
 1531 0002 8EB0     		sub	sp, sp, #56
 1532              	.LCFI53:
 1533              		.cfi_def_cfa_offset 64
 1534 0004 02AF     		add	r7, sp, #8
 1535              	.LCFI54:
 1536              		.cfi_def_cfa 7, 56
 1537 0006 F860     		str	r0, [r7, #12]
 1538 0008 B960     		str	r1, [r7, #8]
 1539 000a 7A60     		str	r2, [r7, #4]
 1540 000c 3B60     		str	r3, [r7]
 718:Middlewares/Third_Party/FreeRTOS/Source/stream_buffer.c **** StreamBuffer_t * const pxStreamBuffer = xStreamBuffer;
 1541              		.loc 1 718 24
 1542 000e FB68     		ldr	r3, [r7, #12]
 1543 0010 3B62     		str	r3, [r7, #32]
 719:Middlewares/Third_Party/FreeRTOS/Source/stream_buffer.c **** size_t xReceivedLength = 0, xBytesAvailable, xBytesToStoreMessageLength;
 1544              		.loc 1 719 8
 1545 0012 0023     		movs	r3, #0
 1546 0014 FB62     		str	r3, [r7, #44]
 720:Middlewares/Third_Party/FreeRTOS/Source/stream_buffer.c **** 
 721:Middlewares/Third_Party/FreeRTOS/Source/stream_buffer.c **** 	configASSERT( pvRxData );
 1547              		.loc 1 721 2
 1548 0016 BB68     		ldr	r3, [r7, #8]
 1549 0018 002B     		cmp	r3, #0
 1550 001a 0BD1     		bne	.L93
 1551              	.LBB140:
 1552              	.LBB141:
 195:Middlewares/Third_Party/FreeRTOS/Source/portable/GCC/ARM_CM4F/portmacro.h **** 	(
 1553              		.loc 2 195 2
 1554              		.syntax unified
 1555              	@ 195 "Middlewares/Third_Party/FreeRTOS/Source/portable/GCC/ARM_CM4F/portmacro.h" 1
ARM GAS  /tmp/ccfUPzTZ.s 			page 45


 1556 001c 4FF05003 			mov r3, #80												
 1557 0020 83F31188 		msr basepri, r3											
 1558 0024 BFF36F8F 		isb														
 1559 0028 BFF34F8F 		dsb														
 1560              	
 1561              	@ 0 "" 2
 1562              		.thumb
 1563              		.syntax unified
 1564 002c FB61     		str	r3, [r7, #28]
 203:Middlewares/Third_Party/FreeRTOS/Source/portable/GCC/ARM_CM4F/portmacro.h **** 
 1565              		.loc 2 203 1
 1566 002e 00BF     		nop
 1567              	.L94:
 1568              	.LBE141:
 1569              	.LBE140:
 1570              		.loc 1 721 2 discriminator 1
 1571 0030 00BF     		nop
 1572 0032 FDE7     		b	.L94
 1573              	.L93:
 722:Middlewares/Third_Party/FreeRTOS/Source/stream_buffer.c **** 	configASSERT( pxStreamBuffer );
 1574              		.loc 1 722 2
 1575 0034 3B6A     		ldr	r3, [r7, #32]
 1576 0036 002B     		cmp	r3, #0
 1577 0038 0BD1     		bne	.L95
 1578              	.LBB142:
 1579              	.LBB143:
 195:Middlewares/Third_Party/FreeRTOS/Source/portable/GCC/ARM_CM4F/portmacro.h **** 	(
 1580              		.loc 2 195 2
 1581              		.syntax unified
 1582              	@ 195 "Middlewares/Third_Party/FreeRTOS/Source/portable/GCC/ARM_CM4F/portmacro.h" 1
 1583 003a 4FF05003 			mov r3, #80												
 1584 003e 83F31188 		msr basepri, r3											
 1585 0042 BFF36F8F 		isb														
 1586 0046 BFF34F8F 		dsb														
 1587              	
 1588              	@ 0 "" 2
 1589              		.thumb
 1590              		.syntax unified
 1591 004a BB61     		str	r3, [r7, #24]
 203:Middlewares/Third_Party/FreeRTOS/Source/portable/GCC/ARM_CM4F/portmacro.h **** 
 1592              		.loc 2 203 1
 1593 004c 00BF     		nop
 1594              	.L96:
 1595              	.LBE143:
 1596              	.LBE142:
 1597              		.loc 1 722 2 discriminator 2
 1598 004e 00BF     		nop
 1599 0050 FDE7     		b	.L96
 1600              	.L95:
 723:Middlewares/Third_Party/FreeRTOS/Source/stream_buffer.c **** 
 724:Middlewares/Third_Party/FreeRTOS/Source/stream_buffer.c **** 	/* This receive function is used by both message buffers, which store
 725:Middlewares/Third_Party/FreeRTOS/Source/stream_buffer.c **** 	discrete messages, and stream buffers, which store a continuous stream of
 726:Middlewares/Third_Party/FreeRTOS/Source/stream_buffer.c **** 	bytes.  Discrete messages include an additional
 727:Middlewares/Third_Party/FreeRTOS/Source/stream_buffer.c **** 	sbBYTES_TO_STORE_MESSAGE_LENGTH bytes that hold the length of the
 728:Middlewares/Third_Party/FreeRTOS/Source/stream_buffer.c **** 	message. */
 729:Middlewares/Third_Party/FreeRTOS/Source/stream_buffer.c **** 	if( ( pxStreamBuffer->ucFlags & sbFLAGS_IS_MESSAGE_BUFFER ) != ( uint8_t ) 0 )
 1601              		.loc 1 729 22
ARM GAS  /tmp/ccfUPzTZ.s 			page 46


 1602 0052 3B6A     		ldr	r3, [r7, #32]
 1603 0054 1B7F     		ldrb	r3, [r3, #28]	@ zero_extendqisi2
 1604              		.loc 1 729 32
 1605 0056 03F00103 		and	r3, r3, #1
 1606              		.loc 1 729 4
 1607 005a 002B     		cmp	r3, #0
 1608 005c 02D0     		beq	.L97
 730:Middlewares/Third_Party/FreeRTOS/Source/stream_buffer.c **** 	{
 731:Middlewares/Third_Party/FreeRTOS/Source/stream_buffer.c **** 		xBytesToStoreMessageLength = sbBYTES_TO_STORE_MESSAGE_LENGTH;
 1609              		.loc 1 731 30
 1610 005e 0423     		movs	r3, #4
 1611 0060 7B62     		str	r3, [r7, #36]
 1612 0062 01E0     		b	.L98
 1613              	.L97:
 732:Middlewares/Third_Party/FreeRTOS/Source/stream_buffer.c **** 	}
 733:Middlewares/Third_Party/FreeRTOS/Source/stream_buffer.c **** 	else
 734:Middlewares/Third_Party/FreeRTOS/Source/stream_buffer.c **** 	{
 735:Middlewares/Third_Party/FreeRTOS/Source/stream_buffer.c **** 		xBytesToStoreMessageLength = 0;
 1614              		.loc 1 735 30
 1615 0064 0023     		movs	r3, #0
 1616 0066 7B62     		str	r3, [r7, #36]
 1617              	.L98:
 736:Middlewares/Third_Party/FreeRTOS/Source/stream_buffer.c **** 	}
 737:Middlewares/Third_Party/FreeRTOS/Source/stream_buffer.c **** 
 738:Middlewares/Third_Party/FreeRTOS/Source/stream_buffer.c **** 	if( xTicksToWait != ( TickType_t ) 0 )
 1618              		.loc 1 738 4
 1619 0068 3B68     		ldr	r3, [r7]
 1620 006a 002B     		cmp	r3, #0
 1621 006c 35D0     		beq	.L99
 739:Middlewares/Third_Party/FreeRTOS/Source/stream_buffer.c **** 	{
 740:Middlewares/Third_Party/FreeRTOS/Source/stream_buffer.c **** 		/* Checking if there is data and clearing the notification state must be
 741:Middlewares/Third_Party/FreeRTOS/Source/stream_buffer.c **** 		performed atomically. */
 742:Middlewares/Third_Party/FreeRTOS/Source/stream_buffer.c **** 		taskENTER_CRITICAL();
 1622              		.loc 1 742 3
 1623 006e FFF7FEFF 		bl	vPortEnterCritical
 743:Middlewares/Third_Party/FreeRTOS/Source/stream_buffer.c **** 		{
 744:Middlewares/Third_Party/FreeRTOS/Source/stream_buffer.c **** 			xBytesAvailable = prvBytesInBuffer( pxStreamBuffer );
 1624              		.loc 1 744 22
 1625 0072 386A     		ldr	r0, [r7, #32]
 1626 0074 FFF7FEFF 		bl	prvBytesInBuffer
 1627 0078 B862     		str	r0, [r7, #40]
 745:Middlewares/Third_Party/FreeRTOS/Source/stream_buffer.c **** 
 746:Middlewares/Third_Party/FreeRTOS/Source/stream_buffer.c **** 			/* If this function was invoked by a message buffer read then
 747:Middlewares/Third_Party/FreeRTOS/Source/stream_buffer.c **** 			xBytesToStoreMessageLength holds the number of bytes used to hold
 748:Middlewares/Third_Party/FreeRTOS/Source/stream_buffer.c **** 			the length of the next discrete message.  If this function was
 749:Middlewares/Third_Party/FreeRTOS/Source/stream_buffer.c **** 			invoked by a stream buffer read then xBytesToStoreMessageLength will
 750:Middlewares/Third_Party/FreeRTOS/Source/stream_buffer.c **** 			be 0. */
 751:Middlewares/Third_Party/FreeRTOS/Source/stream_buffer.c **** 			if( xBytesAvailable <= xBytesToStoreMessageLength )
 1628              		.loc 1 751 6
 1629 007a BA6A     		ldr	r2, [r7, #40]
 1630 007c 7B6A     		ldr	r3, [r7, #36]
 1631 007e 9A42     		cmp	r2, r3
 1632 0080 17D8     		bhi	.L100
 752:Middlewares/Third_Party/FreeRTOS/Source/stream_buffer.c **** 			{
 753:Middlewares/Third_Party/FreeRTOS/Source/stream_buffer.c **** 				/* Clear notification state as going to wait for data. */
 754:Middlewares/Third_Party/FreeRTOS/Source/stream_buffer.c **** 				( void ) xTaskNotifyStateClear( NULL );
 1633              		.loc 1 754 14
ARM GAS  /tmp/ccfUPzTZ.s 			page 47


 1634 0082 0020     		movs	r0, #0
 1635 0084 FFF7FEFF 		bl	xTaskNotifyStateClear
 755:Middlewares/Third_Party/FreeRTOS/Source/stream_buffer.c **** 
 756:Middlewares/Third_Party/FreeRTOS/Source/stream_buffer.c **** 				/* Should only be one reader. */
 757:Middlewares/Third_Party/FreeRTOS/Source/stream_buffer.c **** 				configASSERT( pxStreamBuffer->xTaskWaitingToReceive == NULL );
 1636              		.loc 1 757 5
 1637 0088 3B6A     		ldr	r3, [r7, #32]
 1638 008a 1B69     		ldr	r3, [r3, #16]
 1639 008c 002B     		cmp	r3, #0
 1640 008e 0BD0     		beq	.L101
 1641              	.LBB144:
 1642              	.LBB145:
 195:Middlewares/Third_Party/FreeRTOS/Source/portable/GCC/ARM_CM4F/portmacro.h **** 	(
 1643              		.loc 2 195 2
 1644              		.syntax unified
 1645              	@ 195 "Middlewares/Third_Party/FreeRTOS/Source/portable/GCC/ARM_CM4F/portmacro.h" 1
 1646 0090 4FF05003 			mov r3, #80												
 1647 0094 83F31188 		msr basepri, r3											
 1648 0098 BFF36F8F 		isb														
 1649 009c BFF34F8F 		dsb														
 1650              	
 1651              	@ 0 "" 2
 1652              		.thumb
 1653              		.syntax unified
 1654 00a0 7B61     		str	r3, [r7, #20]
 203:Middlewares/Third_Party/FreeRTOS/Source/portable/GCC/ARM_CM4F/portmacro.h **** 
 1655              		.loc 2 203 1
 1656 00a2 00BF     		nop
 1657              	.L102:
 1658              	.LBE145:
 1659              	.LBE144:
 1660              		.loc 1 757 5 discriminator 3
 1661 00a4 00BF     		nop
 1662 00a6 FDE7     		b	.L102
 1663              	.L101:
 758:Middlewares/Third_Party/FreeRTOS/Source/stream_buffer.c **** 				pxStreamBuffer->xTaskWaitingToReceive = xTaskGetCurrentTaskHandle();
 1664              		.loc 1 758 45
 1665 00a8 FFF7FEFF 		bl	xTaskGetCurrentTaskHandle
 1666 00ac 0246     		mov	r2, r0
 1667              		.loc 1 758 43
 1668 00ae 3B6A     		ldr	r3, [r7, #32]
 1669 00b0 1A61     		str	r2, [r3, #16]
 1670              	.L100:
 759:Middlewares/Third_Party/FreeRTOS/Source/stream_buffer.c **** 			}
 760:Middlewares/Third_Party/FreeRTOS/Source/stream_buffer.c **** 			else
 761:Middlewares/Third_Party/FreeRTOS/Source/stream_buffer.c **** 			{
 762:Middlewares/Third_Party/FreeRTOS/Source/stream_buffer.c **** 				mtCOVERAGE_TEST_MARKER();
 763:Middlewares/Third_Party/FreeRTOS/Source/stream_buffer.c **** 			}
 764:Middlewares/Third_Party/FreeRTOS/Source/stream_buffer.c **** 		}
 765:Middlewares/Third_Party/FreeRTOS/Source/stream_buffer.c **** 		taskEXIT_CRITICAL();
 1671              		.loc 1 765 3
 1672 00b2 FFF7FEFF 		bl	vPortExitCritical
 766:Middlewares/Third_Party/FreeRTOS/Source/stream_buffer.c **** 
 767:Middlewares/Third_Party/FreeRTOS/Source/stream_buffer.c **** 		if( xBytesAvailable <= xBytesToStoreMessageLength )
 1673              		.loc 1 767 5
 1674 00b6 BA6A     		ldr	r2, [r7, #40]
 1675 00b8 7B6A     		ldr	r3, [r7, #36]
ARM GAS  /tmp/ccfUPzTZ.s 			page 48


 1676 00ba 9A42     		cmp	r2, r3
 1677 00bc 11D8     		bhi	.L103
 768:Middlewares/Third_Party/FreeRTOS/Source/stream_buffer.c **** 		{
 769:Middlewares/Third_Party/FreeRTOS/Source/stream_buffer.c **** 			/* Wait for data to be available. */
 770:Middlewares/Third_Party/FreeRTOS/Source/stream_buffer.c **** 			traceBLOCKING_ON_STREAM_BUFFER_RECEIVE( xStreamBuffer );
 771:Middlewares/Third_Party/FreeRTOS/Source/stream_buffer.c **** 			( void ) xTaskNotifyWait( ( uint32_t ) 0, ( uint32_t ) 0, NULL, xTicksToWait );
 1678              		.loc 1 771 13
 1679 00be 3B68     		ldr	r3, [r7]
 1680 00c0 0022     		movs	r2, #0
 1681 00c2 0021     		movs	r1, #0
 1682 00c4 0020     		movs	r0, #0
 1683 00c6 FFF7FEFF 		bl	xTaskNotifyWait
 772:Middlewares/Third_Party/FreeRTOS/Source/stream_buffer.c **** 			pxStreamBuffer->xTaskWaitingToReceive = NULL;
 1684              		.loc 1 772 42
 1685 00ca 3B6A     		ldr	r3, [r7, #32]
 1686 00cc 0022     		movs	r2, #0
 1687 00ce 1A61     		str	r2, [r3, #16]
 773:Middlewares/Third_Party/FreeRTOS/Source/stream_buffer.c **** 
 774:Middlewares/Third_Party/FreeRTOS/Source/stream_buffer.c **** 			/* Recheck the data available after blocking. */
 775:Middlewares/Third_Party/FreeRTOS/Source/stream_buffer.c **** 			xBytesAvailable = prvBytesInBuffer( pxStreamBuffer );
 1688              		.loc 1 775 22
 1689 00d0 386A     		ldr	r0, [r7, #32]
 1690 00d2 FFF7FEFF 		bl	prvBytesInBuffer
 1691 00d6 B862     		str	r0, [r7, #40]
 1692 00d8 03E0     		b	.L103
 1693              	.L99:
 776:Middlewares/Third_Party/FreeRTOS/Source/stream_buffer.c **** 		}
 777:Middlewares/Third_Party/FreeRTOS/Source/stream_buffer.c **** 		else
 778:Middlewares/Third_Party/FreeRTOS/Source/stream_buffer.c **** 		{
 779:Middlewares/Third_Party/FreeRTOS/Source/stream_buffer.c **** 			mtCOVERAGE_TEST_MARKER();
 780:Middlewares/Third_Party/FreeRTOS/Source/stream_buffer.c **** 		}
 781:Middlewares/Third_Party/FreeRTOS/Source/stream_buffer.c **** 	}
 782:Middlewares/Third_Party/FreeRTOS/Source/stream_buffer.c **** 	else
 783:Middlewares/Third_Party/FreeRTOS/Source/stream_buffer.c **** 	{
 784:Middlewares/Third_Party/FreeRTOS/Source/stream_buffer.c **** 		xBytesAvailable = prvBytesInBuffer( pxStreamBuffer );
 1694              		.loc 1 784 21
 1695 00da 386A     		ldr	r0, [r7, #32]
 1696 00dc FFF7FEFF 		bl	prvBytesInBuffer
 1697 00e0 B862     		str	r0, [r7, #40]
 1698              	.L103:
 785:Middlewares/Third_Party/FreeRTOS/Source/stream_buffer.c **** 	}
 786:Middlewares/Third_Party/FreeRTOS/Source/stream_buffer.c **** 
 787:Middlewares/Third_Party/FreeRTOS/Source/stream_buffer.c **** 	/* Whether receiving a discrete message (where xBytesToStoreMessageLength
 788:Middlewares/Third_Party/FreeRTOS/Source/stream_buffer.c **** 	holds the number of bytes used to store the message length) or a stream of
 789:Middlewares/Third_Party/FreeRTOS/Source/stream_buffer.c **** 	bytes (where xBytesToStoreMessageLength is zero), the number of bytes
 790:Middlewares/Third_Party/FreeRTOS/Source/stream_buffer.c **** 	available must be greater than xBytesToStoreMessageLength to be able to
 791:Middlewares/Third_Party/FreeRTOS/Source/stream_buffer.c **** 	read bytes from the buffer. */
 792:Middlewares/Third_Party/FreeRTOS/Source/stream_buffer.c **** 	if( xBytesAvailable > xBytesToStoreMessageLength )
 1699              		.loc 1 792 4
 1700 00e2 BA6A     		ldr	r2, [r7, #40]
 1701 00e4 7B6A     		ldr	r3, [r7, #36]
 1702 00e6 9A42     		cmp	r2, r3
 1703 00e8 1DD9     		bls	.L104
 793:Middlewares/Third_Party/FreeRTOS/Source/stream_buffer.c **** 	{
 794:Middlewares/Third_Party/FreeRTOS/Source/stream_buffer.c **** 		xReceivedLength = prvReadMessageFromBuffer( pxStreamBuffer, pvRxData, xBufferLengthBytes, xBytesA
 1704              		.loc 1 794 21
 1705 00ea 7B6A     		ldr	r3, [r7, #36]
ARM GAS  /tmp/ccfUPzTZ.s 			page 49


 1706 00ec 0093     		str	r3, [sp]
 1707 00ee BB6A     		ldr	r3, [r7, #40]
 1708 00f0 7A68     		ldr	r2, [r7, #4]
 1709 00f2 B968     		ldr	r1, [r7, #8]
 1710 00f4 386A     		ldr	r0, [r7, #32]
 1711 00f6 FFF7FEFF 		bl	prvReadMessageFromBuffer
 1712 00fa F862     		str	r0, [r7, #44]
 795:Middlewares/Third_Party/FreeRTOS/Source/stream_buffer.c **** 
 796:Middlewares/Third_Party/FreeRTOS/Source/stream_buffer.c **** 		/* Was a task waiting for space in the buffer? */
 797:Middlewares/Third_Party/FreeRTOS/Source/stream_buffer.c **** 		if( xReceivedLength != ( size_t ) 0 )
 1713              		.loc 1 797 5
 1714 00fc FB6A     		ldr	r3, [r7, #44]
 1715 00fe 002B     		cmp	r3, #0
 1716 0100 11D0     		beq	.L104
 798:Middlewares/Third_Party/FreeRTOS/Source/stream_buffer.c **** 		{
 799:Middlewares/Third_Party/FreeRTOS/Source/stream_buffer.c **** 			traceSTREAM_BUFFER_RECEIVE( xStreamBuffer, xReceivedLength );
 800:Middlewares/Third_Party/FreeRTOS/Source/stream_buffer.c **** 			sbRECEIVE_COMPLETED( pxStreamBuffer );
 1717              		.loc 1 800 4
 1718 0102 FFF7FEFF 		bl	vTaskSuspendAll
 1719 0106 3B6A     		ldr	r3, [r7, #32]
 1720 0108 5B69     		ldr	r3, [r3, #20]
 1721 010a 002B     		cmp	r3, #0
 1722 010c 09D0     		beq	.L105
 1723              		.loc 1 800 4 is_stmt 0 discriminator 1
 1724 010e 3B6A     		ldr	r3, [r7, #32]
 1725 0110 5869     		ldr	r0, [r3, #20]
 1726 0112 0023     		movs	r3, #0
 1727 0114 0022     		movs	r2, #0
 1728 0116 0021     		movs	r1, #0
 1729 0118 FFF7FEFF 		bl	xTaskGenericNotify
 1730 011c 3B6A     		ldr	r3, [r7, #32]
 1731 011e 0022     		movs	r2, #0
 1732 0120 5A61     		str	r2, [r3, #20]
 1733              	.L105:
 1734              		.loc 1 800 4 discriminator 3
 1735 0122 FFF7FEFF 		bl	xTaskResumeAll
 1736              	.L104:
 801:Middlewares/Third_Party/FreeRTOS/Source/stream_buffer.c **** 		}
 802:Middlewares/Third_Party/FreeRTOS/Source/stream_buffer.c **** 		else
 803:Middlewares/Third_Party/FreeRTOS/Source/stream_buffer.c **** 		{
 804:Middlewares/Third_Party/FreeRTOS/Source/stream_buffer.c **** 			mtCOVERAGE_TEST_MARKER();
 805:Middlewares/Third_Party/FreeRTOS/Source/stream_buffer.c **** 		}
 806:Middlewares/Third_Party/FreeRTOS/Source/stream_buffer.c **** 	}
 807:Middlewares/Third_Party/FreeRTOS/Source/stream_buffer.c **** 	else
 808:Middlewares/Third_Party/FreeRTOS/Source/stream_buffer.c **** 	{
 809:Middlewares/Third_Party/FreeRTOS/Source/stream_buffer.c **** 		traceSTREAM_BUFFER_RECEIVE_FAILED( xStreamBuffer );
 810:Middlewares/Third_Party/FreeRTOS/Source/stream_buffer.c **** 		mtCOVERAGE_TEST_MARKER();
 811:Middlewares/Third_Party/FreeRTOS/Source/stream_buffer.c **** 	}
 812:Middlewares/Third_Party/FreeRTOS/Source/stream_buffer.c **** 
 813:Middlewares/Third_Party/FreeRTOS/Source/stream_buffer.c **** 	return xReceivedLength;
 1737              		.loc 1 813 9 is_stmt 1
 1738 0126 FB6A     		ldr	r3, [r7, #44]
 814:Middlewares/Third_Party/FreeRTOS/Source/stream_buffer.c **** }
 1739              		.loc 1 814 1
 1740 0128 1846     		mov	r0, r3
 1741 012a 3037     		adds	r7, r7, #48
 1742              	.LCFI55:
ARM GAS  /tmp/ccfUPzTZ.s 			page 50


 1743              		.cfi_def_cfa_offset 8
 1744 012c BD46     		mov	sp, r7
 1745              	.LCFI56:
 1746              		.cfi_def_cfa_register 13
 1747              		@ sp needed
 1748 012e 80BD     		pop	{r7, pc}
 1749              		.cfi_endproc
 1750              	.LFE14:
 1752              		.section	.text.xStreamBufferNextMessageLengthBytes,"ax",%progbits
 1753              		.align	1
 1754              		.global	xStreamBufferNextMessageLengthBytes
 1755              		.syntax unified
 1756              		.thumb
 1757              		.thumb_func
 1759              	xStreamBufferNextMessageLengthBytes:
 1760              	.LFB15:
 815:Middlewares/Third_Party/FreeRTOS/Source/stream_buffer.c **** /*-----------------------------------------------------------*/
 816:Middlewares/Third_Party/FreeRTOS/Source/stream_buffer.c **** 
 817:Middlewares/Third_Party/FreeRTOS/Source/stream_buffer.c **** size_t xStreamBufferNextMessageLengthBytes( StreamBufferHandle_t xStreamBuffer )
 818:Middlewares/Third_Party/FreeRTOS/Source/stream_buffer.c **** {
 1761              		.loc 1 818 1
 1762              		.cfi_startproc
 1763              		@ args = 0, pretend = 0, frame = 40
 1764              		@ frame_needed = 1, uses_anonymous_args = 0
 1765 0000 80B5     		push	{r7, lr}
 1766              	.LCFI57:
 1767              		.cfi_def_cfa_offset 8
 1768              		.cfi_offset 7, -8
 1769              		.cfi_offset 14, -4
 1770 0002 8AB0     		sub	sp, sp, #40
 1771              	.LCFI58:
 1772              		.cfi_def_cfa_offset 48
 1773 0004 00AF     		add	r7, sp, #0
 1774              	.LCFI59:
 1775              		.cfi_def_cfa_register 7
 1776 0006 7860     		str	r0, [r7, #4]
 819:Middlewares/Third_Party/FreeRTOS/Source/stream_buffer.c **** StreamBuffer_t * const pxStreamBuffer = xStreamBuffer;
 1777              		.loc 1 819 24
 1778 0008 7B68     		ldr	r3, [r7, #4]
 1779 000a 3B62     		str	r3, [r7, #32]
 820:Middlewares/Third_Party/FreeRTOS/Source/stream_buffer.c **** size_t xReturn, xBytesAvailable, xOriginalTail;
 821:Middlewares/Third_Party/FreeRTOS/Source/stream_buffer.c **** configMESSAGE_BUFFER_LENGTH_TYPE xTempReturn;
 822:Middlewares/Third_Party/FreeRTOS/Source/stream_buffer.c **** 
 823:Middlewares/Third_Party/FreeRTOS/Source/stream_buffer.c **** 	configASSERT( pxStreamBuffer );
 1780              		.loc 1 823 2
 1781 000c 3B6A     		ldr	r3, [r7, #32]
 1782 000e 002B     		cmp	r3, #0
 1783 0010 0BD1     		bne	.L108
 1784              	.LBB146:
 1785              	.LBB147:
 195:Middlewares/Third_Party/FreeRTOS/Source/portable/GCC/ARM_CM4F/portmacro.h **** 	(
 1786              		.loc 2 195 2
 1787              		.syntax unified
 1788              	@ 195 "Middlewares/Third_Party/FreeRTOS/Source/portable/GCC/ARM_CM4F/portmacro.h" 1
 1789 0012 4FF05003 			mov r3, #80												
 1790 0016 83F31188 		msr basepri, r3											
 1791 001a BFF36F8F 		isb														
ARM GAS  /tmp/ccfUPzTZ.s 			page 51


 1792 001e BFF34F8F 		dsb														
 1793              	
 1794              	@ 0 "" 2
 1795              		.thumb
 1796              		.syntax unified
 1797 0022 7B61     		str	r3, [r7, #20]
 203:Middlewares/Third_Party/FreeRTOS/Source/portable/GCC/ARM_CM4F/portmacro.h **** 
 1798              		.loc 2 203 1
 1799 0024 00BF     		nop
 1800              	.L109:
 1801              	.LBE147:
 1802              	.LBE146:
 1803              		.loc 1 823 2 discriminator 1
 1804 0026 00BF     		nop
 1805 0028 FDE7     		b	.L109
 1806              	.L108:
 824:Middlewares/Third_Party/FreeRTOS/Source/stream_buffer.c **** 
 825:Middlewares/Third_Party/FreeRTOS/Source/stream_buffer.c **** 	/* Ensure the stream buffer is being used as a message buffer. */
 826:Middlewares/Third_Party/FreeRTOS/Source/stream_buffer.c **** 	if( ( pxStreamBuffer->ucFlags & sbFLAGS_IS_MESSAGE_BUFFER ) != ( uint8_t ) 0 )
 1807              		.loc 1 826 22
 1808 002a 3B6A     		ldr	r3, [r7, #32]
 1809 002c 1B7F     		ldrb	r3, [r3, #28]	@ zero_extendqisi2
 1810              		.loc 1 826 32
 1811 002e 03F00103 		and	r3, r3, #1
 1812              		.loc 1 826 4
 1813 0032 002B     		cmp	r3, #0
 1814 0034 28D0     		beq	.L110
 827:Middlewares/Third_Party/FreeRTOS/Source/stream_buffer.c **** 	{
 828:Middlewares/Third_Party/FreeRTOS/Source/stream_buffer.c **** 		xBytesAvailable = prvBytesInBuffer( pxStreamBuffer );
 1815              		.loc 1 828 21
 1816 0036 386A     		ldr	r0, [r7, #32]
 1817 0038 FFF7FEFF 		bl	prvBytesInBuffer
 1818 003c F861     		str	r0, [r7, #28]
 829:Middlewares/Third_Party/FreeRTOS/Source/stream_buffer.c **** 		if( xBytesAvailable > sbBYTES_TO_STORE_MESSAGE_LENGTH )
 1819              		.loc 1 829 5
 1820 003e FB69     		ldr	r3, [r7, #28]
 1821 0040 042B     		cmp	r3, #4
 1822 0042 0FD9     		bls	.L111
 830:Middlewares/Third_Party/FreeRTOS/Source/stream_buffer.c **** 		{
 831:Middlewares/Third_Party/FreeRTOS/Source/stream_buffer.c **** 			/* The number of bytes available is greater than the number of bytes
 832:Middlewares/Third_Party/FreeRTOS/Source/stream_buffer.c **** 			required to hold the length of the next message, so another message
 833:Middlewares/Third_Party/FreeRTOS/Source/stream_buffer.c **** 			is available.  Return its length without removing the length bytes
 834:Middlewares/Third_Party/FreeRTOS/Source/stream_buffer.c **** 			from the buffer.  A copy of the tail is stored so the buffer can be
 835:Middlewares/Third_Party/FreeRTOS/Source/stream_buffer.c **** 			returned to its prior state as the message is not actually being
 836:Middlewares/Third_Party/FreeRTOS/Source/stream_buffer.c **** 			removed from the buffer. */
 837:Middlewares/Third_Party/FreeRTOS/Source/stream_buffer.c **** 			xOriginalTail = pxStreamBuffer->xTail;
 1823              		.loc 1 837 18
 1824 0044 3B6A     		ldr	r3, [r7, #32]
 1825 0046 1B68     		ldr	r3, [r3]
 1826 0048 BB61     		str	r3, [r7, #24]
 838:Middlewares/Third_Party/FreeRTOS/Source/stream_buffer.c **** 			( void ) prvReadBytesFromBuffer( pxStreamBuffer, ( uint8_t * ) &xTempReturn, sbBYTES_TO_STORE_ME
 1827              		.loc 1 838 13
 1828 004a 07F10C01 		add	r1, r7, #12
 1829 004e FB69     		ldr	r3, [r7, #28]
 1830 0050 0422     		movs	r2, #4
 1831 0052 386A     		ldr	r0, [r7, #32]
 1832 0054 FFF7FEFF 		bl	prvReadBytesFromBuffer
ARM GAS  /tmp/ccfUPzTZ.s 			page 52


 839:Middlewares/Third_Party/FreeRTOS/Source/stream_buffer.c **** 			xReturn = ( size_t ) xTempReturn;
 1833              		.loc 1 839 12
 1834 0058 FB68     		ldr	r3, [r7, #12]
 1835 005a 7B62     		str	r3, [r7, #36]
 840:Middlewares/Third_Party/FreeRTOS/Source/stream_buffer.c **** 			pxStreamBuffer->xTail = xOriginalTail;
 1836              		.loc 1 840 26
 1837 005c 3B6A     		ldr	r3, [r7, #32]
 1838 005e BA69     		ldr	r2, [r7, #24]
 1839 0060 1A60     		str	r2, [r3]
 1840 0062 13E0     		b	.L112
 1841              	.L111:
 841:Middlewares/Third_Party/FreeRTOS/Source/stream_buffer.c **** 		}
 842:Middlewares/Third_Party/FreeRTOS/Source/stream_buffer.c **** 		else
 843:Middlewares/Third_Party/FreeRTOS/Source/stream_buffer.c **** 		{
 844:Middlewares/Third_Party/FreeRTOS/Source/stream_buffer.c **** 			/* The minimum amount of bytes in a message buffer is
 845:Middlewares/Third_Party/FreeRTOS/Source/stream_buffer.c **** 			( sbBYTES_TO_STORE_MESSAGE_LENGTH + 1 ), so if xBytesAvailable is
 846:Middlewares/Third_Party/FreeRTOS/Source/stream_buffer.c **** 			less than sbBYTES_TO_STORE_MESSAGE_LENGTH the only other valid
 847:Middlewares/Third_Party/FreeRTOS/Source/stream_buffer.c **** 			value is 0. */
 848:Middlewares/Third_Party/FreeRTOS/Source/stream_buffer.c **** 			configASSERT( xBytesAvailable == 0 );
 1842              		.loc 1 848 4
 1843 0064 FB69     		ldr	r3, [r7, #28]
 1844 0066 002B     		cmp	r3, #0
 1845 0068 0BD0     		beq	.L113
 1846              	.LBB148:
 1847              	.LBB149:
 195:Middlewares/Third_Party/FreeRTOS/Source/portable/GCC/ARM_CM4F/portmacro.h **** 	(
 1848              		.loc 2 195 2
 1849              		.syntax unified
 1850              	@ 195 "Middlewares/Third_Party/FreeRTOS/Source/portable/GCC/ARM_CM4F/portmacro.h" 1
 1851 006a 4FF05003 			mov r3, #80												
 1852 006e 83F31188 		msr basepri, r3											
 1853 0072 BFF36F8F 		isb														
 1854 0076 BFF34F8F 		dsb														
 1855              	
 1856              	@ 0 "" 2
 1857              		.thumb
 1858              		.syntax unified
 1859 007a 3B61     		str	r3, [r7, #16]
 203:Middlewares/Third_Party/FreeRTOS/Source/portable/GCC/ARM_CM4F/portmacro.h **** 
 1860              		.loc 2 203 1
 1861 007c 00BF     		nop
 1862              	.L114:
 1863              	.LBE149:
 1864              	.LBE148:
 1865              		.loc 1 848 4 discriminator 2
 1866 007e 00BF     		nop
 1867 0080 FDE7     		b	.L114
 1868              	.L113:
 849:Middlewares/Third_Party/FreeRTOS/Source/stream_buffer.c **** 			xReturn = 0;
 1869              		.loc 1 849 12
 1870 0082 0023     		movs	r3, #0
 1871 0084 7B62     		str	r3, [r7, #36]
 1872 0086 01E0     		b	.L112
 1873              	.L110:
 850:Middlewares/Third_Party/FreeRTOS/Source/stream_buffer.c **** 		}
 851:Middlewares/Third_Party/FreeRTOS/Source/stream_buffer.c **** 	}
 852:Middlewares/Third_Party/FreeRTOS/Source/stream_buffer.c **** 	else
ARM GAS  /tmp/ccfUPzTZ.s 			page 53


 853:Middlewares/Third_Party/FreeRTOS/Source/stream_buffer.c **** 	{
 854:Middlewares/Third_Party/FreeRTOS/Source/stream_buffer.c **** 		xReturn = 0;
 1874              		.loc 1 854 11
 1875 0088 0023     		movs	r3, #0
 1876 008a 7B62     		str	r3, [r7, #36]
 1877              	.L112:
 855:Middlewares/Third_Party/FreeRTOS/Source/stream_buffer.c **** 	}
 856:Middlewares/Third_Party/FreeRTOS/Source/stream_buffer.c **** 
 857:Middlewares/Third_Party/FreeRTOS/Source/stream_buffer.c **** 	return xReturn;
 1878              		.loc 1 857 9
 1879 008c 7B6A     		ldr	r3, [r7, #36]
 858:Middlewares/Third_Party/FreeRTOS/Source/stream_buffer.c **** }
 1880              		.loc 1 858 1
 1881 008e 1846     		mov	r0, r3
 1882 0090 2837     		adds	r7, r7, #40
 1883              	.LCFI60:
 1884              		.cfi_def_cfa_offset 8
 1885 0092 BD46     		mov	sp, r7
 1886              	.LCFI61:
 1887              		.cfi_def_cfa_register 13
 1888              		@ sp needed
 1889 0094 80BD     		pop	{r7, pc}
 1890              		.cfi_endproc
 1891              	.LFE15:
 1893              		.section	.text.xStreamBufferReceiveFromISR,"ax",%progbits
 1894              		.align	1
 1895              		.global	xStreamBufferReceiveFromISR
 1896              		.syntax unified
 1897              		.thumb
 1898              		.thumb_func
 1900              	xStreamBufferReceiveFromISR:
 1901              	.LFB16:
 859:Middlewares/Third_Party/FreeRTOS/Source/stream_buffer.c **** /*-----------------------------------------------------------*/
 860:Middlewares/Third_Party/FreeRTOS/Source/stream_buffer.c **** 
 861:Middlewares/Third_Party/FreeRTOS/Source/stream_buffer.c **** size_t xStreamBufferReceiveFromISR( StreamBufferHandle_t xStreamBuffer,
 862:Middlewares/Third_Party/FreeRTOS/Source/stream_buffer.c **** 									void *pvRxData,
 863:Middlewares/Third_Party/FreeRTOS/Source/stream_buffer.c **** 									size_t xBufferLengthBytes,
 864:Middlewares/Third_Party/FreeRTOS/Source/stream_buffer.c **** 									BaseType_t * const pxHigherPriorityTaskWoken )
 865:Middlewares/Third_Party/FreeRTOS/Source/stream_buffer.c **** {
 1902              		.loc 1 865 1
 1903              		.cfi_startproc
 1904              		@ args = 0, pretend = 0, frame = 56
 1905              		@ frame_needed = 1, uses_anonymous_args = 0
 1906 0000 80B5     		push	{r7, lr}
 1907              	.LCFI62:
 1908              		.cfi_def_cfa_offset 8
 1909              		.cfi_offset 7, -8
 1910              		.cfi_offset 14, -4
 1911 0002 90B0     		sub	sp, sp, #64
 1912              	.LCFI63:
 1913              		.cfi_def_cfa_offset 72
 1914 0004 02AF     		add	r7, sp, #8
 1915              	.LCFI64:
 1916              		.cfi_def_cfa 7, 64
 1917 0006 F860     		str	r0, [r7, #12]
 1918 0008 B960     		str	r1, [r7, #8]
 1919 000a 7A60     		str	r2, [r7, #4]
ARM GAS  /tmp/ccfUPzTZ.s 			page 54


 1920 000c 3B60     		str	r3, [r7]
 866:Middlewares/Third_Party/FreeRTOS/Source/stream_buffer.c **** StreamBuffer_t * const pxStreamBuffer = xStreamBuffer;
 1921              		.loc 1 866 24
 1922 000e FB68     		ldr	r3, [r7, #12]
 1923 0010 FB62     		str	r3, [r7, #44]
 867:Middlewares/Third_Party/FreeRTOS/Source/stream_buffer.c **** size_t xReceivedLength = 0, xBytesAvailable, xBytesToStoreMessageLength;
 1924              		.loc 1 867 8
 1925 0012 0023     		movs	r3, #0
 1926 0014 7B63     		str	r3, [r7, #52]
 868:Middlewares/Third_Party/FreeRTOS/Source/stream_buffer.c **** 
 869:Middlewares/Third_Party/FreeRTOS/Source/stream_buffer.c **** 	configASSERT( pvRxData );
 1927              		.loc 1 869 2
 1928 0016 BB68     		ldr	r3, [r7, #8]
 1929 0018 002B     		cmp	r3, #0
 1930 001a 0BD1     		bne	.L117
 1931              	.LBB150:
 1932              	.LBB151:
 195:Middlewares/Third_Party/FreeRTOS/Source/portable/GCC/ARM_CM4F/portmacro.h **** 	(
 1933              		.loc 2 195 2
 1934              		.syntax unified
 1935              	@ 195 "Middlewares/Third_Party/FreeRTOS/Source/portable/GCC/ARM_CM4F/portmacro.h" 1
 1936 001c 4FF05003 			mov r3, #80												
 1937 0020 83F31188 		msr basepri, r3											
 1938 0024 BFF36F8F 		isb														
 1939 0028 BFF34F8F 		dsb														
 1940              	
 1941              	@ 0 "" 2
 1942              		.thumb
 1943              		.syntax unified
 1944 002c 3B62     		str	r3, [r7, #32]
 203:Middlewares/Third_Party/FreeRTOS/Source/portable/GCC/ARM_CM4F/portmacro.h **** 
 1945              		.loc 2 203 1
 1946 002e 00BF     		nop
 1947              	.L118:
 1948              	.LBE151:
 1949              	.LBE150:
 1950              		.loc 1 869 2 discriminator 1
 1951 0030 00BF     		nop
 1952 0032 FDE7     		b	.L118
 1953              	.L117:
 870:Middlewares/Third_Party/FreeRTOS/Source/stream_buffer.c **** 	configASSERT( pxStreamBuffer );
 1954              		.loc 1 870 2
 1955 0034 FB6A     		ldr	r3, [r7, #44]
 1956 0036 002B     		cmp	r3, #0
 1957 0038 0BD1     		bne	.L119
 1958              	.LBB152:
 1959              	.LBB153:
 195:Middlewares/Third_Party/FreeRTOS/Source/portable/GCC/ARM_CM4F/portmacro.h **** 	(
 1960              		.loc 2 195 2
 1961              		.syntax unified
 1962              	@ 195 "Middlewares/Third_Party/FreeRTOS/Source/portable/GCC/ARM_CM4F/portmacro.h" 1
 1963 003a 4FF05003 			mov r3, #80												
 1964 003e 83F31188 		msr basepri, r3											
 1965 0042 BFF36F8F 		isb														
 1966 0046 BFF34F8F 		dsb														
 1967              	
 1968              	@ 0 "" 2
ARM GAS  /tmp/ccfUPzTZ.s 			page 55


 1969              		.thumb
 1970              		.syntax unified
 1971 004a FB61     		str	r3, [r7, #28]
 203:Middlewares/Third_Party/FreeRTOS/Source/portable/GCC/ARM_CM4F/portmacro.h **** 
 1972              		.loc 2 203 1
 1973 004c 00BF     		nop
 1974              	.L120:
 1975              	.LBE153:
 1976              	.LBE152:
 1977              		.loc 1 870 2 discriminator 2
 1978 004e 00BF     		nop
 1979 0050 FDE7     		b	.L120
 1980              	.L119:
 871:Middlewares/Third_Party/FreeRTOS/Source/stream_buffer.c **** 
 872:Middlewares/Third_Party/FreeRTOS/Source/stream_buffer.c **** 	/* This receive function is used by both message buffers, which store
 873:Middlewares/Third_Party/FreeRTOS/Source/stream_buffer.c **** 	discrete messages, and stream buffers, which store a continuous stream of
 874:Middlewares/Third_Party/FreeRTOS/Source/stream_buffer.c **** 	bytes.  Discrete messages include an additional
 875:Middlewares/Third_Party/FreeRTOS/Source/stream_buffer.c **** 	sbBYTES_TO_STORE_MESSAGE_LENGTH bytes that hold the length of the
 876:Middlewares/Third_Party/FreeRTOS/Source/stream_buffer.c **** 	message. */
 877:Middlewares/Third_Party/FreeRTOS/Source/stream_buffer.c **** 	if( ( pxStreamBuffer->ucFlags & sbFLAGS_IS_MESSAGE_BUFFER ) != ( uint8_t ) 0 )
 1981              		.loc 1 877 22
 1982 0052 FB6A     		ldr	r3, [r7, #44]
 1983 0054 1B7F     		ldrb	r3, [r3, #28]	@ zero_extendqisi2
 1984              		.loc 1 877 32
 1985 0056 03F00103 		and	r3, r3, #1
 1986              		.loc 1 877 4
 1987 005a 002B     		cmp	r3, #0
 1988 005c 02D0     		beq	.L121
 878:Middlewares/Third_Party/FreeRTOS/Source/stream_buffer.c **** 	{
 879:Middlewares/Third_Party/FreeRTOS/Source/stream_buffer.c **** 		xBytesToStoreMessageLength = sbBYTES_TO_STORE_MESSAGE_LENGTH;
 1989              		.loc 1 879 30
 1990 005e 0423     		movs	r3, #4
 1991 0060 3B63     		str	r3, [r7, #48]
 1992 0062 01E0     		b	.L122
 1993              	.L121:
 880:Middlewares/Third_Party/FreeRTOS/Source/stream_buffer.c **** 	}
 881:Middlewares/Third_Party/FreeRTOS/Source/stream_buffer.c **** 	else
 882:Middlewares/Third_Party/FreeRTOS/Source/stream_buffer.c **** 	{
 883:Middlewares/Third_Party/FreeRTOS/Source/stream_buffer.c **** 		xBytesToStoreMessageLength = 0;
 1994              		.loc 1 883 30
 1995 0064 0023     		movs	r3, #0
 1996 0066 3B63     		str	r3, [r7, #48]
 1997              	.L122:
 884:Middlewares/Third_Party/FreeRTOS/Source/stream_buffer.c **** 	}
 885:Middlewares/Third_Party/FreeRTOS/Source/stream_buffer.c **** 
 886:Middlewares/Third_Party/FreeRTOS/Source/stream_buffer.c **** 	xBytesAvailable = prvBytesInBuffer( pxStreamBuffer );
 1998              		.loc 1 886 20
 1999 0068 F86A     		ldr	r0, [r7, #44]
 2000 006a FFF7FEFF 		bl	prvBytesInBuffer
 2001 006e B862     		str	r0, [r7, #40]
 887:Middlewares/Third_Party/FreeRTOS/Source/stream_buffer.c **** 
 888:Middlewares/Third_Party/FreeRTOS/Source/stream_buffer.c **** 	/* Whether receiving a discrete message (where xBytesToStoreMessageLength
 889:Middlewares/Third_Party/FreeRTOS/Source/stream_buffer.c **** 	holds the number of bytes used to store the message length) or a stream of
 890:Middlewares/Third_Party/FreeRTOS/Source/stream_buffer.c **** 	bytes (where xBytesToStoreMessageLength is zero), the number of bytes
 891:Middlewares/Third_Party/FreeRTOS/Source/stream_buffer.c **** 	available must be greater than xBytesToStoreMessageLength to be able to
 892:Middlewares/Third_Party/FreeRTOS/Source/stream_buffer.c **** 	read bytes from the buffer. */
 893:Middlewares/Third_Party/FreeRTOS/Source/stream_buffer.c **** 	if( xBytesAvailable > xBytesToStoreMessageLength )
ARM GAS  /tmp/ccfUPzTZ.s 			page 56


 2002              		.loc 1 893 4
 2003 0070 BA6A     		ldr	r2, [r7, #40]
 2004 0072 3B6B     		ldr	r3, [r7, #48]
 2005 0074 9A42     		cmp	r2, r3
 2006 0076 2FD9     		bls	.L123
 894:Middlewares/Third_Party/FreeRTOS/Source/stream_buffer.c **** 	{
 895:Middlewares/Third_Party/FreeRTOS/Source/stream_buffer.c **** 		xReceivedLength = prvReadMessageFromBuffer( pxStreamBuffer, pvRxData, xBufferLengthBytes, xBytesA
 2007              		.loc 1 895 21
 2008 0078 3B6B     		ldr	r3, [r7, #48]
 2009 007a 0093     		str	r3, [sp]
 2010 007c BB6A     		ldr	r3, [r7, #40]
 2011 007e 7A68     		ldr	r2, [r7, #4]
 2012 0080 B968     		ldr	r1, [r7, #8]
 2013 0082 F86A     		ldr	r0, [r7, #44]
 2014 0084 FFF7FEFF 		bl	prvReadMessageFromBuffer
 2015 0088 7863     		str	r0, [r7, #52]
 896:Middlewares/Third_Party/FreeRTOS/Source/stream_buffer.c **** 
 897:Middlewares/Third_Party/FreeRTOS/Source/stream_buffer.c **** 		/* Was a task waiting for space in the buffer? */
 898:Middlewares/Third_Party/FreeRTOS/Source/stream_buffer.c **** 		if( xReceivedLength != ( size_t ) 0 )
 2016              		.loc 1 898 5
 2017 008a 7B6B     		ldr	r3, [r7, #52]
 2018 008c 002B     		cmp	r3, #0
 2019 008e 23D0     		beq	.L123
 2020              	.LBB154:
 2021              	.LBB155:
 2022              	.LBB156:
 211:Middlewares/Third_Party/FreeRTOS/Source/portable/GCC/ARM_CM4F/portmacro.h **** 	(
 2023              		.loc 2 211 2
 2024              		.syntax unified
 2025              	@ 211 "Middlewares/Third_Party/FreeRTOS/Source/portable/GCC/ARM_CM4F/portmacro.h" 1
 2026 0090 EFF31182 			mrs r2, basepri											
 2027 0094 4FF05003 		mov r3, #80												
 2028 0098 83F31188 		msr basepri, r3											
 2029 009c BFF36F8F 		isb														
 2030 00a0 BFF34F8F 		dsb														
 2031              	
 2032              	@ 0 "" 2
 2033              		.thumb
 2034              		.syntax unified
 2035 00a4 BA61     		str	r2, [r7, #24]
 2036 00a6 7B61     		str	r3, [r7, #20]
 223:Middlewares/Third_Party/FreeRTOS/Source/portable/GCC/ARM_CM4F/portmacro.h **** }
 2037              		.loc 2 223 9
 2038 00a8 BB69     		ldr	r3, [r7, #24]
 2039              	.LBE156:
 2040              	.LBE155:
 899:Middlewares/Third_Party/FreeRTOS/Source/stream_buffer.c **** 		{
 900:Middlewares/Third_Party/FreeRTOS/Source/stream_buffer.c **** 			sbRECEIVE_COMPLETED_FROM_ISR( pxStreamBuffer, pxHigherPriorityTaskWoken );
 2041              		.loc 1 900 4
 2042 00aa 7B62     		str	r3, [r7, #36]
 2043 00ac FB6A     		ldr	r3, [r7, #44]
 2044 00ae 5B69     		ldr	r3, [r3, #20]
 2045 00b0 002B     		cmp	r3, #0
 2046 00b2 0BD0     		beq	.L125
 2047              		.loc 1 900 4 is_stmt 0 discriminator 1
 2048 00b4 FB6A     		ldr	r3, [r7, #44]
 2049 00b6 5869     		ldr	r0, [r3, #20]
ARM GAS  /tmp/ccfUPzTZ.s 			page 57


 2050 00b8 3B68     		ldr	r3, [r7]
 2051 00ba 0093     		str	r3, [sp]
 2052 00bc 0023     		movs	r3, #0
 2053 00be 0022     		movs	r2, #0
 2054 00c0 0021     		movs	r1, #0
 2055 00c2 FFF7FEFF 		bl	xTaskGenericNotifyFromISR
 2056 00c6 FB6A     		ldr	r3, [r7, #44]
 2057 00c8 0022     		movs	r2, #0
 2058 00ca 5A61     		str	r2, [r3, #20]
 2059              	.L125:
 2060 00cc 7B6A     		ldr	r3, [r7, #36]
 2061 00ce 3B61     		str	r3, [r7, #16]
 2062              	.LBB157:
 2063              	.LBB158:
 229:Middlewares/Third_Party/FreeRTOS/Source/portable/GCC/ARM_CM4F/portmacro.h **** 	(
 2064              		.loc 2 229 2 is_stmt 1 discriminator 3
 2065 00d0 3B69     		ldr	r3, [r7, #16]
 2066              		.syntax unified
 2067              	@ 229 "Middlewares/Third_Party/FreeRTOS/Source/portable/GCC/ARM_CM4F/portmacro.h" 1
 2068 00d2 83F31188 			msr basepri, r3	
 2069              	@ 0 "" 2
 2070              		.loc 2 233 1 discriminator 3
 2071              		.thumb
 2072              		.syntax unified
 2073 00d6 00BF     		nop
 2074              	.L123:
 2075              	.LBE158:
 2076              	.LBE157:
 2077              	.LBE154:
 901:Middlewares/Third_Party/FreeRTOS/Source/stream_buffer.c **** 		}
 902:Middlewares/Third_Party/FreeRTOS/Source/stream_buffer.c **** 		else
 903:Middlewares/Third_Party/FreeRTOS/Source/stream_buffer.c **** 		{
 904:Middlewares/Third_Party/FreeRTOS/Source/stream_buffer.c **** 			mtCOVERAGE_TEST_MARKER();
 905:Middlewares/Third_Party/FreeRTOS/Source/stream_buffer.c **** 		}
 906:Middlewares/Third_Party/FreeRTOS/Source/stream_buffer.c **** 	}
 907:Middlewares/Third_Party/FreeRTOS/Source/stream_buffer.c **** 	else
 908:Middlewares/Third_Party/FreeRTOS/Source/stream_buffer.c **** 	{
 909:Middlewares/Third_Party/FreeRTOS/Source/stream_buffer.c **** 		mtCOVERAGE_TEST_MARKER();
 910:Middlewares/Third_Party/FreeRTOS/Source/stream_buffer.c **** 	}
 911:Middlewares/Third_Party/FreeRTOS/Source/stream_buffer.c **** 
 912:Middlewares/Third_Party/FreeRTOS/Source/stream_buffer.c **** 	traceSTREAM_BUFFER_RECEIVE_FROM_ISR( xStreamBuffer, xReceivedLength );
 913:Middlewares/Third_Party/FreeRTOS/Source/stream_buffer.c **** 
 914:Middlewares/Third_Party/FreeRTOS/Source/stream_buffer.c **** 	return xReceivedLength;
 2078              		.loc 1 914 9
 2079 00d8 7B6B     		ldr	r3, [r7, #52]
 915:Middlewares/Third_Party/FreeRTOS/Source/stream_buffer.c **** }
 2080              		.loc 1 915 1
 2081 00da 1846     		mov	r0, r3
 2082 00dc 3837     		adds	r7, r7, #56
 2083              	.LCFI65:
 2084              		.cfi_def_cfa_offset 8
 2085 00de BD46     		mov	sp, r7
 2086              	.LCFI66:
 2087              		.cfi_def_cfa_register 13
 2088              		@ sp needed
 2089 00e0 80BD     		pop	{r7, pc}
 2090              		.cfi_endproc
ARM GAS  /tmp/ccfUPzTZ.s 			page 58


 2091              	.LFE16:
 2093              		.section	.text.prvReadMessageFromBuffer,"ax",%progbits
 2094              		.align	1
 2095              		.syntax unified
 2096              		.thumb
 2097              		.thumb_func
 2099              	prvReadMessageFromBuffer:
 2100              	.LFB17:
 916:Middlewares/Third_Party/FreeRTOS/Source/stream_buffer.c **** /*-----------------------------------------------------------*/
 917:Middlewares/Third_Party/FreeRTOS/Source/stream_buffer.c **** 
 918:Middlewares/Third_Party/FreeRTOS/Source/stream_buffer.c **** static size_t prvReadMessageFromBuffer( StreamBuffer_t *pxStreamBuffer,
 919:Middlewares/Third_Party/FreeRTOS/Source/stream_buffer.c **** 										void *pvRxData,
 920:Middlewares/Third_Party/FreeRTOS/Source/stream_buffer.c **** 										size_t xBufferLengthBytes,
 921:Middlewares/Third_Party/FreeRTOS/Source/stream_buffer.c **** 										size_t xBytesAvailable,
 922:Middlewares/Third_Party/FreeRTOS/Source/stream_buffer.c **** 										size_t xBytesToStoreMessageLength )
 923:Middlewares/Third_Party/FreeRTOS/Source/stream_buffer.c **** {
 2101              		.loc 1 923 1
 2102              		.cfi_startproc
 2103              		@ args = 4, pretend = 0, frame = 32
 2104              		@ frame_needed = 1, uses_anonymous_args = 0
 2105 0000 80B5     		push	{r7, lr}
 2106              	.LCFI67:
 2107              		.cfi_def_cfa_offset 8
 2108              		.cfi_offset 7, -8
 2109              		.cfi_offset 14, -4
 2110 0002 88B0     		sub	sp, sp, #32
 2111              	.LCFI68:
 2112              		.cfi_def_cfa_offset 40
 2113 0004 00AF     		add	r7, sp, #0
 2114              	.LCFI69:
 2115              		.cfi_def_cfa_register 7
 2116 0006 F860     		str	r0, [r7, #12]
 2117 0008 B960     		str	r1, [r7, #8]
 2118 000a 7A60     		str	r2, [r7, #4]
 2119 000c 3B60     		str	r3, [r7]
 924:Middlewares/Third_Party/FreeRTOS/Source/stream_buffer.c **** size_t xOriginalTail, xReceivedLength, xNextMessageLength;
 925:Middlewares/Third_Party/FreeRTOS/Source/stream_buffer.c **** configMESSAGE_BUFFER_LENGTH_TYPE xTempNextMessageLength;
 926:Middlewares/Third_Party/FreeRTOS/Source/stream_buffer.c **** 
 927:Middlewares/Third_Party/FreeRTOS/Source/stream_buffer.c **** 	if( xBytesToStoreMessageLength != ( size_t ) 0 )
 2120              		.loc 1 927 4
 2121 000e BB6A     		ldr	r3, [r7, #40]
 2122 0010 002B     		cmp	r3, #0
 2123 0012 19D0     		beq	.L128
 928:Middlewares/Third_Party/FreeRTOS/Source/stream_buffer.c **** 	{
 929:Middlewares/Third_Party/FreeRTOS/Source/stream_buffer.c **** 		/* A discrete message is being received.  First receive the length
 930:Middlewares/Third_Party/FreeRTOS/Source/stream_buffer.c **** 		of the message.  A copy of the tail is stored so the buffer can be
 931:Middlewares/Third_Party/FreeRTOS/Source/stream_buffer.c **** 		returned to its prior state if the length of the message is too
 932:Middlewares/Third_Party/FreeRTOS/Source/stream_buffer.c **** 		large for the provided buffer. */
 933:Middlewares/Third_Party/FreeRTOS/Source/stream_buffer.c **** 		xOriginalTail = pxStreamBuffer->xTail;
 2124              		.loc 1 933 17
 2125 0014 FB68     		ldr	r3, [r7, #12]
 2126 0016 1B68     		ldr	r3, [r3]
 2127 0018 BB61     		str	r3, [r7, #24]
 934:Middlewares/Third_Party/FreeRTOS/Source/stream_buffer.c **** 		( void ) prvReadBytesFromBuffer( pxStreamBuffer, ( uint8_t * ) &xTempNextMessageLength, xBytesToS
 2128              		.loc 1 934 12
 2129 001a 07F11001 		add	r1, r7, #16
 2130 001e 3B68     		ldr	r3, [r7]
ARM GAS  /tmp/ccfUPzTZ.s 			page 59


 2131 0020 BA6A     		ldr	r2, [r7, #40]
 2132 0022 F868     		ldr	r0, [r7, #12]
 2133 0024 FFF7FEFF 		bl	prvReadBytesFromBuffer
 935:Middlewares/Third_Party/FreeRTOS/Source/stream_buffer.c **** 		xNextMessageLength = ( size_t ) xTempNextMessageLength;
 2134              		.loc 1 935 22
 2135 0028 3B69     		ldr	r3, [r7, #16]
 2136 002a FB61     		str	r3, [r7, #28]
 936:Middlewares/Third_Party/FreeRTOS/Source/stream_buffer.c **** 
 937:Middlewares/Third_Party/FreeRTOS/Source/stream_buffer.c **** 		/* Reduce the number of bytes available by the number of bytes just
 938:Middlewares/Third_Party/FreeRTOS/Source/stream_buffer.c **** 		read out. */
 939:Middlewares/Third_Party/FreeRTOS/Source/stream_buffer.c **** 		xBytesAvailable -= xBytesToStoreMessageLength;
 2137              		.loc 1 939 19
 2138 002c 3A68     		ldr	r2, [r7]
 2139 002e BB6A     		ldr	r3, [r7, #40]
 2140 0030 D31A     		subs	r3, r2, r3
 2141 0032 3B60     		str	r3, [r7]
 940:Middlewares/Third_Party/FreeRTOS/Source/stream_buffer.c **** 
 941:Middlewares/Third_Party/FreeRTOS/Source/stream_buffer.c **** 		/* Check there is enough space in the buffer provided by the
 942:Middlewares/Third_Party/FreeRTOS/Source/stream_buffer.c **** 		user. */
 943:Middlewares/Third_Party/FreeRTOS/Source/stream_buffer.c **** 		if( xNextMessageLength > xBufferLengthBytes )
 2142              		.loc 1 943 5
 2143 0034 FA69     		ldr	r2, [r7, #28]
 2144 0036 7B68     		ldr	r3, [r7, #4]
 2145 0038 9A42     		cmp	r2, r3
 2146 003a 07D9     		bls	.L129
 944:Middlewares/Third_Party/FreeRTOS/Source/stream_buffer.c **** 		{
 945:Middlewares/Third_Party/FreeRTOS/Source/stream_buffer.c **** 			/* The user has provided insufficient space to read the message
 946:Middlewares/Third_Party/FreeRTOS/Source/stream_buffer.c **** 			so return the buffer to its previous state (so the length of
 947:Middlewares/Third_Party/FreeRTOS/Source/stream_buffer.c **** 			the message is in the buffer again). */
 948:Middlewares/Third_Party/FreeRTOS/Source/stream_buffer.c **** 			pxStreamBuffer->xTail = xOriginalTail;
 2147              		.loc 1 948 26
 2148 003c FB68     		ldr	r3, [r7, #12]
 2149 003e BA69     		ldr	r2, [r7, #24]
 2150 0040 1A60     		str	r2, [r3]
 949:Middlewares/Third_Party/FreeRTOS/Source/stream_buffer.c **** 			xNextMessageLength = 0;
 2151              		.loc 1 949 23
 2152 0042 0023     		movs	r3, #0
 2153 0044 FB61     		str	r3, [r7, #28]
 2154 0046 01E0     		b	.L129
 2155              	.L128:
 950:Middlewares/Third_Party/FreeRTOS/Source/stream_buffer.c **** 		}
 951:Middlewares/Third_Party/FreeRTOS/Source/stream_buffer.c **** 		else
 952:Middlewares/Third_Party/FreeRTOS/Source/stream_buffer.c **** 		{
 953:Middlewares/Third_Party/FreeRTOS/Source/stream_buffer.c **** 			mtCOVERAGE_TEST_MARKER();
 954:Middlewares/Third_Party/FreeRTOS/Source/stream_buffer.c **** 		}
 955:Middlewares/Third_Party/FreeRTOS/Source/stream_buffer.c **** 	}
 956:Middlewares/Third_Party/FreeRTOS/Source/stream_buffer.c **** 	else
 957:Middlewares/Third_Party/FreeRTOS/Source/stream_buffer.c **** 	{
 958:Middlewares/Third_Party/FreeRTOS/Source/stream_buffer.c **** 		/* A stream of bytes is being received (as opposed to a discrete
 959:Middlewares/Third_Party/FreeRTOS/Source/stream_buffer.c **** 		message), so read as many bytes as possible. */
 960:Middlewares/Third_Party/FreeRTOS/Source/stream_buffer.c **** 		xNextMessageLength = xBufferLengthBytes;
 2156              		.loc 1 960 22
 2157 0048 7B68     		ldr	r3, [r7, #4]
 2158 004a FB61     		str	r3, [r7, #28]
 2159              	.L129:
 961:Middlewares/Third_Party/FreeRTOS/Source/stream_buffer.c **** 	}
 962:Middlewares/Third_Party/FreeRTOS/Source/stream_buffer.c **** 
ARM GAS  /tmp/ccfUPzTZ.s 			page 60


 963:Middlewares/Third_Party/FreeRTOS/Source/stream_buffer.c **** 	/* Read the actual data. */
 964:Middlewares/Third_Party/FreeRTOS/Source/stream_buffer.c **** 	xReceivedLength = prvReadBytesFromBuffer( pxStreamBuffer, ( uint8_t * ) pvRxData, xNextMessageLeng
 2160              		.loc 1 964 20
 2161 004c 3B68     		ldr	r3, [r7]
 2162 004e FA69     		ldr	r2, [r7, #28]
 2163 0050 B968     		ldr	r1, [r7, #8]
 2164 0052 F868     		ldr	r0, [r7, #12]
 2165 0054 FFF7FEFF 		bl	prvReadBytesFromBuffer
 2166 0058 7861     		str	r0, [r7, #20]
 965:Middlewares/Third_Party/FreeRTOS/Source/stream_buffer.c **** 
 966:Middlewares/Third_Party/FreeRTOS/Source/stream_buffer.c **** 	return xReceivedLength;
 2167              		.loc 1 966 9
 2168 005a 7B69     		ldr	r3, [r7, #20]
 967:Middlewares/Third_Party/FreeRTOS/Source/stream_buffer.c **** }
 2169              		.loc 1 967 1
 2170 005c 1846     		mov	r0, r3
 2171 005e 2037     		adds	r7, r7, #32
 2172              	.LCFI70:
 2173              		.cfi_def_cfa_offset 8
 2174 0060 BD46     		mov	sp, r7
 2175              	.LCFI71:
 2176              		.cfi_def_cfa_register 13
 2177              		@ sp needed
 2178 0062 80BD     		pop	{r7, pc}
 2179              		.cfi_endproc
 2180              	.LFE17:
 2182              		.section	.text.xStreamBufferIsEmpty,"ax",%progbits
 2183              		.align	1
 2184              		.global	xStreamBufferIsEmpty
 2185              		.syntax unified
 2186              		.thumb
 2187              		.thumb_func
 2189              	xStreamBufferIsEmpty:
 2190              	.LFB18:
 968:Middlewares/Third_Party/FreeRTOS/Source/stream_buffer.c **** /*-----------------------------------------------------------*/
 969:Middlewares/Third_Party/FreeRTOS/Source/stream_buffer.c **** 
 970:Middlewares/Third_Party/FreeRTOS/Source/stream_buffer.c **** BaseType_t xStreamBufferIsEmpty( StreamBufferHandle_t xStreamBuffer )
 971:Middlewares/Third_Party/FreeRTOS/Source/stream_buffer.c **** {
 2191              		.loc 1 971 1
 2192              		.cfi_startproc
 2193              		@ args = 0, pretend = 0, frame = 24
 2194              		@ frame_needed = 1, uses_anonymous_args = 0
 2195              		@ link register save eliminated.
 2196 0000 80B4     		push	{r7}
 2197              	.LCFI72:
 2198              		.cfi_def_cfa_offset 4
 2199              		.cfi_offset 7, -4
 2200 0002 87B0     		sub	sp, sp, #28
 2201              	.LCFI73:
 2202              		.cfi_def_cfa_offset 32
 2203 0004 00AF     		add	r7, sp, #0
 2204              	.LCFI74:
 2205              		.cfi_def_cfa_register 7
 2206 0006 7860     		str	r0, [r7, #4]
 972:Middlewares/Third_Party/FreeRTOS/Source/stream_buffer.c **** const StreamBuffer_t * const pxStreamBuffer = xStreamBuffer;
 2207              		.loc 1 972 30
 2208 0008 7B68     		ldr	r3, [r7, #4]
ARM GAS  /tmp/ccfUPzTZ.s 			page 61


 2209 000a 3B61     		str	r3, [r7, #16]
 973:Middlewares/Third_Party/FreeRTOS/Source/stream_buffer.c **** BaseType_t xReturn;
 974:Middlewares/Third_Party/FreeRTOS/Source/stream_buffer.c **** size_t xTail;
 975:Middlewares/Third_Party/FreeRTOS/Source/stream_buffer.c **** 
 976:Middlewares/Third_Party/FreeRTOS/Source/stream_buffer.c **** 	configASSERT( pxStreamBuffer );
 2210              		.loc 1 976 2
 2211 000c 3B69     		ldr	r3, [r7, #16]
 2212 000e 002B     		cmp	r3, #0
 2213 0010 0BD1     		bne	.L132
 2214              	.LBB159:
 2215              	.LBB160:
 195:Middlewares/Third_Party/FreeRTOS/Source/portable/GCC/ARM_CM4F/portmacro.h **** 	(
 2216              		.loc 2 195 2
 2217              		.syntax unified
 2218              	@ 195 "Middlewares/Third_Party/FreeRTOS/Source/portable/GCC/ARM_CM4F/portmacro.h" 1
 2219 0012 4FF05003 			mov r3, #80												
 2220 0016 83F31188 		msr basepri, r3											
 2221 001a BFF36F8F 		isb														
 2222 001e BFF34F8F 		dsb														
 2223              	
 2224              	@ 0 "" 2
 2225              		.thumb
 2226              		.syntax unified
 2227 0022 BB60     		str	r3, [r7, #8]
 203:Middlewares/Third_Party/FreeRTOS/Source/portable/GCC/ARM_CM4F/portmacro.h **** 
 2228              		.loc 2 203 1
 2229 0024 00BF     		nop
 2230              	.L133:
 2231              	.LBE160:
 2232              	.LBE159:
 2233              		.loc 1 976 2 discriminator 1
 2234 0026 00BF     		nop
 2235 0028 FDE7     		b	.L133
 2236              	.L132:
 977:Middlewares/Third_Party/FreeRTOS/Source/stream_buffer.c **** 
 978:Middlewares/Third_Party/FreeRTOS/Source/stream_buffer.c **** 	/* True if no bytes are available. */
 979:Middlewares/Third_Party/FreeRTOS/Source/stream_buffer.c **** 	xTail = pxStreamBuffer->xTail;
 2237              		.loc 1 979 8
 2238 002a 3B69     		ldr	r3, [r7, #16]
 2239 002c 1B68     		ldr	r3, [r3]
 2240 002e FB60     		str	r3, [r7, #12]
 980:Middlewares/Third_Party/FreeRTOS/Source/stream_buffer.c **** 	if( pxStreamBuffer->xHead == xTail )
 2241              		.loc 1 980 20
 2242 0030 3B69     		ldr	r3, [r7, #16]
 2243 0032 5B68     		ldr	r3, [r3, #4]
 2244              		.loc 1 980 4
 2245 0034 FA68     		ldr	r2, [r7, #12]
 2246 0036 9A42     		cmp	r2, r3
 2247 0038 02D1     		bne	.L134
 981:Middlewares/Third_Party/FreeRTOS/Source/stream_buffer.c **** 	{
 982:Middlewares/Third_Party/FreeRTOS/Source/stream_buffer.c **** 		xReturn = pdTRUE;
 2248              		.loc 1 982 11
 2249 003a 0123     		movs	r3, #1
 2250 003c 7B61     		str	r3, [r7, #20]
 2251 003e 01E0     		b	.L135
 2252              	.L134:
 983:Middlewares/Third_Party/FreeRTOS/Source/stream_buffer.c **** 	}
ARM GAS  /tmp/ccfUPzTZ.s 			page 62


 984:Middlewares/Third_Party/FreeRTOS/Source/stream_buffer.c **** 	else
 985:Middlewares/Third_Party/FreeRTOS/Source/stream_buffer.c **** 	{
 986:Middlewares/Third_Party/FreeRTOS/Source/stream_buffer.c **** 		xReturn = pdFALSE;
 2253              		.loc 1 986 11
 2254 0040 0023     		movs	r3, #0
 2255 0042 7B61     		str	r3, [r7, #20]
 2256              	.L135:
 987:Middlewares/Third_Party/FreeRTOS/Source/stream_buffer.c **** 	}
 988:Middlewares/Third_Party/FreeRTOS/Source/stream_buffer.c **** 
 989:Middlewares/Third_Party/FreeRTOS/Source/stream_buffer.c **** 	return xReturn;
 2257              		.loc 1 989 9
 2258 0044 7B69     		ldr	r3, [r7, #20]
 990:Middlewares/Third_Party/FreeRTOS/Source/stream_buffer.c **** }
 2259              		.loc 1 990 1
 2260 0046 1846     		mov	r0, r3
 2261 0048 1C37     		adds	r7, r7, #28
 2262              	.LCFI75:
 2263              		.cfi_def_cfa_offset 4
 2264 004a BD46     		mov	sp, r7
 2265              	.LCFI76:
 2266              		.cfi_def_cfa_register 13
 2267              		@ sp needed
 2268 004c 5DF8047B 		ldr	r7, [sp], #4
 2269              	.LCFI77:
 2270              		.cfi_restore 7
 2271              		.cfi_def_cfa_offset 0
 2272 0050 7047     		bx	lr
 2273              		.cfi_endproc
 2274              	.LFE18:
 2276              		.section	.text.xStreamBufferIsFull,"ax",%progbits
 2277              		.align	1
 2278              		.global	xStreamBufferIsFull
 2279              		.syntax unified
 2280              		.thumb
 2281              		.thumb_func
 2283              	xStreamBufferIsFull:
 2284              	.LFB19:
 991:Middlewares/Third_Party/FreeRTOS/Source/stream_buffer.c **** /*-----------------------------------------------------------*/
 992:Middlewares/Third_Party/FreeRTOS/Source/stream_buffer.c **** 
 993:Middlewares/Third_Party/FreeRTOS/Source/stream_buffer.c **** BaseType_t xStreamBufferIsFull( StreamBufferHandle_t xStreamBuffer )
 994:Middlewares/Third_Party/FreeRTOS/Source/stream_buffer.c **** {
 2285              		.loc 1 994 1
 2286              		.cfi_startproc
 2287              		@ args = 0, pretend = 0, frame = 24
 2288              		@ frame_needed = 1, uses_anonymous_args = 0
 2289 0000 80B5     		push	{r7, lr}
 2290              	.LCFI78:
 2291              		.cfi_def_cfa_offset 8
 2292              		.cfi_offset 7, -8
 2293              		.cfi_offset 14, -4
 2294 0002 86B0     		sub	sp, sp, #24
 2295              	.LCFI79:
 2296              		.cfi_def_cfa_offset 32
 2297 0004 00AF     		add	r7, sp, #0
 2298              	.LCFI80:
 2299              		.cfi_def_cfa_register 7
 2300 0006 7860     		str	r0, [r7, #4]
ARM GAS  /tmp/ccfUPzTZ.s 			page 63


 995:Middlewares/Third_Party/FreeRTOS/Source/stream_buffer.c **** BaseType_t xReturn;
 996:Middlewares/Third_Party/FreeRTOS/Source/stream_buffer.c **** size_t xBytesToStoreMessageLength;
 997:Middlewares/Third_Party/FreeRTOS/Source/stream_buffer.c **** const StreamBuffer_t * const pxStreamBuffer = xStreamBuffer;
 2301              		.loc 1 997 30
 2302 0008 7B68     		ldr	r3, [r7, #4]
 2303 000a FB60     		str	r3, [r7, #12]
 998:Middlewares/Third_Party/FreeRTOS/Source/stream_buffer.c **** 
 999:Middlewares/Third_Party/FreeRTOS/Source/stream_buffer.c **** 	configASSERT( pxStreamBuffer );
 2304              		.loc 1 999 2
 2305 000c FB68     		ldr	r3, [r7, #12]
 2306 000e 002B     		cmp	r3, #0
 2307 0010 0BD1     		bne	.L138
 2308              	.LBB161:
 2309              	.LBB162:
 195:Middlewares/Third_Party/FreeRTOS/Source/portable/GCC/ARM_CM4F/portmacro.h **** 	(
 2310              		.loc 2 195 2
 2311              		.syntax unified
 2312              	@ 195 "Middlewares/Third_Party/FreeRTOS/Source/portable/GCC/ARM_CM4F/portmacro.h" 1
 2313 0012 4FF05003 			mov r3, #80												
 2314 0016 83F31188 		msr basepri, r3											
 2315 001a BFF36F8F 		isb														
 2316 001e BFF34F8F 		dsb														
 2317              	
 2318              	@ 0 "" 2
 2319              		.thumb
 2320              		.syntax unified
 2321 0022 BB60     		str	r3, [r7, #8]
 203:Middlewares/Third_Party/FreeRTOS/Source/portable/GCC/ARM_CM4F/portmacro.h **** 
 2322              		.loc 2 203 1
 2323 0024 00BF     		nop
 2324              	.L139:
 2325              	.LBE162:
 2326              	.LBE161:
 2327              		.loc 1 999 2 discriminator 1
 2328 0026 00BF     		nop
 2329 0028 FDE7     		b	.L139
 2330              	.L138:
1000:Middlewares/Third_Party/FreeRTOS/Source/stream_buffer.c **** 
1001:Middlewares/Third_Party/FreeRTOS/Source/stream_buffer.c **** 	/* This generic version of the receive function is used by both message
1002:Middlewares/Third_Party/FreeRTOS/Source/stream_buffer.c **** 	buffers, which store discrete messages, and stream buffers, which store a
1003:Middlewares/Third_Party/FreeRTOS/Source/stream_buffer.c **** 	continuous stream of bytes.  Discrete messages include an additional
1004:Middlewares/Third_Party/FreeRTOS/Source/stream_buffer.c **** 	sbBYTES_TO_STORE_MESSAGE_LENGTH bytes that hold the length of the message. */
1005:Middlewares/Third_Party/FreeRTOS/Source/stream_buffer.c **** 	if( ( pxStreamBuffer->ucFlags & sbFLAGS_IS_MESSAGE_BUFFER ) != ( uint8_t ) 0 )
 2331              		.loc 1 1005 22
 2332 002a FB68     		ldr	r3, [r7, #12]
 2333 002c 1B7F     		ldrb	r3, [r3, #28]	@ zero_extendqisi2
 2334              		.loc 1 1005 32
 2335 002e 03F00103 		and	r3, r3, #1
 2336              		.loc 1 1005 4
 2337 0032 002B     		cmp	r3, #0
 2338 0034 02D0     		beq	.L140
1006:Middlewares/Third_Party/FreeRTOS/Source/stream_buffer.c **** 	{
1007:Middlewares/Third_Party/FreeRTOS/Source/stream_buffer.c **** 		xBytesToStoreMessageLength = sbBYTES_TO_STORE_MESSAGE_LENGTH;
 2339              		.loc 1 1007 30
 2340 0036 0423     		movs	r3, #4
 2341 0038 3B61     		str	r3, [r7, #16]
 2342 003a 01E0     		b	.L141
ARM GAS  /tmp/ccfUPzTZ.s 			page 64


 2343              	.L140:
1008:Middlewares/Third_Party/FreeRTOS/Source/stream_buffer.c **** 	}
1009:Middlewares/Third_Party/FreeRTOS/Source/stream_buffer.c **** 	else
1010:Middlewares/Third_Party/FreeRTOS/Source/stream_buffer.c **** 	{
1011:Middlewares/Third_Party/FreeRTOS/Source/stream_buffer.c **** 		xBytesToStoreMessageLength = 0;
 2344              		.loc 1 1011 30
 2345 003c 0023     		movs	r3, #0
 2346 003e 3B61     		str	r3, [r7, #16]
 2347              	.L141:
1012:Middlewares/Third_Party/FreeRTOS/Source/stream_buffer.c **** 	}
1013:Middlewares/Third_Party/FreeRTOS/Source/stream_buffer.c **** 
1014:Middlewares/Third_Party/FreeRTOS/Source/stream_buffer.c **** 	/* True if the available space equals zero. */
1015:Middlewares/Third_Party/FreeRTOS/Source/stream_buffer.c **** 	if( xStreamBufferSpacesAvailable( xStreamBuffer ) <= xBytesToStoreMessageLength )
 2348              		.loc 1 1015 6
 2349 0040 7868     		ldr	r0, [r7, #4]
 2350 0042 FFF7FEFF 		bl	xStreamBufferSpacesAvailable
 2351 0046 0246     		mov	r2, r0
 2352              		.loc 1 1015 4
 2353 0048 3B69     		ldr	r3, [r7, #16]
 2354 004a 9342     		cmp	r3, r2
 2355 004c 02D3     		bcc	.L142
1016:Middlewares/Third_Party/FreeRTOS/Source/stream_buffer.c **** 	{
1017:Middlewares/Third_Party/FreeRTOS/Source/stream_buffer.c **** 		xReturn = pdTRUE;
 2356              		.loc 1 1017 11
 2357 004e 0123     		movs	r3, #1
 2358 0050 7B61     		str	r3, [r7, #20]
 2359 0052 01E0     		b	.L143
 2360              	.L142:
1018:Middlewares/Third_Party/FreeRTOS/Source/stream_buffer.c **** 	}
1019:Middlewares/Third_Party/FreeRTOS/Source/stream_buffer.c **** 	else
1020:Middlewares/Third_Party/FreeRTOS/Source/stream_buffer.c **** 	{
1021:Middlewares/Third_Party/FreeRTOS/Source/stream_buffer.c **** 		xReturn = pdFALSE;
 2361              		.loc 1 1021 11
 2362 0054 0023     		movs	r3, #0
 2363 0056 7B61     		str	r3, [r7, #20]
 2364              	.L143:
1022:Middlewares/Third_Party/FreeRTOS/Source/stream_buffer.c **** 	}
1023:Middlewares/Third_Party/FreeRTOS/Source/stream_buffer.c **** 
1024:Middlewares/Third_Party/FreeRTOS/Source/stream_buffer.c **** 	return xReturn;
 2365              		.loc 1 1024 9
 2366 0058 7B69     		ldr	r3, [r7, #20]
1025:Middlewares/Third_Party/FreeRTOS/Source/stream_buffer.c **** }
 2367              		.loc 1 1025 1
 2368 005a 1846     		mov	r0, r3
 2369 005c 1837     		adds	r7, r7, #24
 2370              	.LCFI81:
 2371              		.cfi_def_cfa_offset 8
 2372 005e BD46     		mov	sp, r7
 2373              	.LCFI82:
 2374              		.cfi_def_cfa_register 13
 2375              		@ sp needed
 2376 0060 80BD     		pop	{r7, pc}
 2377              		.cfi_endproc
 2378              	.LFE19:
 2380              		.section	.text.xStreamBufferSendCompletedFromISR,"ax",%progbits
 2381              		.align	1
 2382              		.global	xStreamBufferSendCompletedFromISR
ARM GAS  /tmp/ccfUPzTZ.s 			page 65


 2383              		.syntax unified
 2384              		.thumb
 2385              		.thumb_func
 2387              	xStreamBufferSendCompletedFromISR:
 2388              	.LFB20:
1026:Middlewares/Third_Party/FreeRTOS/Source/stream_buffer.c **** /*-----------------------------------------------------------*/
1027:Middlewares/Third_Party/FreeRTOS/Source/stream_buffer.c **** 
1028:Middlewares/Third_Party/FreeRTOS/Source/stream_buffer.c **** BaseType_t xStreamBufferSendCompletedFromISR( StreamBufferHandle_t xStreamBuffer, BaseType_t *pxHig
1029:Middlewares/Third_Party/FreeRTOS/Source/stream_buffer.c **** {
 2389              		.loc 1 1029 1
 2390              		.cfi_startproc
 2391              		@ args = 0, pretend = 0, frame = 40
 2392              		@ frame_needed = 1, uses_anonymous_args = 0
 2393 0000 80B5     		push	{r7, lr}
 2394              	.LCFI83:
 2395              		.cfi_def_cfa_offset 8
 2396              		.cfi_offset 7, -8
 2397              		.cfi_offset 14, -4
 2398 0002 8CB0     		sub	sp, sp, #48
 2399              	.LCFI84:
 2400              		.cfi_def_cfa_offset 56
 2401 0004 02AF     		add	r7, sp, #8
 2402              	.LCFI85:
 2403              		.cfi_def_cfa 7, 48
 2404 0006 7860     		str	r0, [r7, #4]
 2405 0008 3960     		str	r1, [r7]
1030:Middlewares/Third_Party/FreeRTOS/Source/stream_buffer.c **** StreamBuffer_t * const pxStreamBuffer = xStreamBuffer;
 2406              		.loc 1 1030 24
 2407 000a 7B68     		ldr	r3, [r7, #4]
 2408 000c 3B62     		str	r3, [r7, #32]
1031:Middlewares/Third_Party/FreeRTOS/Source/stream_buffer.c **** BaseType_t xReturn;
1032:Middlewares/Third_Party/FreeRTOS/Source/stream_buffer.c **** UBaseType_t uxSavedInterruptStatus;
1033:Middlewares/Third_Party/FreeRTOS/Source/stream_buffer.c **** 
1034:Middlewares/Third_Party/FreeRTOS/Source/stream_buffer.c **** 	configASSERT( pxStreamBuffer );
 2409              		.loc 1 1034 2
 2410 000e 3B6A     		ldr	r3, [r7, #32]
 2411 0010 002B     		cmp	r3, #0
 2412 0012 0BD1     		bne	.L146
 2413              	.LBB163:
 2414              	.LBB164:
 195:Middlewares/Third_Party/FreeRTOS/Source/portable/GCC/ARM_CM4F/portmacro.h **** 	(
 2415              		.loc 2 195 2
 2416              		.syntax unified
 2417              	@ 195 "Middlewares/Third_Party/FreeRTOS/Source/portable/GCC/ARM_CM4F/portmacro.h" 1
 2418 0014 4FF05003 			mov r3, #80												
 2419 0018 83F31188 		msr basepri, r3											
 2420 001c BFF36F8F 		isb														
 2421 0020 BFF34F8F 		dsb														
 2422              	
 2423              	@ 0 "" 2
 2424              		.thumb
 2425              		.syntax unified
 2426 0024 BB61     		str	r3, [r7, #24]
 203:Middlewares/Third_Party/FreeRTOS/Source/portable/GCC/ARM_CM4F/portmacro.h **** 
 2427              		.loc 2 203 1
 2428 0026 00BF     		nop
 2429              	.L147:
ARM GAS  /tmp/ccfUPzTZ.s 			page 66


 2430              	.LBE164:
 2431              	.LBE163:
 2432              		.loc 1 1034 2 discriminator 1
 2433 0028 00BF     		nop
 2434 002a FDE7     		b	.L147
 2435              	.L146:
 2436              	.LBB165:
 2437              	.LBB166:
 211:Middlewares/Third_Party/FreeRTOS/Source/portable/GCC/ARM_CM4F/portmacro.h **** 	(
 2438              		.loc 2 211 2
 2439              		.syntax unified
 2440              	@ 211 "Middlewares/Third_Party/FreeRTOS/Source/portable/GCC/ARM_CM4F/portmacro.h" 1
 2441 002c EFF31182 			mrs r2, basepri											
 2442 0030 4FF05003 		mov r3, #80												
 2443 0034 83F31188 		msr basepri, r3											
 2444 0038 BFF36F8F 		isb														
 2445 003c BFF34F8F 		dsb														
 2446              	
 2447              	@ 0 "" 2
 2448              		.thumb
 2449              		.syntax unified
 2450 0040 7A61     		str	r2, [r7, #20]
 2451 0042 3B61     		str	r3, [r7, #16]
 223:Middlewares/Third_Party/FreeRTOS/Source/portable/GCC/ARM_CM4F/portmacro.h **** }
 2452              		.loc 2 223 9
 2453 0044 7B69     		ldr	r3, [r7, #20]
 2454              	.LBE166:
 2455              	.LBE165:
1035:Middlewares/Third_Party/FreeRTOS/Source/stream_buffer.c **** 
1036:Middlewares/Third_Party/FreeRTOS/Source/stream_buffer.c **** 	uxSavedInterruptStatus = ( UBaseType_t ) portSET_INTERRUPT_MASK_FROM_ISR();
 2456              		.loc 1 1036 43
 2457 0046 FB61     		str	r3, [r7, #28]
1037:Middlewares/Third_Party/FreeRTOS/Source/stream_buffer.c **** 	{
1038:Middlewares/Third_Party/FreeRTOS/Source/stream_buffer.c **** 		if( ( pxStreamBuffer )->xTaskWaitingToReceive != NULL )
 2458              		.loc 1 1038 25
 2459 0048 3B6A     		ldr	r3, [r7, #32]
 2460 004a 1B69     		ldr	r3, [r3, #16]
 2461              		.loc 1 1038 5
 2462 004c 002B     		cmp	r3, #0
 2463 004e 0ED0     		beq	.L149
1039:Middlewares/Third_Party/FreeRTOS/Source/stream_buffer.c **** 		{
1040:Middlewares/Third_Party/FreeRTOS/Source/stream_buffer.c **** 			( void ) xTaskNotifyFromISR( ( pxStreamBuffer )->xTaskWaitingToReceive,
 2464              		.loc 1 1040 13
 2465 0050 3B6A     		ldr	r3, [r7, #32]
 2466 0052 1869     		ldr	r0, [r3, #16]
 2467 0054 3B68     		ldr	r3, [r7]
 2468 0056 0093     		str	r3, [sp]
 2469 0058 0023     		movs	r3, #0
 2470 005a 0022     		movs	r2, #0
 2471 005c 0021     		movs	r1, #0
 2472 005e FFF7FEFF 		bl	xTaskGenericNotifyFromISR
1041:Middlewares/Third_Party/FreeRTOS/Source/stream_buffer.c **** 										 ( uint32_t ) 0,
1042:Middlewares/Third_Party/FreeRTOS/Source/stream_buffer.c **** 										 eNoAction,
1043:Middlewares/Third_Party/FreeRTOS/Source/stream_buffer.c **** 										 pxHigherPriorityTaskWoken );
1044:Middlewares/Third_Party/FreeRTOS/Source/stream_buffer.c **** 			( pxStreamBuffer )->xTaskWaitingToReceive = NULL;
 2473              		.loc 1 1044 46
 2474 0062 3B6A     		ldr	r3, [r7, #32]
ARM GAS  /tmp/ccfUPzTZ.s 			page 67


 2475 0064 0022     		movs	r2, #0
 2476 0066 1A61     		str	r2, [r3, #16]
1045:Middlewares/Third_Party/FreeRTOS/Source/stream_buffer.c **** 			xReturn = pdTRUE;
 2477              		.loc 1 1045 12
 2478 0068 0123     		movs	r3, #1
 2479 006a 7B62     		str	r3, [r7, #36]
 2480 006c 01E0     		b	.L150
 2481              	.L149:
1046:Middlewares/Third_Party/FreeRTOS/Source/stream_buffer.c **** 		}
1047:Middlewares/Third_Party/FreeRTOS/Source/stream_buffer.c **** 		else
1048:Middlewares/Third_Party/FreeRTOS/Source/stream_buffer.c **** 		{
1049:Middlewares/Third_Party/FreeRTOS/Source/stream_buffer.c **** 			xReturn = pdFALSE;
 2482              		.loc 1 1049 12
 2483 006e 0023     		movs	r3, #0
 2484 0070 7B62     		str	r3, [r7, #36]
 2485              	.L150:
 2486 0072 FB69     		ldr	r3, [r7, #28]
 2487 0074 FB60     		str	r3, [r7, #12]
 2488              	.LBB167:
 2489              	.LBB168:
 229:Middlewares/Third_Party/FreeRTOS/Source/portable/GCC/ARM_CM4F/portmacro.h **** 	(
 2490              		.loc 2 229 2
 2491 0076 FB68     		ldr	r3, [r7, #12]
 2492              		.syntax unified
 2493              	@ 229 "Middlewares/Third_Party/FreeRTOS/Source/portable/GCC/ARM_CM4F/portmacro.h" 1
 2494 0078 83F31188 			msr basepri, r3	
 2495              	@ 0 "" 2
 2496              		.loc 2 233 1
 2497              		.thumb
 2498              		.syntax unified
 2499 007c 00BF     		nop
 2500              	.LBE168:
 2501              	.LBE167:
1050:Middlewares/Third_Party/FreeRTOS/Source/stream_buffer.c **** 		}
1051:Middlewares/Third_Party/FreeRTOS/Source/stream_buffer.c **** 	}
1052:Middlewares/Third_Party/FreeRTOS/Source/stream_buffer.c **** 	portCLEAR_INTERRUPT_MASK_FROM_ISR( uxSavedInterruptStatus );
1053:Middlewares/Third_Party/FreeRTOS/Source/stream_buffer.c **** 
1054:Middlewares/Third_Party/FreeRTOS/Source/stream_buffer.c **** 	return xReturn;
 2502              		.loc 1 1054 9
 2503 007e 7B6A     		ldr	r3, [r7, #36]
1055:Middlewares/Third_Party/FreeRTOS/Source/stream_buffer.c **** }
 2504              		.loc 1 1055 1
 2505 0080 1846     		mov	r0, r3
 2506 0082 2837     		adds	r7, r7, #40
 2507              	.LCFI86:
 2508              		.cfi_def_cfa_offset 8
 2509 0084 BD46     		mov	sp, r7
 2510              	.LCFI87:
 2511              		.cfi_def_cfa_register 13
 2512              		@ sp needed
 2513 0086 80BD     		pop	{r7, pc}
 2514              		.cfi_endproc
 2515              	.LFE20:
 2517              		.section	.text.xStreamBufferReceiveCompletedFromISR,"ax",%progbits
 2518              		.align	1
 2519              		.global	xStreamBufferReceiveCompletedFromISR
 2520              		.syntax unified
ARM GAS  /tmp/ccfUPzTZ.s 			page 68


 2521              		.thumb
 2522              		.thumb_func
 2524              	xStreamBufferReceiveCompletedFromISR:
 2525              	.LFB21:
1056:Middlewares/Third_Party/FreeRTOS/Source/stream_buffer.c **** /*-----------------------------------------------------------*/
1057:Middlewares/Third_Party/FreeRTOS/Source/stream_buffer.c **** 
1058:Middlewares/Third_Party/FreeRTOS/Source/stream_buffer.c **** BaseType_t xStreamBufferReceiveCompletedFromISR( StreamBufferHandle_t xStreamBuffer, BaseType_t *px
1059:Middlewares/Third_Party/FreeRTOS/Source/stream_buffer.c **** {
 2526              		.loc 1 1059 1
 2527              		.cfi_startproc
 2528              		@ args = 0, pretend = 0, frame = 40
 2529              		@ frame_needed = 1, uses_anonymous_args = 0
 2530 0000 80B5     		push	{r7, lr}
 2531              	.LCFI88:
 2532              		.cfi_def_cfa_offset 8
 2533              		.cfi_offset 7, -8
 2534              		.cfi_offset 14, -4
 2535 0002 8CB0     		sub	sp, sp, #48
 2536              	.LCFI89:
 2537              		.cfi_def_cfa_offset 56
 2538 0004 02AF     		add	r7, sp, #8
 2539              	.LCFI90:
 2540              		.cfi_def_cfa 7, 48
 2541 0006 7860     		str	r0, [r7, #4]
 2542 0008 3960     		str	r1, [r7]
1060:Middlewares/Third_Party/FreeRTOS/Source/stream_buffer.c **** StreamBuffer_t * const pxStreamBuffer = xStreamBuffer;
 2543              		.loc 1 1060 24
 2544 000a 7B68     		ldr	r3, [r7, #4]
 2545 000c 3B62     		str	r3, [r7, #32]
1061:Middlewares/Third_Party/FreeRTOS/Source/stream_buffer.c **** BaseType_t xReturn;
1062:Middlewares/Third_Party/FreeRTOS/Source/stream_buffer.c **** UBaseType_t uxSavedInterruptStatus;
1063:Middlewares/Third_Party/FreeRTOS/Source/stream_buffer.c **** 
1064:Middlewares/Third_Party/FreeRTOS/Source/stream_buffer.c **** 	configASSERT( pxStreamBuffer );
 2546              		.loc 1 1064 2
 2547 000e 3B6A     		ldr	r3, [r7, #32]
 2548 0010 002B     		cmp	r3, #0
 2549 0012 0BD1     		bne	.L153
 2550              	.LBB169:
 2551              	.LBB170:
 195:Middlewares/Third_Party/FreeRTOS/Source/portable/GCC/ARM_CM4F/portmacro.h **** 	(
 2552              		.loc 2 195 2
 2553              		.syntax unified
 2554              	@ 195 "Middlewares/Third_Party/FreeRTOS/Source/portable/GCC/ARM_CM4F/portmacro.h" 1
 2555 0014 4FF05003 			mov r3, #80												
 2556 0018 83F31188 		msr basepri, r3											
 2557 001c BFF36F8F 		isb														
 2558 0020 BFF34F8F 		dsb														
 2559              	
 2560              	@ 0 "" 2
 2561              		.thumb
 2562              		.syntax unified
 2563 0024 BB61     		str	r3, [r7, #24]
 203:Middlewares/Third_Party/FreeRTOS/Source/portable/GCC/ARM_CM4F/portmacro.h **** 
 2564              		.loc 2 203 1
 2565 0026 00BF     		nop
 2566              	.L154:
 2567              	.LBE170:
ARM GAS  /tmp/ccfUPzTZ.s 			page 69


 2568              	.LBE169:
 2569              		.loc 1 1064 2 discriminator 1
 2570 0028 00BF     		nop
 2571 002a FDE7     		b	.L154
 2572              	.L153:
 2573              	.LBB171:
 2574              	.LBB172:
 211:Middlewares/Third_Party/FreeRTOS/Source/portable/GCC/ARM_CM4F/portmacro.h **** 	(
 2575              		.loc 2 211 2
 2576              		.syntax unified
 2577              	@ 211 "Middlewares/Third_Party/FreeRTOS/Source/portable/GCC/ARM_CM4F/portmacro.h" 1
 2578 002c EFF31182 			mrs r2, basepri											
 2579 0030 4FF05003 		mov r3, #80												
 2580 0034 83F31188 		msr basepri, r3											
 2581 0038 BFF36F8F 		isb														
 2582 003c BFF34F8F 		dsb														
 2583              	
 2584              	@ 0 "" 2
 2585              		.thumb
 2586              		.syntax unified
 2587 0040 7A61     		str	r2, [r7, #20]
 2588 0042 3B61     		str	r3, [r7, #16]
 223:Middlewares/Third_Party/FreeRTOS/Source/portable/GCC/ARM_CM4F/portmacro.h **** }
 2589              		.loc 2 223 9
 2590 0044 7B69     		ldr	r3, [r7, #20]
 2591              	.LBE172:
 2592              	.LBE171:
1065:Middlewares/Third_Party/FreeRTOS/Source/stream_buffer.c **** 
1066:Middlewares/Third_Party/FreeRTOS/Source/stream_buffer.c **** 	uxSavedInterruptStatus = ( UBaseType_t ) portSET_INTERRUPT_MASK_FROM_ISR();
 2593              		.loc 1 1066 43
 2594 0046 FB61     		str	r3, [r7, #28]
1067:Middlewares/Third_Party/FreeRTOS/Source/stream_buffer.c **** 	{
1068:Middlewares/Third_Party/FreeRTOS/Source/stream_buffer.c **** 		if( ( pxStreamBuffer )->xTaskWaitingToSend != NULL )
 2595              		.loc 1 1068 25
 2596 0048 3B6A     		ldr	r3, [r7, #32]
 2597 004a 5B69     		ldr	r3, [r3, #20]
 2598              		.loc 1 1068 5
 2599 004c 002B     		cmp	r3, #0
 2600 004e 0ED0     		beq	.L156
1069:Middlewares/Third_Party/FreeRTOS/Source/stream_buffer.c **** 		{
1070:Middlewares/Third_Party/FreeRTOS/Source/stream_buffer.c **** 			( void ) xTaskNotifyFromISR( ( pxStreamBuffer )->xTaskWaitingToSend,
 2601              		.loc 1 1070 13
 2602 0050 3B6A     		ldr	r3, [r7, #32]
 2603 0052 5869     		ldr	r0, [r3, #20]
 2604 0054 3B68     		ldr	r3, [r7]
 2605 0056 0093     		str	r3, [sp]
 2606 0058 0023     		movs	r3, #0
 2607 005a 0022     		movs	r2, #0
 2608 005c 0021     		movs	r1, #0
 2609 005e FFF7FEFF 		bl	xTaskGenericNotifyFromISR
1071:Middlewares/Third_Party/FreeRTOS/Source/stream_buffer.c **** 										 ( uint32_t ) 0,
1072:Middlewares/Third_Party/FreeRTOS/Source/stream_buffer.c **** 										 eNoAction,
1073:Middlewares/Third_Party/FreeRTOS/Source/stream_buffer.c **** 										 pxHigherPriorityTaskWoken );
1074:Middlewares/Third_Party/FreeRTOS/Source/stream_buffer.c **** 			( pxStreamBuffer )->xTaskWaitingToSend = NULL;
 2610              		.loc 1 1074 43
 2611 0062 3B6A     		ldr	r3, [r7, #32]
 2612 0064 0022     		movs	r2, #0
ARM GAS  /tmp/ccfUPzTZ.s 			page 70


 2613 0066 5A61     		str	r2, [r3, #20]
1075:Middlewares/Third_Party/FreeRTOS/Source/stream_buffer.c **** 			xReturn = pdTRUE;
 2614              		.loc 1 1075 12
 2615 0068 0123     		movs	r3, #1
 2616 006a 7B62     		str	r3, [r7, #36]
 2617 006c 01E0     		b	.L157
 2618              	.L156:
1076:Middlewares/Third_Party/FreeRTOS/Source/stream_buffer.c **** 		}
1077:Middlewares/Third_Party/FreeRTOS/Source/stream_buffer.c **** 		else
1078:Middlewares/Third_Party/FreeRTOS/Source/stream_buffer.c **** 		{
1079:Middlewares/Third_Party/FreeRTOS/Source/stream_buffer.c **** 			xReturn = pdFALSE;
 2619              		.loc 1 1079 12
 2620 006e 0023     		movs	r3, #0
 2621 0070 7B62     		str	r3, [r7, #36]
 2622              	.L157:
 2623 0072 FB69     		ldr	r3, [r7, #28]
 2624 0074 FB60     		str	r3, [r7, #12]
 2625              	.LBB173:
 2626              	.LBB174:
 229:Middlewares/Third_Party/FreeRTOS/Source/portable/GCC/ARM_CM4F/portmacro.h **** 	(
 2627              		.loc 2 229 2
 2628 0076 FB68     		ldr	r3, [r7, #12]
 2629              		.syntax unified
 2630              	@ 229 "Middlewares/Third_Party/FreeRTOS/Source/portable/GCC/ARM_CM4F/portmacro.h" 1
 2631 0078 83F31188 			msr basepri, r3	
 2632              	@ 0 "" 2
 2633              		.loc 2 233 1
 2634              		.thumb
 2635              		.syntax unified
 2636 007c 00BF     		nop
 2637              	.LBE174:
 2638              	.LBE173:
1080:Middlewares/Third_Party/FreeRTOS/Source/stream_buffer.c **** 		}
1081:Middlewares/Third_Party/FreeRTOS/Source/stream_buffer.c **** 	}
1082:Middlewares/Third_Party/FreeRTOS/Source/stream_buffer.c **** 	portCLEAR_INTERRUPT_MASK_FROM_ISR( uxSavedInterruptStatus );
1083:Middlewares/Third_Party/FreeRTOS/Source/stream_buffer.c **** 
1084:Middlewares/Third_Party/FreeRTOS/Source/stream_buffer.c **** 	return xReturn;
 2639              		.loc 1 1084 9
 2640 007e 7B6A     		ldr	r3, [r7, #36]
1085:Middlewares/Third_Party/FreeRTOS/Source/stream_buffer.c **** }
 2641              		.loc 1 1085 1
 2642 0080 1846     		mov	r0, r3
 2643 0082 2837     		adds	r7, r7, #40
 2644              	.LCFI91:
 2645              		.cfi_def_cfa_offset 8
 2646 0084 BD46     		mov	sp, r7
 2647              	.LCFI92:
 2648              		.cfi_def_cfa_register 13
 2649              		@ sp needed
 2650 0086 80BD     		pop	{r7, pc}
 2651              		.cfi_endproc
 2652              	.LFE21:
 2654              		.section	.text.prvWriteBytesToBuffer,"ax",%progbits
 2655              		.align	1
 2656              		.syntax unified
 2657              		.thumb
 2658              		.thumb_func
ARM GAS  /tmp/ccfUPzTZ.s 			page 71


 2660              	prvWriteBytesToBuffer:
 2661              	.LFB22:
1086:Middlewares/Third_Party/FreeRTOS/Source/stream_buffer.c **** /*-----------------------------------------------------------*/
1087:Middlewares/Third_Party/FreeRTOS/Source/stream_buffer.c **** 
1088:Middlewares/Third_Party/FreeRTOS/Source/stream_buffer.c **** static size_t prvWriteBytesToBuffer( StreamBuffer_t * const pxStreamBuffer, const uint8_t *pucData,
1089:Middlewares/Third_Party/FreeRTOS/Source/stream_buffer.c **** {
 2662              		.loc 1 1089 1
 2663              		.cfi_startproc
 2664              		@ args = 0, pretend = 0, frame = 40
 2665              		@ frame_needed = 1, uses_anonymous_args = 0
 2666 0000 80B5     		push	{r7, lr}
 2667              	.LCFI93:
 2668              		.cfi_def_cfa_offset 8
 2669              		.cfi_offset 7, -8
 2670              		.cfi_offset 14, -4
 2671 0002 8AB0     		sub	sp, sp, #40
 2672              	.LCFI94:
 2673              		.cfi_def_cfa_offset 48
 2674 0004 00AF     		add	r7, sp, #0
 2675              	.LCFI95:
 2676              		.cfi_def_cfa_register 7
 2677 0006 F860     		str	r0, [r7, #12]
 2678 0008 B960     		str	r1, [r7, #8]
 2679 000a 7A60     		str	r2, [r7, #4]
1090:Middlewares/Third_Party/FreeRTOS/Source/stream_buffer.c **** size_t xNextHead, xFirstLength;
1091:Middlewares/Third_Party/FreeRTOS/Source/stream_buffer.c **** 
1092:Middlewares/Third_Party/FreeRTOS/Source/stream_buffer.c **** 	configASSERT( xCount > ( size_t ) 0 );
 2680              		.loc 1 1092 2
 2681 000c 7B68     		ldr	r3, [r7, #4]
 2682 000e 002B     		cmp	r3, #0
 2683 0010 0BD1     		bne	.L160
 2684              	.LBB175:
 2685              	.LBB176:
 195:Middlewares/Third_Party/FreeRTOS/Source/portable/GCC/ARM_CM4F/portmacro.h **** 	(
 2686              		.loc 2 195 2
 2687              		.syntax unified
 2688              	@ 195 "Middlewares/Third_Party/FreeRTOS/Source/portable/GCC/ARM_CM4F/portmacro.h" 1
 2689 0012 4FF05003 			mov r3, #80												
 2690 0016 83F31188 		msr basepri, r3											
 2691 001a BFF36F8F 		isb														
 2692 001e BFF34F8F 		dsb														
 2693              	
 2694              	@ 0 "" 2
 2695              		.thumb
 2696              		.syntax unified
 2697 0022 FB61     		str	r3, [r7, #28]
 203:Middlewares/Third_Party/FreeRTOS/Source/portable/GCC/ARM_CM4F/portmacro.h **** 
 2698              		.loc 2 203 1
 2699 0024 00BF     		nop
 2700              	.L161:
 2701              	.LBE176:
 2702              	.LBE175:
 2703              		.loc 1 1092 2 discriminator 1
 2704 0026 00BF     		nop
 2705 0028 FDE7     		b	.L161
 2706              	.L160:
1093:Middlewares/Third_Party/FreeRTOS/Source/stream_buffer.c **** 
ARM GAS  /tmp/ccfUPzTZ.s 			page 72


1094:Middlewares/Third_Party/FreeRTOS/Source/stream_buffer.c **** 	xNextHead = pxStreamBuffer->xHead;
 2707              		.loc 1 1094 12
 2708 002a FB68     		ldr	r3, [r7, #12]
 2709 002c 5B68     		ldr	r3, [r3, #4]
 2710 002e 7B62     		str	r3, [r7, #36]
1095:Middlewares/Third_Party/FreeRTOS/Source/stream_buffer.c **** 
1096:Middlewares/Third_Party/FreeRTOS/Source/stream_buffer.c **** 	/* Calculate the number of bytes that can be added in the first write -
1097:Middlewares/Third_Party/FreeRTOS/Source/stream_buffer.c **** 	which may be less than the total number of bytes that need to be added if
1098:Middlewares/Third_Party/FreeRTOS/Source/stream_buffer.c **** 	the buffer will wrap back to the beginning. */
1099:Middlewares/Third_Party/FreeRTOS/Source/stream_buffer.c **** 	xFirstLength = configMIN( pxStreamBuffer->xLength - xNextHead, xCount );
 2711              		.loc 1 1099 17
 2712 0030 FB68     		ldr	r3, [r7, #12]
 2713 0032 9A68     		ldr	r2, [r3, #8]
 2714 0034 7B6A     		ldr	r3, [r7, #36]
 2715 0036 D31A     		subs	r3, r2, r3
 2716              		.loc 1 1099 15
 2717 0038 7A68     		ldr	r2, [r7, #4]
 2718 003a 9342     		cmp	r3, r2
 2719 003c 28BF     		it	cs
 2720 003e 1346     		movcs	r3, r2
 2721 0040 3B62     		str	r3, [r7, #32]
1100:Middlewares/Third_Party/FreeRTOS/Source/stream_buffer.c **** 
1101:Middlewares/Third_Party/FreeRTOS/Source/stream_buffer.c **** 	/* Write as many bytes as can be written in the first write. */
1102:Middlewares/Third_Party/FreeRTOS/Source/stream_buffer.c **** 	configASSERT( ( xNextHead + xFirstLength ) <= pxStreamBuffer->xLength );
 2722              		.loc 1 1102 2
 2723 0042 7A6A     		ldr	r2, [r7, #36]
 2724 0044 3B6A     		ldr	r3, [r7, #32]
 2725 0046 1A44     		add	r2, r2, r3
 2726 0048 FB68     		ldr	r3, [r7, #12]
 2727 004a 9B68     		ldr	r3, [r3, #8]
 2728 004c 9A42     		cmp	r2, r3
 2729 004e 0BD9     		bls	.L162
 2730              	.LBB177:
 2731              	.LBB178:
 195:Middlewares/Third_Party/FreeRTOS/Source/portable/GCC/ARM_CM4F/portmacro.h **** 	(
 2732              		.loc 2 195 2
 2733              		.syntax unified
 2734              	@ 195 "Middlewares/Third_Party/FreeRTOS/Source/portable/GCC/ARM_CM4F/portmacro.h" 1
 2735 0050 4FF05003 			mov r3, #80												
 2736 0054 83F31188 		msr basepri, r3											
 2737 0058 BFF36F8F 		isb														
 2738 005c BFF34F8F 		dsb														
 2739              	
 2740              	@ 0 "" 2
 2741              		.thumb
 2742              		.syntax unified
 2743 0060 BB61     		str	r3, [r7, #24]
 203:Middlewares/Third_Party/FreeRTOS/Source/portable/GCC/ARM_CM4F/portmacro.h **** 
 2744              		.loc 2 203 1
 2745 0062 00BF     		nop
 2746              	.L163:
 2747              	.LBE178:
 2748              	.LBE177:
 2749              		.loc 1 1102 2 discriminator 2
 2750 0064 00BF     		nop
 2751 0066 FDE7     		b	.L163
 2752              	.L162:
ARM GAS  /tmp/ccfUPzTZ.s 			page 73


1103:Middlewares/Third_Party/FreeRTOS/Source/stream_buffer.c **** 	( void ) memcpy( ( void* ) ( &( pxStreamBuffer->pucBuffer[ xNextHead ] ) ), ( const void * ) pucDa
 2753              		.loc 1 1103 48
 2754 0068 FB68     		ldr	r3, [r7, #12]
 2755 006a 9A69     		ldr	r2, [r3, #24]
 2756              		.loc 1 1103 31
 2757 006c 7B6A     		ldr	r3, [r7, #36]
 2758 006e 1344     		add	r3, r3, r2
 2759              		.loc 1 1103 11
 2760 0070 3A6A     		ldr	r2, [r7, #32]
 2761 0072 B968     		ldr	r1, [r7, #8]
 2762 0074 1846     		mov	r0, r3
 2763 0076 FFF7FEFF 		bl	memcpy
1104:Middlewares/Third_Party/FreeRTOS/Source/stream_buffer.c **** 
1105:Middlewares/Third_Party/FreeRTOS/Source/stream_buffer.c **** 	/* If the number of bytes written was less than the number that could be
1106:Middlewares/Third_Party/FreeRTOS/Source/stream_buffer.c **** 	written in the first write... */
1107:Middlewares/Third_Party/FreeRTOS/Source/stream_buffer.c **** 	if( xCount > xFirstLength )
 2764              		.loc 1 1107 4
 2765 007a 7A68     		ldr	r2, [r7, #4]
 2766 007c 3B6A     		ldr	r3, [r7, #32]
 2767 007e 9A42     		cmp	r2, r3
 2768 0080 1DD9     		bls	.L164
1108:Middlewares/Third_Party/FreeRTOS/Source/stream_buffer.c **** 	{
1109:Middlewares/Third_Party/FreeRTOS/Source/stream_buffer.c **** 		/* ...then write the remaining bytes to the start of the buffer. */
1110:Middlewares/Third_Party/FreeRTOS/Source/stream_buffer.c **** 		configASSERT( ( xCount - xFirstLength ) <= pxStreamBuffer->xLength );
 2769              		.loc 1 1110 3
 2770 0082 7A68     		ldr	r2, [r7, #4]
 2771 0084 3B6A     		ldr	r3, [r7, #32]
 2772 0086 D21A     		subs	r2, r2, r3
 2773 0088 FB68     		ldr	r3, [r7, #12]
 2774 008a 9B68     		ldr	r3, [r3, #8]
 2775 008c 9A42     		cmp	r2, r3
 2776 008e 0BD9     		bls	.L165
 2777              	.LBB179:
 2778              	.LBB180:
 195:Middlewares/Third_Party/FreeRTOS/Source/portable/GCC/ARM_CM4F/portmacro.h **** 	(
 2779              		.loc 2 195 2
 2780              		.syntax unified
 2781              	@ 195 "Middlewares/Third_Party/FreeRTOS/Source/portable/GCC/ARM_CM4F/portmacro.h" 1
 2782 0090 4FF05003 			mov r3, #80												
 2783 0094 83F31188 		msr basepri, r3											
 2784 0098 BFF36F8F 		isb														
 2785 009c BFF34F8F 		dsb														
 2786              	
 2787              	@ 0 "" 2
 2788              		.thumb
 2789              		.syntax unified
 2790 00a0 7B61     		str	r3, [r7, #20]
 203:Middlewares/Third_Party/FreeRTOS/Source/portable/GCC/ARM_CM4F/portmacro.h **** 
 2791              		.loc 2 203 1
 2792 00a2 00BF     		nop
 2793              	.L166:
 2794              	.LBE180:
 2795              	.LBE179:
 2796              		.loc 1 1110 3 discriminator 3
 2797 00a4 00BF     		nop
 2798 00a6 FDE7     		b	.L166
 2799              	.L165:
ARM GAS  /tmp/ccfUPzTZ.s 			page 74


1111:Middlewares/Third_Party/FreeRTOS/Source/stream_buffer.c **** 		( void ) memcpy( ( void * ) pxStreamBuffer->pucBuffer, ( const void * ) &( pucData[ xFirstLength 
 2800              		.loc 1 1111 45
 2801 00a8 FB68     		ldr	r3, [r7, #12]
 2802 00aa 9869     		ldr	r0, [r3, #24]
 2803              		.loc 1 1111 75
 2804 00ac BA68     		ldr	r2, [r7, #8]
 2805 00ae 3B6A     		ldr	r3, [r7, #32]
 2806 00b0 D118     		adds	r1, r2, r3
 2807              		.loc 1 1111 12
 2808 00b2 7A68     		ldr	r2, [r7, #4]
 2809 00b4 3B6A     		ldr	r3, [r7, #32]
 2810 00b6 D31A     		subs	r3, r2, r3
 2811 00b8 1A46     		mov	r2, r3
 2812 00ba FFF7FEFF 		bl	memcpy
 2813              	.L164:
1112:Middlewares/Third_Party/FreeRTOS/Source/stream_buffer.c **** 	}
1113:Middlewares/Third_Party/FreeRTOS/Source/stream_buffer.c **** 	else
1114:Middlewares/Third_Party/FreeRTOS/Source/stream_buffer.c **** 	{
1115:Middlewares/Third_Party/FreeRTOS/Source/stream_buffer.c **** 		mtCOVERAGE_TEST_MARKER();
1116:Middlewares/Third_Party/FreeRTOS/Source/stream_buffer.c **** 	}
1117:Middlewares/Third_Party/FreeRTOS/Source/stream_buffer.c **** 
1118:Middlewares/Third_Party/FreeRTOS/Source/stream_buffer.c **** 	xNextHead += xCount;
 2814              		.loc 1 1118 12
 2815 00be 7A6A     		ldr	r2, [r7, #36]
 2816 00c0 7B68     		ldr	r3, [r7, #4]
 2817 00c2 1344     		add	r3, r3, r2
 2818 00c4 7B62     		str	r3, [r7, #36]
1119:Middlewares/Third_Party/FreeRTOS/Source/stream_buffer.c **** 	if( xNextHead >= pxStreamBuffer->xLength )
 2819              		.loc 1 1119 33
 2820 00c6 FB68     		ldr	r3, [r7, #12]
 2821 00c8 9B68     		ldr	r3, [r3, #8]
 2822              		.loc 1 1119 4
 2823 00ca 7A6A     		ldr	r2, [r7, #36]
 2824 00cc 9A42     		cmp	r2, r3
 2825 00ce 04D3     		bcc	.L167
1120:Middlewares/Third_Party/FreeRTOS/Source/stream_buffer.c **** 	{
1121:Middlewares/Third_Party/FreeRTOS/Source/stream_buffer.c **** 		xNextHead -= pxStreamBuffer->xLength;
 2826              		.loc 1 1121 30
 2827 00d0 FB68     		ldr	r3, [r7, #12]
 2828 00d2 9B68     		ldr	r3, [r3, #8]
 2829              		.loc 1 1121 13
 2830 00d4 7A6A     		ldr	r2, [r7, #36]
 2831 00d6 D31A     		subs	r3, r2, r3
 2832 00d8 7B62     		str	r3, [r7, #36]
 2833              	.L167:
1122:Middlewares/Third_Party/FreeRTOS/Source/stream_buffer.c **** 	}
1123:Middlewares/Third_Party/FreeRTOS/Source/stream_buffer.c **** 	else
1124:Middlewares/Third_Party/FreeRTOS/Source/stream_buffer.c **** 	{
1125:Middlewares/Third_Party/FreeRTOS/Source/stream_buffer.c **** 		mtCOVERAGE_TEST_MARKER();
1126:Middlewares/Third_Party/FreeRTOS/Source/stream_buffer.c **** 	}
1127:Middlewares/Third_Party/FreeRTOS/Source/stream_buffer.c **** 
1128:Middlewares/Third_Party/FreeRTOS/Source/stream_buffer.c **** 	pxStreamBuffer->xHead = xNextHead;
 2834              		.loc 1 1128 24
 2835 00da FB68     		ldr	r3, [r7, #12]
 2836 00dc 7A6A     		ldr	r2, [r7, #36]
 2837 00de 5A60     		str	r2, [r3, #4]
1129:Middlewares/Third_Party/FreeRTOS/Source/stream_buffer.c **** 
ARM GAS  /tmp/ccfUPzTZ.s 			page 75


1130:Middlewares/Third_Party/FreeRTOS/Source/stream_buffer.c **** 	return xCount;
 2838              		.loc 1 1130 9
 2839 00e0 7B68     		ldr	r3, [r7, #4]
1131:Middlewares/Third_Party/FreeRTOS/Source/stream_buffer.c **** }
 2840              		.loc 1 1131 1
 2841 00e2 1846     		mov	r0, r3
 2842 00e4 2837     		adds	r7, r7, #40
 2843              	.LCFI96:
 2844              		.cfi_def_cfa_offset 8
 2845 00e6 BD46     		mov	sp, r7
 2846              	.LCFI97:
 2847              		.cfi_def_cfa_register 13
 2848              		@ sp needed
 2849 00e8 80BD     		pop	{r7, pc}
 2850              		.cfi_endproc
 2851              	.LFE22:
